
perf.elf:     file format elf32-littleriscv


Disassembly of section .text:

00000000 <_start>:
       0:	00002297          	auipc	t0,0x2
       4:	8a028293          	addi	t0,t0,-1888 # 18a0 <trap_handler>
       8:	30529073          	csrw	mtvec,t0
       c:	00021297          	auipc	t0,0x21
      10:	3bc28293          	addi	t0,t0,956 # 213c8 <unsolicited_cycles>
      14:	00022317          	auipc	t1,0x22
      18:	7ec30313          	addi	t1,t1,2028 # 22800 <_bss_end>

0000001c <_bss_clear>:
      1c:	0002a023          	sw	zero,0(t0)
      20:	00428293          	addi	t0,t0,4
      24:	fe62ece3          	bltu	t0,t1,1c <_bss_clear>
      28:	00040117          	auipc	sp,0x40
      2c:	fd810113          	addi	sp,sp,-40 # 40000 <_stack>
      30:	031010ef          	jal	ra,1860 <main>
      34:	0e10106f          	j	1914 <exit>

00000038 <sem_get>:
      38:	fe010113          	addi	sp,sp,-32
      3c:	00812c23          	sw	s0,24(sp)
      40:	00912a23          	sw	s1,20(sp)
      44:	01212823          	sw	s2,16(sp)
      48:	01312623          	sw	s3,12(sp)
      4c:	01412423          	sw	s4,8(sp)
      50:	01512223          	sw	s5,4(sp)
      54:	00112e23          	sw	ra,28(sp)
      58:	00050a93          	mv	s5,a0
      5c:	00052023          	sw	zero,0(a0)
      60:	01400413          	li	s0,20
      64:	00021a17          	auipc	s4,0x21
      68:	378a0a13          	addi	s4,s4,888 # 213dc <xSemaphore>
      6c:	00021497          	auipc	s1,0x21
      70:	37c48493          	addi	s1,s1,892 # 213e8 <test_start>
      74:	00021997          	auipc	s3,0x21
      78:	37098993          	addi	s3,s3,880 # 213e4 <test_total>
      7c:	00021917          	auipc	s2,0x21
      80:	36490913          	addi	s2,s2,868 # 213e0 <test_max>
      84:	000a2503          	lw	a0,0(s4)
      88:	fff00593          	li	a1,-1
      8c:	298040ef          	jal	ra,4324 <xQueueSemaphoreTake>
      90:	c00027f3          	rdcycle	a5
      94:	0004a703          	lw	a4,0(s1)
      98:	fff40413          	addi	s0,s0,-1
      9c:	02070463          	beqz	a4,c4 <sem_get+0x8c>
      a0:	0004a603          	lw	a2,0(s1)
      a4:	0009a703          	lw	a4,0(s3)
      a8:	00092683          	lw	a3,0(s2)
      ac:	40c787b3          	sub	a5,a5,a2
      b0:	00f70733          	add	a4,a4,a5
      b4:	00e9a023          	sw	a4,0(s3)
      b8:	00f6f463          	bgeu	a3,a5,c0 <sem_get+0x88>
      bc:	00078693          	mv	a3,a5
      c0:	00d92023          	sw	a3,0(s2)
      c4:	fc0410e3          	bnez	s0,84 <sem_get+0x4c>
      c8:	01812403          	lw	s0,24(sp)
      cc:	00100793          	li	a5,1
      d0:	01c12083          	lw	ra,28(sp)
      d4:	01412483          	lw	s1,20(sp)
      d8:	01012903          	lw	s2,16(sp)
      dc:	00c12983          	lw	s3,12(sp)
      e0:	00812a03          	lw	s4,8(sp)
      e4:	00faa023          	sw	a5,0(s5)
      e8:	00412a83          	lw	s5,4(sp)
      ec:	00000513          	li	a0,0
      f0:	02010113          	addi	sp,sp,32
      f4:	29c0606f          	j	6390 <vTaskDelete>

000000f8 <unsolicited_background>:
      f8:	00021717          	auipc	a4,0x21
      fc:	2d470713          	addi	a4,a4,724 # 213cc <unsolicited_done>
     100:	00072783          	lw	a5,0(a4)
     104:	00079e63          	bnez	a5,120 <unsolicited_background+0x28>
     108:	00021697          	auipc	a3,0x21
     10c:	2c068693          	addi	a3,a3,704 # 213c8 <unsolicited_cycles>
     110:	c00027f3          	rdcycle	a5
     114:	00f6a023          	sw	a5,0(a3)
     118:	00072783          	lw	a5,0(a4)
     11c:	fe078ae3          	beqz	a5,110 <unsolicited_background+0x18>
     120:	00000513          	li	a0,0
     124:	26c0606f          	j	6390 <vTaskDelete>

00000128 <mutex_get>:
     128:	ff010113          	addi	sp,sp,-16
     12c:	00812423          	sw	s0,8(sp)
     130:	00912223          	sw	s1,4(sp)
     134:	01212023          	sw	s2,0(sp)
     138:	00112623          	sw	ra,12(sp)
     13c:	00050913          	mv	s2,a0
     140:	00052023          	sw	zero,0(a0)
     144:	01400413          	li	s0,20
     148:	00021497          	auipc	s1,0x21
     14c:	29048493          	addi	s1,s1,656 # 213d8 <xMutex>
     150:	0004a503          	lw	a0,0(s1)
     154:	fff00593          	li	a1,-1
     158:	fff40413          	addi	s0,s0,-1
     15c:	1c8040ef          	jal	ra,4324 <xQueueSemaphoreTake>
     160:	0004a503          	lw	a0,0(s1)
     164:	00000693          	li	a3,0
     168:	00000613          	li	a2,0
     16c:	00000593          	li	a1,0
     170:	341030ef          	jal	ra,3cb0 <xQueueGenericSend>
     174:	fc041ee3          	bnez	s0,150 <mutex_get+0x28>
     178:	00812403          	lw	s0,8(sp)
     17c:	00100793          	li	a5,1
     180:	00c12083          	lw	ra,12(sp)
     184:	00412483          	lw	s1,4(sp)
     188:	00f92023          	sw	a5,0(s2)
     18c:	00012903          	lw	s2,0(sp)
     190:	00000513          	li	a0,0
     194:	01010113          	addi	sp,sp,16
     198:	1f80606f          	j	6390 <vTaskDelete>

0000019c <mutex_get2>:
     19c:	fe010113          	addi	sp,sp,-32
     1a0:	00812c23          	sw	s0,24(sp)
     1a4:	00912a23          	sw	s1,20(sp)
     1a8:	01212823          	sw	s2,16(sp)
     1ac:	01312623          	sw	s3,12(sp)
     1b0:	01412423          	sw	s4,8(sp)
     1b4:	01512223          	sw	s5,4(sp)
     1b8:	01612023          	sw	s6,0(sp)
     1bc:	00112e23          	sw	ra,28(sp)
     1c0:	00050b13          	mv	s6,a0
     1c4:	00052023          	sw	zero,0(a0)
     1c8:	01400413          	li	s0,20
     1cc:	00021a97          	auipc	s5,0x21
     1d0:	210a8a93          	addi	s5,s5,528 # 213dc <xSemaphore>
     1d4:	00021997          	auipc	s3,0x21
     1d8:	20498993          	addi	s3,s3,516 # 213d8 <xMutex>
     1dc:	00021a17          	auipc	s4,0x21
     1e0:	20ca0a13          	addi	s4,s4,524 # 213e8 <test_start>
     1e4:	00021917          	auipc	s2,0x21
     1e8:	20090913          	addi	s2,s2,512 # 213e4 <test_total>
     1ec:	00021497          	auipc	s1,0x21
     1f0:	1f448493          	addi	s1,s1,500 # 213e0 <test_max>
     1f4:	000aa503          	lw	a0,0(s5)
     1f8:	fff00593          	li	a1,-1
     1fc:	128040ef          	jal	ra,4324 <xQueueSemaphoreTake>
     200:	0009a503          	lw	a0,0(s3)
     204:	fff00593          	li	a1,-1
     208:	11c040ef          	jal	ra,4324 <xQueueSemaphoreTake>
     20c:	c00027f3          	rdcycle	a5
     210:	000a2683          	lw	a3,0(s4)
     214:	00092703          	lw	a4,0(s2)
     218:	0004a803          	lw	a6,0(s1)
     21c:	40d787b3          	sub	a5,a5,a3
     220:	00f70733          	add	a4,a4,a5
     224:	00e92023          	sw	a4,0(s2)
     228:	0009a503          	lw	a0,0(s3)
     22c:	00000693          	li	a3,0
     230:	00000613          	li	a2,0
     234:	00000593          	li	a1,0
     238:	fff40413          	addi	s0,s0,-1
     23c:	00f87463          	bgeu	a6,a5,244 <mutex_get2+0xa8>
     240:	00078813          	mv	a6,a5
     244:	0104a023          	sw	a6,0(s1)
     248:	269030ef          	jal	ra,3cb0 <xQueueGenericSend>
     24c:	fa0414e3          	bnez	s0,1f4 <mutex_get2+0x58>
     250:	01812403          	lw	s0,24(sp)
     254:	00100793          	li	a5,1
     258:	01c12083          	lw	ra,28(sp)
     25c:	01412483          	lw	s1,20(sp)
     260:	01012903          	lw	s2,16(sp)
     264:	00c12983          	lw	s3,12(sp)
     268:	00812a03          	lw	s4,8(sp)
     26c:	00412a83          	lw	s5,4(sp)
     270:	00fb2023          	sw	a5,0(s6)
     274:	00012b03          	lw	s6,0(sp)
     278:	00000513          	li	a0,0
     27c:	02010113          	addi	sp,sp,32
     280:	1100606f          	j	6390 <vTaskDelete>

00000284 <unsolicited_hipriority>:
     284:	ff010113          	addi	sp,sp,-16
     288:	00812423          	sw	s0,8(sp)
     28c:	00912223          	sw	s1,4(sp)
     290:	01212023          	sw	s2,0(sp)
     294:	00112623          	sw	ra,12(sp)
     298:	01000493          	li	s1,16
     29c:	00021917          	auipc	s2,0x21
     2a0:	12c90913          	addi	s2,s2,300 # 213c8 <unsolicited_cycles>
     2a4:	00021417          	auipc	s0,0x21
     2a8:	1c840413          	addi	s0,s0,456 # 2146c <unsolicited_stats>
     2ac:	00a00513          	li	a0,10
     2b0:	281060ef          	jal	ra,6d30 <vTaskDelay>
     2b4:	c00027f3          	rdcycle	a5
     2b8:	00092603          	lw	a2,0(s2)
     2bc:	00042683          	lw	a3,0(s0)
     2c0:	00442703          	lw	a4,4(s0)
     2c4:	40c787b3          	sub	a5,a5,a2
     2c8:	00842603          	lw	a2,8(s0)
     2cc:	00168693          	addi	a3,a3,1
     2d0:	00f70733          	add	a4,a4,a5
     2d4:	00d42023          	sw	a3,0(s0)
     2d8:	00e42223          	sw	a4,4(s0)
     2dc:	fff48493          	addi	s1,s1,-1
     2e0:	00f65463          	bge	a2,a5,2e8 <unsolicited_hipriority+0x64>
     2e4:	00f42423          	sw	a5,8(s0)
     2e8:	fc0492e3          	bnez	s1,2ac <unsolicited_hipriority+0x28>
     2ec:	00812403          	lw	s0,8(sp)
     2f0:	00c12083          	lw	ra,12(sp)
     2f4:	00412483          	lw	s1,4(sp)
     2f8:	00012903          	lw	s2,0(sp)
     2fc:	00100793          	li	a5,1
     300:	00021717          	auipc	a4,0x21
     304:	0cf72623          	sw	a5,204(a4) # 213cc <unsolicited_done>
     308:	00000513          	li	a0,0
     30c:	01010113          	addi	sp,sp,16
     310:	0800606f          	j	6390 <vTaskDelete>

00000314 <sem_test>:
     314:	fe010113          	addi	sp,sp,-32
     318:	00112e23          	sw	ra,28(sp)
     31c:	00812c23          	sw	s0,24(sp)
     320:	00912a23          	sw	s1,20(sp)
     324:	01212823          	sw	s2,16(sp)
     328:	01312623          	sw	s3,12(sp)
     32c:	01512223          	sw	s5,4(sp)
     330:	01412423          	sw	s4,8(sp)
     334:	00052023          	sw	zero,0(a0)
     338:	00050993          	mv	s3,a0
     33c:	00020517          	auipc	a0,0x20
     340:	d9050513          	addi	a0,a0,-624 # 200cc <_impure_ptr+0x4>
     344:	1cc030ef          	jal	ra,3510 <printf_>
     348:	00000593          	li	a1,0
     34c:	01400513          	li	a0,20
     350:	0b5030ef          	jal	ra,3c04 <xQueueCreateCountingSemaphore>
     354:	00021917          	auipc	s2,0x21
     358:	08890913          	addi	s2,s2,136 # 213dc <xSemaphore>
     35c:	00a92023          	sw	a0,0(s2)
     360:	01400493          	li	s1,20
     364:	00000a93          	li	s5,0
     368:	00000413          	li	s0,0
     36c:	c0002a73          	rdcycle	s4
     370:	00000693          	li	a3,0
     374:	00000613          	li	a2,0
     378:	00000593          	li	a1,0
     37c:	135030ef          	jal	ra,3cb0 <xQueueGenericSend>
     380:	c00027f3          	rdcycle	a5
     384:	414787b3          	sub	a5,a5,s4
     388:	fff48493          	addi	s1,s1,-1
     38c:	00f40433          	add	s0,s0,a5
     390:	00faf463          	bgeu	s5,a5,398 <sem_test+0x84>
     394:	00078a93          	mv	s5,a5
     398:	00048663          	beqz	s1,3a4 <sem_test+0x90>
     39c:	00092503          	lw	a0,0(s2)
     3a0:	fcdff06f          	j	36c <sem_test+0x58>
     3a4:	01400593          	li	a1,20
     3a8:	02b455b3          	divu	a1,s0,a1
     3ac:	000a8613          	mv	a2,s5
     3b0:	00020517          	auipc	a0,0x20
     3b4:	d4c50513          	addi	a0,a0,-692 # 200fc <_impure_ptr+0x34>
     3b8:	00000a93          	li	s5,0
     3bc:	01400413          	li	s0,20
     3c0:	150030ef          	jal	ra,3510 <printf_>
     3c4:	c0002a73          	rdcycle	s4
     3c8:	00092503          	lw	a0,0(s2)
     3cc:	fff00593          	li	a1,-1
     3d0:	755030ef          	jal	ra,4324 <xQueueSemaphoreTake>
     3d4:	c00027f3          	rdcycle	a5
     3d8:	414787b3          	sub	a5,a5,s4
     3dc:	fff40413          	addi	s0,s0,-1
     3e0:	00f484b3          	add	s1,s1,a5
     3e4:	00faf463          	bgeu	s5,a5,3ec <sem_test+0xd8>
     3e8:	00078a93          	mv	s5,a5
     3ec:	fc041ce3          	bnez	s0,3c4 <sem_test+0xb0>
     3f0:	01400593          	li	a1,20
     3f4:	02b4d5b3          	divu	a1,s1,a1
     3f8:	000a8613          	mv	a2,s5
     3fc:	00020517          	auipc	a0,0x20
     400:	d4050513          	addi	a0,a0,-704 # 2013c <_impure_ptr+0x74>
     404:	00000a93          	li	s5,0
     408:	01400493          	li	s1,20
     40c:	104030ef          	jal	ra,3510 <printf_>
     410:	00000793          	li	a5,0
     414:	00400713          	li	a4,4
     418:	00021697          	auipc	a3,0x21
     41c:	06068693          	addi	a3,a3,96 # 21478 <uiTaskResponse>
     420:	40000613          	li	a2,1024
     424:	00020597          	auipc	a1,0x20
     428:	d5858593          	addi	a1,a1,-680 # 2017c <_impure_ptr+0xb4>
     42c:	00000517          	auipc	a0,0x0
     430:	c0c50513          	addi	a0,a0,-1012 # 38 <sem_get>
     434:	00021817          	auipc	a6,0x21
     438:	04082223          	sw	zero,68(a6) # 21478 <uiTaskResponse>
     43c:	5c5050ef          	jal	ra,6200 <xTaskCreate>
     440:	00100513          	li	a0,1
     444:	0ed060ef          	jal	ra,6d30 <vTaskDelay>
     448:	c0002a73          	rdcycle	s4
     44c:	00092503          	lw	a0,0(s2)
     450:	00000693          	li	a3,0
     454:	00000613          	li	a2,0
     458:	00000593          	li	a1,0
     45c:	055030ef          	jal	ra,3cb0 <xQueueGenericSend>
     460:	c00027f3          	rdcycle	a5
     464:	414787b3          	sub	a5,a5,s4
     468:	fff48493          	addi	s1,s1,-1
     46c:	00f40433          	add	s0,s0,a5
     470:	00faf463          	bgeu	s5,a5,478 <sem_test+0x164>
     474:	00078a93          	mv	s5,a5
     478:	fc0494e3          	bnez	s1,440 <sem_test+0x12c>
     47c:	00021a17          	auipc	s4,0x21
     480:	ff0a0a13          	addi	s4,s4,-16 # 2146c <unsolicited_stats>
     484:	00ca2783          	lw	a5,12(s4)
     488:	00079a63          	bnez	a5,49c <sem_test+0x188>
     48c:	00a00513          	li	a0,10
     490:	0a1060ef          	jal	ra,6d30 <vTaskDelay>
     494:	00ca2783          	lw	a5,12(s4)
     498:	fe078ae3          	beqz	a5,48c <sem_test+0x178>
     49c:	01400593          	li	a1,20
     4a0:	02b455b3          	divu	a1,s0,a1
     4a4:	000a8613          	mv	a2,s5
     4a8:	00020517          	auipc	a0,0x20
     4ac:	cdc50513          	addi	a0,a0,-804 # 20184 <_impure_ptr+0xbc>
     4b0:	01400413          	li	s0,20
     4b4:	00021497          	auipc	s1,0x21
     4b8:	f3448493          	addi	s1,s1,-204 # 213e8 <test_start>
     4bc:	054030ef          	jal	ra,3510 <printf_>
     4c0:	00000793          	li	a5,0
     4c4:	00600713          	li	a4,6
     4c8:	00021697          	auipc	a3,0x21
     4cc:	fb068693          	addi	a3,a3,-80 # 21478 <uiTaskResponse>
     4d0:	40000613          	li	a2,1024
     4d4:	00020597          	auipc	a1,0x20
     4d8:	ca858593          	addi	a1,a1,-856 # 2017c <_impure_ptr+0xb4>
     4dc:	00000517          	auipc	a0,0x0
     4e0:	b5c50513          	addi	a0,a0,-1188 # 38 <sem_get>
     4e4:	51d050ef          	jal	ra,6200 <xTaskCreate>
     4e8:	00021797          	auipc	a5,0x21
     4ec:	ee07ae23          	sw	zero,-260(a5) # 213e4 <test_total>
     4f0:	00021797          	auipc	a5,0x21
     4f4:	ee07a823          	sw	zero,-272(a5) # 213e0 <test_max>
     4f8:	c00027f3          	rdcycle	a5
     4fc:	00092503          	lw	a0,0(s2)
     500:	fff40413          	addi	s0,s0,-1
     504:	00000693          	li	a3,0
     508:	00000613          	li	a2,0
     50c:	00000593          	li	a1,0
     510:	00f4a023          	sw	a5,0(s1)
     514:	79c030ef          	jal	ra,3cb0 <xQueueGenericSend>
     518:	fe0410e3          	bnez	s0,4f8 <sem_test+0x1e4>
     51c:	00ca2783          	lw	a5,12(s4)
     520:	00079a63          	bnez	a5,534 <sem_test+0x220>
     524:	00a00513          	li	a0,10
     528:	009060ef          	jal	ra,6d30 <vTaskDelay>
     52c:	00ca2783          	lw	a5,12(s4)
     530:	fe078ae3          	beqz	a5,524 <sem_test+0x210>
     534:	01400793          	li	a5,20
     538:	00021597          	auipc	a1,0x21
     53c:	eac5a583          	lw	a1,-340(a1) # 213e4 <test_total>
     540:	02f5d5b3          	divu	a1,a1,a5
     544:	00021617          	auipc	a2,0x21
     548:	e9c62603          	lw	a2,-356(a2) # 213e0 <test_max>
     54c:	00020517          	auipc	a0,0x20
     550:	c7850513          	addi	a0,a0,-904 # 201c4 <_impure_ptr+0xfc>
     554:	7bd020ef          	jal	ra,3510 <printf_>
     558:	00092503          	lw	a0,0(s2)
     55c:	00100793          	li	a5,1
     560:	00f9a023          	sw	a5,0(s3)
     564:	3c4040ef          	jal	ra,4928 <vQueueDelete>
     568:	01812403          	lw	s0,24(sp)
     56c:	01c12083          	lw	ra,28(sp)
     570:	01412483          	lw	s1,20(sp)
     574:	01012903          	lw	s2,16(sp)
     578:	00c12983          	lw	s3,12(sp)
     57c:	00812a03          	lw	s4,8(sp)
     580:	00412a83          	lw	s5,4(sp)
     584:	00000513          	li	a0,0
     588:	02010113          	addi	sp,sp,32
     58c:	6050506f          	j	6390 <vTaskDelete>

00000590 <mutex_test>:
     590:	fd010113          	addi	sp,sp,-48
     594:	02112623          	sw	ra,44(sp)
     598:	02812423          	sw	s0,40(sp)
     59c:	01312e23          	sw	s3,28(sp)
     5a0:	01412c23          	sw	s4,24(sp)
     5a4:	02912223          	sw	s1,36(sp)
     5a8:	03212023          	sw	s2,32(sp)
     5ac:	01512a23          	sw	s5,20(sp)
     5b0:	01612823          	sw	s6,16(sp)
     5b4:	01712623          	sw	s7,12(sp)
     5b8:	01812423          	sw	s8,8(sp)
     5bc:	00052023          	sw	zero,0(a0)
     5c0:	00050a13          	mv	s4,a0
     5c4:	00020517          	auipc	a0,0x20
     5c8:	c4050513          	addi	a0,a0,-960 # 20204 <_impure_ptr+0x13c>
     5cc:	745020ef          	jal	ra,3510 <printf_>
     5d0:	00100513          	li	a0,1
     5d4:	189030ef          	jal	ra,3f5c <xQueueCreateMutex>
     5d8:	00050793          	mv	a5,a0
     5dc:	00021417          	auipc	s0,0x21
     5e0:	dfc40413          	addi	s0,s0,-516 # 213d8 <xMutex>
     5e4:	00300613          	li	a2,3
     5e8:	00000593          	li	a1,0
     5ec:	00100513          	li	a0,1
     5f0:	00f42023          	sw	a5,0(s0)
     5f4:	00021997          	auipc	s3,0x21
     5f8:	de898993          	addi	s3,s3,-536 # 213dc <xSemaphore>
     5fc:	444030ef          	jal	ra,3a40 <xQueueGenericCreate>
     600:	00a9a023          	sw	a0,0(s3)
     604:	00050a63          	beqz	a0,618 <mutex_test+0x88>
     608:	00000693          	li	a3,0
     60c:	00000613          	li	a2,0
     610:	00000593          	li	a1,0
     614:	69c030ef          	jal	ra,3cb0 <xQueueGenericSend>
     618:	00021797          	auipc	a5,0x21
     61c:	dc07a623          	sw	zero,-564(a5) # 213e4 <test_total>
     620:	00021797          	auipc	a5,0x21
     624:	dc07a023          	sw	zero,-576(a5) # 213e0 <test_max>
     628:	01400a93          	li	s5,20
     62c:	00000b93          	li	s7,0
     630:	00000b13          	li	s6,0
     634:	00021497          	auipc	s1,0x21
     638:	db048493          	addi	s1,s1,-592 # 213e4 <test_total>
     63c:	00021917          	auipc	s2,0x21
     640:	da490913          	addi	s2,s2,-604 # 213e0 <test_max>
     644:	c0002c73          	rdcycle	s8
     648:	00042503          	lw	a0,0(s0)
     64c:	fff00593          	li	a1,-1
     650:	4d5030ef          	jal	ra,4324 <xQueueSemaphoreTake>
     654:	c00027f3          	rdcycle	a5
     658:	0004a703          	lw	a4,0(s1)
     65c:	418787b3          	sub	a5,a5,s8
     660:	00092683          	lw	a3,0(s2)
     664:	00f70733          	add	a4,a4,a5
     668:	00e4a023          	sw	a4,0(s1)
     66c:	00f6f463          	bgeu	a3,a5,674 <mutex_test+0xe4>
     670:	00078693          	mv	a3,a5
     674:	00d92023          	sw	a3,0(s2)
     678:	c0002c73          	rdcycle	s8
     67c:	00042503          	lw	a0,0(s0)
     680:	00000693          	li	a3,0
     684:	00000613          	li	a2,0
     688:	00000593          	li	a1,0
     68c:	624030ef          	jal	ra,3cb0 <xQueueGenericSend>
     690:	c00027f3          	rdcycle	a5
     694:	418787b3          	sub	a5,a5,s8
     698:	fffa8a93          	addi	s5,s5,-1
     69c:	00fb0b33          	add	s6,s6,a5
     6a0:	00fbf463          	bgeu	s7,a5,6a8 <mutex_test+0x118>
     6a4:	00078b93          	mv	s7,a5
     6a8:	f80a9ee3          	bnez	s5,644 <mutex_test+0xb4>
     6ac:	0004a583          	lw	a1,0(s1)
     6b0:	01400c13          	li	s8,20
     6b4:	00092603          	lw	a2,0(s2)
     6b8:	0385d5b3          	divu	a1,a1,s8
     6bc:	00020517          	auipc	a0,0x20
     6c0:	b7050513          	addi	a0,a0,-1168 # 2022c <_impure_ptr+0x164>
     6c4:	01400a93          	li	s5,20
     6c8:	649020ef          	jal	ra,3510 <printf_>
     6cc:	038b55b3          	divu	a1,s6,s8
     6d0:	000b8613          	mv	a2,s7
     6d4:	00020517          	auipc	a0,0x20
     6d8:	b9850513          	addi	a0,a0,-1128 # 2026c <_impure_ptr+0x1a4>
     6dc:	635020ef          	jal	ra,3510 <printf_>
     6e0:	00000793          	li	a5,0
     6e4:	00400713          	li	a4,4
     6e8:	00021697          	auipc	a3,0x21
     6ec:	d9468693          	addi	a3,a3,-620 # 2147c <uiTaskResponse+0x4>
     6f0:	40000613          	li	a2,1024
     6f4:	00020597          	auipc	a1,0x20
     6f8:	bb858593          	addi	a1,a1,-1096 # 202ac <_impure_ptr+0x1e4>
     6fc:	00000517          	auipc	a0,0x0
     700:	a2c50513          	addi	a0,a0,-1492 # 128 <mutex_get>
     704:	00021817          	auipc	a6,0x21
     708:	d6082c23          	sw	zero,-648(a6) # 2147c <uiTaskResponse+0x4>
     70c:	2f5050ef          	jal	ra,6200 <xTaskCreate>
     710:	00021797          	auipc	a5,0x21
     714:	cc07aa23          	sw	zero,-812(a5) # 213e4 <test_total>
     718:	00021797          	auipc	a5,0x21
     71c:	cc07a423          	sw	zero,-824(a5) # 213e0 <test_max>
     720:	00042503          	lw	a0,0(s0)
     724:	fff00593          	li	a1,-1
     728:	3fd030ef          	jal	ra,4324 <xQueueSemaphoreTake>
     72c:	00100513          	li	a0,1
     730:	600060ef          	jal	ra,6d30 <vTaskDelay>
     734:	c0002b73          	rdcycle	s6
     738:	00042503          	lw	a0,0(s0)
     73c:	00000693          	li	a3,0
     740:	00000613          	li	a2,0
     744:	00000593          	li	a1,0
     748:	568030ef          	jal	ra,3cb0 <xQueueGenericSend>
     74c:	c00027f3          	rdcycle	a5
     750:	0004a703          	lw	a4,0(s1)
     754:	416787b3          	sub	a5,a5,s6
     758:	00092603          	lw	a2,0(s2)
     75c:	00e78733          	add	a4,a5,a4
     760:	00e4a023          	sw	a4,0(s1)
     764:	fffa8a93          	addi	s5,s5,-1
     768:	00f67463          	bgeu	a2,a5,770 <mutex_test+0x1e0>
     76c:	00078613          	mv	a2,a5
     770:	00c92023          	sw	a2,0(s2)
     774:	fa0a96e3          	bnez	s5,720 <mutex_test+0x190>
     778:	00021b97          	auipc	s7,0x21
     77c:	cf4b8b93          	addi	s7,s7,-780 # 2146c <unsolicited_stats>
     780:	010ba783          	lw	a5,16(s7)
     784:	00079e63          	bnez	a5,7a0 <mutex_test+0x210>
     788:	00a00513          	li	a0,10
     78c:	5a4060ef          	jal	ra,6d30 <vTaskDelay>
     790:	010ba783          	lw	a5,16(s7)
     794:	fe078ae3          	beqz	a5,788 <mutex_test+0x1f8>
     798:	0004a703          	lw	a4,0(s1)
     79c:	00092603          	lw	a2,0(s2)
     7a0:	01400593          	li	a1,20
     7a4:	02b755b3          	divu	a1,a4,a1
     7a8:	00020517          	auipc	a0,0x20
     7ac:	b1050513          	addi	a0,a0,-1264 # 202b8 <_impure_ptr+0x1f0>
     7b0:	01400a93          	li	s5,20
     7b4:	00021b17          	auipc	s6,0x21
     7b8:	c34b0b13          	addi	s6,s6,-972 # 213e8 <test_start>
     7bc:	555020ef          	jal	ra,3510 <printf_>
     7c0:	00000793          	li	a5,0
     7c4:	00600713          	li	a4,6
     7c8:	00021697          	auipc	a3,0x21
     7cc:	cb468693          	addi	a3,a3,-844 # 2147c <uiTaskResponse+0x4>
     7d0:	40000613          	li	a2,1024
     7d4:	00020597          	auipc	a1,0x20
     7d8:	b2458593          	addi	a1,a1,-1244 # 202f8 <_impure_ptr+0x230>
     7dc:	00000517          	auipc	a0,0x0
     7e0:	9c050513          	addi	a0,a0,-1600 # 19c <mutex_get2>
     7e4:	21d050ef          	jal	ra,6200 <xTaskCreate>
     7e8:	00021797          	auipc	a5,0x21
     7ec:	be07ae23          	sw	zero,-1028(a5) # 213e4 <test_total>
     7f0:	00021797          	auipc	a5,0x21
     7f4:	be07a823          	sw	zero,-1040(a5) # 213e0 <test_max>
     7f8:	00042503          	lw	a0,0(s0)
     7fc:	fff00593          	li	a1,-1
     800:	325030ef          	jal	ra,4324 <xQueueSemaphoreTake>
     804:	0009a503          	lw	a0,0(s3)
     808:	00000693          	li	a3,0
     80c:	00000613          	li	a2,0
     810:	00000593          	li	a1,0
     814:	49c030ef          	jal	ra,3cb0 <xQueueGenericSend>
     818:	c00027f3          	rdcycle	a5
     81c:	00042503          	lw	a0,0(s0)
     820:	fffa8a93          	addi	s5,s5,-1
     824:	00000693          	li	a3,0
     828:	00000613          	li	a2,0
     82c:	00000593          	li	a1,0
     830:	00fb2023          	sw	a5,0(s6)
     834:	47c030ef          	jal	ra,3cb0 <xQueueGenericSend>
     838:	fc0a90e3          	bnez	s5,7f8 <mutex_test+0x268>
     83c:	010ba783          	lw	a5,16(s7)
     840:	00079a63          	bnez	a5,854 <mutex_test+0x2c4>
     844:	00a00513          	li	a0,10
     848:	4e8060ef          	jal	ra,6d30 <vTaskDelay>
     84c:	010ba783          	lw	a5,16(s7)
     850:	fe078ae3          	beqz	a5,844 <mutex_test+0x2b4>
     854:	0004a583          	lw	a1,0(s1)
     858:	01400793          	li	a5,20
     85c:	00092603          	lw	a2,0(s2)
     860:	02f5d5b3          	divu	a1,a1,a5
     864:	00020517          	auipc	a0,0x20
     868:	aa050513          	addi	a0,a0,-1376 # 20304 <_impure_ptr+0x23c>
     86c:	4a5020ef          	jal	ra,3510 <printf_>
     870:	0009a503          	lw	a0,0(s3)
     874:	0b4040ef          	jal	ra,4928 <vQueueDelete>
     878:	00042503          	lw	a0,0(s0)
     87c:	0ac040ef          	jal	ra,4928 <vQueueDelete>
     880:	00100793          	li	a5,1
     884:	02812403          	lw	s0,40(sp)
     888:	02c12083          	lw	ra,44(sp)
     88c:	02412483          	lw	s1,36(sp)
     890:	02012903          	lw	s2,32(sp)
     894:	01c12983          	lw	s3,28(sp)
     898:	01412a83          	lw	s5,20(sp)
     89c:	01012b03          	lw	s6,16(sp)
     8a0:	00c12b83          	lw	s7,12(sp)
     8a4:	00812c03          	lw	s8,8(sp)
     8a8:	00fa2023          	sw	a5,0(s4)
     8ac:	01812a03          	lw	s4,24(sp)
     8b0:	00000513          	li	a0,0
     8b4:	03010113          	addi	sp,sp,48
     8b8:	2d90506f          	j	6390 <vTaskDelete>

000008bc <event_get>:
     8bc:	fe010113          	addi	sp,sp,-32
     8c0:	00812c23          	sw	s0,24(sp)
     8c4:	00912a23          	sw	s1,20(sp)
     8c8:	01212823          	sw	s2,16(sp)
     8cc:	01312623          	sw	s3,12(sp)
     8d0:	00112e23          	sw	ra,28(sp)
     8d4:	000104b7          	lui	s1,0x10
     8d8:	00050993          	mv	s3,a0
     8dc:	00052023          	sw	zero,0(a0)
     8e0:	01400413          	li	s0,20
     8e4:	00021917          	auipc	s2,0x21
     8e8:	af090913          	addi	s2,s2,-1296 # 213d4 <xGroupEvents>
     8ec:	fff48493          	addi	s1,s1,-1 # ffff <_text_end+0x3edf>
     8f0:	00092503          	lw	a0,0(s2)
     8f4:	00048593          	mv	a1,s1
     8f8:	fff00713          	li	a4,-1
     8fc:	00100693          	li	a3,1
     900:	00000613          	li	a2,0
     904:	6ed060ef          	jal	ra,77f0 <xEventGroupWaitBits>
     908:	00092503          	lw	a0,0(s2)
     90c:	fff40413          	addi	s0,s0,-1
     910:	00048593          	mv	a1,s1
     914:	7f9060ef          	jal	ra,790c <xEventGroupClearBits>
     918:	fc041ce3          	bnez	s0,8f0 <event_get+0x34>
     91c:	01812403          	lw	s0,24(sp)
     920:	00100793          	li	a5,1
     924:	01c12083          	lw	ra,28(sp)
     928:	01412483          	lw	s1,20(sp)
     92c:	01012903          	lw	s2,16(sp)
     930:	00f9a023          	sw	a5,0(s3)
     934:	00c12983          	lw	s3,12(sp)
     938:	00000513          	li	a0,0
     93c:	02010113          	addi	sp,sp,32
     940:	2510506f          	j	6390 <vTaskDelete>

00000944 <event_get2>:
     944:	fd010113          	addi	sp,sp,-48
     948:	02812423          	sw	s0,40(sp)
     94c:	02912223          	sw	s1,36(sp)
     950:	03212023          	sw	s2,32(sp)
     954:	01312e23          	sw	s3,28(sp)
     958:	01412c23          	sw	s4,24(sp)
     95c:	01512a23          	sw	s5,20(sp)
     960:	01612823          	sw	s6,16(sp)
     964:	01712623          	sw	s7,12(sp)
     968:	02112623          	sw	ra,44(sp)
     96c:	000104b7          	lui	s1,0x10
     970:	00050b93          	mv	s7,a0
     974:	00052023          	sw	zero,0(a0)
     978:	01400413          	li	s0,20
     97c:	00021b17          	auipc	s6,0x21
     980:	a60b0b13          	addi	s6,s6,-1440 # 213dc <xSemaphore>
     984:	00021a17          	auipc	s4,0x21
     988:	a50a0a13          	addi	s4,s4,-1456 # 213d4 <xGroupEvents>
     98c:	00021a97          	auipc	s5,0x21
     990:	a5ca8a93          	addi	s5,s5,-1444 # 213e8 <test_start>
     994:	00021997          	auipc	s3,0x21
     998:	a5098993          	addi	s3,s3,-1456 # 213e4 <test_total>
     99c:	00021917          	auipc	s2,0x21
     9a0:	a4490913          	addi	s2,s2,-1468 # 213e0 <test_max>
     9a4:	fff48493          	addi	s1,s1,-1 # ffff <_text_end+0x3edf>
     9a8:	000b2503          	lw	a0,0(s6)
     9ac:	fff00593          	li	a1,-1
     9b0:	175030ef          	jal	ra,4324 <xQueueSemaphoreTake>
     9b4:	000a2503          	lw	a0,0(s4)
     9b8:	fff00713          	li	a4,-1
     9bc:	00100693          	li	a3,1
     9c0:	00000613          	li	a2,0
     9c4:	00048593          	mv	a1,s1
     9c8:	629060ef          	jal	ra,77f0 <xEventGroupWaitBits>
     9cc:	c00027f3          	rdcycle	a5
     9d0:	000aa603          	lw	a2,0(s5)
     9d4:	0009a703          	lw	a4,0(s3)
     9d8:	00092683          	lw	a3,0(s2)
     9dc:	40c787b3          	sub	a5,a5,a2
     9e0:	00f70733          	add	a4,a4,a5
     9e4:	00e9a023          	sw	a4,0(s3)
     9e8:	000a2503          	lw	a0,0(s4)
     9ec:	00048593          	mv	a1,s1
     9f0:	fff40413          	addi	s0,s0,-1
     9f4:	00f6f463          	bgeu	a3,a5,9fc <event_get2+0xb8>
     9f8:	00078693          	mv	a3,a5
     9fc:	00d92023          	sw	a3,0(s2)
     a00:	70d060ef          	jal	ra,790c <xEventGroupClearBits>
     a04:	fa0412e3          	bnez	s0,9a8 <event_get2+0x64>
     a08:	02812403          	lw	s0,40(sp)
     a0c:	00100793          	li	a5,1
     a10:	02c12083          	lw	ra,44(sp)
     a14:	02412483          	lw	s1,36(sp)
     a18:	02012903          	lw	s2,32(sp)
     a1c:	01c12983          	lw	s3,28(sp)
     a20:	01812a03          	lw	s4,24(sp)
     a24:	01412a83          	lw	s5,20(sp)
     a28:	01012b03          	lw	s6,16(sp)
     a2c:	00fba023          	sw	a5,0(s7)
     a30:	00c12b83          	lw	s7,12(sp)
     a34:	00000513          	li	a0,0
     a38:	03010113          	addi	sp,sp,48
     a3c:	1550506f          	j	6390 <vTaskDelete>

00000a40 <event_test>:
     a40:	fd010113          	addi	sp,sp,-48
     a44:	02112623          	sw	ra,44(sp)
     a48:	02812423          	sw	s0,40(sp)
     a4c:	01312e23          	sw	s3,28(sp)
     a50:	01412c23          	sw	s4,24(sp)
     a54:	02912223          	sw	s1,36(sp)
     a58:	03212023          	sw	s2,32(sp)
     a5c:	01512a23          	sw	s5,20(sp)
     a60:	01612823          	sw	s6,16(sp)
     a64:	01712623          	sw	s7,12(sp)
     a68:	01812423          	sw	s8,8(sp)
     a6c:	01912223          	sw	s9,4(sp)
     a70:	00052023          	sw	zero,0(a0)
     a74:	00050a13          	mv	s4,a0
     a78:	00020517          	auipc	a0,0x20
     a7c:	8cc50513          	addi	a0,a0,-1844 # 20344 <_impure_ptr+0x27c>
     a80:	291020ef          	jal	ra,3510 <printf_>
     a84:	52d060ef          	jal	ra,77b0 <xEventGroupCreate>
     a88:	00050793          	mv	a5,a0
     a8c:	00021417          	auipc	s0,0x21
     a90:	94840413          	addi	s0,s0,-1720 # 213d4 <xGroupEvents>
     a94:	00300613          	li	a2,3
     a98:	00000593          	li	a1,0
     a9c:	00100513          	li	a0,1
     aa0:	00f42023          	sw	a5,0(s0)
     aa4:	00021997          	auipc	s3,0x21
     aa8:	93898993          	addi	s3,s3,-1736 # 213dc <xSemaphore>
     aac:	795020ef          	jal	ra,3a40 <xQueueGenericCreate>
     ab0:	00a9a023          	sw	a0,0(s3)
     ab4:	00050a63          	beqz	a0,ac8 <event_test+0x88>
     ab8:	00000693          	li	a3,0
     abc:	00000613          	li	a2,0
     ac0:	00000593          	li	a1,0
     ac4:	1ec030ef          	jal	ra,3cb0 <xQueueGenericSend>
     ac8:	00010c37          	lui	s8,0x10
     acc:	00021797          	auipc	a5,0x21
     ad0:	9007ac23          	sw	zero,-1768(a5) # 213e4 <test_total>
     ad4:	00021797          	auipc	a5,0x21
     ad8:	9007a623          	sw	zero,-1780(a5) # 213e0 <test_max>
     adc:	01400a93          	li	s5,20
     ae0:	00000b93          	li	s7,0
     ae4:	00000b13          	li	s6,0
     ae8:	00021497          	auipc	s1,0x21
     aec:	8fc48493          	addi	s1,s1,-1796 # 213e4 <test_total>
     af0:	00021917          	auipc	s2,0x21
     af4:	8f090913          	addi	s2,s2,-1808 # 213e0 <test_max>
     af8:	fffc0c13          	addi	s8,s8,-1 # ffff <_text_end+0x3edf>
     afc:	c0002cf3          	rdcycle	s9
     b00:	00042503          	lw	a0,0(s0)
     b04:	000c0593          	mv	a1,s8
     b08:	65d060ef          	jal	ra,7964 <xEventGroupSetBits>
     b0c:	c00027f3          	rdcycle	a5
     b10:	0004a703          	lw	a4,0(s1)
     b14:	419787b3          	sub	a5,a5,s9
     b18:	00092683          	lw	a3,0(s2)
     b1c:	00f70733          	add	a4,a4,a5
     b20:	00e4a023          	sw	a4,0(s1)
     b24:	00f6f463          	bgeu	a3,a5,b2c <event_test+0xec>
     b28:	00078693          	mv	a3,a5
     b2c:	00d92023          	sw	a3,0(s2)
     b30:	c0002cf3          	rdcycle	s9
     b34:	00042503          	lw	a0,0(s0)
     b38:	000c0593          	mv	a1,s8
     b3c:	5d1060ef          	jal	ra,790c <xEventGroupClearBits>
     b40:	c00027f3          	rdcycle	a5
     b44:	419787b3          	sub	a5,a5,s9
     b48:	fffa8a93          	addi	s5,s5,-1
     b4c:	00fb0b33          	add	s6,s6,a5
     b50:	00fbf463          	bgeu	s7,a5,b58 <event_test+0x118>
     b54:	00078b93          	mv	s7,a5
     b58:	fa0a92e3          	bnez	s5,afc <event_test+0xbc>
     b5c:	0004a583          	lw	a1,0(s1)
     b60:	01400c13          	li	s8,20
     b64:	00092603          	lw	a2,0(s2)
     b68:	0385d5b3          	divu	a1,a1,s8
     b6c:	00020517          	auipc	a0,0x20
     b70:	80050513          	addi	a0,a0,-2048 # 2036c <_impure_ptr+0x2a4>
     b74:	01400a93          	li	s5,20
     b78:	199020ef          	jal	ra,3510 <printf_>
     b7c:	038b55b3          	divu	a1,s6,s8
     b80:	000b8613          	mv	a2,s7
     b84:	00020517          	auipc	a0,0x20
     b88:	82850513          	addi	a0,a0,-2008 # 203ac <_impure_ptr+0x2e4>
     b8c:	00010b37          	lui	s6,0x10
     b90:	fffb0b13          	addi	s6,s6,-1 # ffff <_text_end+0x3edf>
     b94:	17d020ef          	jal	ra,3510 <printf_>
     b98:	00000793          	li	a5,0
     b9c:	00400713          	li	a4,4
     ba0:	00021697          	auipc	a3,0x21
     ba4:	8dc68693          	addi	a3,a3,-1828 # 2147c <uiTaskResponse+0x4>
     ba8:	40000613          	li	a2,1024
     bac:	00020597          	auipc	a1,0x20
     bb0:	84058593          	addi	a1,a1,-1984 # 203ec <_impure_ptr+0x324>
     bb4:	00000517          	auipc	a0,0x0
     bb8:	d0850513          	addi	a0,a0,-760 # 8bc <event_get>
     bbc:	00021817          	auipc	a6,0x21
     bc0:	8c082023          	sw	zero,-1856(a6) # 2147c <uiTaskResponse+0x4>
     bc4:	63c050ef          	jal	ra,6200 <xTaskCreate>
     bc8:	00021797          	auipc	a5,0x21
     bcc:	8007ae23          	sw	zero,-2020(a5) # 213e4 <test_total>
     bd0:	00021797          	auipc	a5,0x21
     bd4:	8007a823          	sw	zero,-2032(a5) # 213e0 <test_max>
     bd8:	00042503          	lw	a0,0(s0)
     bdc:	000b0593          	mv	a1,s6
     be0:	52d060ef          	jal	ra,790c <xEventGroupClearBits>
     be4:	00100513          	li	a0,1
     be8:	148060ef          	jal	ra,6d30 <vTaskDelay>
     bec:	c0002bf3          	rdcycle	s7
     bf0:	00042503          	lw	a0,0(s0)
     bf4:	000b0593          	mv	a1,s6
     bf8:	56d060ef          	jal	ra,7964 <xEventGroupSetBits>
     bfc:	c00027f3          	rdcycle	a5
     c00:	0004a703          	lw	a4,0(s1)
     c04:	417787b3          	sub	a5,a5,s7
     c08:	00092603          	lw	a2,0(s2)
     c0c:	00e78733          	add	a4,a5,a4
     c10:	00e4a023          	sw	a4,0(s1)
     c14:	fffa8a93          	addi	s5,s5,-1
     c18:	00f67463          	bgeu	a2,a5,c20 <event_test+0x1e0>
     c1c:	00078613          	mv	a2,a5
     c20:	00c92023          	sw	a2,0(s2)
     c24:	fa0a9ae3          	bnez	s5,bd8 <event_test+0x198>
     c28:	00021b97          	auipc	s7,0x21
     c2c:	844b8b93          	addi	s7,s7,-1980 # 2146c <unsolicited_stats>
     c30:	010ba783          	lw	a5,16(s7)
     c34:	00079e63          	bnez	a5,c50 <event_test+0x210>
     c38:	06400513          	li	a0,100
     c3c:	0f4060ef          	jal	ra,6d30 <vTaskDelay>
     c40:	010ba783          	lw	a5,16(s7)
     c44:	fe078ae3          	beqz	a5,c38 <event_test+0x1f8>
     c48:	0004a703          	lw	a4,0(s1)
     c4c:	00092603          	lw	a2,0(s2)
     c50:	01400593          	li	a1,20
     c54:	02b755b3          	divu	a1,a4,a1
     c58:	0001f517          	auipc	a0,0x1f
     c5c:	7a050513          	addi	a0,a0,1952 # 203f8 <_impure_ptr+0x330>
     c60:	00010b37          	lui	s6,0x10
     c64:	01400a93          	li	s5,20
     c68:	00020c17          	auipc	s8,0x20
     c6c:	780c0c13          	addi	s8,s8,1920 # 213e8 <test_start>
     c70:	fffb0b13          	addi	s6,s6,-1 # ffff <_text_end+0x3edf>
     c74:	09d020ef          	jal	ra,3510 <printf_>
     c78:	00000793          	li	a5,0
     c7c:	00600713          	li	a4,6
     c80:	00020697          	auipc	a3,0x20
     c84:	7fc68693          	addi	a3,a3,2044 # 2147c <uiTaskResponse+0x4>
     c88:	40000613          	li	a2,1024
     c8c:	0001f597          	auipc	a1,0x1f
     c90:	7ac58593          	addi	a1,a1,1964 # 20438 <_impure_ptr+0x370>
     c94:	00000517          	auipc	a0,0x0
     c98:	cb050513          	addi	a0,a0,-848 # 944 <event_get2>
     c9c:	00020817          	auipc	a6,0x20
     ca0:	7e082023          	sw	zero,2016(a6) # 2147c <uiTaskResponse+0x4>
     ca4:	55c050ef          	jal	ra,6200 <xTaskCreate>
     ca8:	00020797          	auipc	a5,0x20
     cac:	7207ae23          	sw	zero,1852(a5) # 213e4 <test_total>
     cb0:	00020797          	auipc	a5,0x20
     cb4:	7207a823          	sw	zero,1840(a5) # 213e0 <test_max>
     cb8:	00042503          	lw	a0,0(s0)
     cbc:	000b0593          	mv	a1,s6
     cc0:	44d060ef          	jal	ra,790c <xEventGroupClearBits>
     cc4:	0009a503          	lw	a0,0(s3)
     cc8:	00000693          	li	a3,0
     ccc:	00000613          	li	a2,0
     cd0:	00000593          	li	a1,0
     cd4:	7dd020ef          	jal	ra,3cb0 <xQueueGenericSend>
     cd8:	c00027f3          	rdcycle	a5
     cdc:	00042503          	lw	a0,0(s0)
     ce0:	fffa8a93          	addi	s5,s5,-1
     ce4:	000b0593          	mv	a1,s6
     ce8:	00fc2023          	sw	a5,0(s8)
     cec:	479060ef          	jal	ra,7964 <xEventGroupSetBits>
     cf0:	fc0a94e3          	bnez	s5,cb8 <event_test+0x278>
     cf4:	010ba783          	lw	a5,16(s7)
     cf8:	00079a63          	bnez	a5,d0c <event_test+0x2cc>
     cfc:	06400513          	li	a0,100
     d00:	030060ef          	jal	ra,6d30 <vTaskDelay>
     d04:	010ba783          	lw	a5,16(s7)
     d08:	fe078ae3          	beqz	a5,cfc <event_test+0x2bc>
     d0c:	0004a583          	lw	a1,0(s1)
     d10:	01400793          	li	a5,20
     d14:	00092603          	lw	a2,0(s2)
     d18:	02f5d5b3          	divu	a1,a1,a5
     d1c:	0001f517          	auipc	a0,0x1f
     d20:	72850513          	addi	a0,a0,1832 # 20444 <_impure_ptr+0x37c>
     d24:	7ec020ef          	jal	ra,3510 <printf_>
     d28:	0009a503          	lw	a0,0(s3)
     d2c:	3fd030ef          	jal	ra,4928 <vQueueDelete>
     d30:	00042503          	lw	a0,0(s0)
     d34:	611060ef          	jal	ra,7b44 <vEventGroupDelete>
     d38:	00100793          	li	a5,1
     d3c:	02812403          	lw	s0,40(sp)
     d40:	02c12083          	lw	ra,44(sp)
     d44:	02412483          	lw	s1,36(sp)
     d48:	02012903          	lw	s2,32(sp)
     d4c:	01c12983          	lw	s3,28(sp)
     d50:	01412a83          	lw	s5,20(sp)
     d54:	01012b03          	lw	s6,16(sp)
     d58:	00c12b83          	lw	s7,12(sp)
     d5c:	00812c03          	lw	s8,8(sp)
     d60:	00412c83          	lw	s9,4(sp)
     d64:	00fa2023          	sw	a5,0(s4)
     d68:	01812a03          	lw	s4,24(sp)
     d6c:	00000513          	li	a0,0
     d70:	03010113          	addi	sp,sp,48
     d74:	61c0506f          	j	6390 <vTaskDelete>

00000d78 <msg_get>:
     d78:	fe010113          	addi	sp,sp,-32
     d7c:	00812c23          	sw	s0,24(sp)
     d80:	00912a23          	sw	s1,20(sp)
     d84:	01212823          	sw	s2,16(sp)
     d88:	00112e23          	sw	ra,28(sp)
     d8c:	00050913          	mv	s2,a0
     d90:	00052023          	sw	zero,0(a0)
     d94:	01400413          	li	s0,20
     d98:	00020497          	auipc	s1,0x20
     d9c:	63848493          	addi	s1,s1,1592 # 213d0 <xQueue>
     da0:	0004a503          	lw	a0,0(s1)
     da4:	fff40413          	addi	s0,s0,-1
     da8:	fff00613          	li	a2,-1
     dac:	00010593          	mv	a1,sp
     db0:	3c0030ef          	jal	ra,4170 <xQueueReceive>
     db4:	fe0416e3          	bnez	s0,da0 <msg_get+0x28>
     db8:	00100793          	li	a5,1
     dbc:	00f92023          	sw	a5,0(s2)
     dc0:	00000513          	li	a0,0
     dc4:	5cc050ef          	jal	ra,6390 <vTaskDelete>
     dc8:	01c12083          	lw	ra,28(sp)
     dcc:	01812403          	lw	s0,24(sp)
     dd0:	01412483          	lw	s1,20(sp)
     dd4:	01012903          	lw	s2,16(sp)
     dd8:	02010113          	addi	sp,sp,32
     ddc:	00008067          	ret

00000de0 <msg_get2>:
     de0:	fd010113          	addi	sp,sp,-48
     de4:	02812423          	sw	s0,40(sp)
     de8:	02912223          	sw	s1,36(sp)
     dec:	03212023          	sw	s2,32(sp)
     df0:	01312e23          	sw	s3,28(sp)
     df4:	01412c23          	sw	s4,24(sp)
     df8:	01512a23          	sw	s5,20(sp)
     dfc:	01612823          	sw	s6,16(sp)
     e00:	02112623          	sw	ra,44(sp)
     e04:	00050b13          	mv	s6,a0
     e08:	00052023          	sw	zero,0(a0)
     e0c:	01400413          	li	s0,20
     e10:	00020a97          	auipc	s5,0x20
     e14:	5cca8a93          	addi	s5,s5,1484 # 213dc <xSemaphore>
     e18:	00020a17          	auipc	s4,0x20
     e1c:	5b8a0a13          	addi	s4,s4,1464 # 213d0 <xQueue>
     e20:	00020997          	auipc	s3,0x20
     e24:	5c898993          	addi	s3,s3,1480 # 213e8 <test_start>
     e28:	00020917          	auipc	s2,0x20
     e2c:	5bc90913          	addi	s2,s2,1468 # 213e4 <test_total>
     e30:	00020497          	auipc	s1,0x20
     e34:	5b048493          	addi	s1,s1,1456 # 213e0 <test_max>
     e38:	000aa503          	lw	a0,0(s5)
     e3c:	fff00593          	li	a1,-1
     e40:	4e4030ef          	jal	ra,4324 <xQueueSemaphoreTake>
     e44:	000a2503          	lw	a0,0(s4)
     e48:	fff00613          	li	a2,-1
     e4c:	00010593          	mv	a1,sp
     e50:	320030ef          	jal	ra,4170 <xQueueReceive>
     e54:	c00027f3          	rdcycle	a5
     e58:	0009a603          	lw	a2,0(s3)
     e5c:	00092703          	lw	a4,0(s2)
     e60:	0004a683          	lw	a3,0(s1)
     e64:	40c787b3          	sub	a5,a5,a2
     e68:	00f70733          	add	a4,a4,a5
     e6c:	00e92023          	sw	a4,0(s2)
     e70:	fff40413          	addi	s0,s0,-1
     e74:	00f6f463          	bgeu	a3,a5,e7c <msg_get2+0x9c>
     e78:	00078693          	mv	a3,a5
     e7c:	00d4a023          	sw	a3,0(s1)
     e80:	fa041ce3          	bnez	s0,e38 <msg_get2+0x58>
     e84:	00100793          	li	a5,1
     e88:	00fb2023          	sw	a5,0(s6)
     e8c:	00000513          	li	a0,0
     e90:	500050ef          	jal	ra,6390 <vTaskDelete>
     e94:	02c12083          	lw	ra,44(sp)
     e98:	02812403          	lw	s0,40(sp)
     e9c:	02412483          	lw	s1,36(sp)
     ea0:	02012903          	lw	s2,32(sp)
     ea4:	01c12983          	lw	s3,28(sp)
     ea8:	01812a03          	lw	s4,24(sp)
     eac:	01412a83          	lw	s5,20(sp)
     eb0:	01012b03          	lw	s6,16(sp)
     eb4:	03010113          	addi	sp,sp,48
     eb8:	00008067          	ret

00000ebc <msgq_test>:
     ebc:	fc010113          	addi	sp,sp,-64
     ec0:	02112e23          	sw	ra,60(sp)
     ec4:	03212823          	sw	s2,48(sp)
     ec8:	03312623          	sw	s3,44(sp)
     ecc:	02812c23          	sw	s0,56(sp)
     ed0:	02912a23          	sw	s1,52(sp)
     ed4:	03412423          	sw	s4,40(sp)
     ed8:	03512223          	sw	s5,36(sp)
     edc:	03612023          	sw	s6,32(sp)
     ee0:	01712e23          	sw	s7,28(sp)
     ee4:	01812c23          	sw	s8,24(sp)
     ee8:	00052023          	sw	zero,0(a0)
     eec:	00050993          	mv	s3,a0
     ef0:	0001f517          	auipc	a0,0x1f
     ef4:	59450513          	addi	a0,a0,1428 # 20484 <_impure_ptr+0x3bc>
     ef8:	618020ef          	jal	ra,3510 <printf_>
     efc:	00300613          	li	a2,3
     f00:	00000593          	li	a1,0
     f04:	00100513          	li	a0,1
     f08:	339020ef          	jal	ra,3a40 <xQueueGenericCreate>
     f0c:	00020917          	auipc	s2,0x20
     f10:	4d090913          	addi	s2,s2,1232 # 213dc <xSemaphore>
     f14:	00a92023          	sw	a0,0(s2)
     f18:	00050a63          	beqz	a0,f2c <msgq_test+0x70>
     f1c:	00000693          	li	a3,0
     f20:	00000613          	li	a2,0
     f24:	00000593          	li	a1,0
     f28:	589020ef          	jal	ra,3cb0 <xQueueGenericSend>
     f2c:	00000613          	li	a2,0
     f30:	01000593          	li	a1,16
     f34:	01000513          	li	a0,16
     f38:	309020ef          	jal	ra,3a40 <xQueueGenericCreate>
     f3c:	00020497          	auipc	s1,0x20
     f40:	49448493          	addi	s1,s1,1172 # 213d0 <xQueue>
     f44:	00a4a023          	sw	a0,0(s1)
     f48:	01000413          	li	s0,16
     f4c:	00000b13          	li	s6,0
     f50:	00000a13          	li	s4,0
     f54:	c0002af3          	rdcycle	s5
     f58:	00000693          	li	a3,0
     f5c:	fff00613          	li	a2,-1
     f60:	00010593          	mv	a1,sp
     f64:	54d020ef          	jal	ra,3cb0 <xQueueGenericSend>
     f68:	c00027f3          	rdcycle	a5
     f6c:	415787b3          	sub	a5,a5,s5
     f70:	fff40413          	addi	s0,s0,-1
     f74:	00fa0a33          	add	s4,s4,a5
     f78:	00fb7463          	bgeu	s6,a5,f80 <msgq_test+0xc4>
     f7c:	00078b13          	mv	s6,a5
     f80:	00040663          	beqz	s0,f8c <msgq_test+0xd0>
     f84:	0004a503          	lw	a0,0(s1)
     f88:	fcdff06f          	j	f54 <msgq_test+0x98>
     f8c:	004a5a93          	srli	s5,s4,0x4
     f90:	00000c13          	li	s8,0
     f94:	01000a13          	li	s4,16
     f98:	c0002bf3          	rdcycle	s7
     f9c:	0004a503          	lw	a0,0(s1)
     fa0:	fff00613          	li	a2,-1
     fa4:	00010593          	mv	a1,sp
     fa8:	1c8030ef          	jal	ra,4170 <xQueueReceive>
     fac:	c00027f3          	rdcycle	a5
     fb0:	417787b3          	sub	a5,a5,s7
     fb4:	fffa0a13          	addi	s4,s4,-1
     fb8:	00f40433          	add	s0,s0,a5
     fbc:	00fc7463          	bgeu	s8,a5,fc4 <msgq_test+0x108>
     fc0:	00078c13          	mv	s8,a5
     fc4:	fc0a1ae3          	bnez	s4,f98 <msgq_test+0xdc>
     fc8:	000a8593          	mv	a1,s5
     fcc:	000b0613          	mv	a2,s6
     fd0:	0001f517          	auipc	a0,0x1f
     fd4:	4ec50513          	addi	a0,a0,1260 # 204bc <_impure_ptr+0x3f4>
     fd8:	538020ef          	jal	ra,3510 <printf_>
     fdc:	00445593          	srli	a1,s0,0x4
     fe0:	000c0613          	mv	a2,s8
     fe4:	0001f517          	auipc	a0,0x1f
     fe8:	51850513          	addi	a0,a0,1304 # 204fc <_impure_ptr+0x434>
     fec:	524020ef          	jal	ra,3510 <printf_>
     ff0:	00000793          	li	a5,0
     ff4:	00400713          	li	a4,4
     ff8:	00020697          	auipc	a3,0x20
     ffc:	48468693          	addi	a3,a3,1156 # 2147c <uiTaskResponse+0x4>
    1000:	40000613          	li	a2,1024
    1004:	0001f597          	auipc	a1,0x1f
    1008:	53858593          	addi	a1,a1,1336 # 2053c <_impure_ptr+0x474>
    100c:	00000517          	auipc	a0,0x0
    1010:	d6c50513          	addi	a0,a0,-660 # d78 <msg_get>
    1014:	00020817          	auipc	a6,0x20
    1018:	46082423          	sw	zero,1128(a6) # 2147c <uiTaskResponse+0x4>
    101c:	01400413          	li	s0,20
    1020:	1e0050ef          	jal	ra,6200 <xTaskCreate>
    1024:	00020a17          	auipc	s4,0x20
    1028:	3c0a0a13          	addi	s4,s4,960 # 213e4 <test_total>
    102c:	00020797          	auipc	a5,0x20
    1030:	3a07ac23          	sw	zero,952(a5) # 213e4 <test_total>
    1034:	00020797          	auipc	a5,0x20
    1038:	3a07a623          	sw	zero,940(a5) # 213e0 <test_max>
    103c:	00020a97          	auipc	s5,0x20
    1040:	3a4a8a93          	addi	s5,s5,932 # 213e0 <test_max>
    1044:	00100513          	li	a0,1
    1048:	4e9050ef          	jal	ra,6d30 <vTaskDelay>
    104c:	c0002b73          	rdcycle	s6
    1050:	0004a503          	lw	a0,0(s1)
    1054:	00000693          	li	a3,0
    1058:	fff00613          	li	a2,-1
    105c:	00010593          	mv	a1,sp
    1060:	451020ef          	jal	ra,3cb0 <xQueueGenericSend>
    1064:	c00027f3          	rdcycle	a5
    1068:	000a2703          	lw	a4,0(s4)
    106c:	416787b3          	sub	a5,a5,s6
    1070:	000aa603          	lw	a2,0(s5)
    1074:	00e78733          	add	a4,a5,a4
    1078:	00ea2023          	sw	a4,0(s4)
    107c:	fff40413          	addi	s0,s0,-1
    1080:	00f67463          	bgeu	a2,a5,1088 <msgq_test+0x1cc>
    1084:	00078613          	mv	a2,a5
    1088:	00caa023          	sw	a2,0(s5)
    108c:	fa041ce3          	bnez	s0,1044 <msgq_test+0x188>
    1090:	00020b97          	auipc	s7,0x20
    1094:	3dcb8b93          	addi	s7,s7,988 # 2146c <unsolicited_stats>
    1098:	010ba783          	lw	a5,16(s7)
    109c:	00079e63          	bnez	a5,10b8 <msgq_test+0x1fc>
    10a0:	06400513          	li	a0,100
    10a4:	48d050ef          	jal	ra,6d30 <vTaskDelay>
    10a8:	010ba783          	lw	a5,16(s7)
    10ac:	fe078ae3          	beqz	a5,10a0 <msgq_test+0x1e4>
    10b0:	000a2703          	lw	a4,0(s4)
    10b4:	000aa603          	lw	a2,0(s5)
    10b8:	01400593          	li	a1,20
    10bc:	02b755b3          	divu	a1,a4,a1
    10c0:	0001f517          	auipc	a0,0x1f
    10c4:	48450513          	addi	a0,a0,1156 # 20544 <_impure_ptr+0x47c>
    10c8:	01400413          	li	s0,20
    10cc:	00020b17          	auipc	s6,0x20
    10d0:	31cb0b13          	addi	s6,s6,796 # 213e8 <test_start>
    10d4:	43c020ef          	jal	ra,3510 <printf_>
    10d8:	00000793          	li	a5,0
    10dc:	00600713          	li	a4,6
    10e0:	00020697          	auipc	a3,0x20
    10e4:	39c68693          	addi	a3,a3,924 # 2147c <uiTaskResponse+0x4>
    10e8:	40000613          	li	a2,1024
    10ec:	0001f597          	auipc	a1,0x1f
    10f0:	49858593          	addi	a1,a1,1176 # 20584 <_impure_ptr+0x4bc>
    10f4:	00000517          	auipc	a0,0x0
    10f8:	cec50513          	addi	a0,a0,-788 # de0 <msg_get2>
    10fc:	00020817          	auipc	a6,0x20
    1100:	38082023          	sw	zero,896(a6) # 2147c <uiTaskResponse+0x4>
    1104:	0fc050ef          	jal	ra,6200 <xTaskCreate>
    1108:	00020797          	auipc	a5,0x20
    110c:	2c07ae23          	sw	zero,732(a5) # 213e4 <test_total>
    1110:	00020797          	auipc	a5,0x20
    1114:	2c07a823          	sw	zero,720(a5) # 213e0 <test_max>
    1118:	00092503          	lw	a0,0(s2)
    111c:	00000693          	li	a3,0
    1120:	00000613          	li	a2,0
    1124:	00000593          	li	a1,0
    1128:	389020ef          	jal	ra,3cb0 <xQueueGenericSend>
    112c:	c00027f3          	rdcycle	a5
    1130:	0004a503          	lw	a0,0(s1)
    1134:	fff40413          	addi	s0,s0,-1
    1138:	00000693          	li	a3,0
    113c:	fff00613          	li	a2,-1
    1140:	00010593          	mv	a1,sp
    1144:	00fb2023          	sw	a5,0(s6)
    1148:	369020ef          	jal	ra,3cb0 <xQueueGenericSend>
    114c:	fc0416e3          	bnez	s0,1118 <msgq_test+0x25c>
    1150:	010ba783          	lw	a5,16(s7)
    1154:	00079a63          	bnez	a5,1168 <msgq_test+0x2ac>
    1158:	06400513          	li	a0,100
    115c:	3d5050ef          	jal	ra,6d30 <vTaskDelay>
    1160:	010ba783          	lw	a5,16(s7)
    1164:	fe078ae3          	beqz	a5,1158 <msgq_test+0x29c>
    1168:	000a2583          	lw	a1,0(s4)
    116c:	01400793          	li	a5,20
    1170:	000aa603          	lw	a2,0(s5)
    1174:	02f5d5b3          	divu	a1,a1,a5
    1178:	0001f517          	auipc	a0,0x1f
    117c:	41850513          	addi	a0,a0,1048 # 20590 <_impure_ptr+0x4c8>
    1180:	390020ef          	jal	ra,3510 <printf_>
    1184:	00100793          	li	a5,1
    1188:	00f9a023          	sw	a5,0(s3)
    118c:	00000513          	li	a0,0
    1190:	200050ef          	jal	ra,6390 <vTaskDelete>
    1194:	03c12083          	lw	ra,60(sp)
    1198:	03812403          	lw	s0,56(sp)
    119c:	03412483          	lw	s1,52(sp)
    11a0:	03012903          	lw	s2,48(sp)
    11a4:	02c12983          	lw	s3,44(sp)
    11a8:	02812a03          	lw	s4,40(sp)
    11ac:	02412a83          	lw	s5,36(sp)
    11b0:	02012b03          	lw	s6,32(sp)
    11b4:	01c12b83          	lw	s7,28(sp)
    11b8:	01812c03          	lw	s8,24(sp)
    11bc:	04010113          	addi	sp,sp,64
    11c0:	00008067          	ret

000011c4 <yield_func>:
    11c4:	fe010113          	addi	sp,sp,-32
    11c8:	00812c23          	sw	s0,24(sp)
    11cc:	00912a23          	sw	s1,20(sp)
    11d0:	01212823          	sw	s2,16(sp)
    11d4:	01312623          	sw	s3,12(sp)
    11d8:	00112e23          	sw	ra,28(sp)
    11dc:	00050993          	mv	s3,a0
    11e0:	00052023          	sw	zero,0(a0)
    11e4:	01400413          	li	s0,20
    11e8:	00020497          	auipc	s1,0x20
    11ec:	20448493          	addi	s1,s1,516 # 213ec <indx>
    11f0:	00020917          	auipc	s2,0x20
    11f4:	27c90913          	addi	s2,s2,636 # 2146c <unsolicited_stats>
    11f8:	53d040ef          	jal	ra,5f34 <vTaskEnterCritical>
    11fc:	c00026f3          	rdcycle	a3
    1200:	0004a783          	lw	a5,0(s1)
    1204:	00279713          	slli	a4,a5,0x2
    1208:	00e90733          	add	a4,s2,a4
    120c:	00178793          	addi	a5,a5,1
    1210:	00d72e23          	sw	a3,28(a4)
    1214:	00f4a023          	sw	a5,0(s1)
    1218:	54d040ef          	jal	ra,5f64 <vTaskExitCritical>
    121c:	00000073          	ecall
    1220:	fff40413          	addi	s0,s0,-1
    1224:	fc041ae3          	bnez	s0,11f8 <yield_func+0x34>
    1228:	01812403          	lw	s0,24(sp)
    122c:	00100793          	li	a5,1
    1230:	01c12083          	lw	ra,28(sp)
    1234:	01412483          	lw	s1,20(sp)
    1238:	01012903          	lw	s2,16(sp)
    123c:	00f9a023          	sw	a5,0(s3)
    1240:	00c12983          	lw	s3,12(sp)
    1244:	00000513          	li	a0,0
    1248:	02010113          	addi	sp,sp,32
    124c:	1440506f          	j	6390 <vTaskDelete>

00001250 <vApplicationMallocFailedHook>:
    1250:	ff010113          	addi	sp,sp,-16
    1254:	0001f517          	auipc	a0,0x1f
    1258:	37c50513          	addi	a0,a0,892 # 205d0 <_impure_ptr+0x508>
    125c:	00112623          	sw	ra,12(sp)
    1260:	2b0020ef          	jal	ra,3510 <printf_>
    1264:	00000513          	li	a0,0
    1268:	6ac000ef          	jal	ra,1914 <exit>

0000126c <vApplicationStackOverflowHook>:
    126c:	ff010113          	addi	sp,sp,-16
    1270:	0001f517          	auipc	a0,0x1f
    1274:	37850513          	addi	a0,a0,888 # 205e8 <_impure_ptr+0x520>
    1278:	00112623          	sw	ra,12(sp)
    127c:	294020ef          	jal	ra,3510 <printf_>
    1280:	00000513          	li	a0,0
    1284:	690000ef          	jal	ra,1914 <exit>

00001288 <vApplicationTickHook>:
    1288:	00008067          	ret

0000128c <vApplicationIdleHook>:
    128c:	00008067          	ret

00001290 <get_timer>:
    1290:	c0002573          	rdcycle	a0
    1294:	00008067          	ret

00001298 <yieldTest>:
    1298:	fe010113          	addi	sp,sp,-32
    129c:	0001f517          	auipc	a0,0x1f
    12a0:	36c50513          	addi	a0,a0,876 # 20608 <_impure_ptr+0x540>
    12a4:	00112e23          	sw	ra,28(sp)
    12a8:	00812c23          	sw	s0,24(sp)
    12ac:	00912a23          	sw	s1,20(sp)
    12b0:	01212823          	sw	s2,16(sp)
    12b4:	01312623          	sw	s3,12(sp)
    12b8:	258020ef          	jal	ra,3510 <printf_>
    12bc:	479040ef          	jal	ra,5f34 <vTaskEnterCritical>
    12c0:	00a00913          	li	s2,10
    12c4:	00020497          	auipc	s1,0x20
    12c8:	12848493          	addi	s1,s1,296 # 213ec <indx>
    12cc:	00020417          	auipc	s0,0x20
    12d0:	1a040413          	addi	s0,s0,416 # 2146c <unsolicited_stats>
    12d4:	461040ef          	jal	ra,5f34 <vTaskEnterCritical>
    12d8:	c00026f3          	rdcycle	a3
    12dc:	0004a783          	lw	a5,0(s1)
    12e0:	fff90913          	addi	s2,s2,-1
    12e4:	00279713          	slli	a4,a5,0x2
    12e8:	00e40733          	add	a4,s0,a4
    12ec:	00178793          	addi	a5,a5,1
    12f0:	00d72e23          	sw	a3,28(a4)
    12f4:	00f4a023          	sw	a5,0(s1)
    12f8:	46d040ef          	jal	ra,5f64 <vTaskExitCritical>
    12fc:	fc091ce3          	bnez	s2,12d4 <yieldTest+0x3c>
    1300:	465040ef          	jal	ra,5f64 <vTaskExitCritical>
    1304:	0004a703          	lw	a4,0(s1)
    1308:	0004a783          	lw	a5,0(s1)
    130c:	00700593          	li	a1,7
    1310:	fff70713          	addi	a4,a4,-1
    1314:	ff678793          	addi	a5,a5,-10
    1318:	00271713          	slli	a4,a4,0x2
    131c:	00279793          	slli	a5,a5,0x2
    1320:	00e40733          	add	a4,s0,a4
    1324:	00f407b3          	add	a5,s0,a5
    1328:	01c72903          	lw	s2,28(a4)
    132c:	01c7a783          	lw	a5,28(a5)
    1330:	00000513          	li	a0,0
    1334:	00200993          	li	s3,2
    1338:	40f90933          	sub	s2,s2,a5
    133c:	00900793          	li	a5,9
    1340:	02f95933          	divu	s2,s2,a5
    1344:	00020797          	auipc	a5,0x20
    1348:	0a07a423          	sw	zero,168(a5) # 213ec <indx>
    134c:	00020797          	auipc	a5,0x20
    1350:	1207aa23          	sw	zero,308(a5) # 21480 <uiTaskResponse+0x8>
    1354:	00020797          	auipc	a5,0x20
    1358:	1207a423          	sw	zero,296(a5) # 2147c <uiTaskResponse+0x4>
    135c:	00020797          	auipc	a5,0x20
    1360:	1007ae23          	sw	zero,284(a5) # 21478 <uiTaskResponse>
    1364:	20c050ef          	jal	ra,6570 <vTaskPrioritySet>
    1368:	00000793          	li	a5,0
    136c:	00700713          	li	a4,7
    1370:	00020697          	auipc	a3,0x20
    1374:	10868693          	addi	a3,a3,264 # 21478 <uiTaskResponse>
    1378:	40000613          	li	a2,1024
    137c:	0001f597          	auipc	a1,0x1f
    1380:	2b458593          	addi	a1,a1,692 # 20630 <_impure_ptr+0x568>
    1384:	00000517          	auipc	a0,0x0
    1388:	e4050513          	addi	a0,a0,-448 # 11c4 <yield_func>
    138c:	675040ef          	jal	ra,6200 <xTaskCreate>
    1390:	00000793          	li	a5,0
    1394:	00700713          	li	a4,7
    1398:	00020697          	auipc	a3,0x20
    139c:	0e468693          	addi	a3,a3,228 # 2147c <uiTaskResponse+0x4>
    13a0:	40000613          	li	a2,1024
    13a4:	0001f597          	auipc	a1,0x1f
    13a8:	29458593          	addi	a1,a1,660 # 20638 <_impure_ptr+0x570>
    13ac:	00000517          	auipc	a0,0x0
    13b0:	e1850513          	addi	a0,a0,-488 # 11c4 <yield_func>
    13b4:	64d040ef          	jal	ra,6200 <xTaskCreate>
    13b8:	00000793          	li	a5,0
    13bc:	00700713          	li	a4,7
    13c0:	00020697          	auipc	a3,0x20
    13c4:	0c068693          	addi	a3,a3,192 # 21480 <uiTaskResponse+0x8>
    13c8:	40000613          	li	a2,1024
    13cc:	0001f597          	auipc	a1,0x1f
    13d0:	27458593          	addi	a1,a1,628 # 20640 <_impure_ptr+0x578>
    13d4:	00000517          	auipc	a0,0x0
    13d8:	df050513          	addi	a0,a0,-528 # 11c4 <yield_func>
    13dc:	625040ef          	jal	ra,6200 <xTaskCreate>
    13e0:	00500593          	li	a1,5
    13e4:	00000513          	li	a0,0
    13e8:	188050ef          	jal	ra,6570 <vTaskPrioritySet>
    13ec:	00c42783          	lw	a5,12(s0)
    13f0:	01042603          	lw	a2,16(s0)
    13f4:	01442683          	lw	a3,20(s0)
    13f8:	00200713          	li	a4,2
    13fc:	00c787b3          	add	a5,a5,a2
    1400:	00d787b3          	add	a5,a5,a3
    1404:	02f76263          	bltu	a4,a5,1428 <yieldTest+0x190>
    1408:	03200513          	li	a0,50
    140c:	125050ef          	jal	ra,6d30 <vTaskDelay>
    1410:	00c42783          	lw	a5,12(s0)
    1414:	01042683          	lw	a3,16(s0)
    1418:	01442703          	lw	a4,20(s0)
    141c:	00d787b3          	add	a5,a5,a3
    1420:	00e787b3          	add	a5,a5,a4
    1424:	fef9f2e3          	bgeu	s3,a5,1408 <yieldTest+0x170>
    1428:	0004a783          	lw	a5,0(s1)
    142c:	00c00713          	li	a4,12
    1430:	ffd78793          	addi	a5,a5,-3
    1434:	0af77c63          	bgeu	a4,a5,14ec <yieldTest+0x254>
    1438:	80000637          	lui	a2,0x80000
    143c:	00000713          	li	a4,0
    1440:	00000593          	li	a1,0
    1444:	00160613          	addi	a2,a2,1 # 80000001 <_stack+0x7ffc0001>
    1448:	00c00793          	li	a5,12
    144c:	00000513          	li	a0,0
    1450:	0001f897          	auipc	a7,0x1f
    1454:	34088893          	addi	a7,a7,832 # 20790 <clock_interrupted>
    1458:	04071a63          	bnez	a4,14ac <yieldTest+0x214>
    145c:	00279693          	slli	a3,a5,0x2
    1460:	fff78713          	addi	a4,a5,-1
    1464:	00d406b3          	add	a3,s0,a3
    1468:	00271713          	slli	a4,a4,0x2
    146c:	00e40733          	add	a4,s0,a4
    1470:	01c6a683          	lw	a3,28(a3)
    1474:	01c72803          	lw	a6,28(a4)
    1478:	00158593          	addi	a1,a1,1
    147c:	41268733          	sub	a4,a3,s2
    1480:	41070733          	sub	a4,a4,a6
    1484:	00e50533          	add	a0,a0,a4
    1488:	00e65463          	bge	a2,a4,1490 <yieldTest+0x1f8>
    148c:	00070613          	mv	a2,a4
    1490:	0004a703          	lw	a4,0(s1)
    1494:	00178793          	addi	a5,a5,1
    1498:	ffd70713          	addi	a4,a4,-3
    149c:	02e7f263          	bgeu	a5,a4,14c0 <yieldTest+0x228>
    14a0:	00f88733          	add	a4,a7,a5
    14a4:	00074703          	lbu	a4,0(a4)
    14a8:	fa070ae3          	beqz	a4,145c <yieldTest+0x1c4>
    14ac:	0004a703          	lw	a4,0(s1)
    14b0:	00278793          	addi	a5,a5,2
    14b4:	00178793          	addi	a5,a5,1
    14b8:	ffd70713          	addi	a4,a4,-3
    14bc:	fee7e2e3          	bltu	a5,a4,14a0 <yieldTest+0x208>
    14c0:	02b545b3          	div	a1,a0,a1
    14c4:	01812403          	lw	s0,24(sp)
    14c8:	01c12083          	lw	ra,28(sp)
    14cc:	01412483          	lw	s1,20(sp)
    14d0:	00c12983          	lw	s3,12(sp)
    14d4:	00090693          	mv	a3,s2
    14d8:	01012903          	lw	s2,16(sp)
    14dc:	0001f517          	auipc	a0,0x1f
    14e0:	16c50513          	addi	a0,a0,364 # 20648 <_impure_ptr+0x580>
    14e4:	02010113          	addi	sp,sp,32
    14e8:	0280206f          	j	3510 <printf_>
    14ec:	00100073          	ebreak

000014f0 <unsolicitedTest>:
    14f0:	ff010113          	addi	sp,sp,-16
    14f4:	0001f517          	auipc	a0,0x1f
    14f8:	19c50513          	addi	a0,a0,412 # 20690 <_impure_ptr+0x5c8>
    14fc:	00112623          	sw	ra,12(sp)
    1500:	00812423          	sw	s0,8(sp)
    1504:	00912223          	sw	s1,4(sp)
    1508:	008020ef          	jal	ra,3510 <printf_>
    150c:	00020797          	auipc	a5,0x20
    1510:	f607a223          	sw	zero,-156(a5) # 21470 <unsolicited_stats+0x4>
    1514:	00020797          	auipc	a5,0x20
    1518:	f407ac23          	sw	zero,-168(a5) # 2146c <unsolicited_stats>
    151c:	800007b7          	lui	a5,0x80000
    1520:	00178793          	addi	a5,a5,1 # 80000001 <_stack+0x7ffc0001>
    1524:	00700593          	li	a1,7
    1528:	00000513          	li	a0,0
    152c:	00020497          	auipc	s1,0x20
    1530:	f4048493          	addi	s1,s1,-192 # 2146c <unsolicited_stats>
    1534:	00f4a423          	sw	a5,8(s1)
    1538:	038050ef          	jal	ra,6570 <vTaskPrioritySet>
    153c:	00000793          	li	a5,0
    1540:	00600713          	li	a4,6
    1544:	00000693          	li	a3,0
    1548:	40000613          	li	a2,1024
    154c:	0001f597          	auipc	a1,0x1f
    1550:	19458593          	addi	a1,a1,404 # 206e0 <_impure_ptr+0x618>
    1554:	fffff517          	auipc	a0,0xfffff
    1558:	ba450513          	addi	a0,a0,-1116 # f8 <unsolicited_background>
    155c:	4a5040ef          	jal	ra,6200 <xTaskCreate>
    1560:	00000793          	li	a5,0
    1564:	00700713          	li	a4,7
    1568:	00000693          	li	a3,0
    156c:	40000613          	li	a2,1024
    1570:	0001f597          	auipc	a1,0x1f
    1574:	17858593          	addi	a1,a1,376 # 206e8 <_impure_ptr+0x620>
    1578:	fffff517          	auipc	a0,0xfffff
    157c:	d0c50513          	addi	a0,a0,-756 # 284 <unsolicited_hipriority>
    1580:	481040ef          	jal	ra,6200 <xTaskCreate>
    1584:	00500593          	li	a1,5
    1588:	00000513          	li	a0,0
    158c:	00020417          	auipc	s0,0x20
    1590:	e4040413          	addi	s0,s0,-448 # 213cc <unsolicited_done>
    1594:	7dd040ef          	jal	ra,6570 <vTaskPrioritySet>
    1598:	00042783          	lw	a5,0(s0)
    159c:	00079a63          	bnez	a5,15b0 <unsolicitedTest+0xc0>
    15a0:	03200513          	li	a0,50
    15a4:	78c050ef          	jal	ra,6d30 <vTaskDelay>
    15a8:	00042783          	lw	a5,0(s0)
    15ac:	fe078ae3          	beqz	a5,15a0 <unsolicitedTest+0xb0>
    15b0:	c0002773          	rdcycle	a4
    15b4:	c00026f3          	rdcycle	a3
    15b8:	0004a503          	lw	a0,0(s1)
    15bc:	0044a783          	lw	a5,4(s1)
    15c0:	0084a603          	lw	a2,8(s1)
    15c4:	00812403          	lw	s0,8(sp)
    15c8:	00f507b3          	add	a5,a0,a5
    15cc:	fff78793          	addi	a5,a5,-1
    15d0:	02a7c7b3          	div	a5,a5,a0
    15d4:	00c12083          	lw	ra,12(sp)
    15d8:	00412483          	lw	s1,4(sp)
    15dc:	40d705b3          	sub	a1,a4,a3
    15e0:	00c58633          	add	a2,a1,a2
    15e4:	40e686b3          	sub	a3,a3,a4
    15e8:	0001f517          	auipc	a0,0x1f
    15ec:	10850513          	addi	a0,a0,264 # 206f0 <_impure_ptr+0x628>
    15f0:	01010113          	addi	sp,sp,16
    15f4:	00b785b3          	add	a1,a5,a1
    15f8:	7190106f          	j	3510 <printf_>

000015fc <semaphoreTest>:
    15fc:	ff010113          	addi	sp,sp,-16
    1600:	0001f517          	auipc	a0,0x1f
    1604:	14050513          	addi	a0,a0,320 # 20740 <_impure_ptr+0x678>
    1608:	00112623          	sw	ra,12(sp)
    160c:	00812423          	sw	s0,8(sp)
    1610:	701010ef          	jal	ra,3510 <printf_>
    1614:	00600593          	li	a1,6
    1618:	00000513          	li	a0,0
    161c:	00020797          	auipc	a5,0x20
    1620:	e607a023          	sw	zero,-416(a5) # 2147c <uiTaskResponse+0x4>
    1624:	74d040ef          	jal	ra,6570 <vTaskPrioritySet>
    1628:	00000793          	li	a5,0
    162c:	00500713          	li	a4,5
    1630:	00020697          	auipc	a3,0x20
    1634:	e4c68693          	addi	a3,a3,-436 # 2147c <uiTaskResponse+0x4>
    1638:	40000613          	li	a2,1024
    163c:	0001f597          	auipc	a1,0x1f
    1640:	11858593          	addi	a1,a1,280 # 20754 <_impure_ptr+0x68c>
    1644:	fffff517          	auipc	a0,0xfffff
    1648:	cd050513          	addi	a0,a0,-816 # 314 <sem_test>
    164c:	3b5040ef          	jal	ra,6200 <xTaskCreate>
    1650:	00200593          	li	a1,2
    1654:	00000513          	li	a0,0
    1658:	00020417          	auipc	s0,0x20
    165c:	e1440413          	addi	s0,s0,-492 # 2146c <unsolicited_stats>
    1660:	711040ef          	jal	ra,6570 <vTaskPrioritySet>
    1664:	01042783          	lw	a5,16(s0)
    1668:	00079a63          	bnez	a5,167c <semaphoreTest+0x80>
    166c:	00a00513          	li	a0,10
    1670:	6c0050ef          	jal	ra,6d30 <vTaskDelay>
    1674:	01042783          	lw	a5,16(s0)
    1678:	fe078ae3          	beqz	a5,166c <semaphoreTest+0x70>
    167c:	00812403          	lw	s0,8(sp)
    1680:	00c12083          	lw	ra,12(sp)
    1684:	00500593          	li	a1,5
    1688:	00000513          	li	a0,0
    168c:	01010113          	addi	sp,sp,16
    1690:	6e10406f          	j	6570 <vTaskPrioritySet>

00001694 <mutexTest>:
    1694:	ff010113          	addi	sp,sp,-16
    1698:	00600593          	li	a1,6
    169c:	00000513          	li	a0,0
    16a0:	00112623          	sw	ra,12(sp)
    16a4:	00812423          	sw	s0,8(sp)
    16a8:	00020797          	auipc	a5,0x20
    16ac:	dc07a823          	sw	zero,-560(a5) # 21478 <uiTaskResponse>
    16b0:	6c1040ef          	jal	ra,6570 <vTaskPrioritySet>
    16b4:	00000793          	li	a5,0
    16b8:	00500713          	li	a4,5
    16bc:	00020697          	auipc	a3,0x20
    16c0:	dbc68693          	addi	a3,a3,-580 # 21478 <uiTaskResponse>
    16c4:	40000613          	li	a2,1024
    16c8:	0001f597          	auipc	a1,0x1f
    16cc:	09858593          	addi	a1,a1,152 # 20760 <_impure_ptr+0x698>
    16d0:	fffff517          	auipc	a0,0xfffff
    16d4:	ec050513          	addi	a0,a0,-320 # 590 <mutex_test>
    16d8:	329040ef          	jal	ra,6200 <xTaskCreate>
    16dc:	00300593          	li	a1,3
    16e0:	00000513          	li	a0,0
    16e4:	00020417          	auipc	s0,0x20
    16e8:	d8840413          	addi	s0,s0,-632 # 2146c <unsolicited_stats>
    16ec:	685040ef          	jal	ra,6570 <vTaskPrioritySet>
    16f0:	00c42783          	lw	a5,12(s0)
    16f4:	00079a63          	bnez	a5,1708 <mutexTest+0x74>
    16f8:	00a00513          	li	a0,10
    16fc:	634050ef          	jal	ra,6d30 <vTaskDelay>
    1700:	00c42783          	lw	a5,12(s0)
    1704:	fe078ae3          	beqz	a5,16f8 <mutexTest+0x64>
    1708:	00812403          	lw	s0,8(sp)
    170c:	00c12083          	lw	ra,12(sp)
    1710:	00500593          	li	a1,5
    1714:	00000513          	li	a0,0
    1718:	01010113          	addi	sp,sp,16
    171c:	6550406f          	j	6570 <vTaskPrioritySet>

00001720 <eventTest>:
    1720:	ff010113          	addi	sp,sp,-16
    1724:	00600593          	li	a1,6
    1728:	00000513          	li	a0,0
    172c:	00112623          	sw	ra,12(sp)
    1730:	00812423          	sw	s0,8(sp)
    1734:	00020797          	auipc	a5,0x20
    1738:	d407a223          	sw	zero,-700(a5) # 21478 <uiTaskResponse>
    173c:	635040ef          	jal	ra,6570 <vTaskPrioritySet>
    1740:	00000793          	li	a5,0
    1744:	00500713          	li	a4,5
    1748:	00020697          	auipc	a3,0x20
    174c:	d3068693          	addi	a3,a3,-720 # 21478 <uiTaskResponse>
    1750:	40000613          	li	a2,1024
    1754:	0001f597          	auipc	a1,0x1f
    1758:	01858593          	addi	a1,a1,24 # 2076c <_impure_ptr+0x6a4>
    175c:	fffff517          	auipc	a0,0xfffff
    1760:	2e450513          	addi	a0,a0,740 # a40 <event_test>
    1764:	29d040ef          	jal	ra,6200 <xTaskCreate>
    1768:	00300593          	li	a1,3
    176c:	00000513          	li	a0,0
    1770:	00020417          	auipc	s0,0x20
    1774:	cfc40413          	addi	s0,s0,-772 # 2146c <unsolicited_stats>
    1778:	5f9040ef          	jal	ra,6570 <vTaskPrioritySet>
    177c:	00c42783          	lw	a5,12(s0)
    1780:	00079a63          	bnez	a5,1794 <eventTest+0x74>
    1784:	00a00513          	li	a0,10
    1788:	5a8050ef          	jal	ra,6d30 <vTaskDelay>
    178c:	00c42783          	lw	a5,12(s0)
    1790:	fe078ae3          	beqz	a5,1784 <eventTest+0x64>
    1794:	00812403          	lw	s0,8(sp)
    1798:	00c12083          	lw	ra,12(sp)
    179c:	00500593          	li	a1,5
    17a0:	00000513          	li	a0,0
    17a4:	01010113          	addi	sp,sp,16
    17a8:	5c90406f          	j	6570 <vTaskPrioritySet>

000017ac <queueTest>:
    17ac:	ff010113          	addi	sp,sp,-16
    17b0:	00600593          	li	a1,6
    17b4:	00000513          	li	a0,0
    17b8:	00112623          	sw	ra,12(sp)
    17bc:	00812423          	sw	s0,8(sp)
    17c0:	00020797          	auipc	a5,0x20
    17c4:	ca07ac23          	sw	zero,-840(a5) # 21478 <uiTaskResponse>
    17c8:	5a9040ef          	jal	ra,6570 <vTaskPrioritySet>
    17cc:	00000793          	li	a5,0
    17d0:	00500713          	li	a4,5
    17d4:	00020697          	auipc	a3,0x20
    17d8:	ca468693          	addi	a3,a3,-860 # 21478 <uiTaskResponse>
    17dc:	40000613          	li	a2,1024
    17e0:	0001f597          	auipc	a1,0x1f
    17e4:	f9858593          	addi	a1,a1,-104 # 20778 <_impure_ptr+0x6b0>
    17e8:	fffff517          	auipc	a0,0xfffff
    17ec:	6d450513          	addi	a0,a0,1748 # ebc <msgq_test>
    17f0:	211040ef          	jal	ra,6200 <xTaskCreate>
    17f4:	00300593          	li	a1,3
    17f8:	00000513          	li	a0,0
    17fc:	00020417          	auipc	s0,0x20
    1800:	c7040413          	addi	s0,s0,-912 # 2146c <unsolicited_stats>
    1804:	56d040ef          	jal	ra,6570 <vTaskPrioritySet>
    1808:	00c42783          	lw	a5,12(s0)
    180c:	00079a63          	bnez	a5,1820 <queueTest+0x74>
    1810:	00a00513          	li	a0,10
    1814:	51c050ef          	jal	ra,6d30 <vTaskDelay>
    1818:	00c42783          	lw	a5,12(s0)
    181c:	fe078ae3          	beqz	a5,1810 <queueTest+0x64>
    1820:	00812403          	lw	s0,8(sp)
    1824:	00c12083          	lw	ra,12(sp)
    1828:	00500593          	li	a1,5
    182c:	00000513          	li	a0,0
    1830:	01010113          	addi	sp,sp,16
    1834:	53d0406f          	j	6570 <vTaskPrioritySet>

00001838 <test>:
    1838:	ff010113          	addi	sp,sp,-16
    183c:	00112623          	sw	ra,12(sp)
    1840:	a59ff0ef          	jal	ra,1298 <yieldTest>
    1844:	cadff0ef          	jal	ra,14f0 <unsolicitedTest>
    1848:	db5ff0ef          	jal	ra,15fc <semaphoreTest>
    184c:	e49ff0ef          	jal	ra,1694 <mutexTest>
    1850:	ed1ff0ef          	jal	ra,1720 <eventTest>
    1854:	f59ff0ef          	jal	ra,17ac <queueTest>
    1858:	00000513          	li	a0,0
    185c:	0b8000ef          	jal	ra,1914 <exit>

00001860 <main>:
    1860:	ff010113          	addi	sp,sp,-16
    1864:	0001f517          	auipc	a0,0x1f
    1868:	f2050513          	addi	a0,a0,-224 # 20784 <_impure_ptr+0x6bc>
    186c:	00112623          	sw	ra,12(sp)
    1870:	4a1010ef          	jal	ra,3510 <printf_>
    1874:	00000793          	li	a5,0
    1878:	00500713          	li	a4,5
    187c:	00000693          	li	a3,0
    1880:	40000613          	li	a2,1024
    1884:	0001f597          	auipc	a1,0x1f
    1888:	ed458593          	addi	a1,a1,-300 # 20758 <_impure_ptr+0x690>
    188c:	00000517          	auipc	a0,0x0
    1890:	fac50513          	addi	a0,a0,-84 # 1838 <test>
    1894:	16d040ef          	jal	ra,6200 <xTaskCreate>
    1898:	241040ef          	jal	ra,62d8 <vTaskStartScheduler>
    189c:	0000006f          	j	189c <main+0x3c>

000018a0 <trap_handler>:
    18a0:	34102f73          	csrr	t5,mepc
    18a4:	004f0f13          	addi	t5,t5,4
    18a8:	341f1073          	csrw	mepc,t5
    18ac:	30200073          	mret
    18b0:	0000                	.2byte	0x0
	...

000018b4 <_putchar>:
    18b4:	900007b7          	lui	a5,0x90000
    18b8:	00a78e23          	sb	a0,28(a5) # 9000001c <_stack+0x8ffc001c>
    18bc:	00008067          	ret

000018c0 <_write>:
    18c0:	00060513          	mv	a0,a2
    18c4:	00060e63          	beqz	a2,18e0 <_write+0x20>
    18c8:	00c586b3          	add	a3,a1,a2
    18cc:	90000737          	lui	a4,0x90000
    18d0:	0005c783          	lbu	a5,0(a1)
    18d4:	00158593          	addi	a1,a1,1
    18d8:	00f70e23          	sb	a5,28(a4) # 9000001c <_stack+0x8ffc001c>
    18dc:	fed59ae3          	bne	a1,a3,18d0 <_write+0x10>
    18e0:	00008067          	ret

000018e4 <_fstat>:
    18e4:	fff00513          	li	a0,-1
    18e8:	00008067          	ret

000018ec <_close>:
    18ec:	fff00513          	li	a0,-1
    18f0:	00008067          	ret

000018f4 <_lseek>:
    18f4:	fff00513          	li	a0,-1
    18f8:	00008067          	ret

000018fc <_read>:
    18fc:	fff00513          	li	a0,-1
    1900:	00008067          	ret

00001904 <_exit>:
    1904:	0ff57793          	zext.b	a5,a0
    1908:	90000737          	lui	a4,0x90000
    190c:	02f70623          	sb	a5,44(a4) # 9000002c <_stack+0x8ffc002c>
    1910:	0000006f          	j	1910 <_exit+0xc>

00001914 <exit>:
    1914:	0ff57793          	zext.b	a5,a0
    1918:	90000737          	lui	a4,0x90000
    191c:	02f70623          	sb	a5,44(a4) # 9000002c <_stack+0x8ffc002c>
    1920:	0000006f          	j	1920 <exit+0xc>

00001924 <_isatty>:
    1924:	00353513          	sltiu	a0,a0,3
    1928:	00008067          	ret

0000192c <_sbrk>:
    192c:	00020697          	auipc	a3,0x20
    1930:	ac468693          	addi	a3,a3,-1340 # 213f0 <heap_ptr>
    1934:	0006a703          	lw	a4,0(a3)
    1938:	02070063          	beqz	a4,1958 <_sbrk+0x2c>
    193c:	00a707b3          	add	a5,a4,a0
    1940:	0003e617          	auipc	a2,0x3e
    1944:	6c060613          	addi	a2,a2,1728 # 40000 <_stack>
    1948:	02c7d663          	bge	a5,a2,1974 <_sbrk+0x48>
    194c:	00f6a023          	sw	a5,0(a3)
    1950:	00070513          	mv	a0,a4
    1954:	00008067          	ret
    1958:	00021717          	auipc	a4,0x21
    195c:	ea870713          	addi	a4,a4,-344 # 22800 <_bss_end>
    1960:	00e6a023          	sw	a4,0(a3)
    1964:	00a707b3          	add	a5,a4,a0
    1968:	0003e617          	auipc	a2,0x3e
    196c:	69860613          	addi	a2,a2,1688 # 40000 <_stack>
    1970:	fcc7cee3          	blt	a5,a2,194c <_sbrk+0x20>
    1974:	00000713          	li	a4,0
    1978:	00070513          	mv	a0,a4
    197c:	00008067          	ret

00001980 <_kill>:
    1980:	fff00513          	li	a0,-1
    1984:	00008067          	ret

00001988 <_getpid>:
    1988:	00000513          	li	a0,0
    198c:	00008067          	ret

00001990 <_out_buffer>:
    1990:	00d67663          	bgeu	a2,a3,199c <_out_buffer+0xc>
    1994:	00c585b3          	add	a1,a1,a2
    1998:	00a58023          	sb	a0,0(a1)
    199c:	00008067          	ret

000019a0 <_out_null>:
    19a0:	00008067          	ret

000019a4 <_out_rev>:
    19a4:	fd010113          	addi	sp,sp,-48
    19a8:	02912223          	sw	s1,36(sp)
    19ac:	03212023          	sw	s2,32(sp)
    19b0:	01312e23          	sw	s3,28(sp)
    19b4:	01412c23          	sw	s4,24(sp)
    19b8:	01512a23          	sw	s5,20(sp)
    19bc:	01612823          	sw	s6,16(sp)
    19c0:	00060a93          	mv	s5,a2
    19c4:	01812423          	sw	s8,8(sp)
    19c8:	01912223          	sw	s9,4(sp)
    19cc:	01a12023          	sw	s10,0(sp)
    19d0:	02112623          	sw	ra,44(sp)
    19d4:	02812423          	sw	s0,40(sp)
    19d8:	01712623          	sw	s7,12(sp)
    19dc:	0038f613          	andi	a2,a7,3
    19e0:	00088c93          	mv	s9,a7
    19e4:	00050913          	mv	s2,a0
    19e8:	00058993          	mv	s3,a1
    19ec:	00068a13          	mv	s4,a3
    19f0:	00070b13          	mv	s6,a4
    19f4:	00078d13          	mv	s10,a5
    19f8:	00080c13          	mv	s8,a6
    19fc:	000a8493          	mv	s1,s5
    1a00:	02061863          	bnez	a2,1a30 <_out_rev+0x8c>
    1a04:	0307f663          	bgeu	a5,a6,1a30 <_out_rev+0x8c>
    1a08:	40f804b3          	sub	s1,a6,a5
    1a0c:	015484b3          	add	s1,s1,s5
    1a10:	000a8413          	mv	s0,s5
    1a14:	00040613          	mv	a2,s0
    1a18:	000a0693          	mv	a3,s4
    1a1c:	00140413          	addi	s0,s0,1
    1a20:	00098593          	mv	a1,s3
    1a24:	02000513          	li	a0,32
    1a28:	000900e7          	jalr	s2
    1a2c:	fe9414e3          	bne	s0,s1,1a14 <_out_rev+0x70>
    1a30:	020d0663          	beqz	s10,1a5c <_out_rev+0xb8>
    1a34:	01ab0433          	add	s0,s6,s10
    1a38:	00940bb3          	add	s7,s0,s1
    1a3c:	fff44503          	lbu	a0,-1(s0)
    1a40:	408b8633          	sub	a2,s7,s0
    1a44:	000a0693          	mv	a3,s4
    1a48:	fff40413          	addi	s0,s0,-1
    1a4c:	00098593          	mv	a1,s3
    1a50:	000900e7          	jalr	s2
    1a54:	fe8b14e3          	bne	s6,s0,1a3c <_out_rev+0x98>
    1a58:	01a484b3          	add	s1,s1,s10
    1a5c:	002cfc93          	andi	s9,s9,2
    1a60:	020c8663          	beqz	s9,1a8c <_out_rev+0xe8>
    1a64:	41548ab3          	sub	s5,s1,s5
    1a68:	038af263          	bgeu	s5,s8,1a8c <_out_rev+0xe8>
    1a6c:	00048613          	mv	a2,s1
    1a70:	001a8a93          	addi	s5,s5,1
    1a74:	000a0693          	mv	a3,s4
    1a78:	00098593          	mv	a1,s3
    1a7c:	02000513          	li	a0,32
    1a80:	00148493          	addi	s1,s1,1
    1a84:	000900e7          	jalr	s2
    1a88:	ff8ae2e3          	bltu	s5,s8,1a6c <_out_rev+0xc8>
    1a8c:	02c12083          	lw	ra,44(sp)
    1a90:	02812403          	lw	s0,40(sp)
    1a94:	02012903          	lw	s2,32(sp)
    1a98:	01c12983          	lw	s3,28(sp)
    1a9c:	01812a03          	lw	s4,24(sp)
    1aa0:	01412a83          	lw	s5,20(sp)
    1aa4:	01012b03          	lw	s6,16(sp)
    1aa8:	00c12b83          	lw	s7,12(sp)
    1aac:	00812c03          	lw	s8,8(sp)
    1ab0:	00412c83          	lw	s9,4(sp)
    1ab4:	00012d03          	lw	s10,0(sp)
    1ab8:	00048513          	mv	a0,s1
    1abc:	02412483          	lw	s1,36(sp)
    1ac0:	03010113          	addi	sp,sp,48
    1ac4:	00008067          	ret

00001ac8 <_ntoa_format>:
    1ac8:	00812383          	lw	t2,8(sp)
    1acc:	00012283          	lw	t0,0(sp)
    1ad0:	00412f83          	lw	t6,4(sp)
    1ad4:	0023f313          	andi	t1,t2,2
    1ad8:	00080f13          	mv	t5,a6
    1adc:	06031463          	bnez	t1,1b44 <_ntoa_format+0x7c>
    1ae0:	0013f813          	andi	a6,t2,1
    1ae4:	100f9e63          	bnez	t6,1c00 <_ntoa_format+0x138>
    1ae8:	0257f663          	bgeu	a5,t0,1b14 <_ntoa_format+0x4c>
    1aec:	01f00313          	li	t1,31
    1af0:	22f36863          	bltu	t1,a5,1d20 <_ntoa_format+0x258>
    1af4:	03000e13          	li	t3,48
    1af8:	02000e93          	li	t4,32
    1afc:	0080006f          	j	1b04 <_ntoa_format+0x3c>
    1b00:	01d78a63          	beq	a5,t4,1b14 <_ntoa_format+0x4c>
    1b04:	00178793          	addi	a5,a5,1
    1b08:	00f70333          	add	t1,a4,a5
    1b0c:	ffc30fa3          	sb	t3,-1(t1)
    1b10:	fe57e8e3          	bltu	a5,t0,1b00 <_ntoa_format+0x38>
    1b14:	02080863          	beqz	a6,1b44 <_ntoa_format+0x7c>
    1b18:	03f7f663          	bgeu	a5,t6,1b44 <_ntoa_format+0x7c>
    1b1c:	02000813          	li	a6,32
    1b20:	11078263          	beq	a5,a6,1c24 <_ntoa_format+0x15c>
    1b24:	03000e13          	li	t3,48
    1b28:	02000e93          	li	t4,32
    1b2c:	0080006f          	j	1b34 <_ntoa_format+0x6c>
    1b30:	0fd78a63          	beq	a5,t4,1c24 <_ntoa_format+0x15c>
    1b34:	00178793          	addi	a5,a5,1
    1b38:	00f70333          	add	t1,a4,a5
    1b3c:	ffc30fa3          	sb	t3,-1(t1)
    1b40:	fff798e3          	bne	a5,t6,1b30 <_ntoa_format+0x68>
    1b44:	0103f813          	andi	a6,t2,16
    1b48:	08080463          	beqz	a6,1bd0 <_ntoa_format+0x108>
    1b4c:	4003f813          	andi	a6,t2,1024
    1b50:	04081c63          	bnez	a6,1ba8 <_ntoa_format+0xe0>
    1b54:	04079663          	bnez	a5,1ba0 <_ntoa_format+0xd8>
    1b58:	01000793          	li	a5,16
    1b5c:	16f88463          	beq	a7,a5,1cc4 <_ntoa_format+0x1fc>
    1b60:	00200793          	li	a5,2
    1b64:	1af88663          	beq	a7,a5,1d10 <_ntoa_format+0x248>
    1b68:	03000793          	li	a5,48
    1b6c:	00f70023          	sb	a5,0(a4)
    1b70:	00100793          	li	a5,1
    1b74:	060f0463          	beqz	t5,1bdc <_ntoa_format+0x114>
    1b78:	00f70833          	add	a6,a4,a5
    1b7c:	02d00893          	li	a7,45
    1b80:	01180023          	sb	a7,0(a6)
    1b84:	00178793          	addi	a5,a5,1
    1b88:	00038893          	mv	a7,t2
    1b8c:	000f8813          	mv	a6,t6
    1b90:	e15ff06f          	j	19a4 <_out_rev>
    1b94:	4003f793          	andi	a5,t2,1024
    1b98:	16079063          	bnez	a5,1cf8 <_ntoa_format+0x230>
    1b9c:	02000793          	li	a5,32
    1ba0:	0ef28063          	beq	t0,a5,1c80 <_ntoa_format+0x1b8>
    1ba4:	0cff8e63          	beq	t6,a5,1c80 <_ntoa_format+0x1b8>
    1ba8:	01000813          	li	a6,16
    1bac:	0f088a63          	beq	a7,a6,1ca0 <_ntoa_format+0x1d8>
    1bb0:	00200813          	li	a6,2
    1bb4:	0b088863          	beq	a7,a6,1c64 <_ntoa_format+0x19c>
    1bb8:	02000813          	li	a6,32
    1bbc:	fd0786e3          	beq	a5,a6,1b88 <_ntoa_format+0xc0>
    1bc0:	00f70833          	add	a6,a4,a5
    1bc4:	03000893          	li	a7,48
    1bc8:	01180023          	sb	a7,0(a6)
    1bcc:	00178793          	addi	a5,a5,1
    1bd0:	02000813          	li	a6,32
    1bd4:	fb078ae3          	beq	a5,a6,1b88 <_ntoa_format+0xc0>
    1bd8:	fa0f10e3          	bnez	t5,1b78 <_ntoa_format+0xb0>
    1bdc:	0043f813          	andi	a6,t2,4
    1be0:	06081463          	bnez	a6,1c48 <_ntoa_format+0x180>
    1be4:	0083f813          	andi	a6,t2,8
    1be8:	fa0800e3          	beqz	a6,1b88 <_ntoa_format+0xc0>
    1bec:	00f70833          	add	a6,a4,a5
    1bf0:	02000893          	li	a7,32
    1bf4:	01180023          	sb	a7,0(a6)
    1bf8:	00178793          	addi	a5,a5,1
    1bfc:	f8dff06f          	j	1b88 <_ntoa_format+0xc0>
    1c00:	02080a63          	beqz	a6,1c34 <_ntoa_format+0x16c>
    1c04:	060f1a63          	bnez	t5,1c78 <_ntoa_format+0x1b0>
    1c08:	00c3f313          	andi	t1,t2,12
    1c0c:	06031663          	bnez	t1,1c78 <_ntoa_format+0x1b0>
    1c10:	f057f4e3          	bgeu	a5,t0,1b18 <_ntoa_format+0x50>
    1c14:	01f00313          	li	t1,31
    1c18:	ecf37ee3          	bgeu	t1,a5,1af4 <_ntoa_format+0x2c>
    1c1c:	02000793          	li	a5,32
    1c20:	f3f7f2e3          	bgeu	a5,t6,1b44 <_ntoa_format+0x7c>
    1c24:	0103f793          	andi	a5,t2,16
    1c28:	f60796e3          	bnez	a5,1b94 <_ntoa_format+0xcc>
    1c2c:	02000793          	li	a5,32
    1c30:	f59ff06f          	j	1b88 <_ntoa_format+0xc0>
    1c34:	f057f8e3          	bgeu	a5,t0,1b44 <_ntoa_format+0x7c>
    1c38:	01f00313          	li	t1,31
    1c3c:	eaf37ce3          	bgeu	t1,a5,1af4 <_ntoa_format+0x2c>
    1c40:	02000793          	li	a5,32
    1c44:	f01ff06f          	j	1b44 <_ntoa_format+0x7c>
    1c48:	00f70833          	add	a6,a4,a5
    1c4c:	02b00893          	li	a7,43
    1c50:	01180023          	sb	a7,0(a6)
    1c54:	00178793          	addi	a5,a5,1
    1c58:	00038893          	mv	a7,t2
    1c5c:	000f8813          	mv	a6,t6
    1c60:	d45ff06f          	j	19a4 <_out_rev>
    1c64:	02000813          	li	a6,32
    1c68:	f30780e3          	beq	a5,a6,1b88 <_ntoa_format+0xc0>
    1c6c:	00f70833          	add	a6,a4,a5
    1c70:	00178793          	addi	a5,a5,1
    1c74:	0d40006f          	j	1d48 <_ntoa_format+0x280>
    1c78:	ffff8f93          	addi	t6,t6,-1
    1c7c:	f95ff06f          	j	1c10 <_ntoa_format+0x148>
    1c80:	fff78813          	addi	a6,a5,-1
    1c84:	ec080ae3          	beqz	a6,1b58 <_ntoa_format+0x90>
    1c88:	01000313          	li	t1,16
    1c8c:	0a688063          	beq	a7,t1,1d2c <_ntoa_format+0x264>
    1c90:	00200313          	li	t1,2
    1c94:	0a688863          	beq	a7,t1,1d44 <_ntoa_format+0x27c>
    1c98:	00080793          	mv	a5,a6
    1c9c:	f25ff06f          	j	1bc0 <_ntoa_format+0xf8>
    1ca0:	0203f813          	andi	a6,t2,32
    1ca4:	02081c63          	bnez	a6,1cdc <_ntoa_format+0x214>
    1ca8:	02000813          	li	a6,32
    1cac:	ed078ee3          	beq	a5,a6,1b88 <_ntoa_format+0xc0>
    1cb0:	00f708b3          	add	a7,a4,a5
    1cb4:	00178793          	addi	a5,a5,1
    1cb8:	07800813          	li	a6,120
    1cbc:	01088023          	sb	a6,0(a7)
    1cc0:	ef9ff06f          	j	1bb8 <_ntoa_format+0xf0>
    1cc4:	0203f793          	andi	a5,t2,32
    1cc8:	02079c63          	bnez	a5,1d00 <_ntoa_format+0x238>
    1ccc:	07800793          	li	a5,120
    1cd0:	00f70023          	sb	a5,0(a4)
    1cd4:	00100793          	li	a5,1
    1cd8:	ee9ff06f          	j	1bc0 <_ntoa_format+0xf8>
    1cdc:	02000813          	li	a6,32
    1ce0:	eb0784e3          	beq	a5,a6,1b88 <_ntoa_format+0xc0>
    1ce4:	00f70833          	add	a6,a4,a5
    1ce8:	05800893          	li	a7,88
    1cec:	01180023          	sb	a7,0(a6)
    1cf0:	00178793          	addi	a5,a5,1
    1cf4:	ec5ff06f          	j	1bb8 <_ntoa_format+0xf0>
    1cf8:	02000793          	li	a5,32
    1cfc:	eadff06f          	j	1ba8 <_ntoa_format+0xe0>
    1d00:	05800793          	li	a5,88
    1d04:	00f70023          	sb	a5,0(a4)
    1d08:	00100793          	li	a5,1
    1d0c:	eb5ff06f          	j	1bc0 <_ntoa_format+0xf8>
    1d10:	06200793          	li	a5,98
    1d14:	00f70023          	sb	a5,0(a4)
    1d18:	00100793          	li	a5,1
    1d1c:	ea5ff06f          	j	1bc0 <_ntoa_format+0xf8>
    1d20:	02000793          	li	a5,32
    1d24:	de081ae3          	bnez	a6,1b18 <_ntoa_format+0x50>
    1d28:	e1dff06f          	j	1b44 <_ntoa_format+0x7c>
    1d2c:	0203f893          	andi	a7,t2,32
    1d30:	ffe78793          	addi	a5,a5,-2
    1d34:	fa0898e3          	bnez	a7,1ce4 <_ntoa_format+0x21c>
    1d38:	00f708b3          	add	a7,a4,a5
    1d3c:	00080793          	mv	a5,a6
    1d40:	f79ff06f          	j	1cb8 <_ntoa_format+0x1f0>
    1d44:	01070833          	add	a6,a4,a6
    1d48:	06200893          	li	a7,98
    1d4c:	01180023          	sb	a7,0(a6)
    1d50:	e69ff06f          	j	1bb8 <_ntoa_format+0xf0>

00001d54 <_ntoa_long>:
    1d54:	fc010113          	addi	sp,sp,-64
    1d58:	02812c23          	sw	s0,56(sp)
    1d5c:	02112e23          	sw	ra,60(sp)
    1d60:	00080e93          	mv	t4,a6
    1d64:	04412403          	lw	s0,68(sp)
    1d68:	00070e13          	mv	t3,a4
    1d6c:	00078813          	mv	a6,a5
    1d70:	00071863          	bnez	a4,1d80 <_ntoa_long+0x2c>
    1d74:	40047793          	andi	a5,s0,1024
    1d78:	fef47413          	andi	s0,s0,-17
    1d7c:	08079863          	bnez	a5,1e0c <_ntoa_long+0xb8>
    1d80:	02047713          	andi	a4,s0,32
    1d84:	06100293          	li	t0,97
    1d88:	06071e63          	bnez	a4,1e04 <_ntoa_long+0xb0>
    1d8c:	00000793          	li	a5,0
    1d90:	01010713          	addi	a4,sp,16
    1d94:	00900393          	li	t2,9
    1d98:	ff628293          	addi	t0,t0,-10
    1d9c:	02000093          	li	ra,32
    1da0:	00c0006f          	j	1dac <_ntoa_long+0x58>
    1da4:	02178c63          	beq	a5,ra,1ddc <_ntoa_long+0x88>
    1da8:	00030e13          	mv	t3,t1
    1dac:	03de7f33          	remu	t5,t3,t4
    1db0:	0fff7313          	zext.b	t1,t5
    1db4:	03030f93          	addi	t6,t1,48
    1db8:	00530333          	add	t1,t1,t0
    1dbc:	0ff37313          	zext.b	t1,t1
    1dc0:	01e3e463          	bltu	t2,t5,1dc8 <_ntoa_long+0x74>
    1dc4:	0ffff313          	zext.b	t1,t6
    1dc8:	00178793          	addi	a5,a5,1
    1dcc:	00f70f33          	add	t5,a4,a5
    1dd0:	fe6f0fa3          	sb	t1,-1(t5)
    1dd4:	03de5333          	divu	t1,t3,t4
    1dd8:	fdde76e3          	bgeu	t3,t4,1da4 <_ntoa_long+0x50>
    1ddc:	04012303          	lw	t1,64(sp)
    1de0:	00812423          	sw	s0,8(sp)
    1de4:	01112023          	sw	a7,0(sp)
    1de8:	00612223          	sw	t1,4(sp)
    1dec:	000e8893          	mv	a7,t4
    1df0:	cd9ff0ef          	jal	ra,1ac8 <_ntoa_format>
    1df4:	03c12083          	lw	ra,60(sp)
    1df8:	03812403          	lw	s0,56(sp)
    1dfc:	04010113          	addi	sp,sp,64
    1e00:	00008067          	ret
    1e04:	04100293          	li	t0,65
    1e08:	f85ff06f          	j	1d8c <_ntoa_long+0x38>
    1e0c:	00000793          	li	a5,0
    1e10:	01010713          	addi	a4,sp,16
    1e14:	fc9ff06f          	j	1ddc <_ntoa_long+0x88>

00001e18 <_ntoa_long_long>:
    1e18:	f7010113          	addi	sp,sp,-144
    1e1c:	07512223          	sw	s5,100(sp)
    1e20:	07612023          	sw	s6,96(sp)
    1e24:	05712e23          	sw	s7,92(sp)
    1e28:	05812c23          	sw	s8,88(sp)
    1e2c:	05912a23          	sw	s9,84(sp)
    1e30:	05a12823          	sw	s10,80(sp)
    1e34:	05b12623          	sw	s11,76(sp)
    1e38:	06112e23          	sw	ra,124(sp)
    1e3c:	00078d93          	mv	s11,a5
    1e40:	06812c23          	sw	s0,120(sp)
    1e44:	06912a23          	sw	s1,116(sp)
    1e48:	07212823          	sw	s2,112(sp)
    1e4c:	07312623          	sw	s3,108(sp)
    1e50:	07412423          	sw	s4,104(sp)
    1e54:	09112623          	sw	a7,140(sp)
    1e58:	00f767b3          	or	a5,a4,a5
    1e5c:	00a12c23          	sw	a0,24(sp)
    1e60:	00b12e23          	sw	a1,28(sp)
    1e64:	09012b03          	lw	s6,144(sp)
    1e68:	00070a93          	mv	s5,a4
    1e6c:	00060b93          	mv	s7,a2
    1e70:	00068c13          	mv	s8,a3
    1e74:	00080c93          	mv	s9,a6
    1e78:	00088d13          	mv	s10,a7
    1e7c:	00079e63          	bnez	a5,1e98 <_ntoa_long_long+0x80>
    1e80:	09c12703          	lw	a4,156(sp)
    1e84:	09c12783          	lw	a5,156(sp)
    1e88:	fef77a13          	andi	s4,a4,-17
    1e8c:	4007f793          	andi	a5,a5,1024
    1e90:	09412e23          	sw	s4,156(sp)
    1e94:	08079663          	bnez	a5,1f20 <_ntoa_long_long+0x108>
    1e98:	09c12783          	lw	a5,156(sp)
    1e9c:	06100413          	li	s0,97
    1ea0:	0207f793          	andi	a5,a5,32
    1ea4:	10079263          	bnez	a5,1fa8 <_ntoa_long_long+0x190>
    1ea8:	00000a13          	li	s4,0
    1eac:	02010493          	addi	s1,sp,32
    1eb0:	00900913          	li	s2,9
    1eb4:	ff640413          	addi	s0,s0,-10
    1eb8:	02000993          	li	s3,32
    1ebc:	000d0613          	mv	a2,s10
    1ec0:	000b0693          	mv	a3,s6
    1ec4:	000a8513          	mv	a0,s5
    1ec8:	000d8593          	mv	a1,s11
    1ecc:	56d070ef          	jal	ra,9c38 <__umoddi3>
    1ed0:	0ff57513          	zext.b	a0,a0
    1ed4:	00850833          	add	a6,a0,s0
    1ed8:	03050613          	addi	a2,a0,48
    1edc:	0ff87813          	zext.b	a6,a6
    1ee0:	00a96463          	bltu	s2,a0,1ee8 <_ntoa_long_long+0xd0>
    1ee4:	0ff67813          	zext.b	a6,a2
    1ee8:	001a0a13          	addi	s4,s4,1
    1eec:	014488b3          	add	a7,s1,s4
    1ef0:	000a8513          	mv	a0,s5
    1ef4:	000d8593          	mv	a1,s11
    1ef8:	000d0613          	mv	a2,s10
    1efc:	000b0693          	mv	a3,s6
    1f00:	ff088fa3          	sb	a6,-1(a7)
    1f04:	101070ef          	jal	ra,9804 <__udivdi3>
    1f08:	036de063          	bltu	s11,s6,1f28 <_ntoa_long_long+0x110>
    1f0c:	09bb0a63          	beq	s6,s11,1fa0 <_ntoa_long_long+0x188>
    1f10:	013a0c63          	beq	s4,s3,1f28 <_ntoa_long_long+0x110>
    1f14:	00050a93          	mv	s5,a0
    1f18:	00058d93          	mv	s11,a1
    1f1c:	fa1ff06f          	j	1ebc <_ntoa_long_long+0xa4>
    1f20:	00000a13          	li	s4,0
    1f24:	02010493          	addi	s1,sp,32
    1f28:	09812703          	lw	a4,152(sp)
    1f2c:	09c12783          	lw	a5,156(sp)
    1f30:	01c12583          	lw	a1,28(sp)
    1f34:	00e12223          	sw	a4,4(sp)
    1f38:	09412703          	lw	a4,148(sp)
    1f3c:	01812503          	lw	a0,24(sp)
    1f40:	00f12423          	sw	a5,8(sp)
    1f44:	00e12023          	sw	a4,0(sp)
    1f48:	000d0893          	mv	a7,s10
    1f4c:	000c8813          	mv	a6,s9
    1f50:	000a0793          	mv	a5,s4
    1f54:	00048713          	mv	a4,s1
    1f58:	000c0693          	mv	a3,s8
    1f5c:	000b8613          	mv	a2,s7
    1f60:	b69ff0ef          	jal	ra,1ac8 <_ntoa_format>
    1f64:	07c12083          	lw	ra,124(sp)
    1f68:	07812403          	lw	s0,120(sp)
    1f6c:	07412483          	lw	s1,116(sp)
    1f70:	07012903          	lw	s2,112(sp)
    1f74:	06c12983          	lw	s3,108(sp)
    1f78:	06812a03          	lw	s4,104(sp)
    1f7c:	06412a83          	lw	s5,100(sp)
    1f80:	06012b03          	lw	s6,96(sp)
    1f84:	05c12b83          	lw	s7,92(sp)
    1f88:	05812c03          	lw	s8,88(sp)
    1f8c:	05412c83          	lw	s9,84(sp)
    1f90:	05012d03          	lw	s10,80(sp)
    1f94:	04c12d83          	lw	s11,76(sp)
    1f98:	09010113          	addi	sp,sp,144
    1f9c:	00008067          	ret
    1fa0:	f7aaf8e3          	bgeu	s5,s10,1f10 <_ntoa_long_long+0xf8>
    1fa4:	f85ff06f          	j	1f28 <_ntoa_long_long+0x110>
    1fa8:	04100413          	li	s0,65
    1fac:	efdff06f          	j	1ea8 <_ntoa_long_long+0x90>

00001fb0 <_etoa>:
    1fb0:	f8010113          	addi	sp,sp,-128
    1fb4:	07212823          	sw	s2,112(sp)
    1fb8:	07312623          	sw	s3,108(sp)
    1fbc:	07412423          	sw	s4,104(sp)
    1fc0:	07512223          	sw	s5,100(sp)
    1fc4:	00050993          	mv	s3,a0
    1fc8:	00058a13          	mv	s4,a1
    1fcc:	00060913          	mv	s2,a2
    1fd0:	00068a93          	mv	s5,a3
    1fd4:	00070613          	mv	a2,a4
    1fd8:	00078693          	mv	a3,a5
    1fdc:	00070513          	mv	a0,a4
    1fe0:	00078593          	mv	a1,a5
    1fe4:	06812c23          	sw	s0,120(sp)
    1fe8:	06912a23          	sw	s1,116(sp)
    1fec:	07612023          	sw	s6,96(sp)
    1ff0:	05812c23          	sw	s8,88(sp)
    1ff4:	05912a23          	sw	s9,84(sp)
    1ff8:	06112e23          	sw	ra,124(sp)
    1ffc:	05712e23          	sw	s7,92(sp)
    2000:	05a12823          	sw	s10,80(sp)
    2004:	05b12623          	sw	s11,76(sp)
    2008:	00070413          	mv	s0,a4
    200c:	00078493          	mv	s1,a5
    2010:	00080c13          	mv	s8,a6
    2014:	00088b13          	mv	s6,a7
    2018:	6dd080ef          	jal	ra,aef4 <__eqdf2>
    201c:	08012c83          	lw	s9,128(sp)
    2020:	52051863          	bnez	a0,2550 <_etoa+0x5a0>
    2024:	0001e797          	auipc	a5,0x1e
    2028:	fec78793          	addi	a5,a5,-20 # 20010 <__DTOR_END__>
    202c:	0007a603          	lw	a2,0(a5)
    2030:	0047a683          	lw	a3,4(a5)
    2034:	00040513          	mv	a0,s0
    2038:	00048593          	mv	a1,s1
    203c:	745080ef          	jal	ra,af80 <__gedf2>
    2040:	50a04863          	bgtz	a0,2550 <_etoa+0x5a0>
    2044:	0001e797          	auipc	a5,0x1e
    2048:	fd478793          	addi	a5,a5,-44 # 20018 <__DTOR_END__+0x8>
    204c:	0007a603          	lw	a2,0(a5)
    2050:	0047a683          	lw	a3,4(a5)
    2054:	00040513          	mv	a0,s0
    2058:	00048593          	mv	a1,s1
    205c:	008090ef          	jal	ra,b064 <__ledf2>
    2060:	4e054863          	bltz	a0,2550 <_etoa+0x5a0>
    2064:	00040513          	mv	a0,s0
    2068:	00048593          	mv	a1,s1
    206c:	00000613          	li	a2,0
    2070:	00000693          	li	a3,0
    2074:	7f1080ef          	jal	ra,b064 <__ledf2>
    2078:	80000bb7          	lui	s7,0x80000
    207c:	02812223          	sw	s0,36(sp)
    2080:	009bcbb3          	xor	s7,s7,s1
    2084:	00054463          	bltz	a0,208c <_etoa+0xdc>
    2088:	00048b93          	mv	s7,s1
    208c:	400cf793          	andi	a5,s9,1024
    2090:	02f12e23          	sw	a5,60(sp)
    2094:	00079463          	bnez	a5,209c <_etoa+0xec>
    2098:	00600c13          	li	s8,6
    209c:	014bd513          	srli	a0,s7,0x14
    20a0:	7ff57513          	andi	a0,a0,2047
    20a4:	c0150513          	addi	a0,a0,-1023
    20a8:	751090ef          	jal	ra,bff8 <__floatsidf>
    20ac:	0001e797          	auipc	a5,0x1e
    20b0:	f7478793          	addi	a5,a5,-140 # 20020 <__DTOR_END__+0x10>
    20b4:	0007a603          	lw	a2,0(a5)
    20b8:	0047a683          	lw	a3,4(a5)
    20bc:	08c090ef          	jal	ra,b148 <__muldf3>
    20c0:	0001e797          	auipc	a5,0x1e
    20c4:	f6878793          	addi	a5,a5,-152 # 20028 <__DTOR_END__+0x18>
    20c8:	0007a603          	lw	a2,0(a5)
    20cc:	0047a683          	lw	a3,4(a5)
    20d0:	76d070ef          	jal	ra,a03c <__adddf3>
    20d4:	00cb9793          	slli	a5,s7,0xc
    20d8:	00c7d713          	srli	a4,a5,0xc
    20dc:	0001e797          	auipc	a5,0x1e
    20e0:	f5478793          	addi	a5,a5,-172 # 20030 <__DTOR_END__+0x20>
    20e4:	0007a603          	lw	a2,0(a5)
    20e8:	0047a683          	lw	a3,4(a5)
    20ec:	3ff007b7          	lui	a5,0x3ff00
    20f0:	00e7e7b3          	or	a5,a5,a4
    20f4:	00050d93          	mv	s11,a0
    20f8:	00058d13          	mv	s10,a1
    20fc:	00040513          	mv	a0,s0
    2100:	00078593          	mv	a1,a5
    2104:	60c090ef          	jal	ra,b710 <__subdf3>
    2108:	0001e797          	auipc	a5,0x1e
    210c:	f3078793          	addi	a5,a5,-208 # 20038 <__DTOR_END__+0x28>
    2110:	0007a603          	lw	a2,0(a5)
    2114:	0047a683          	lw	a3,4(a5)
    2118:	030090ef          	jal	ra,b148 <__muldf3>
    211c:	00050613          	mv	a2,a0
    2120:	00058693          	mv	a3,a1
    2124:	000d8513          	mv	a0,s11
    2128:	000d0593          	mv	a1,s10
    212c:	711070ef          	jal	ra,a03c <__adddf3>
    2130:	5cd090ef          	jal	ra,befc <__fixdfsi>
    2134:	00050d13          	mv	s10,a0
    2138:	6c1090ef          	jal	ra,bff8 <__floatsidf>
    213c:	0001e797          	auipc	a5,0x1e
    2140:	f0478793          	addi	a5,a5,-252 # 20040 <__DTOR_END__+0x30>
    2144:	0007a603          	lw	a2,0(a5)
    2148:	0047a683          	lw	a3,4(a5)
    214c:	00058d93          	mv	s11,a1
    2150:	00a12c23          	sw	a0,24(sp)
    2154:	7f5080ef          	jal	ra,b148 <__muldf3>
    2158:	0001e717          	auipc	a4,0x1e
    215c:	ef070713          	addi	a4,a4,-272 # 20048 <__DTOR_END__+0x38>
    2160:	00072603          	lw	a2,0(a4)
    2164:	00472683          	lw	a3,4(a4)
    2168:	6d5070ef          	jal	ra,a03c <__adddf3>
    216c:	591090ef          	jal	ra,befc <__fixdfsi>
    2170:	01812783          	lw	a5,24(sp)
    2174:	0001e697          	auipc	a3,0x1e
    2178:	edc68693          	addi	a3,a3,-292 # 20050 <__DTOR_END__+0x40>
    217c:	0006a603          	lw	a2,0(a3)
    2180:	0046a683          	lw	a3,4(a3)
    2184:	00050713          	mv	a4,a0
    2188:	000d8593          	mv	a1,s11
    218c:	00078513          	mv	a0,a5
    2190:	00070d93          	mv	s11,a4
    2194:	7b5080ef          	jal	ra,b148 <__muldf3>
    2198:	00050793          	mv	a5,a0
    219c:	000d8513          	mv	a0,s11
    21a0:	00f12c23          	sw	a5,24(sp)
    21a4:	03b12423          	sw	s11,40(sp)
    21a8:	00058d93          	mv	s11,a1
    21ac:	64d090ef          	jal	ra,bff8 <__floatsidf>
    21b0:	0001e717          	auipc	a4,0x1e
    21b4:	ea870713          	addi	a4,a4,-344 # 20058 <__DTOR_END__+0x48>
    21b8:	00072603          	lw	a2,0(a4)
    21bc:	00472683          	lw	a3,4(a4)
    21c0:	789080ef          	jal	ra,b148 <__muldf3>
    21c4:	01812783          	lw	a5,24(sp)
    21c8:	00050613          	mv	a2,a0
    21cc:	00058693          	mv	a3,a1
    21d0:	00078513          	mv	a0,a5
    21d4:	000d8593          	mv	a1,s11
    21d8:	538090ef          	jal	ra,b710 <__subdf3>
    21dc:	00050613          	mv	a2,a0
    21e0:	00058693          	mv	a3,a1
    21e4:	02a12623          	sw	a0,44(sp)
    21e8:	00b12c23          	sw	a1,24(sp)
    21ec:	75d080ef          	jal	ra,b148 <__muldf3>
    21f0:	01812783          	lw	a5,24(sp)
    21f4:	02c12703          	lw	a4,44(sp)
    21f8:	00050d93          	mv	s11,a0
    21fc:	00078693          	mv	a3,a5
    2200:	00058813          	mv	a6,a1
    2204:	00070613          	mv	a2,a4
    2208:	00078593          	mv	a1,a5
    220c:	00070513          	mv	a0,a4
    2210:	02f12a23          	sw	a5,52(sp)
    2214:	02e12c23          	sw	a4,56(sp)
    2218:	01012c23          	sw	a6,24(sp)
    221c:	621070ef          	jal	ra,a03c <__adddf3>
    2220:	0001e697          	auipc	a3,0x1e
    2224:	e4068693          	addi	a3,a3,-448 # 20060 <__DTOR_END__+0x50>
    2228:	00058813          	mv	a6,a1
    222c:	0006a603          	lw	a2,0(a3)
    2230:	01812583          	lw	a1,24(sp)
    2234:	0046a683          	lw	a3,4(a3)
    2238:	00050893          	mv	a7,a0
    223c:	000d8513          	mv	a0,s11
    2240:	03112823          	sw	a7,48(sp)
    2244:	03012623          	sw	a6,44(sp)
    2248:	5cc080ef          	jal	ra,a814 <__divdf3>
    224c:	0001e717          	auipc	a4,0x1e
    2250:	e1c70713          	addi	a4,a4,-484 # 20068 <__DTOR_END__+0x58>
    2254:	00072603          	lw	a2,0(a4)
    2258:	00472683          	lw	a3,4(a4)
    225c:	5e1070ef          	jal	ra,a03c <__adddf3>
    2260:	00058693          	mv	a3,a1
    2264:	01812583          	lw	a1,24(sp)
    2268:	00050613          	mv	a2,a0
    226c:	000d8513          	mv	a0,s11
    2270:	5a4080ef          	jal	ra,a814 <__divdf3>
    2274:	0001e697          	auipc	a3,0x1e
    2278:	dfc68693          	addi	a3,a3,-516 # 20070 <__DTOR_END__+0x60>
    227c:	0006a603          	lw	a2,0(a3)
    2280:	0046a683          	lw	a3,4(a3)
    2284:	5b9070ef          	jal	ra,a03c <__adddf3>
    2288:	00058693          	mv	a3,a1
    228c:	01812583          	lw	a1,24(sp)
    2290:	00050613          	mv	a2,a0
    2294:	000d8513          	mv	a0,s11
    2298:	57c080ef          	jal	ra,a814 <__divdf3>
    229c:	03812703          	lw	a4,56(sp)
    22a0:	03412783          	lw	a5,52(sp)
    22a4:	0001e697          	auipc	a3,0x1e
    22a8:	dd468693          	addi	a3,a3,-556 # 20078 <__DTOR_END__+0x68>
    22ac:	00050313          	mv	t1,a0
    22b0:	00058d93          	mv	s11,a1
    22b4:	0006a503          	lw	a0,0(a3)
    22b8:	0046a583          	lw	a1,4(a3)
    22bc:	00070613          	mv	a2,a4
    22c0:	00078693          	mv	a3,a5
    22c4:	00612c23          	sw	t1,24(sp)
    22c8:	448090ef          	jal	ra,b710 <__subdf3>
    22cc:	01812303          	lw	t1,24(sp)
    22d0:	00050613          	mv	a2,a0
    22d4:	00058693          	mv	a3,a1
    22d8:	00030513          	mv	a0,t1
    22dc:	000d8593          	mv	a1,s11
    22e0:	55d070ef          	jal	ra,a03c <__adddf3>
    22e4:	03012883          	lw	a7,48(sp)
    22e8:	02c12803          	lw	a6,44(sp)
    22ec:	00050613          	mv	a2,a0
    22f0:	00058693          	mv	a3,a1
    22f4:	00088513          	mv	a0,a7
    22f8:	00080593          	mv	a1,a6
    22fc:	518080ef          	jal	ra,a814 <__divdf3>
    2300:	0001e797          	auipc	a5,0x1e
    2304:	d8078793          	addi	a5,a5,-640 # 20080 <__DTOR_END__+0x70>
    2308:	0007a603          	lw	a2,0(a5)
    230c:	0047a683          	lw	a3,4(a5)
    2310:	52d070ef          	jal	ra,a03c <__adddf3>
    2314:	02812783          	lw	a5,40(sp)
    2318:	00000613          	li	a2,0
    231c:	3ff78793          	addi	a5,a5,1023
    2320:	01479793          	slli	a5,a5,0x14
    2324:	00078693          	mv	a3,a5
    2328:	621080ef          	jal	ra,b148 <__muldf3>
    232c:	00040613          	mv	a2,s0
    2330:	000b8693          	mv	a3,s7
    2334:	00050d93          	mv	s11,a0
    2338:	00b12c23          	sw	a1,24(sp)
    233c:	445080ef          	jal	ra,af80 <__gedf2>
    2340:	26a04863          	bgtz	a0,25b0 <_etoa+0x600>
    2344:	01812383          	lw	t2,24(sp)
    2348:	000d8313          	mv	t1,s11
    234c:	063d0d93          	addi	s11,s10,99
    2350:	00bcd793          	srli	a5,s9,0xb
    2354:	0c600713          	li	a4,198
    2358:	01b73db3          	sltu	s11,a4,s11
    235c:	0017f793          	andi	a5,a5,1
    2360:	004d8d93          	addi	s11,s11,4
    2364:	06078663          	beqz	a5,23d0 <_etoa+0x420>
    2368:	0001e797          	auipc	a5,0x1e
    236c:	d2078793          	addi	a5,a5,-736 # 20088 <__DTOR_END__+0x78>
    2370:	0007a603          	lw	a2,0(a5)
    2374:	0047a683          	lw	a3,4(a5)
    2378:	00040513          	mv	a0,s0
    237c:	000b8593          	mv	a1,s7
    2380:	00612c23          	sw	t1,24(sp)
    2384:	00712e23          	sw	t2,28(sp)
    2388:	3f9080ef          	jal	ra,af80 <__gedf2>
    238c:	01812303          	lw	t1,24(sp)
    2390:	01c12383          	lw	t2,28(sp)
    2394:	02054663          	bltz	a0,23c0 <_etoa+0x410>
    2398:	0001e797          	auipc	a5,0x1e
    239c:	cf878793          	addi	a5,a5,-776 # 20090 <__DTOR_END__+0x80>
    23a0:	0007a603          	lw	a2,0(a5)
    23a4:	0047a683          	lw	a3,4(a5)
    23a8:	00040513          	mv	a0,s0
    23ac:	000b8593          	mv	a1,s7
    23b0:	4b5080ef          	jal	ra,b064 <__ledf2>
    23b4:	01812303          	lw	t1,24(sp)
    23b8:	01c12383          	lw	t2,28(sp)
    23bc:	22054063          	bltz	a0,25dc <_etoa+0x62c>
    23c0:	000c0863          	beqz	s8,23d0 <_etoa+0x420>
    23c4:	03c12783          	lw	a5,60(sp)
    23c8:	00f037b3          	snez	a5,a5
    23cc:	40fc0c33          	sub	s8,s8,a5
    23d0:	00000893          	li	a7,0
    23d4:	016df463          	bgeu	s11,s6,23dc <_etoa+0x42c>
    23d8:	41bb08b3          	sub	a7,s6,s11
    23dc:	002cf793          	andi	a5,s9,2
    23e0:	02f12423          	sw	a5,40(sp)
    23e4:	00078863          	beqz	a5,23f4 <_etoa+0x444>
    23e8:	001db793          	seqz	a5,s11
    23ec:	40f007b3          	neg	a5,a5
    23f0:	00f8f8b3          	and	a7,a7,a5
    23f4:	020d0463          	beqz	s10,241c <_etoa+0x46c>
    23f8:	000b8593          	mv	a1,s7
    23fc:	00040513          	mv	a0,s0
    2400:	00030613          	mv	a2,t1
    2404:	00038693          	mv	a3,t2
    2408:	01112c23          	sw	a7,24(sp)
    240c:	408080ef          	jal	ra,a814 <__divdf3>
    2410:	01812883          	lw	a7,24(sp)
    2414:	02a12223          	sw	a0,36(sp)
    2418:	00058b93          	mv	s7,a1
    241c:	00040513          	mv	a0,s0
    2420:	00048593          	mv	a1,s1
    2424:	00000613          	li	a2,0
    2428:	00000693          	li	a3,0
    242c:	01112c23          	sw	a7,24(sp)
    2430:	435080ef          	jal	ra,b064 <__ledf2>
    2434:	01812883          	lw	a7,24(sp)
    2438:	00055663          	bgez	a0,2444 <_etoa+0x494>
    243c:	800007b7          	lui	a5,0x80000
    2440:	0177cbb3          	xor	s7,a5,s7
    2444:	02412503          	lw	a0,36(sp)
    2448:	fffff7b7          	lui	a5,0xfffff
    244c:	7ff78793          	addi	a5,a5,2047 # fffff7ff <_stack+0xfffbf7ff>
    2450:	00fcf7b3          	and	a5,s9,a5
    2454:	00f12023          	sw	a5,0(sp)
    2458:	00050713          	mv	a4,a0
    245c:	000c0813          	mv	a6,s8
    2460:	000b8793          	mv	a5,s7
    2464:	000a8693          	mv	a3,s5
    2468:	00090613          	mv	a2,s2
    246c:	000a0593          	mv	a1,s4
    2470:	00098513          	mv	a0,s3
    2474:	18c000ef          	jal	ra,2600 <_ftoa>
    2478:	00050413          	mv	s0,a0
    247c:	080d8a63          	beqz	s11,2510 <_etoa+0x560>
    2480:	01ac9513          	slli	a0,s9,0x1a
    2484:	41f55513          	srai	a0,a0,0x1f
    2488:	fe057513          	andi	a0,a0,-32
    248c:	00040613          	mv	a2,s0
    2490:	000a8693          	mv	a3,s5
    2494:	000a0593          	mv	a1,s4
    2498:	06550513          	addi	a0,a0,101
    249c:	000980e7          	jalr	s3
    24a0:	41fd5713          	srai	a4,s10,0x1f
    24a4:	01a746b3          	xor	a3,a4,s10
    24a8:	00500793          	li	a5,5
    24ac:	fffd8d93          	addi	s11,s11,-1
    24b0:	00140613          	addi	a2,s0,1
    24b4:	00f12223          	sw	a5,4(sp)
    24b8:	40e68733          	sub	a4,a3,a4
    24bc:	01fd5793          	srli	a5,s10,0x1f
    24c0:	01b12023          	sw	s11,0(sp)
    24c4:	00000893          	li	a7,0
    24c8:	00a00813          	li	a6,10
    24cc:	000a8693          	mv	a3,s5
    24d0:	000a0593          	mv	a1,s4
    24d4:	00098513          	mv	a0,s3
    24d8:	87dff0ef          	jal	ra,1d54 <_ntoa_long>
    24dc:	02812783          	lw	a5,40(sp)
    24e0:	00050413          	mv	s0,a0
    24e4:	02078663          	beqz	a5,2510 <_etoa+0x560>
    24e8:	41250933          	sub	s2,a0,s2
    24ec:	03697263          	bgeu	s2,s6,2510 <_etoa+0x560>
    24f0:	00040613          	mv	a2,s0
    24f4:	00190913          	addi	s2,s2,1
    24f8:	000a8693          	mv	a3,s5
    24fc:	000a0593          	mv	a1,s4
    2500:	02000513          	li	a0,32
    2504:	00140413          	addi	s0,s0,1
    2508:	000980e7          	jalr	s3
    250c:	ff6962e3          	bltu	s2,s6,24f0 <_etoa+0x540>
    2510:	07c12083          	lw	ra,124(sp)
    2514:	00040513          	mv	a0,s0
    2518:	07812403          	lw	s0,120(sp)
    251c:	07412483          	lw	s1,116(sp)
    2520:	07012903          	lw	s2,112(sp)
    2524:	06c12983          	lw	s3,108(sp)
    2528:	06812a03          	lw	s4,104(sp)
    252c:	06412a83          	lw	s5,100(sp)
    2530:	06012b03          	lw	s6,96(sp)
    2534:	05c12b83          	lw	s7,92(sp)
    2538:	05812c03          	lw	s8,88(sp)
    253c:	05412c83          	lw	s9,84(sp)
    2540:	05012d03          	lw	s10,80(sp)
    2544:	04c12d83          	lw	s11,76(sp)
    2548:	08010113          	addi	sp,sp,128
    254c:	00008067          	ret
    2550:	00040713          	mv	a4,s0
    2554:	07812403          	lw	s0,120(sp)
    2558:	09912023          	sw	s9,128(sp)
    255c:	07c12083          	lw	ra,124(sp)
    2560:	05c12b83          	lw	s7,92(sp)
    2564:	05412c83          	lw	s9,84(sp)
    2568:	05012d03          	lw	s10,80(sp)
    256c:	04c12d83          	lw	s11,76(sp)
    2570:	00048793          	mv	a5,s1
    2574:	000b0893          	mv	a7,s6
    2578:	07412483          	lw	s1,116(sp)
    257c:	06012b03          	lw	s6,96(sp)
    2580:	000c0813          	mv	a6,s8
    2584:	000a8693          	mv	a3,s5
    2588:	05812c03          	lw	s8,88(sp)
    258c:	06412a83          	lw	s5,100(sp)
    2590:	00090613          	mv	a2,s2
    2594:	000a0593          	mv	a1,s4
    2598:	07012903          	lw	s2,112(sp)
    259c:	06812a03          	lw	s4,104(sp)
    25a0:	00098513          	mv	a0,s3
    25a4:	06c12983          	lw	s3,108(sp)
    25a8:	08010113          	addi	sp,sp,128
    25ac:	0540006f          	j	2600 <_ftoa>
    25b0:	0001e797          	auipc	a5,0x1e
    25b4:	ab878793          	addi	a5,a5,-1352 # 20068 <__DTOR_END__+0x58>
    25b8:	0007a603          	lw	a2,0(a5)
    25bc:	0047a683          	lw	a3,4(a5)
    25c0:	01812583          	lw	a1,24(sp)
    25c4:	000d8513          	mv	a0,s11
    25c8:	fffd0d13          	addi	s10,s10,-1
    25cc:	248080ef          	jal	ra,a814 <__divdf3>
    25d0:	00050313          	mv	t1,a0
    25d4:	00058393          	mv	t2,a1
    25d8:	d75ff06f          	j	234c <_etoa+0x39c>
    25dc:	018d5e63          	bge	s10,s8,25f8 <_etoa+0x648>
    25e0:	41ac0c33          	sub	s8,s8,s10
    25e4:	fffc0c13          	addi	s8,s8,-1
    25e8:	400cec93          	ori	s9,s9,1024
    25ec:	00000d93          	li	s11,0
    25f0:	00000d13          	li	s10,0
    25f4:	dddff06f          	j	23d0 <_etoa+0x420>
    25f8:	00000c13          	li	s8,0
    25fc:	fedff06f          	j	25e8 <_etoa+0x638>

00002600 <_ftoa>:
    2600:	f8010113          	addi	sp,sp,-128
    2604:	07312623          	sw	s3,108(sp)
    2608:	07412423          	sw	s4,104(sp)
    260c:	07512223          	sw	s5,100(sp)
    2610:	05812c23          	sw	s8,88(sp)
    2614:	00050993          	mv	s3,a0
    2618:	00058a13          	mv	s4,a1
    261c:	00060a93          	mv	s5,a2
    2620:	00068c13          	mv	s8,a3
    2624:	00070613          	mv	a2,a4
    2628:	00078693          	mv	a3,a5
    262c:	00070513          	mv	a0,a4
    2630:	00078593          	mv	a1,a5
    2634:	06812c23          	sw	s0,120(sp)
    2638:	06912a23          	sw	s1,116(sp)
    263c:	07212823          	sw	s2,112(sp)
    2640:	07612023          	sw	s6,96(sp)
    2644:	05912a23          	sw	s9,84(sp)
    2648:	06112e23          	sw	ra,124(sp)
    264c:	05712e23          	sw	s7,92(sp)
    2650:	05a12823          	sw	s10,80(sp)
    2654:	05b12623          	sw	s11,76(sp)
    2658:	00070493          	mv	s1,a4
    265c:	00078413          	mv	s0,a5
    2660:	00080b13          	mv	s6,a6
    2664:	00088913          	mv	s2,a7
    2668:	08d080ef          	jal	ra,aef4 <__eqdf2>
    266c:	08012c83          	lw	s9,128(sp)
    2670:	22051463          	bnez	a0,2898 <_ftoa+0x298>
    2674:	0001e797          	auipc	a5,0x1e
    2678:	9a478793          	addi	a5,a5,-1628 # 20018 <__DTOR_END__+0x8>
    267c:	0007a603          	lw	a2,0(a5)
    2680:	0047a683          	lw	a3,4(a5)
    2684:	00048513          	mv	a0,s1
    2688:	00040593          	mv	a1,s0
    268c:	1d9080ef          	jal	ra,b064 <__ledf2>
    2690:	30054063          	bltz	a0,2990 <_ftoa+0x390>
    2694:	0001e797          	auipc	a5,0x1e
    2698:	97c78793          	addi	a5,a5,-1668 # 20010 <__DTOR_END__>
    269c:	0007a603          	lw	a2,0(a5)
    26a0:	0047a683          	lw	a3,4(a5)
    26a4:	00048513          	mv	a0,s1
    26a8:	00040593          	mv	a1,s0
    26ac:	0d5080ef          	jal	ra,af80 <__gedf2>
    26b0:	1ca04463          	bgtz	a0,2878 <_ftoa+0x278>
    26b4:	0001e797          	auipc	a5,0x1e
    26b8:	9e478793          	addi	a5,a5,-1564 # 20098 <__DTOR_END__+0x88>
    26bc:	0007a603          	lw	a2,0(a5)
    26c0:	0047a683          	lw	a3,4(a5)
    26c4:	00048513          	mv	a0,s1
    26c8:	00040593          	mv	a1,s0
    26cc:	0b5080ef          	jal	ra,af80 <__gedf2>
    26d0:	26a04063          	bgtz	a0,2930 <_ftoa+0x330>
    26d4:	0001e797          	auipc	a5,0x1e
    26d8:	9cc78793          	addi	a5,a5,-1588 # 200a0 <__DTOR_END__+0x90>
    26dc:	0007a603          	lw	a2,0(a5)
    26e0:	0047a683          	lw	a3,4(a5)
    26e4:	00048513          	mv	a0,s1
    26e8:	00040593          	mv	a1,s0
    26ec:	179080ef          	jal	ra,b064 <__ledf2>
    26f0:	24054063          	bltz	a0,2930 <_ftoa+0x330>
    26f4:	00048513          	mv	a0,s1
    26f8:	00040593          	mv	a1,s0
    26fc:	00000613          	li	a2,0
    2700:	00000693          	li	a3,0
    2704:	161080ef          	jal	ra,b064 <__ledf2>
    2708:	20054063          	bltz	a0,2908 <_ftoa+0x308>
    270c:	00012e23          	sw	zero,28(sp)
    2710:	400cf793          	andi	a5,s9,1024
    2714:	00079463          	bnez	a5,271c <_ftoa+0x11c>
    2718:	00600b13          	li	s6,6
    271c:	02010693          	addi	a3,sp,32
    2720:	fe0b0513          	addi	a0,s6,-32
    2724:	000b0b93          	mv	s7,s6
    2728:	00900613          	li	a2,9
    272c:	03000593          	li	a1,48
    2730:	0140006f          	j	2744 <_ftoa+0x144>
    2734:	00b68023          	sb	a1,0(a3)
    2738:	fffb8b93          	addi	s7,s7,-1 # 7fffffff <_stack+0x7ffbffff>
    273c:	00168693          	addi	a3,a3,1
    2740:	3aab8e63          	beq	s7,a0,2afc <_ftoa+0x4fc>
    2744:	417b0db3          	sub	s11,s6,s7
    2748:	ff7666e3          	bltu	a2,s7,2734 <_ftoa+0x134>
    274c:	00040593          	mv	a1,s0
    2750:	00048513          	mv	a0,s1
    2754:	7a8090ef          	jal	ra,befc <__fixdfsi>
    2758:	003b9613          	slli	a2,s7,0x3
    275c:	0001e697          	auipc	a3,0x1e
    2760:	26c68693          	addi	a3,a3,620 # 209c8 <pow10.0>
    2764:	00c686b3          	add	a3,a3,a2
    2768:	0046a803          	lw	a6,4(a3)
    276c:	0006a783          	lw	a5,0(a3)
    2770:	00050d13          	mv	s10,a0
    2774:	01012623          	sw	a6,12(sp)
    2778:	00f12423          	sw	a5,8(sp)
    277c:	07d090ef          	jal	ra,bff8 <__floatsidf>
    2780:	00050613          	mv	a2,a0
    2784:	00058693          	mv	a3,a1
    2788:	00048513          	mv	a0,s1
    278c:	00040593          	mv	a1,s0
    2790:	781080ef          	jal	ra,b710 <__subdf3>
    2794:	00812603          	lw	a2,8(sp)
    2798:	00c12683          	lw	a3,12(sp)
    279c:	1ad080ef          	jal	ra,b148 <__muldf3>
    27a0:	00b12a23          	sw	a1,20(sp)
    27a4:	00a12c23          	sw	a0,24(sp)
    27a8:	7d4090ef          	jal	ra,bf7c <__fixunsdfsi>
    27ac:	00050b13          	mv	s6,a0
    27b0:	0f1090ef          	jal	ra,c0a0 <__floatunsidf>
    27b4:	01412783          	lw	a5,20(sp)
    27b8:	01812303          	lw	t1,24(sp)
    27bc:	00050613          	mv	a2,a0
    27c0:	00058693          	mv	a3,a1
    27c4:	00030513          	mv	a0,t1
    27c8:	00078593          	mv	a1,a5
    27cc:	745080ef          	jal	ra,b710 <__subdf3>
    27d0:	0001e717          	auipc	a4,0x1e
    27d4:	87870713          	addi	a4,a4,-1928 # 20048 <__DTOR_END__+0x38>
    27d8:	00072303          	lw	t1,0(a4)
    27dc:	00472383          	lw	t2,4(a4)
    27e0:	00a12a23          	sw	a0,20(sp)
    27e4:	00030613          	mv	a2,t1
    27e8:	00038693          	mv	a3,t2
    27ec:	00b12c23          	sw	a1,24(sp)
    27f0:	790080ef          	jal	ra,af80 <__gedf2>
    27f4:	0001e797          	auipc	a5,0x1e
    27f8:	85478793          	addi	a5,a5,-1964 # 20048 <__DTOR_END__+0x38>
    27fc:	0007a303          	lw	t1,0(a5)
    2800:	0047a383          	lw	t2,4(a5)
    2804:	2ca05a63          	blez	a0,2ad8 <_ftoa+0x4d8>
    2808:	001b0b13          	addi	s6,s6,1
    280c:	000b0513          	mv	a0,s6
    2810:	091090ef          	jal	ra,c0a0 <__floatunsidf>
    2814:	00050613          	mv	a2,a0
    2818:	00058693          	mv	a3,a1
    281c:	00812503          	lw	a0,8(sp)
    2820:	00c12583          	lw	a1,12(sp)
    2824:	041080ef          	jal	ra,b064 <__ledf2>
    2828:	00a04663          	bgtz	a0,2834 <_ftoa+0x234>
    282c:	001d0d13          	addi	s10,s10,1
    2830:	00000b13          	li	s6,0
    2834:	1e0b8063          	beqz	s7,2a14 <_ftoa+0x414>
    2838:	02000313          	li	t1,32
    283c:	00a00613          	li	a2,10
    2840:	00900e13          	li	t3,9
    2844:	166d8263          	beq	s11,t1,29a8 <_ftoa+0x3a8>
    2848:	02cb76b3          	remu	a3,s6,a2
    284c:	001d8d93          	addi	s11,s11,1
    2850:	02010793          	addi	a5,sp,32
    2854:	01b78533          	add	a0,a5,s11
    2858:	fffb8593          	addi	a1,s7,-1
    285c:	03068693          	addi	a3,a3,48
    2860:	fed50fa3          	sb	a3,-1(a0)
    2864:	02cb56b3          	divu	a3,s6,a2
    2868:	316e7663          	bgeu	t3,s6,2b74 <_ftoa+0x574>
    286c:	00058b93          	mv	s7,a1
    2870:	00068b13          	mv	s6,a3
    2874:	fd1ff06f          	j	2844 <_ftoa+0x244>
    2878:	004cf793          	andi	a5,s9,4
    287c:	06079e63          	bnez	a5,28f8 <_ftoa+0x2f8>
    2880:	0001e717          	auipc	a4,0x1e
    2884:	f4c70713          	addi	a4,a4,-180 # 207cc <clock_interrupted+0x3c>
    2888:	00300793          	li	a5,3
    288c:	000c8893          	mv	a7,s9
    2890:	00090813          	mv	a6,s2
    2894:	0180006f          	j	28ac <_ftoa+0x2ac>
    2898:	000c8893          	mv	a7,s9
    289c:	00090813          	mv	a6,s2
    28a0:	00300793          	li	a5,3
    28a4:	0001e717          	auipc	a4,0x1e
    28a8:	f3470713          	addi	a4,a4,-204 # 207d8 <clock_interrupted+0x48>
    28ac:	07812403          	lw	s0,120(sp)
    28b0:	07c12083          	lw	ra,124(sp)
    28b4:	07412483          	lw	s1,116(sp)
    28b8:	07012903          	lw	s2,112(sp)
    28bc:	06012b03          	lw	s6,96(sp)
    28c0:	05c12b83          	lw	s7,92(sp)
    28c4:	05412c83          	lw	s9,84(sp)
    28c8:	05012d03          	lw	s10,80(sp)
    28cc:	04c12d83          	lw	s11,76(sp)
    28d0:	000c0693          	mv	a3,s8
    28d4:	000a8613          	mv	a2,s5
    28d8:	05812c03          	lw	s8,88(sp)
    28dc:	06412a83          	lw	s5,100(sp)
    28e0:	000a0593          	mv	a1,s4
    28e4:	00098513          	mv	a0,s3
    28e8:	06812a03          	lw	s4,104(sp)
    28ec:	06c12983          	lw	s3,108(sp)
    28f0:	08010113          	addi	sp,sp,128
    28f4:	8b0ff06f          	j	19a4 <_out_rev>
    28f8:	0001e717          	auipc	a4,0x1e
    28fc:	ed870713          	addi	a4,a4,-296 # 207d0 <clock_interrupted+0x40>
    2900:	00400793          	li	a5,4
    2904:	f89ff06f          	j	288c <_ftoa+0x28c>
    2908:	00048613          	mv	a2,s1
    290c:	00040693          	mv	a3,s0
    2910:	00000513          	li	a0,0
    2914:	00000593          	li	a1,0
    2918:	5f9080ef          	jal	ra,b710 <__subdf3>
    291c:	00100793          	li	a5,1
    2920:	00050493          	mv	s1,a0
    2924:	00058413          	mv	s0,a1
    2928:	00f12e23          	sw	a5,28(sp)
    292c:	de5ff06f          	j	2710 <_ftoa+0x110>
    2930:	00040793          	mv	a5,s0
    2934:	07812403          	lw	s0,120(sp)
    2938:	09912023          	sw	s9,128(sp)
    293c:	07c12083          	lw	ra,124(sp)
    2940:	05c12b83          	lw	s7,92(sp)
    2944:	05412c83          	lw	s9,84(sp)
    2948:	05012d03          	lw	s10,80(sp)
    294c:	04c12d83          	lw	s11,76(sp)
    2950:	00048713          	mv	a4,s1
    2954:	00090893          	mv	a7,s2
    2958:	07412483          	lw	s1,116(sp)
    295c:	07012903          	lw	s2,112(sp)
    2960:	000b0813          	mv	a6,s6
    2964:	000c0693          	mv	a3,s8
    2968:	06012b03          	lw	s6,96(sp)
    296c:	05812c03          	lw	s8,88(sp)
    2970:	000a8613          	mv	a2,s5
    2974:	000a0593          	mv	a1,s4
    2978:	06412a83          	lw	s5,100(sp)
    297c:	06812a03          	lw	s4,104(sp)
    2980:	00098513          	mv	a0,s3
    2984:	06c12983          	lw	s3,108(sp)
    2988:	08010113          	addi	sp,sp,128
    298c:	e24ff06f          	j	1fb0 <_etoa>
    2990:	000c8893          	mv	a7,s9
    2994:	00090813          	mv	a6,s2
    2998:	00400793          	li	a5,4
    299c:	0001e717          	auipc	a4,0x1e
    29a0:	e4070713          	addi	a4,a4,-448 # 207dc <clock_interrupted+0x4c>
    29a4:	f09ff06f          	j	28ac <_ftoa+0x2ac>
    29a8:	003cf793          	andi	a5,s9,3
    29ac:	00100713          	li	a4,1
    29b0:	14e78a63          	beq	a5,a4,2b04 <_ftoa+0x504>
    29b4:	02000793          	li	a5,32
    29b8:	000c8893          	mv	a7,s9
    29bc:	00090813          	mv	a6,s2
    29c0:	02010713          	addi	a4,sp,32
    29c4:	000c0693          	mv	a3,s8
    29c8:	000a8613          	mv	a2,s5
    29cc:	000a0593          	mv	a1,s4
    29d0:	00098513          	mv	a0,s3
    29d4:	fd1fe0ef          	jal	ra,19a4 <_out_rev>
    29d8:	07c12083          	lw	ra,124(sp)
    29dc:	07812403          	lw	s0,120(sp)
    29e0:	07412483          	lw	s1,116(sp)
    29e4:	07012903          	lw	s2,112(sp)
    29e8:	06c12983          	lw	s3,108(sp)
    29ec:	06812a03          	lw	s4,104(sp)
    29f0:	06412a83          	lw	s5,100(sp)
    29f4:	06012b03          	lw	s6,96(sp)
    29f8:	05c12b83          	lw	s7,92(sp)
    29fc:	05812c03          	lw	s8,88(sp)
    2a00:	05412c83          	lw	s9,84(sp)
    2a04:	05012d03          	lw	s10,80(sp)
    2a08:	04c12d83          	lw	s11,76(sp)
    2a0c:	08010113          	addi	sp,sp,128
    2a10:	00008067          	ret
    2a14:	000d0513          	mv	a0,s10
    2a18:	5e0090ef          	jal	ra,bff8 <__floatsidf>
    2a1c:	00050613          	mv	a2,a0
    2a20:	00058693          	mv	a3,a1
    2a24:	00048513          	mv	a0,s1
    2a28:	00040593          	mv	a1,s0
    2a2c:	4e5080ef          	jal	ra,b710 <__subdf3>
    2a30:	0001d797          	auipc	a5,0x1d
    2a34:	61878793          	addi	a5,a5,1560 # 20048 <__DTOR_END__+0x38>
    2a38:	0007ab03          	lw	s6,0(a5)
    2a3c:	0047ab83          	lw	s7,4(a5)
    2a40:	00050493          	mv	s1,a0
    2a44:	000b0613          	mv	a2,s6
    2a48:	000b8693          	mv	a3,s7
    2a4c:	00058413          	mv	s0,a1
    2a50:	614080ef          	jal	ra,b064 <__ledf2>
    2a54:	00055e63          	bgez	a0,2a70 <_ftoa+0x470>
    2a58:	00048513          	mv	a0,s1
    2a5c:	00040593          	mv	a1,s0
    2a60:	000b0613          	mv	a2,s6
    2a64:	000b8693          	mv	a3,s7
    2a68:	518080ef          	jal	ra,af80 <__gedf2>
    2a6c:	00a05663          	blez	a0,2a78 <_ftoa+0x478>
    2a70:	001d7793          	andi	a5,s10,1
    2a74:	00fd0d33          	add	s10,s10,a5
    2a78:	02000593          	li	a1,32
    2a7c:	00a00693          	li	a3,10
    2a80:	f2bd84e3          	beq	s11,a1,29a8 <_ftoa+0x3a8>
    2a84:	02dd67b3          	rem	a5,s10,a3
    2a88:	001d8d93          	addi	s11,s11,1
    2a8c:	02010713          	addi	a4,sp,32
    2a90:	01b70633          	add	a2,a4,s11
    2a94:	02dd4d33          	div	s10,s10,a3
    2a98:	03078793          	addi	a5,a5,48
    2a9c:	fef60fa3          	sb	a5,-1(a2)
    2aa0:	fe0d10e3          	bnez	s10,2a80 <_ftoa+0x480>
    2aa4:	003cf793          	andi	a5,s9,3
    2aa8:	00100693          	li	a3,1
    2aac:	04d78e63          	beq	a5,a3,2b08 <_ftoa+0x508>
    2ab0:	02000693          	li	a3,32
    2ab4:	f0dd80e3          	beq	s11,a3,29b4 <_ftoa+0x3b4>
    2ab8:	01c12783          	lw	a5,28(sp)
    2abc:	08078863          	beqz	a5,2b4c <_ftoa+0x54c>
    2ac0:	04010793          	addi	a5,sp,64
    2ac4:	01b786b3          	add	a3,a5,s11
    2ac8:	02d00713          	li	a4,45
    2acc:	001d8793          	addi	a5,s11,1
    2ad0:	fee68023          	sb	a4,-32(a3)
    2ad4:	ee5ff06f          	j	29b8 <_ftoa+0x3b8>
    2ad8:	01412503          	lw	a0,20(sp)
    2adc:	01812583          	lw	a1,24(sp)
    2ae0:	00030613          	mv	a2,t1
    2ae4:	00038693          	mv	a3,t2
    2ae8:	57c080ef          	jal	ra,b064 <__ledf2>
    2aec:	d40544e3          	bltz	a0,2834 <_ftoa+0x234>
    2af0:	0c0b1a63          	bnez	s6,2bc4 <_ftoa+0x5c4>
    2af4:	001b0b13          	addi	s6,s6,1
    2af8:	d3dff06f          	j	2834 <_ftoa+0x234>
    2afc:	02000d93          	li	s11,32
    2b00:	c4dff06f          	j	274c <_ftoa+0x14c>
    2b04:	02000d93          	li	s11,32
    2b08:	fa0904e3          	beqz	s2,2ab0 <_ftoa+0x4b0>
    2b0c:	01c12783          	lw	a5,28(sp)
    2b10:	0c079e63          	bnez	a5,2bec <_ftoa+0x5ec>
    2b14:	00ccf793          	andi	a5,s9,12
    2b18:	0c079a63          	bnez	a5,2bec <_ftoa+0x5ec>
    2b1c:	f92dfae3          	bgeu	s11,s2,2ab0 <_ftoa+0x4b0>
    2b20:	02000793          	li	a5,32
    2b24:	03000613          	li	a2,48
    2b28:	02000693          	li	a3,32
    2b2c:	e8fd84e3          	beq	s11,a5,29b4 <_ftoa+0x3b4>
    2b30:	001d8d93          	addi	s11,s11,1
    2b34:	02010793          	addi	a5,sp,32
    2b38:	01b787b3          	add	a5,a5,s11
    2b3c:	fec78fa3          	sb	a2,-1(a5)
    2b40:	f72d88e3          	beq	s11,s2,2ab0 <_ftoa+0x4b0>
    2b44:	fedd96e3          	bne	s11,a3,2b30 <_ftoa+0x530>
    2b48:	e6dff06f          	j	29b4 <_ftoa+0x3b4>
    2b4c:	004cf793          	andi	a5,s9,4
    2b50:	08079263          	bnez	a5,2bd4 <_ftoa+0x5d4>
    2b54:	008cf613          	andi	a2,s9,8
    2b58:	000d8793          	mv	a5,s11
    2b5c:	e4060ee3          	beqz	a2,29b8 <_ftoa+0x3b8>
    2b60:	04010713          	addi	a4,sp,64
    2b64:	01b70733          	add	a4,a4,s11
    2b68:	001d8793          	addi	a5,s11,1
    2b6c:	fed70023          	sb	a3,-32(a4)
    2b70:	e49ff06f          	j	29b8 <_ftoa+0x3b8>
    2b74:	e26d8ae3          	beq	s11,t1,29a8 <_ftoa+0x3a8>
    2b78:	000d8613          	mv	a2,s11
    2b7c:	03000893          	li	a7,48
    2b80:	02000513          	li	a0,32
    2b84:	02058463          	beqz	a1,2bac <_ftoa+0x5ac>
    2b88:	00160613          	addi	a2,a2,1
    2b8c:	02010793          	addi	a5,sp,32
    2b90:	fff64693          	not	a3,a2
    2b94:	00c785b3          	add	a1,a5,a2
    2b98:	01b686b3          	add	a3,a3,s11
    2b9c:	ff158fa3          	sb	a7,-1(a1)
    2ba0:	017686b3          	add	a3,a3,s7
    2ba4:	e0a602e3          	beq	a2,a0,29a8 <_ftoa+0x3a8>
    2ba8:	fe0690e3          	bnez	a3,2b88 <_ftoa+0x588>
    2bac:	04010793          	addi	a5,sp,64
    2bb0:	00c787b3          	add	a5,a5,a2
    2bb4:	02e00693          	li	a3,46
    2bb8:	00160d93          	addi	s11,a2,1
    2bbc:	fed78023          	sb	a3,-32(a5)
    2bc0:	eb9ff06f          	j	2a78 <_ftoa+0x478>
    2bc4:	001b7693          	andi	a3,s6,1
    2bc8:	c60686e3          	beqz	a3,2834 <_ftoa+0x234>
    2bcc:	001b0b13          	addi	s6,s6,1
    2bd0:	c65ff06f          	j	2834 <_ftoa+0x234>
    2bd4:	04010793          	addi	a5,sp,64
    2bd8:	01b786b3          	add	a3,a5,s11
    2bdc:	02b00713          	li	a4,43
    2be0:	001d8793          	addi	a5,s11,1
    2be4:	fee68023          	sb	a4,-32(a3)
    2be8:	dd1ff06f          	j	29b8 <_ftoa+0x3b8>
    2bec:	fff90913          	addi	s2,s2,-1
    2bf0:	f2dff06f          	j	2b1c <_ftoa+0x51c>

00002bf4 <_out_char>:
    2bf4:	00051463          	bnez	a0,2bfc <_out_char+0x8>
    2bf8:	00008067          	ret
    2bfc:	cb9fe06f          	j	18b4 <_putchar>

00002c00 <_out_fct>:
    2c00:	00050863          	beqz	a0,2c10 <_out_fct+0x10>
    2c04:	0005a783          	lw	a5,0(a1)
    2c08:	0045a583          	lw	a1,4(a1)
    2c0c:	00078067          	jr	a5
    2c10:	00008067          	ret

00002c14 <_vsnprintf>:
    2c14:	fa010113          	addi	sp,sp,-96
    2c18:	04812c23          	sw	s0,88(sp)
    2c1c:	05312623          	sw	s3,76(sp)
    2c20:	05412423          	sw	s4,72(sp)
    2c24:	03912a23          	sw	s9,52(sp)
    2c28:	03b12623          	sw	s11,44(sp)
    2c2c:	04112e23          	sw	ra,92(sp)
    2c30:	04912a23          	sw	s1,84(sp)
    2c34:	05212823          	sw	s2,80(sp)
    2c38:	05512223          	sw	s5,68(sp)
    2c3c:	05612023          	sw	s6,64(sp)
    2c40:	03712e23          	sw	s7,60(sp)
    2c44:	03812c23          	sw	s8,56(sp)
    2c48:	03a12823          	sw	s10,48(sp)
    2c4c:	00058d93          	mv	s11,a1
    2c50:	00060c93          	mv	s9,a2
    2c54:	00068413          	mv	s0,a3
    2c58:	00070a13          	mv	s4,a4
    2c5c:	fffff997          	auipc	s3,0xfffff
    2c60:	d4498993          	addi	s3,s3,-700 # 19a0 <_out_null>
    2c64:	00058463          	beqz	a1,2c6c <_vsnprintf+0x58>
    2c68:	00050993          	mv	s3,a0
    2c6c:	00044503          	lbu	a0,0(s0)
    2c70:	00000d13          	li	s10,0
    2c74:	60050663          	beqz	a0,3280 <_vsnprintf+0x66c>
    2c78:	000017b7          	lui	a5,0x1
    2c7c:	80078793          	addi	a5,a5,-2048 # 800 <mutex_test+0x270>
    2c80:	00f12a23          	sw	a5,20(sp)
    2c84:	000107b7          	lui	a5,0x10
    2c88:	fff78793          	addi	a5,a5,-1 # ffff <_text_end+0x3edf>
    2c8c:	0001e917          	auipc	s2,0x1e
    2c90:	b5c90913          	addi	s2,s2,-1188 # 207e8 <clock_interrupted+0x58>
    2c94:	00f12c23          	sw	a5,24(sp)
    2c98:	0200006f          	j	2cb8 <_vsnprintf+0xa4>
    2c9c:	000d0613          	mv	a2,s10
    2ca0:	000c8693          	mv	a3,s9
    2ca4:	000d8593          	mv	a1,s11
    2ca8:	001d0d13          	addi	s10,s10,1
    2cac:	000980e7          	jalr	s3
    2cb0:	00044503          	lbu	a0,0(s0)
    2cb4:	10050a63          	beqz	a0,2dc8 <_vsnprintf+0x1b4>
    2cb8:	02500793          	li	a5,37
    2cbc:	00140413          	addi	s0,s0,1
    2cc0:	fcf51ee3          	bne	a0,a5,2c9c <_vsnprintf+0x88>
    2cc4:	00000493          	li	s1,0
    2cc8:	01000813          	li	a6,16
    2ccc:	00044503          	lbu	a0,0(s0)
    2cd0:	00140713          	addi	a4,s0,1
    2cd4:	00070613          	mv	a2,a4
    2cd8:	fe050793          	addi	a5,a0,-32
    2cdc:	0ff7f793          	zext.b	a5,a5
    2ce0:	00f86c63          	bltu	a6,a5,2cf8 <_vsnprintf+0xe4>
    2ce4:	00279793          	slli	a5,a5,0x2
    2ce8:	012787b3          	add	a5,a5,s2
    2cec:	0007a783          	lw	a5,0(a5)
    2cf0:	012787b3          	add	a5,a5,s2
    2cf4:	00078067          	jr	a5
    2cf8:	fd050793          	addi	a5,a0,-48
    2cfc:	0ff7f793          	zext.b	a5,a5
    2d00:	00900813          	li	a6,9
    2d04:	18f87463          	bgeu	a6,a5,2e8c <_vsnprintf+0x278>
    2d08:	02a00793          	li	a5,42
    2d0c:	1cf50463          	beq	a0,a5,2ed4 <_vsnprintf+0x2c0>
    2d10:	00040613          	mv	a2,s0
    2d14:	00000a93          	li	s5,0
    2d18:	00070413          	mv	s0,a4
    2d1c:	02e00793          	li	a5,46
    2d20:	00000c13          	li	s8,0
    2d24:	10f50263          	beq	a0,a5,2e28 <_vsnprintf+0x214>
    2d28:	f9850793          	addi	a5,a0,-104
    2d2c:	0ff7f793          	zext.b	a5,a5
    2d30:	01200713          	li	a4,18
    2d34:	02f76663          	bltu	a4,a5,2d60 <_vsnprintf+0x14c>
    2d38:	0001e717          	auipc	a4,0x1e
    2d3c:	af470713          	addi	a4,a4,-1292 # 2082c <clock_interrupted+0x9c>
    2d40:	00279793          	slli	a5,a5,0x2
    2d44:	00e787b3          	add	a5,a5,a4
    2d48:	0007a783          	lw	a5,0(a5)
    2d4c:	00e787b3          	add	a5,a5,a4
    2d50:	00078067          	jr	a5
    2d54:	00164503          	lbu	a0,1(a2)
    2d58:	1004e493          	ori	s1,s1,256
    2d5c:	00140413          	addi	s0,s0,1
    2d60:	fdb50793          	addi	a5,a0,-37
    2d64:	0ff7f793          	zext.b	a5,a5
    2d68:	05300713          	li	a4,83
    2d6c:	f2f768e3          	bltu	a4,a5,2c9c <_vsnprintf+0x88>
    2d70:	0001e717          	auipc	a4,0x1e
    2d74:	b0870713          	addi	a4,a4,-1272 # 20878 <clock_interrupted+0xe8>
    2d78:	00279793          	slli	a5,a5,0x2
    2d7c:	00e787b3          	add	a5,a5,a4
    2d80:	0007a783          	lw	a5,0(a5)
    2d84:	00e787b3          	add	a5,a5,a4
    2d88:	00078067          	jr	a5
    2d8c:	0014e493          	ori	s1,s1,1
    2d90:	00070413          	mv	s0,a4
    2d94:	f39ff06f          	j	2ccc <_vsnprintf+0xb8>
    2d98:	0024e493          	ori	s1,s1,2
    2d9c:	00070413          	mv	s0,a4
    2da0:	f2dff06f          	j	2ccc <_vsnprintf+0xb8>
    2da4:	0044e493          	ori	s1,s1,4
    2da8:	00070413          	mv	s0,a4
    2dac:	f21ff06f          	j	2ccc <_vsnprintf+0xb8>
    2db0:	0104e493          	ori	s1,s1,16
    2db4:	00070413          	mv	s0,a4
    2db8:	f15ff06f          	j	2ccc <_vsnprintf+0xb8>
    2dbc:	0084e493          	ori	s1,s1,8
    2dc0:	00070413          	mv	s0,a4
    2dc4:	f09ff06f          	j	2ccc <_vsnprintf+0xb8>
    2dc8:	000d0413          	mv	s0,s10
    2dcc:	019d6463          	bltu	s10,s9,2dd4 <_vsnprintf+0x1c0>
    2dd0:	fffc8d13          	addi	s10,s9,-1
    2dd4:	000c8693          	mv	a3,s9
    2dd8:	000d0613          	mv	a2,s10
    2ddc:	000d8593          	mv	a1,s11
    2de0:	00000513          	li	a0,0
    2de4:	000980e7          	jalr	s3
    2de8:	05c12083          	lw	ra,92(sp)
    2dec:	00040513          	mv	a0,s0
    2df0:	05812403          	lw	s0,88(sp)
    2df4:	05412483          	lw	s1,84(sp)
    2df8:	05012903          	lw	s2,80(sp)
    2dfc:	04c12983          	lw	s3,76(sp)
    2e00:	04812a03          	lw	s4,72(sp)
    2e04:	04412a83          	lw	s5,68(sp)
    2e08:	04012b03          	lw	s6,64(sp)
    2e0c:	03c12b83          	lw	s7,60(sp)
    2e10:	03812c03          	lw	s8,56(sp)
    2e14:	03412c83          	lw	s9,52(sp)
    2e18:	03012d03          	lw	s10,48(sp)
    2e1c:	02c12d83          	lw	s11,44(sp)
    2e20:	06010113          	addi	sp,sp,96
    2e24:	00008067          	ret
    2e28:	00164503          	lbu	a0,1(a2)
    2e2c:	00900713          	li	a4,9
    2e30:	4004e493          	ori	s1,s1,1024
    2e34:	fd050793          	addi	a5,a0,-48
    2e38:	0ff7f793          	zext.b	a5,a5
    2e3c:	00f77c63          	bgeu	a4,a5,2e54 <_vsnprintf+0x240>
    2e40:	02a00793          	li	a5,42
    2e44:	34f50663          	beq	a0,a5,3190 <_vsnprintf+0x57c>
    2e48:	00040613          	mv	a2,s0
    2e4c:	00140413          	addi	s0,s0,1
    2e50:	ed9ff06f          	j	2d28 <_vsnprintf+0x114>
    2e54:	002c1793          	slli	a5,s8,0x2
    2e58:	01878833          	add	a6,a5,s8
    2e5c:	00040e13          	mv	t3,s0
    2e60:	00181813          	slli	a6,a6,0x1
    2e64:	00140413          	addi	s0,s0,1
    2e68:	00a80833          	add	a6,a6,a0
    2e6c:	00044503          	lbu	a0,0(s0)
    2e70:	fd080c13          	addi	s8,a6,-48
    2e74:	fd050793          	addi	a5,a0,-48
    2e78:	0ff7f793          	zext.b	a5,a5
    2e7c:	fcf77ce3          	bgeu	a4,a5,2e54 <_vsnprintf+0x240>
    2e80:	00040613          	mv	a2,s0
    2e84:	002e0413          	addi	s0,t3,2
    2e88:	ea1ff06f          	j	2d28 <_vsnprintf+0x114>
    2e8c:	00000a93          	li	s5,0
    2e90:	00900613          	li	a2,9
    2e94:	0080006f          	j	2e9c <_vsnprintf+0x288>
    2e98:	00170713          	addi	a4,a4,1
    2e9c:	002a9793          	slli	a5,s5,0x2
    2ea0:	015788b3          	add	a7,a5,s5
    2ea4:	00189893          	slli	a7,a7,0x1
    2ea8:	00a888b3          	add	a7,a7,a0
    2eac:	00074503          	lbu	a0,0(a4)
    2eb0:	00040813          	mv	a6,s0
    2eb4:	fd088a93          	addi	s5,a7,-48
    2eb8:	fd050793          	addi	a5,a0,-48
    2ebc:	0ff7f793          	zext.b	a5,a5
    2ec0:	00070413          	mv	s0,a4
    2ec4:	fcf67ae3          	bgeu	a2,a5,2e98 <_vsnprintf+0x284>
    2ec8:	00070613          	mv	a2,a4
    2ecc:	00280413          	addi	s0,a6,2
    2ed0:	e4dff06f          	j	2d1c <_vsnprintf+0x108>
    2ed4:	000a2a83          	lw	s5,0(s4)
    2ed8:	004a0a13          	addi	s4,s4,4
    2edc:	000ac863          	bltz	s5,2eec <_vsnprintf+0x2d8>
    2ee0:	00144503          	lbu	a0,1(s0)
    2ee4:	00240413          	addi	s0,s0,2
    2ee8:	e35ff06f          	j	2d1c <_vsnprintf+0x108>
    2eec:	00144503          	lbu	a0,1(s0)
    2ef0:	0024e493          	ori	s1,s1,2
    2ef4:	41500ab3          	neg	s5,s5
    2ef8:	00240413          	addi	s0,s0,2
    2efc:	e21ff06f          	j	2d1c <_vsnprintf+0x108>
    2f00:	07800793          	li	a5,120
    2f04:	4ef50e63          	beq	a0,a5,3400 <_vsnprintf+0x7ec>
    2f08:	05800793          	li	a5,88
    2f0c:	38f50063          	beq	a0,a5,328c <_vsnprintf+0x678>
    2f10:	06f00793          	li	a5,111
    2f14:	52f50863          	beq	a0,a5,3444 <_vsnprintf+0x830>
    2f18:	06200793          	li	a5,98
    2f1c:	5af50063          	beq	a0,a5,34bc <_vsnprintf+0x8a8>
    2f20:	06900713          	li	a4,105
    2f24:	fef4fe13          	andi	t3,s1,-17
    2f28:	4004f793          	andi	a5,s1,1024
    2f2c:	5ce51e63          	bne	a0,a4,3508 <_vsnprintf+0x8f4>
    2f30:	4e079263          	bnez	a5,3414 <_vsnprintf+0x800>
    2f34:	2004f493          	andi	s1,s1,512
    2f38:	00a00813          	li	a6,10
    2f3c:	46049063          	bnez	s1,339c <_vsnprintf+0x788>
    2f40:	100e7793          	andi	a5,t3,256
    2f44:	004a0493          	addi	s1,s4,4
    2f48:	54079663          	bnez	a5,3494 <_vsnprintf+0x880>
    2f4c:	040e7793          	andi	a5,t3,64
    2f50:	4c079a63          	bnez	a5,3424 <_vsnprintf+0x810>
    2f54:	080e7793          	andi	a5,t3,128
    2f58:	56078a63          	beqz	a5,34cc <_vsnprintf+0x8b8>
    2f5c:	000a1783          	lh	a5,0(s4)
    2f60:	40f7d613          	srai	a2,a5,0xf
    2f64:	00c7c733          	xor	a4,a5,a2
    2f68:	40c70733          	sub	a4,a4,a2
    2f6c:	01071713          	slli	a4,a4,0x10
    2f70:	01075713          	srli	a4,a4,0x10
    2f74:	000d0613          	mv	a2,s10
    2f78:	01c12223          	sw	t3,4(sp)
    2f7c:	01512023          	sw	s5,0(sp)
    2f80:	000c0893          	mv	a7,s8
    2f84:	01f7d793          	srli	a5,a5,0x1f
    2f88:	000c8693          	mv	a3,s9
    2f8c:	000d8593          	mv	a1,s11
    2f90:	00098513          	mv	a0,s3
    2f94:	dc1fe0ef          	jal	ra,1d54 <_ntoa_long>
    2f98:	00050d13          	mv	s10,a0
    2f9c:	00048a13          	mv	s4,s1
    2fa0:	d11ff06f          	j	2cb0 <_vsnprintf+0x9c>
    2fa4:	00164503          	lbu	a0,1(a2)
    2fa8:	06c00793          	li	a5,108
    2fac:	daf516e3          	bne	a0,a5,2d58 <_vsnprintf+0x144>
    2fb0:	00264503          	lbu	a0,2(a2)
    2fb4:	3004e493          	ori	s1,s1,768
    2fb8:	00360413          	addi	s0,a2,3
    2fbc:	da5ff06f          	j	2d60 <_vsnprintf+0x14c>
    2fc0:	00164503          	lbu	a0,1(a2)
    2fc4:	2004e493          	ori	s1,s1,512
    2fc8:	00140413          	addi	s0,s0,1
    2fcc:	d95ff06f          	j	2d60 <_vsnprintf+0x14c>
    2fd0:	00164503          	lbu	a0,1(a2)
    2fd4:	06800793          	li	a5,104
    2fd8:	28f50863          	beq	a0,a5,3268 <_vsnprintf+0x654>
    2fdc:	0804e493          	ori	s1,s1,128
    2fe0:	00140413          	addi	s0,s0,1
    2fe4:	d7dff06f          	j	2d60 <_vsnprintf+0x14c>
    2fe8:	04600793          	li	a5,70
    2fec:	22f50263          	beq	a0,a5,3210 <_vsnprintf+0x5fc>
    2ff0:	007a0a13          	addi	s4,s4,7
    2ff4:	ff8a7a13          	andi	s4,s4,-8
    2ff8:	000a2703          	lw	a4,0(s4)
    2ffc:	004a2783          	lw	a5,4(s4)
    3000:	000d0613          	mv	a2,s10
    3004:	00912023          	sw	s1,0(sp)
    3008:	000a8893          	mv	a7,s5
    300c:	000c0813          	mv	a6,s8
    3010:	000c8693          	mv	a3,s9
    3014:	000d8593          	mv	a1,s11
    3018:	00098513          	mv	a0,s3
    301c:	de4ff0ef          	jal	ra,2600 <_ftoa>
    3020:	008a0a13          	addi	s4,s4,8
    3024:	00050d13          	mv	s10,a0
    3028:	c89ff06f          	j	2cb0 <_vsnprintf+0x9c>
    302c:	000a2b83          	lw	s7,0(s4)
    3030:	004a0a13          	addi	s4,s4,4
    3034:	000bc503          	lbu	a0,0(s7)
    3038:	160c1e63          	bnez	s8,31b4 <_vsnprintf+0x5a0>
    303c:	ffe00b13          	li	s6,-2
    3040:	4a050063          	beqz	a0,34e0 <_vsnprintf+0x8cc>
    3044:	001b0b13          	addi	s6,s6,1
    3048:	016b8b33          	add	s6,s7,s6
    304c:	000b8793          	mv	a5,s7
    3050:	0080006f          	j	3058 <_vsnprintf+0x444>
    3054:	22fb0263          	beq	s6,a5,3278 <_vsnprintf+0x664>
    3058:	0017c703          	lbu	a4,1(a5)
    305c:	00178793          	addi	a5,a5,1
    3060:	fe071ae3          	bnez	a4,3054 <_vsnprintf+0x440>
    3064:	41778b33          	sub	s6,a5,s7
    3068:	4004f793          	andi	a5,s1,1024
    306c:	00f12823          	sw	a5,16(sp)
    3070:	00078663          	beqz	a5,307c <_vsnprintf+0x468>
    3074:	016c7463          	bgeu	s8,s6,307c <_vsnprintf+0x468>
    3078:	000c0b13          	mv	s6,s8
    307c:	0024f793          	andi	a5,s1,2
    3080:	00f12e23          	sw	a5,28(sp)
    3084:	2c078a63          	beqz	a5,3358 <_vsnprintf+0x744>
    3088:	18050a63          	beqz	a0,321c <_vsnprintf+0x608>
    308c:	000d0613          	mv	a2,s10
    3090:	0080006f          	j	3098 <_vsnprintf+0x484>
    3094:	00048613          	mv	a2,s1
    3098:	01012783          	lw	a5,16(sp)
    309c:	00078863          	beqz	a5,30ac <_vsnprintf+0x498>
    30a0:	fffc0793          	addi	a5,s8,-1
    30a4:	240c0c63          	beqz	s8,32fc <_vsnprintf+0x6e8>
    30a8:	00078c13          	mv	s8,a5
    30ac:	000c8693          	mv	a3,s9
    30b0:	000d8593          	mv	a1,s11
    30b4:	00160493          	addi	s1,a2,1
    30b8:	000980e7          	jalr	s3
    30bc:	41a487b3          	sub	a5,s1,s10
    30c0:	00fb87b3          	add	a5,s7,a5
    30c4:	0007c503          	lbu	a0,0(a5)
    30c8:	fc0516e3          	bnez	a0,3094 <_vsnprintf+0x480>
    30cc:	01c12783          	lw	a5,28(sp)
    30d0:	14079463          	bnez	a5,3218 <_vsnprintf+0x604>
    30d4:	00048d13          	mv	s10,s1
    30d8:	bd9ff06f          	j	2cb0 <_vsnprintf+0x9c>
    30dc:	000d0613          	mv	a2,s10
    30e0:	000c8693          	mv	a3,s9
    30e4:	000d8593          	mv	a1,s11
    30e8:	02500513          	li	a0,37
    30ec:	001d0d13          	addi	s10,s10,1
    30f0:	000980e7          	jalr	s3
    30f4:	bbdff06f          	j	2cb0 <_vsnprintf+0x9c>
    30f8:	000a2703          	lw	a4,0(s4)
    30fc:	00800793          	li	a5,8
    3100:	0214e493          	ori	s1,s1,33
    3104:	000d0613          	mv	a2,s10
    3108:	00f12023          	sw	a5,0(sp)
    310c:	00912223          	sw	s1,4(sp)
    3110:	000c0893          	mv	a7,s8
    3114:	01000813          	li	a6,16
    3118:	00000793          	li	a5,0
    311c:	000c8693          	mv	a3,s9
    3120:	000d8593          	mv	a1,s11
    3124:	00098513          	mv	a0,s3
    3128:	c2dfe0ef          	jal	ra,1d54 <_ntoa_long>
    312c:	004a0a13          	addi	s4,s4,4
    3130:	00050d13          	mv	s10,a0
    3134:	b7dff06f          	j	2cb0 <_vsnprintf+0x9c>
    3138:	001d0b93          	addi	s7,s10,1
    313c:	0024f493          	andi	s1,s1,2
    3140:	000b8b13          	mv	s6,s7
    3144:	004a0c13          	addi	s8,s4,4
    3148:	1a048e63          	beqz	s1,3304 <_vsnprintf+0x6f0>
    314c:	000a4503          	lbu	a0,0(s4)
    3150:	000d0613          	mv	a2,s10
    3154:	000c8693          	mv	a3,s9
    3158:	000d8593          	mv	a1,s11
    315c:	000980e7          	jalr	s3
    3160:	00100793          	li	a5,1
    3164:	015d0d33          	add	s10,s10,s5
    3168:	2d57f863          	bgeu	a5,s5,3438 <_vsnprintf+0x824>
    316c:	000b0613          	mv	a2,s6
    3170:	000c8693          	mv	a3,s9
    3174:	001b0b13          	addi	s6,s6,1
    3178:	000d8593          	mv	a1,s11
    317c:	02000513          	li	a0,32
    3180:	000980e7          	jalr	s3
    3184:	ff6d14e3          	bne	s10,s6,316c <_vsnprintf+0x558>
    3188:	000c0a13          	mv	s4,s8
    318c:	b25ff06f          	j	2cb0 <_vsnprintf+0x9c>
    3190:	000a2c03          	lw	s8,0(s4)
    3194:	00264503          	lbu	a0,2(a2)
    3198:	00360413          	addi	s0,a2,3
    319c:	fffc4793          	not	a5,s8
    31a0:	41f7d793          	srai	a5,a5,0x1f
    31a4:	00fc7c33          	and	s8,s8,a5
    31a8:	004a0a13          	addi	s4,s4,4
    31ac:	00260613          	addi	a2,a2,2
    31b0:	b79ff06f          	j	2d28 <_vsnprintf+0x114>
    31b4:	32050663          	beqz	a0,34e0 <_vsnprintf+0x8cc>
    31b8:	fffc0b13          	addi	s6,s8,-1
    31bc:	e89ff06f          	j	3044 <_vsnprintf+0x430>
    31c0:	0df57793          	andi	a5,a0,223
    31c4:	04700713          	li	a4,71
    31c8:	08e78263          	beq	a5,a4,324c <_vsnprintf+0x638>
    31cc:	04500793          	li	a5,69
    31d0:	08f50863          	beq	a0,a5,3260 <_vsnprintf+0x64c>
    31d4:	007a0a13          	addi	s4,s4,7
    31d8:	ff8a7a13          	andi	s4,s4,-8
    31dc:	000a2703          	lw	a4,0(s4)
    31e0:	004a2783          	lw	a5,4(s4)
    31e4:	000d0613          	mv	a2,s10
    31e8:	00912023          	sw	s1,0(sp)
    31ec:	000a8893          	mv	a7,s5
    31f0:	000c0813          	mv	a6,s8
    31f4:	000c8693          	mv	a3,s9
    31f8:	000d8593          	mv	a1,s11
    31fc:	00098513          	mv	a0,s3
    3200:	db1fe0ef          	jal	ra,1fb0 <_etoa>
    3204:	008a0a13          	addi	s4,s4,8
    3208:	00050d13          	mv	s10,a0
    320c:	aa5ff06f          	j	2cb0 <_vsnprintf+0x9c>
    3210:	0204e493          	ori	s1,s1,32
    3214:	dddff06f          	j	2ff0 <_vsnprintf+0x3dc>
    3218:	00048d13          	mv	s10,s1
    321c:	175b7a63          	bgeu	s6,s5,3390 <_vsnprintf+0x77c>
    3220:	01aa8733          	add	a4,s5,s10
    3224:	416704b3          	sub	s1,a4,s6
    3228:	000d0613          	mv	a2,s10
    322c:	000c8693          	mv	a3,s9
    3230:	001d0d13          	addi	s10,s10,1
    3234:	000d8593          	mv	a1,s11
    3238:	02000513          	li	a0,32
    323c:	000980e7          	jalr	s3
    3240:	ffa494e3          	bne	s1,s10,3228 <_vsnprintf+0x614>
    3244:	00048d13          	mv	s10,s1
    3248:	a69ff06f          	j	2cb0 <_vsnprintf+0x9c>
    324c:	01412703          	lw	a4,20(sp)
    3250:	0fd57513          	andi	a0,a0,253
    3254:	04500793          	li	a5,69
    3258:	00e4e4b3          	or	s1,s1,a4
    325c:	f6f51ce3          	bne	a0,a5,31d4 <_vsnprintf+0x5c0>
    3260:	0204e493          	ori	s1,s1,32
    3264:	f71ff06f          	j	31d4 <_vsnprintf+0x5c0>
    3268:	00264503          	lbu	a0,2(a2)
    326c:	0c04e493          	ori	s1,s1,192
    3270:	00360413          	addi	s0,a2,3
    3274:	aedff06f          	j	2d60 <_vsnprintf+0x14c>
    3278:	417b0b33          	sub	s6,s6,s7
    327c:	dedff06f          	j	3068 <_vsnprintf+0x454>
    3280:	00000413          	li	s0,0
    3284:	b59d68e3          	bltu	s10,s9,2dd4 <_vsnprintf+0x1c0>
    3288:	b49ff06f          	j	2dd0 <_vsnprintf+0x1bc>
    328c:	ff34fe13          	andi	t3,s1,-13
    3290:	4004f793          	andi	a5,s1,1024
    3294:	020e6e13          	ori	t3,t3,32
    3298:	01000813          	li	a6,16
    329c:	18078063          	beqz	a5,341c <_vsnprintf+0x808>
    32a0:	ffee7e13          	andi	t3,t3,-2
    32a4:	06900793          	li	a5,105
    32a8:	200e7493          	andi	s1,t3,512
    32ac:	c8f508e3          	beq	a0,a5,2f3c <_vsnprintf+0x328>
    32b0:	06400793          	li	a5,100
    32b4:	c8f504e3          	beq	a0,a5,2f3c <_vsnprintf+0x328>
    32b8:	1a049663          	bnez	s1,3464 <_vsnprintf+0x850>
    32bc:	100e7793          	andi	a5,t3,256
    32c0:	004a0493          	addi	s1,s4,4
    32c4:	20079063          	bnez	a5,34c4 <_vsnprintf+0x8b0>
    32c8:	040e7793          	andi	a5,t3,64
    32cc:	16079263          	bnez	a5,3430 <_vsnprintf+0x81c>
    32d0:	080e7793          	andi	a5,t3,128
    32d4:	000a2703          	lw	a4,0(s4)
    32d8:	00078663          	beqz	a5,32e4 <_vsnprintf+0x6d0>
    32dc:	01812783          	lw	a5,24(sp)
    32e0:	00f77733          	and	a4,a4,a5
    32e4:	000d0613          	mv	a2,s10
    32e8:	01c12223          	sw	t3,4(sp)
    32ec:	01512023          	sw	s5,0(sp)
    32f0:	000c0893          	mv	a7,s8
    32f4:	00000793          	li	a5,0
    32f8:	c91ff06f          	j	2f88 <_vsnprintf+0x374>
    32fc:	00060493          	mv	s1,a2
    3300:	dcdff06f          	j	30cc <_vsnprintf+0x4b8>
    3304:	00100793          	li	a5,1
    3308:	1f57f663          	bgeu	a5,s5,34f4 <_vsnprintf+0x8e0>
    330c:	fffd0493          	addi	s1,s10,-1
    3310:	015484b3          	add	s1,s1,s5
    3314:	0080006f          	j	331c <_vsnprintf+0x708>
    3318:	001b8b93          	addi	s7,s7,1
    331c:	000d0613          	mv	a2,s10
    3320:	000c8693          	mv	a3,s9
    3324:	000d8593          	mv	a1,s11
    3328:	02000513          	li	a0,32
    332c:	000b8d13          	mv	s10,s7
    3330:	000980e7          	jalr	s3
    3334:	fe9b92e3          	bne	s7,s1,3318 <_vsnprintf+0x704>
    3338:	001b8d13          	addi	s10,s7,1
    333c:	000a4503          	lbu	a0,0(s4)
    3340:	000c8693          	mv	a3,s9
    3344:	00048613          	mv	a2,s1
    3348:	000d8593          	mv	a1,s11
    334c:	000980e7          	jalr	s3
    3350:	000c0a13          	mv	s4,s8
    3354:	95dff06f          	j	2cb0 <_vsnprintf+0x9c>
    3358:	001b0793          	addi	a5,s6,1
    335c:	195b7663          	bgeu	s6,s5,34e8 <_vsnprintf+0x8d4>
    3360:	01aa87b3          	add	a5,s5,s10
    3364:	41678b33          	sub	s6,a5,s6
    3368:	000d0613          	mv	a2,s10
    336c:	000c8693          	mv	a3,s9
    3370:	001d0d13          	addi	s10,s10,1
    3374:	000d8593          	mv	a1,s11
    3378:	02000513          	li	a0,32
    337c:	000980e7          	jalr	s3
    3380:	ffab14e3          	bne	s6,s10,3368 <_vsnprintf+0x754>
    3384:	000bc503          	lbu	a0,0(s7)
    3388:	001a8b13          	addi	s6,s5,1
    338c:	d00510e3          	bnez	a0,308c <_vsnprintf+0x478>
    3390:	000d0493          	mv	s1,s10
    3394:	00048d13          	mv	s10,s1
    3398:	919ff06f          	j	2cb0 <_vsnprintf+0x9c>
    339c:	007a0a13          	addi	s4,s4,7
    33a0:	ff8a7a13          	andi	s4,s4,-8
    33a4:	004a2f03          	lw	t5,4(s4)
    33a8:	000a2783          	lw	a5,0(s4)
    33ac:	00080893          	mv	a7,a6
    33b0:	41ff5513          	srai	a0,t5,0x1f
    33b4:	00f547b3          	xor	a5,a0,a5
    33b8:	40a78733          	sub	a4,a5,a0
    33bc:	01e54333          	xor	t1,a0,t5
    33c0:	00e7b7b3          	sltu	a5,a5,a4
    33c4:	40a30533          	sub	a0,t1,a0
    33c8:	000d0613          	mv	a2,s10
    33cc:	01c12623          	sw	t3,12(sp)
    33d0:	01512423          	sw	s5,8(sp)
    33d4:	01812223          	sw	s8,4(sp)
    33d8:	00012023          	sw	zero,0(sp)
    33dc:	01ff5813          	srli	a6,t5,0x1f
    33e0:	40f507b3          	sub	a5,a0,a5
    33e4:	000c8693          	mv	a3,s9
    33e8:	000d8593          	mv	a1,s11
    33ec:	00098513          	mv	a0,s3
    33f0:	a29fe0ef          	jal	ra,1e18 <_ntoa_long_long>
    33f4:	008a0a13          	addi	s4,s4,8
    33f8:	00050d13          	mv	s10,a0
    33fc:	8b5ff06f          	j	2cb0 <_vsnprintf+0x9c>
    3400:	4004f793          	andi	a5,s1,1024
    3404:	01000813          	li	a6,16
    3408:	ff34fe13          	andi	t3,s1,-13
    340c:	e8078ce3          	beqz	a5,32a4 <_vsnprintf+0x690>
    3410:	e91ff06f          	j	32a0 <_vsnprintf+0x68c>
    3414:	00a00813          	li	a6,10
    3418:	e89ff06f          	j	32a0 <_vsnprintf+0x68c>
    341c:	2004f493          	andi	s1,s1,512
    3420:	e99ff06f          	j	32b8 <_vsnprintf+0x6a4>
    3424:	000a4783          	lbu	a5,0(s4)
    3428:	00078713          	mv	a4,a5
    342c:	b49ff06f          	j	2f74 <_vsnprintf+0x360>
    3430:	000a4703          	lbu	a4,0(s4)
    3434:	eb1ff06f          	j	32e4 <_vsnprintf+0x6d0>
    3438:	000b8d13          	mv	s10,s7
    343c:	000c0a13          	mv	s4,s8
    3440:	871ff06f          	j	2cb0 <_vsnprintf+0x9c>
    3444:	00800813          	li	a6,8
    3448:	00048e13          	mv	t3,s1
    344c:	06400713          	li	a4,100
    3450:	400e7793          	andi	a5,t3,1024
    3454:	0ae51663          	bne	a0,a4,3500 <_vsnprintf+0x8ec>
    3458:	200e7493          	andi	s1,t3,512
    345c:	ae0780e3          	beqz	a5,2f3c <_vsnprintf+0x328>
    3460:	e41ff06f          	j	32a0 <_vsnprintf+0x68c>
    3464:	007a0a13          	addi	s4,s4,7
    3468:	ff8a7a13          	andi	s4,s4,-8
    346c:	000a2703          	lw	a4,0(s4)
    3470:	004a2783          	lw	a5,4(s4)
    3474:	00080893          	mv	a7,a6
    3478:	000d0613          	mv	a2,s10
    347c:	01c12623          	sw	t3,12(sp)
    3480:	01512423          	sw	s5,8(sp)
    3484:	01812223          	sw	s8,4(sp)
    3488:	00012023          	sw	zero,0(sp)
    348c:	00000813          	li	a6,0
    3490:	f55ff06f          	j	33e4 <_vsnprintf+0x7d0>
    3494:	000a2783          	lw	a5,0(s4)
    3498:	000d0613          	mv	a2,s10
    349c:	01c12223          	sw	t3,4(sp)
    34a0:	41f7d713          	srai	a4,a5,0x1f
    34a4:	00f74533          	xor	a0,a4,a5
    34a8:	01512023          	sw	s5,0(sp)
    34ac:	000c0893          	mv	a7,s8
    34b0:	01f7d793          	srli	a5,a5,0x1f
    34b4:	40e50733          	sub	a4,a0,a4
    34b8:	ad1ff06f          	j	2f88 <_vsnprintf+0x374>
    34bc:	00200813          	li	a6,2
    34c0:	f89ff06f          	j	3448 <_vsnprintf+0x834>
    34c4:	000a2703          	lw	a4,0(s4)
    34c8:	e1dff06f          	j	32e4 <_vsnprintf+0x6d0>
    34cc:	000a2783          	lw	a5,0(s4)
    34d0:	41f7d613          	srai	a2,a5,0x1f
    34d4:	00f64733          	xor	a4,a2,a5
    34d8:	40c70733          	sub	a4,a4,a2
    34dc:	a99ff06f          	j	2f74 <_vsnprintf+0x360>
    34e0:	00000b13          	li	s6,0
    34e4:	b85ff06f          	j	3068 <_vsnprintf+0x454>
    34e8:	00078b13          	mv	s6,a5
    34ec:	ba0510e3          	bnez	a0,308c <_vsnprintf+0x478>
    34f0:	ea1ff06f          	j	3390 <_vsnprintf+0x77c>
    34f4:	000d0493          	mv	s1,s10
    34f8:	000b8d13          	mv	s10,s7
    34fc:	e41ff06f          	j	333c <_vsnprintf+0x728>
    3500:	000e0493          	mv	s1,t3
    3504:	f05ff06f          	j	3408 <_vsnprintf+0x7f4>
    3508:	00a00813          	li	a6,10
    350c:	f41ff06f          	j	344c <_vsnprintf+0x838>

00003510 <printf_>:
    3510:	fc010113          	addi	sp,sp,-64
    3514:	02410313          	addi	t1,sp,36
    3518:	02b12223          	sw	a1,36(sp)
    351c:	02c12423          	sw	a2,40(sp)
    3520:	02d12623          	sw	a3,44(sp)
    3524:	02e12823          	sw	a4,48(sp)
    3528:	00050693          	mv	a3,a0
    352c:	00810593          	addi	a1,sp,8
    3530:	00030713          	mv	a4,t1
    3534:	fff00613          	li	a2,-1
    3538:	fffff517          	auipc	a0,0xfffff
    353c:	6bc50513          	addi	a0,a0,1724 # 2bf4 <_out_char>
    3540:	00112e23          	sw	ra,28(sp)
    3544:	02f12a23          	sw	a5,52(sp)
    3548:	03012c23          	sw	a6,56(sp)
    354c:	03112e23          	sw	a7,60(sp)
    3550:	00612623          	sw	t1,12(sp)
    3554:	ec0ff0ef          	jal	ra,2c14 <_vsnprintf>
    3558:	01c12083          	lw	ra,28(sp)
    355c:	04010113          	addi	sp,sp,64
    3560:	00008067          	ret

00003564 <sprintf_>:
    3564:	fc010113          	addi	sp,sp,-64
    3568:	02810313          	addi	t1,sp,40
    356c:	02c12423          	sw	a2,40(sp)
    3570:	02d12623          	sw	a3,44(sp)
    3574:	02e12823          	sw	a4,48(sp)
    3578:	00058693          	mv	a3,a1
    357c:	00030713          	mv	a4,t1
    3580:	00050593          	mv	a1,a0
    3584:	fff00613          	li	a2,-1
    3588:	ffffe517          	auipc	a0,0xffffe
    358c:	40850513          	addi	a0,a0,1032 # 1990 <_out_buffer>
    3590:	00112e23          	sw	ra,28(sp)
    3594:	02f12a23          	sw	a5,52(sp)
    3598:	03012c23          	sw	a6,56(sp)
    359c:	03112e23          	sw	a7,60(sp)
    35a0:	00612623          	sw	t1,12(sp)
    35a4:	e70ff0ef          	jal	ra,2c14 <_vsnprintf>
    35a8:	01c12083          	lw	ra,28(sp)
    35ac:	04010113          	addi	sp,sp,64
    35b0:	00008067          	ret

000035b4 <snprintf_>:
    35b4:	fc010113          	addi	sp,sp,-64
    35b8:	02c10313          	addi	t1,sp,44
    35bc:	02d12623          	sw	a3,44(sp)
    35c0:	02e12823          	sw	a4,48(sp)
    35c4:	00060693          	mv	a3,a2
    35c8:	00030713          	mv	a4,t1
    35cc:	00058613          	mv	a2,a1
    35d0:	00050593          	mv	a1,a0
    35d4:	ffffe517          	auipc	a0,0xffffe
    35d8:	3bc50513          	addi	a0,a0,956 # 1990 <_out_buffer>
    35dc:	00112e23          	sw	ra,28(sp)
    35e0:	02f12a23          	sw	a5,52(sp)
    35e4:	03012c23          	sw	a6,56(sp)
    35e8:	03112e23          	sw	a7,60(sp)
    35ec:	00612623          	sw	t1,12(sp)
    35f0:	e24ff0ef          	jal	ra,2c14 <_vsnprintf>
    35f4:	01c12083          	lw	ra,28(sp)
    35f8:	04010113          	addi	sp,sp,64
    35fc:	00008067          	ret

00003600 <vprintf_>:
    3600:	fe010113          	addi	sp,sp,-32
    3604:	00050693          	mv	a3,a0
    3608:	00058713          	mv	a4,a1
    360c:	fff00613          	li	a2,-1
    3610:	00c10593          	addi	a1,sp,12
    3614:	fffff517          	auipc	a0,0xfffff
    3618:	5e050513          	addi	a0,a0,1504 # 2bf4 <_out_char>
    361c:	00112e23          	sw	ra,28(sp)
    3620:	df4ff0ef          	jal	ra,2c14 <_vsnprintf>
    3624:	01c12083          	lw	ra,28(sp)
    3628:	02010113          	addi	sp,sp,32
    362c:	00008067          	ret

00003630 <vsnprintf_>:
    3630:	00068713          	mv	a4,a3
    3634:	00060693          	mv	a3,a2
    3638:	00058613          	mv	a2,a1
    363c:	00050593          	mv	a1,a0
    3640:	ffffe517          	auipc	a0,0xffffe
    3644:	35050513          	addi	a0,a0,848 # 1990 <_out_buffer>
    3648:	dccff06f          	j	2c14 <_vsnprintf>

0000364c <fctprintf>:
    364c:	fc010113          	addi	sp,sp,-64
    3650:	02c10313          	addi	t1,sp,44
    3654:	00050e93          	mv	t4,a0
    3658:	00058e13          	mv	t3,a1
    365c:	02d12623          	sw	a3,44(sp)
    3660:	02e12823          	sw	a4,48(sp)
    3664:	00060693          	mv	a3,a2
    3668:	00810593          	addi	a1,sp,8
    366c:	00030713          	mv	a4,t1
    3670:	fff00613          	li	a2,-1
    3674:	fffff517          	auipc	a0,0xfffff
    3678:	58c50513          	addi	a0,a0,1420 # 2c00 <_out_fct>
    367c:	00112e23          	sw	ra,28(sp)
    3680:	02f12a23          	sw	a5,52(sp)
    3684:	03012c23          	sw	a6,56(sp)
    3688:	03112e23          	sw	a7,60(sp)
    368c:	00612223          	sw	t1,4(sp)
    3690:	01d12423          	sw	t4,8(sp)
    3694:	01c12623          	sw	t3,12(sp)
    3698:	d7cff0ef          	jal	ra,2c14 <_vsnprintf>
    369c:	01c12083          	lw	ra,28(sp)
    36a0:	04010113          	addi	sp,sp,64
    36a4:	00008067          	ret

000036a8 <prvCopyDataToQueue>:
    36a8:	ff010113          	addi	sp,sp,-16
    36ac:	04052783          	lw	a5,64(a0)
    36b0:	00912223          	sw	s1,4(sp)
    36b4:	03852483          	lw	s1,56(a0)
    36b8:	00812423          	sw	s0,8(sp)
    36bc:	00112623          	sw	ra,12(sp)
    36c0:	01212023          	sw	s2,0(sp)
    36c4:	00050413          	mv	s0,a0
    36c8:	02079863          	bnez	a5,36f8 <prvCopyDataToQueue+0x50>
    36cc:	00052783          	lw	a5,0(a0)
    36d0:	00148493          	addi	s1,s1,1
    36d4:	00000513          	li	a0,0
    36d8:	0c078c63          	beqz	a5,37b0 <prvCopyDataToQueue+0x108>
    36dc:	02942c23          	sw	s1,56(s0)
    36e0:	00c12083          	lw	ra,12(sp)
    36e4:	00812403          	lw	s0,8(sp)
    36e8:	00412483          	lw	s1,4(sp)
    36ec:	00012903          	lw	s2,0(sp)
    36f0:	01010113          	addi	sp,sp,16
    36f4:	00008067          	ret
    36f8:	00060913          	mv	s2,a2
    36fc:	04061a63          	bnez	a2,3750 <prvCopyDataToQueue+0xa8>
    3700:	00452503          	lw	a0,4(a0)
    3704:	00078613          	mv	a2,a5
    3708:	00148493          	addi	s1,s1,1
    370c:	039050ef          	jal	ra,8f44 <memcpy>
    3710:	00442783          	lw	a5,4(s0)
    3714:	04042683          	lw	a3,64(s0)
    3718:	00842703          	lw	a4,8(s0)
    371c:	00000513          	li	a0,0
    3720:	00d787b3          	add	a5,a5,a3
    3724:	00f42223          	sw	a5,4(s0)
    3728:	fae7eae3          	bltu	a5,a4,36dc <prvCopyDataToQueue+0x34>
    372c:	00042783          	lw	a5,0(s0)
    3730:	02942c23          	sw	s1,56(s0)
    3734:	00c12083          	lw	ra,12(sp)
    3738:	00f42223          	sw	a5,4(s0)
    373c:	00812403          	lw	s0,8(sp)
    3740:	00412483          	lw	s1,4(sp)
    3744:	00012903          	lw	s2,0(sp)
    3748:	01010113          	addi	sp,sp,16
    374c:	00008067          	ret
    3750:	00c52503          	lw	a0,12(a0)
    3754:	00078613          	mv	a2,a5
    3758:	7ec050ef          	jal	ra,8f44 <memcpy>
    375c:	04042703          	lw	a4,64(s0)
    3760:	00c42783          	lw	a5,12(s0)
    3764:	00042683          	lw	a3,0(s0)
    3768:	40e00633          	neg	a2,a4
    376c:	40e787b3          	sub	a5,a5,a4
    3770:	00f42623          	sw	a5,12(s0)
    3774:	00d7f863          	bgeu	a5,a3,3784 <prvCopyDataToQueue+0xdc>
    3778:	00842783          	lw	a5,8(s0)
    377c:	00c787b3          	add	a5,a5,a2
    3780:	00f42623          	sw	a5,12(s0)
    3784:	00200793          	li	a5,2
    3788:	02f90c63          	beq	s2,a5,37c0 <prvCopyDataToQueue+0x118>
    378c:	00148493          	addi	s1,s1,1
    3790:	02942c23          	sw	s1,56(s0)
    3794:	00c12083          	lw	ra,12(sp)
    3798:	00812403          	lw	s0,8(sp)
    379c:	00412483          	lw	s1,4(sp)
    37a0:	00012903          	lw	s2,0(sp)
    37a4:	00000513          	li	a0,0
    37a8:	01010113          	addi	sp,sp,16
    37ac:	00008067          	ret
    37b0:	00842503          	lw	a0,8(s0)
    37b4:	52c020ef          	jal	ra,5ce0 <xTaskPriorityDisinherit>
    37b8:	00042423          	sw	zero,8(s0)
    37bc:	f21ff06f          	j	36dc <prvCopyDataToQueue+0x34>
    37c0:	00048663          	beqz	s1,37cc <prvCopyDataToQueue+0x124>
    37c4:	00000513          	li	a0,0
    37c8:	f15ff06f          	j	36dc <prvCopyDataToQueue+0x34>
    37cc:	00100493          	li	s1,1
    37d0:	00000513          	li	a0,0
    37d4:	f09ff06f          	j	36dc <prvCopyDataToQueue+0x34>

000037d8 <prvUnlockQueue>:
    37d8:	ff010113          	addi	sp,sp,-16
    37dc:	00812423          	sw	s0,8(sp)
    37e0:	00912223          	sw	s1,4(sp)
    37e4:	00112623          	sw	ra,12(sp)
    37e8:	00050493          	mv	s1,a0
    37ec:	01212023          	sw	s2,0(sp)
    37f0:	744020ef          	jal	ra,5f34 <vTaskEnterCritical>
    37f4:	0454c783          	lbu	a5,69(s1)
    37f8:	01879413          	slli	s0,a5,0x18
    37fc:	41845413          	srai	s0,s0,0x18
    3800:	04805663          	blez	s0,384c <prvUnlockQueue+0x74>
    3804:	02448913          	addi	s2,s1,36
    3808:	0180006f          	j	3820 <prvUnlockQueue+0x48>
    380c:	fff40793          	addi	a5,s0,-1
    3810:	01879413          	slli	s0,a5,0x18
    3814:	0ff7f713          	zext.b	a4,a5
    3818:	41845413          	srai	s0,s0,0x18
    381c:	02070863          	beqz	a4,384c <prvUnlockQueue+0x74>
    3820:	0244a783          	lw	a5,36(s1)
    3824:	00090513          	mv	a0,s2
    3828:	02078263          	beqz	a5,384c <prvUnlockQueue+0x74>
    382c:	7b9010ef          	jal	ra,57e4 <xTaskRemoveFromEventList>
    3830:	fc050ee3          	beqz	a0,380c <prvUnlockQueue+0x34>
    3834:	2bc020ef          	jal	ra,5af0 <vTaskMissedYield>
    3838:	fff40793          	addi	a5,s0,-1
    383c:	01879413          	slli	s0,a5,0x18
    3840:	0ff7f713          	zext.b	a4,a5
    3844:	41845413          	srai	s0,s0,0x18
    3848:	fc071ce3          	bnez	a4,3820 <prvUnlockQueue+0x48>
    384c:	fff00793          	li	a5,-1
    3850:	04f482a3          	sb	a5,69(s1)
    3854:	710020ef          	jal	ra,5f64 <vTaskExitCritical>
    3858:	6dc020ef          	jal	ra,5f34 <vTaskEnterCritical>
    385c:	0444c783          	lbu	a5,68(s1)
    3860:	01879413          	slli	s0,a5,0x18
    3864:	41845413          	srai	s0,s0,0x18
    3868:	04805663          	blez	s0,38b4 <prvUnlockQueue+0xdc>
    386c:	01048913          	addi	s2,s1,16
    3870:	0180006f          	j	3888 <prvUnlockQueue+0xb0>
    3874:	fff40793          	addi	a5,s0,-1
    3878:	01879413          	slli	s0,a5,0x18
    387c:	0ff7f713          	zext.b	a4,a5
    3880:	41845413          	srai	s0,s0,0x18
    3884:	02070863          	beqz	a4,38b4 <prvUnlockQueue+0xdc>
    3888:	0104a783          	lw	a5,16(s1)
    388c:	00090513          	mv	a0,s2
    3890:	02078263          	beqz	a5,38b4 <prvUnlockQueue+0xdc>
    3894:	751010ef          	jal	ra,57e4 <xTaskRemoveFromEventList>
    3898:	fc050ee3          	beqz	a0,3874 <prvUnlockQueue+0x9c>
    389c:	254020ef          	jal	ra,5af0 <vTaskMissedYield>
    38a0:	fff40793          	addi	a5,s0,-1
    38a4:	01879413          	slli	s0,a5,0x18
    38a8:	0ff7f713          	zext.b	a4,a5
    38ac:	41845413          	srai	s0,s0,0x18
    38b0:	fc071ce3          	bnez	a4,3888 <prvUnlockQueue+0xb0>
    38b4:	fff00793          	li	a5,-1
    38b8:	04f48223          	sb	a5,68(s1)
    38bc:	00812403          	lw	s0,8(sp)
    38c0:	00c12083          	lw	ra,12(sp)
    38c4:	00412483          	lw	s1,4(sp)
    38c8:	00012903          	lw	s2,0(sp)
    38cc:	01010113          	addi	sp,sp,16
    38d0:	6940206f          	j	5f64 <vTaskExitCritical>

000038d4 <xQueueGenericReset>:
    38d4:	ff010113          	addi	sp,sp,-16
    38d8:	00812423          	sw	s0,8(sp)
    38dc:	00912223          	sw	s1,4(sp)
    38e0:	00050413          	mv	s0,a0
    38e4:	00112623          	sw	ra,12(sp)
    38e8:	00058493          	mv	s1,a1
    38ec:	648020ef          	jal	ra,5f34 <vTaskEnterCritical>
    38f0:	04042683          	lw	a3,64(s0)
    38f4:	03c42783          	lw	a5,60(s0)
    38f8:	00042703          	lw	a4,0(s0)
    38fc:	02042c23          	sw	zero,56(s0)
    3900:	02f687b3          	mul	a5,a3,a5
    3904:	fff00613          	li	a2,-1
    3908:	04c40223          	sb	a2,68(s0)
    390c:	00e42223          	sw	a4,4(s0)
    3910:	04c402a3          	sb	a2,69(s0)
    3914:	40d786b3          	sub	a3,a5,a3
    3918:	00f707b3          	add	a5,a4,a5
    391c:	00d70733          	add	a4,a4,a3
    3920:	00f42423          	sw	a5,8(s0)
    3924:	00e42623          	sw	a4,12(s0)
    3928:	04049a63          	bnez	s1,397c <xQueueGenericReset+0xa8>
    392c:	01042783          	lw	a5,16(s0)
    3930:	02079063          	bnez	a5,3950 <xQueueGenericReset+0x7c>
    3934:	630020ef          	jal	ra,5f64 <vTaskExitCritical>
    3938:	00c12083          	lw	ra,12(sp)
    393c:	00812403          	lw	s0,8(sp)
    3940:	00412483          	lw	s1,4(sp)
    3944:	00100513          	li	a0,1
    3948:	01010113          	addi	sp,sp,16
    394c:	00008067          	ret
    3950:	01040513          	addi	a0,s0,16
    3954:	691010ef          	jal	ra,57e4 <xTaskRemoveFromEventList>
    3958:	fc050ee3          	beqz	a0,3934 <xQueueGenericReset+0x60>
    395c:	00000073          	ecall
    3960:	604020ef          	jal	ra,5f64 <vTaskExitCritical>
    3964:	00c12083          	lw	ra,12(sp)
    3968:	00812403          	lw	s0,8(sp)
    396c:	00412483          	lw	s1,4(sp)
    3970:	00100513          	li	a0,1
    3974:	01010113          	addi	sp,sp,16
    3978:	00008067          	ret
    397c:	01040513          	addi	a0,s0,16
    3980:	4f5040ef          	jal	ra,8674 <vListInitialise>
    3984:	02440513          	addi	a0,s0,36
    3988:	4ed040ef          	jal	ra,8674 <vListInitialise>
    398c:	5d8020ef          	jal	ra,5f64 <vTaskExitCritical>
    3990:	00c12083          	lw	ra,12(sp)
    3994:	00812403          	lw	s0,8(sp)
    3998:	00412483          	lw	s1,4(sp)
    399c:	00100513          	li	a0,1
    39a0:	01010113          	addi	sp,sp,16
    39a4:	00008067          	ret

000039a8 <xQueueGenericCreateStatic>:
    39a8:	ff010113          	addi	sp,sp,-16
    39ac:	00812423          	sw	s0,8(sp)
    39b0:	00112623          	sw	ra,12(sp)
    39b4:	00068413          	mv	s0,a3
    39b8:	06068663          	beqz	a3,3a24 <xQueueGenericCreateStatic+0x7c>
    39bc:	00100793          	li	a5,1
    39c0:	04f68323          	sb	a5,70(a3)
    39c4:	06058a63          	beqz	a1,3a38 <xQueueGenericCreateStatic+0x90>
    39c8:	04b42023          	sw	a1,64(s0)
    39cc:	00c42023          	sw	a2,0(s0)
    39d0:	02a42e23          	sw	a0,60(s0)
    39d4:	560020ef          	jal	ra,5f34 <vTaskEnterCritical>
    39d8:	04042683          	lw	a3,64(s0)
    39dc:	03c42783          	lw	a5,60(s0)
    39e0:	00042703          	lw	a4,0(s0)
    39e4:	fff00613          	li	a2,-1
    39e8:	02f687b3          	mul	a5,a3,a5
    39ec:	02042c23          	sw	zero,56(s0)
    39f0:	04c40223          	sb	a2,68(s0)
    39f4:	00e42223          	sw	a4,4(s0)
    39f8:	01040513          	addi	a0,s0,16
    39fc:	04c402a3          	sb	a2,69(s0)
    3a00:	40d786b3          	sub	a3,a5,a3
    3a04:	00f707b3          	add	a5,a4,a5
    3a08:	00d70733          	add	a4,a4,a3
    3a0c:	00f42423          	sw	a5,8(s0)
    3a10:	00e42623          	sw	a4,12(s0)
    3a14:	461040ef          	jal	ra,8674 <vListInitialise>
    3a18:	02440513          	addi	a0,s0,36
    3a1c:	459040ef          	jal	ra,8674 <vListInitialise>
    3a20:	544020ef          	jal	ra,5f64 <vTaskExitCritical>
    3a24:	00c12083          	lw	ra,12(sp)
    3a28:	00040513          	mv	a0,s0
    3a2c:	00812403          	lw	s0,8(sp)
    3a30:	01010113          	addi	sp,sp,16
    3a34:	00008067          	ret
    3a38:	00068613          	mv	a2,a3
    3a3c:	f8dff06f          	j	39c8 <xQueueGenericCreateStatic+0x20>

00003a40 <xQueueGenericCreate>:
    3a40:	ff010113          	addi	sp,sp,-16
    3a44:	01212023          	sw	s2,0(sp)
    3a48:	00050913          	mv	s2,a0
    3a4c:	02b50533          	mul	a0,a0,a1
    3a50:	00812423          	sw	s0,8(sp)
    3a54:	00912223          	sw	s1,4(sp)
    3a58:	00112623          	sw	ra,12(sp)
    3a5c:	00058493          	mv	s1,a1
    3a60:	04850513          	addi	a0,a0,72
    3a64:	184040ef          	jal	ra,7be8 <pvPortMalloc>
    3a68:	00050413          	mv	s0,a0
    3a6c:	06050663          	beqz	a0,3ad8 <xQueueGenericCreate+0x98>
    3a70:	04050323          	sb	zero,70(a0)
    3a74:	00050793          	mv	a5,a0
    3a78:	06049e63          	bnez	s1,3af4 <xQueueGenericCreate+0xb4>
    3a7c:	00f42023          	sw	a5,0(s0)
    3a80:	03242e23          	sw	s2,60(s0)
    3a84:	04942023          	sw	s1,64(s0)
    3a88:	4ac020ef          	jal	ra,5f34 <vTaskEnterCritical>
    3a8c:	04042683          	lw	a3,64(s0)
    3a90:	03c42783          	lw	a5,60(s0)
    3a94:	00042703          	lw	a4,0(s0)
    3a98:	fff00613          	li	a2,-1
    3a9c:	02f687b3          	mul	a5,a3,a5
    3aa0:	02042c23          	sw	zero,56(s0)
    3aa4:	04c40223          	sb	a2,68(s0)
    3aa8:	00e42223          	sw	a4,4(s0)
    3aac:	01040513          	addi	a0,s0,16
    3ab0:	04c402a3          	sb	a2,69(s0)
    3ab4:	40d786b3          	sub	a3,a5,a3
    3ab8:	00f707b3          	add	a5,a4,a5
    3abc:	00d70733          	add	a4,a4,a3
    3ac0:	00f42423          	sw	a5,8(s0)
    3ac4:	00e42623          	sw	a4,12(s0)
    3ac8:	3ad040ef          	jal	ra,8674 <vListInitialise>
    3acc:	02440513          	addi	a0,s0,36
    3ad0:	3a5040ef          	jal	ra,8674 <vListInitialise>
    3ad4:	490020ef          	jal	ra,5f64 <vTaskExitCritical>
    3ad8:	00c12083          	lw	ra,12(sp)
    3adc:	00040513          	mv	a0,s0
    3ae0:	00812403          	lw	s0,8(sp)
    3ae4:	00412483          	lw	s1,4(sp)
    3ae8:	00012903          	lw	s2,0(sp)
    3aec:	01010113          	addi	sp,sp,16
    3af0:	00008067          	ret
    3af4:	04850793          	addi	a5,a0,72
    3af8:	f85ff06f          	j	3a7c <xQueueGenericCreate+0x3c>

00003afc <xQueueGetMutexHolder>:
    3afc:	ff010113          	addi	sp,sp,-16
    3b00:	00812423          	sw	s0,8(sp)
    3b04:	00112623          	sw	ra,12(sp)
    3b08:	00050413          	mv	s0,a0
    3b0c:	428020ef          	jal	ra,5f34 <vTaskEnterCritical>
    3b10:	00042783          	lw	a5,0(s0)
    3b14:	02079063          	bnez	a5,3b34 <xQueueGetMutexHolder+0x38>
    3b18:	00842403          	lw	s0,8(s0)
    3b1c:	448020ef          	jal	ra,5f64 <vTaskExitCritical>
    3b20:	00c12083          	lw	ra,12(sp)
    3b24:	00040513          	mv	a0,s0
    3b28:	00812403          	lw	s0,8(sp)
    3b2c:	01010113          	addi	sp,sp,16
    3b30:	00008067          	ret
    3b34:	430020ef          	jal	ra,5f64 <vTaskExitCritical>
    3b38:	00000413          	li	s0,0
    3b3c:	00c12083          	lw	ra,12(sp)
    3b40:	00040513          	mv	a0,s0
    3b44:	00812403          	lw	s0,8(sp)
    3b48:	01010113          	addi	sp,sp,16
    3b4c:	00008067          	ret

00003b50 <xQueueGetMutexHolderFromISR>:
    3b50:	00052783          	lw	a5,0(a0)
    3b54:	00079663          	bnez	a5,3b60 <xQueueGetMutexHolderFromISR+0x10>
    3b58:	00852503          	lw	a0,8(a0)
    3b5c:	00008067          	ret
    3b60:	00000513          	li	a0,0
    3b64:	00008067          	ret

00003b68 <xQueueCreateCountingSemaphoreStatic>:
    3b68:	ff010113          	addi	sp,sp,-16
    3b6c:	00812423          	sw	s0,8(sp)
    3b70:	00112623          	sw	ra,12(sp)
    3b74:	00912223          	sw	s1,4(sp)
    3b78:	00060413          	mv	s0,a2
    3b7c:	06060863          	beqz	a2,3bec <xQueueCreateCountingSemaphoreStatic+0x84>
    3b80:	00100793          	li	a5,1
    3b84:	04f60323          	sb	a5,70(a2)
    3b88:	00c42023          	sw	a2,0(s0)
    3b8c:	02a62e23          	sw	a0,60(a2)
    3b90:	04062023          	sw	zero,64(a2)
    3b94:	00058493          	mv	s1,a1
    3b98:	39c020ef          	jal	ra,5f34 <vTaskEnterCritical>
    3b9c:	04042683          	lw	a3,64(s0)
    3ba0:	03c42783          	lw	a5,60(s0)
    3ba4:	00042703          	lw	a4,0(s0)
    3ba8:	fff00613          	li	a2,-1
    3bac:	02f687b3          	mul	a5,a3,a5
    3bb0:	02042c23          	sw	zero,56(s0)
    3bb4:	04c40223          	sb	a2,68(s0)
    3bb8:	00e42223          	sw	a4,4(s0)
    3bbc:	04c402a3          	sb	a2,69(s0)
    3bc0:	01040513          	addi	a0,s0,16
    3bc4:	40d786b3          	sub	a3,a5,a3
    3bc8:	00f707b3          	add	a5,a4,a5
    3bcc:	00d70733          	add	a4,a4,a3
    3bd0:	00f42423          	sw	a5,8(s0)
    3bd4:	00e42623          	sw	a4,12(s0)
    3bd8:	29d040ef          	jal	ra,8674 <vListInitialise>
    3bdc:	02440513          	addi	a0,s0,36
    3be0:	295040ef          	jal	ra,8674 <vListInitialise>
    3be4:	380020ef          	jal	ra,5f64 <vTaskExitCritical>
    3be8:	02942c23          	sw	s1,56(s0)
    3bec:	00c12083          	lw	ra,12(sp)
    3bf0:	00040513          	mv	a0,s0
    3bf4:	00812403          	lw	s0,8(sp)
    3bf8:	00412483          	lw	s1,4(sp)
    3bfc:	01010113          	addi	sp,sp,16
    3c00:	00008067          	ret

00003c04 <xQueueCreateCountingSemaphore>:
    3c04:	ff010113          	addi	sp,sp,-16
    3c08:	01212023          	sw	s2,0(sp)
    3c0c:	00050913          	mv	s2,a0
    3c10:	04800513          	li	a0,72
    3c14:	00812423          	sw	s0,8(sp)
    3c18:	00912223          	sw	s1,4(sp)
    3c1c:	00112623          	sw	ra,12(sp)
    3c20:	00058493          	mv	s1,a1
    3c24:	7c5030ef          	jal	ra,7be8 <pvPortMalloc>
    3c28:	00050413          	mv	s0,a0
    3c2c:	06050463          	beqz	a0,3c94 <xQueueCreateCountingSemaphore+0x90>
    3c30:	04050323          	sb	zero,70(a0)
    3c34:	00a42023          	sw	a0,0(s0)
    3c38:	03252e23          	sw	s2,60(a0)
    3c3c:	04052023          	sw	zero,64(a0)
    3c40:	2f4020ef          	jal	ra,5f34 <vTaskEnterCritical>
    3c44:	04042683          	lw	a3,64(s0)
    3c48:	03c42783          	lw	a5,60(s0)
    3c4c:	00042703          	lw	a4,0(s0)
    3c50:	fff00613          	li	a2,-1
    3c54:	02f687b3          	mul	a5,a3,a5
    3c58:	02042c23          	sw	zero,56(s0)
    3c5c:	04c40223          	sb	a2,68(s0)
    3c60:	00e42223          	sw	a4,4(s0)
    3c64:	04c402a3          	sb	a2,69(s0)
    3c68:	01040513          	addi	a0,s0,16
    3c6c:	40d786b3          	sub	a3,a5,a3
    3c70:	00f707b3          	add	a5,a4,a5
    3c74:	00d70733          	add	a4,a4,a3
    3c78:	00f42423          	sw	a5,8(s0)
    3c7c:	00e42623          	sw	a4,12(s0)
    3c80:	1f5040ef          	jal	ra,8674 <vListInitialise>
    3c84:	02440513          	addi	a0,s0,36
    3c88:	1ed040ef          	jal	ra,8674 <vListInitialise>
    3c8c:	2d8020ef          	jal	ra,5f64 <vTaskExitCritical>
    3c90:	02942c23          	sw	s1,56(s0)
    3c94:	00c12083          	lw	ra,12(sp)
    3c98:	00040513          	mv	a0,s0
    3c9c:	00812403          	lw	s0,8(sp)
    3ca0:	00412483          	lw	s1,4(sp)
    3ca4:	00012903          	lw	s2,0(sp)
    3ca8:	01010113          	addi	sp,sp,16
    3cac:	00008067          	ret

00003cb0 <xQueueGenericSend>:
    3cb0:	fc010113          	addi	sp,sp,-64
    3cb4:	02812c23          	sw	s0,56(sp)
    3cb8:	02912a23          	sw	s1,52(sp)
    3cbc:	00050413          	mv	s0,a0
    3cc0:	03212823          	sw	s2,48(sp)
    3cc4:	03312623          	sw	s3,44(sp)
    3cc8:	03412423          	sw	s4,40(sp)
    3ccc:	03512223          	sw	s5,36(sp)
    3cd0:	03612023          	sw	s6,32(sp)
    3cd4:	02112e23          	sw	ra,60(sp)
    3cd8:	00058a93          	mv	s5,a1
    3cdc:	00c12623          	sw	a2,12(sp)
    3ce0:	00068913          	mv	s2,a3
    3ce4:	01050a13          	addi	s4,a0,16
    3ce8:	24c020ef          	jal	ra,5f34 <vTaskEnterCritical>
    3cec:	03842703          	lw	a4,56(s0)
    3cf0:	03c42783          	lw	a5,60(s0)
    3cf4:	00000b13          	li	s6,0
    3cf8:	00200993          	li	s3,2
    3cfc:	fff00493          	li	s1,-1
    3d00:	08f76863          	bltu	a4,a5,3d90 <xQueueGenericSend+0xe0>
    3d04:	09390663          	beq	s2,s3,3d90 <xQueueGenericSend+0xe0>
    3d08:	00c12783          	lw	a5,12(sp)
    3d0c:	10078e63          	beqz	a5,3e28 <xQueueGenericSend+0x178>
    3d10:	0e0b0c63          	beqz	s6,3e08 <xQueueGenericSend+0x158>
    3d14:	250020ef          	jal	ra,5f64 <vTaskExitCritical>
    3d18:	019010ef          	jal	ra,5530 <vTaskSuspendAll>
    3d1c:	218020ef          	jal	ra,5f34 <vTaskEnterCritical>
    3d20:	04444783          	lbu	a5,68(s0)
    3d24:	01879793          	slli	a5,a5,0x18
    3d28:	4187d793          	srai	a5,a5,0x18
    3d2c:	00979463          	bne	a5,s1,3d34 <xQueueGenericSend+0x84>
    3d30:	04040223          	sb	zero,68(s0)
    3d34:	04544783          	lbu	a5,69(s0)
    3d38:	01879793          	slli	a5,a5,0x18
    3d3c:	4187d793          	srai	a5,a5,0x18
    3d40:	00979463          	bne	a5,s1,3d48 <xQueueGenericSend+0x98>
    3d44:	040402a3          	sb	zero,69(s0)
    3d48:	21c020ef          	jal	ra,5f64 <vTaskExitCritical>
    3d4c:	00c10593          	addi	a1,sp,12
    3d50:	01810513          	addi	a0,sp,24
    3d54:	050030ef          	jal	ra,6da4 <xTaskCheckForTimeOut>
    3d58:	0c051e63          	bnez	a0,3e34 <xQueueGenericSend+0x184>
    3d5c:	1d8020ef          	jal	ra,5f34 <vTaskEnterCritical>
    3d60:	03842703          	lw	a4,56(s0)
    3d64:	03c42783          	lw	a5,60(s0)
    3d68:	06f70a63          	beq	a4,a5,3ddc <xQueueGenericSend+0x12c>
    3d6c:	1f8020ef          	jal	ra,5f64 <vTaskExitCritical>
    3d70:	00040513          	mv	a0,s0
    3d74:	a65ff0ef          	jal	ra,37d8 <prvUnlockQueue>
    3d78:	4e5020ef          	jal	ra,6a5c <xTaskResumeAll>
    3d7c:	00100b13          	li	s6,1
    3d80:	1b4020ef          	jal	ra,5f34 <vTaskEnterCritical>
    3d84:	03842703          	lw	a4,56(s0)
    3d88:	03c42783          	lw	a5,60(s0)
    3d8c:	f6f77ce3          	bgeu	a4,a5,3d04 <xQueueGenericSend+0x54>
    3d90:	00090613          	mv	a2,s2
    3d94:	000a8593          	mv	a1,s5
    3d98:	00040513          	mv	a0,s0
    3d9c:	90dff0ef          	jal	ra,36a8 <prvCopyDataToQueue>
    3da0:	02442783          	lw	a5,36(s0)
    3da4:	06079863          	bnez	a5,3e14 <xQueueGenericSend+0x164>
    3da8:	06051c63          	bnez	a0,3e20 <xQueueGenericSend+0x170>
    3dac:	1b8020ef          	jal	ra,5f64 <vTaskExitCritical>
    3db0:	00100513          	li	a0,1
    3db4:	03c12083          	lw	ra,60(sp)
    3db8:	03812403          	lw	s0,56(sp)
    3dbc:	03412483          	lw	s1,52(sp)
    3dc0:	03012903          	lw	s2,48(sp)
    3dc4:	02c12983          	lw	s3,44(sp)
    3dc8:	02812a03          	lw	s4,40(sp)
    3dcc:	02412a83          	lw	s5,36(sp)
    3dd0:	02012b03          	lw	s6,32(sp)
    3dd4:	04010113          	addi	sp,sp,64
    3dd8:	00008067          	ret
    3ddc:	188020ef          	jal	ra,5f64 <vTaskExitCritical>
    3de0:	00c12583          	lw	a1,12(sp)
    3de4:	000a0513          	mv	a0,s4
    3de8:	155010ef          	jal	ra,573c <vTaskPlaceOnEventList>
    3dec:	00040513          	mv	a0,s0
    3df0:	9e9ff0ef          	jal	ra,37d8 <prvUnlockQueue>
    3df4:	469020ef          	jal	ra,6a5c <xTaskResumeAll>
    3df8:	f80512e3          	bnez	a0,3d7c <xQueueGenericSend+0xcc>
    3dfc:	00000073          	ecall
    3e00:	00100b13          	li	s6,1
    3e04:	f7dff06f          	j	3d80 <xQueueGenericSend+0xd0>
    3e08:	01810513          	addi	a0,sp,24
    3e0c:	4c9010ef          	jal	ra,5ad4 <vTaskInternalSetTimeOutState>
    3e10:	f05ff06f          	j	3d14 <xQueueGenericSend+0x64>
    3e14:	02440513          	addi	a0,s0,36
    3e18:	1cd010ef          	jal	ra,57e4 <xTaskRemoveFromEventList>
    3e1c:	f80508e3          	beqz	a0,3dac <xQueueGenericSend+0xfc>
    3e20:	00000073          	ecall
    3e24:	f89ff06f          	j	3dac <xQueueGenericSend+0xfc>
    3e28:	13c020ef          	jal	ra,5f64 <vTaskExitCritical>
    3e2c:	00000513          	li	a0,0
    3e30:	f85ff06f          	j	3db4 <xQueueGenericSend+0x104>
    3e34:	00040513          	mv	a0,s0
    3e38:	9a1ff0ef          	jal	ra,37d8 <prvUnlockQueue>
    3e3c:	421020ef          	jal	ra,6a5c <xTaskResumeAll>
    3e40:	00000513          	li	a0,0
    3e44:	f71ff06f          	j	3db4 <xQueueGenericSend+0x104>

00003e48 <xQueueCreateMutexStatic>:
    3e48:	ff010113          	addi	sp,sp,-16
    3e4c:	00812423          	sw	s0,8(sp)
    3e50:	00112623          	sw	ra,12(sp)
    3e54:	00058413          	mv	s0,a1
    3e58:	08058463          	beqz	a1,3ee0 <xQueueCreateMutexStatic+0x98>
    3e5c:	00100793          	li	a5,1
    3e60:	04f58323          	sb	a5,70(a1)
    3e64:	00b42023          	sw	a1,0(s0)
    3e68:	02f5ae23          	sw	a5,60(a1)
    3e6c:	0405a023          	sw	zero,64(a1)
    3e70:	0c4020ef          	jal	ra,5f34 <vTaskEnterCritical>
    3e74:	04042683          	lw	a3,64(s0)
    3e78:	03c42783          	lw	a5,60(s0)
    3e7c:	00042703          	lw	a4,0(s0)
    3e80:	fff00613          	li	a2,-1
    3e84:	02f687b3          	mul	a5,a3,a5
    3e88:	02042c23          	sw	zero,56(s0)
    3e8c:	04c40223          	sb	a2,68(s0)
    3e90:	00e42223          	sw	a4,4(s0)
    3e94:	04c402a3          	sb	a2,69(s0)
    3e98:	01040513          	addi	a0,s0,16
    3e9c:	40d786b3          	sub	a3,a5,a3
    3ea0:	00f707b3          	add	a5,a4,a5
    3ea4:	00d70733          	add	a4,a4,a3
    3ea8:	00f42423          	sw	a5,8(s0)
    3eac:	00e42623          	sw	a4,12(s0)
    3eb0:	7c4040ef          	jal	ra,8674 <vListInitialise>
    3eb4:	02440513          	addi	a0,s0,36
    3eb8:	7bc040ef          	jal	ra,8674 <vListInitialise>
    3ebc:	0a8020ef          	jal	ra,5f64 <vTaskExitCritical>
    3ec0:	00000693          	li	a3,0
    3ec4:	00042423          	sw	zero,8(s0)
    3ec8:	00042023          	sw	zero,0(s0)
    3ecc:	00042623          	sw	zero,12(s0)
    3ed0:	00000613          	li	a2,0
    3ed4:	00000593          	li	a1,0
    3ed8:	00040513          	mv	a0,s0
    3edc:	dd5ff0ef          	jal	ra,3cb0 <xQueueGenericSend>
    3ee0:	00c12083          	lw	ra,12(sp)
    3ee4:	00040513          	mv	a0,s0
    3ee8:	00812403          	lw	s0,8(sp)
    3eec:	01010113          	addi	sp,sp,16
    3ef0:	00008067          	ret

00003ef4 <xQueueGiveMutexRecursive>:
    3ef4:	ff010113          	addi	sp,sp,-16
    3ef8:	00912223          	sw	s1,4(sp)
    3efc:	00852483          	lw	s1,8(a0)
    3f00:	00812423          	sw	s0,8(sp)
    3f04:	00112623          	sw	ra,12(sp)
    3f08:	00050413          	mv	s0,a0
    3f0c:	451010ef          	jal	ra,5b5c <xTaskGetCurrentTaskHandle>
    3f10:	02a48063          	beq	s1,a0,3f30 <xQueueGiveMutexRecursive+0x3c>
    3f14:	00000493          	li	s1,0
    3f18:	00c12083          	lw	ra,12(sp)
    3f1c:	00812403          	lw	s0,8(sp)
    3f20:	00048513          	mv	a0,s1
    3f24:	00412483          	lw	s1,4(sp)
    3f28:	01010113          	addi	sp,sp,16
    3f2c:	00008067          	ret
    3f30:	00c42783          	lw	a5,12(s0)
    3f34:	00100493          	li	s1,1
    3f38:	fff78793          	addi	a5,a5,-1
    3f3c:	00f42623          	sw	a5,12(s0)
    3f40:	fc079ce3          	bnez	a5,3f18 <xQueueGiveMutexRecursive+0x24>
    3f44:	00000693          	li	a3,0
    3f48:	00000613          	li	a2,0
    3f4c:	00000593          	li	a1,0
    3f50:	00040513          	mv	a0,s0
    3f54:	d5dff0ef          	jal	ra,3cb0 <xQueueGenericSend>
    3f58:	fc1ff06f          	j	3f18 <xQueueGiveMutexRecursive+0x24>

00003f5c <xQueueCreateMutex>:
    3f5c:	ff010113          	addi	sp,sp,-16
    3f60:	04800513          	li	a0,72
    3f64:	00812423          	sw	s0,8(sp)
    3f68:	00112623          	sw	ra,12(sp)
    3f6c:	47d030ef          	jal	ra,7be8 <pvPortMalloc>
    3f70:	00050413          	mv	s0,a0
    3f74:	08050463          	beqz	a0,3ffc <xQueueCreateMutex+0xa0>
    3f78:	04050323          	sb	zero,70(a0)
    3f7c:	00a42023          	sw	a0,0(s0)
    3f80:	00100793          	li	a5,1
    3f84:	02f52e23          	sw	a5,60(a0)
    3f88:	04052023          	sw	zero,64(a0)
    3f8c:	7a9010ef          	jal	ra,5f34 <vTaskEnterCritical>
    3f90:	04042683          	lw	a3,64(s0)
    3f94:	03c42783          	lw	a5,60(s0)
    3f98:	00042703          	lw	a4,0(s0)
    3f9c:	fff00613          	li	a2,-1
    3fa0:	02f687b3          	mul	a5,a3,a5
    3fa4:	02042c23          	sw	zero,56(s0)
    3fa8:	04c40223          	sb	a2,68(s0)
    3fac:	00e42223          	sw	a4,4(s0)
    3fb0:	04c402a3          	sb	a2,69(s0)
    3fb4:	01040513          	addi	a0,s0,16
    3fb8:	40d786b3          	sub	a3,a5,a3
    3fbc:	00f707b3          	add	a5,a4,a5
    3fc0:	00d70733          	add	a4,a4,a3
    3fc4:	00f42423          	sw	a5,8(s0)
    3fc8:	00e42623          	sw	a4,12(s0)
    3fcc:	6a8040ef          	jal	ra,8674 <vListInitialise>
    3fd0:	02440513          	addi	a0,s0,36
    3fd4:	6a0040ef          	jal	ra,8674 <vListInitialise>
    3fd8:	78d010ef          	jal	ra,5f64 <vTaskExitCritical>
    3fdc:	00000693          	li	a3,0
    3fe0:	00042423          	sw	zero,8(s0)
    3fe4:	00042023          	sw	zero,0(s0)
    3fe8:	00042623          	sw	zero,12(s0)
    3fec:	00000613          	li	a2,0
    3ff0:	00000593          	li	a1,0
    3ff4:	00040513          	mv	a0,s0
    3ff8:	cb9ff0ef          	jal	ra,3cb0 <xQueueGenericSend>
    3ffc:	00c12083          	lw	ra,12(sp)
    4000:	00040513          	mv	a0,s0
    4004:	00812403          	lw	s0,8(sp)
    4008:	01010113          	addi	sp,sp,16
    400c:	00008067          	ret

00004010 <xQueueGenericSendFromISR>:
    4010:	03852703          	lw	a4,56(a0)
    4014:	03c52783          	lw	a5,60(a0)
    4018:	fe010113          	addi	sp,sp,-32
    401c:	00812c23          	sw	s0,24(sp)
    4020:	01212823          	sw	s2,16(sp)
    4024:	00112e23          	sw	ra,28(sp)
    4028:	00912a23          	sw	s1,20(sp)
    402c:	01312623          	sw	s3,12(sp)
    4030:	00060913          	mv	s2,a2
    4034:	00050413          	mv	s0,a0
    4038:	00068613          	mv	a2,a3
    403c:	02f76663          	bltu	a4,a5,4068 <xQueueGenericSendFromISR+0x58>
    4040:	00200793          	li	a5,2
    4044:	00000513          	li	a0,0
    4048:	02f68063          	beq	a3,a5,4068 <xQueueGenericSendFromISR+0x58>
    404c:	01c12083          	lw	ra,28(sp)
    4050:	01812403          	lw	s0,24(sp)
    4054:	01412483          	lw	s1,20(sp)
    4058:	01012903          	lw	s2,16(sp)
    405c:	00c12983          	lw	s3,12(sp)
    4060:	02010113          	addi	sp,sp,32
    4064:	00008067          	ret
    4068:	04544483          	lbu	s1,69(s0)
    406c:	03842783          	lw	a5,56(s0)
    4070:	00040513          	mv	a0,s0
    4074:	01849993          	slli	s3,s1,0x18
    4078:	e30ff0ef          	jal	ra,36a8 <prvCopyDataToQueue>
    407c:	4189d993          	srai	s3,s3,0x18
    4080:	fff00793          	li	a5,-1
    4084:	02f98a63          	beq	s3,a5,40b8 <xQueueGenericSendFromISR+0xa8>
    4088:	00148493          	addi	s1,s1,1
    408c:	01849493          	slli	s1,s1,0x18
    4090:	4184d493          	srai	s1,s1,0x18
    4094:	049402a3          	sb	s1,69(s0)
    4098:	01c12083          	lw	ra,28(sp)
    409c:	01812403          	lw	s0,24(sp)
    40a0:	01412483          	lw	s1,20(sp)
    40a4:	01012903          	lw	s2,16(sp)
    40a8:	00c12983          	lw	s3,12(sp)
    40ac:	00100513          	li	a0,1
    40b0:	02010113          	addi	sp,sp,32
    40b4:	00008067          	ret
    40b8:	02442783          	lw	a5,36(s0)
    40bc:	fc078ee3          	beqz	a5,4098 <xQueueGenericSendFromISR+0x88>
    40c0:	02440513          	addi	a0,s0,36
    40c4:	720010ef          	jal	ra,57e4 <xTaskRemoveFromEventList>
    40c8:	fc0508e3          	beqz	a0,4098 <xQueueGenericSendFromISR+0x88>
    40cc:	fc0906e3          	beqz	s2,4098 <xQueueGenericSendFromISR+0x88>
    40d0:	00100793          	li	a5,1
    40d4:	00f92023          	sw	a5,0(s2)
    40d8:	00100513          	li	a0,1
    40dc:	f71ff06f          	j	404c <xQueueGenericSendFromISR+0x3c>

000040e0 <xQueueGiveFromISR>:
    40e0:	03852783          	lw	a5,56(a0)
    40e4:	03c52703          	lw	a4,60(a0)
    40e8:	02e7fc63          	bgeu	a5,a4,4120 <xQueueGiveFromISR+0x40>
    40ec:	04554703          	lbu	a4,69(a0)
    40f0:	00178793          	addi	a5,a5,1
    40f4:	02f52c23          	sw	a5,56(a0)
    40f8:	01871693          	slli	a3,a4,0x18
    40fc:	4186d693          	srai	a3,a3,0x18
    4100:	fff00793          	li	a5,-1
    4104:	02f68263          	beq	a3,a5,4128 <xQueueGiveFromISR+0x48>
    4108:	00170713          	addi	a4,a4,1
    410c:	01871713          	slli	a4,a4,0x18
    4110:	41875713          	srai	a4,a4,0x18
    4114:	04e502a3          	sb	a4,69(a0)
    4118:	00100513          	li	a0,1
    411c:	00008067          	ret
    4120:	00000513          	li	a0,0
    4124:	00008067          	ret
    4128:	02452783          	lw	a5,36(a0)
    412c:	00079663          	bnez	a5,4138 <xQueueGiveFromISR+0x58>
    4130:	00100513          	li	a0,1
    4134:	00008067          	ret
    4138:	fe010113          	addi	sp,sp,-32
    413c:	02450513          	addi	a0,a0,36
    4140:	00112e23          	sw	ra,28(sp)
    4144:	00b12623          	sw	a1,12(sp)
    4148:	69c010ef          	jal	ra,57e4 <xTaskRemoveFromEventList>
    414c:	00050a63          	beqz	a0,4160 <xQueueGiveFromISR+0x80>
    4150:	00c12583          	lw	a1,12(sp)
    4154:	00058663          	beqz	a1,4160 <xQueueGiveFromISR+0x80>
    4158:	00100793          	li	a5,1
    415c:	00f5a023          	sw	a5,0(a1)
    4160:	01c12083          	lw	ra,28(sp)
    4164:	00100513          	li	a0,1
    4168:	02010113          	addi	sp,sp,32
    416c:	00008067          	ret

00004170 <xQueueReceive>:
    4170:	fc010113          	addi	sp,sp,-64
    4174:	02812c23          	sw	s0,56(sp)
    4178:	00050413          	mv	s0,a0
    417c:	03212823          	sw	s2,48(sp)
    4180:	03312623          	sw	s3,44(sp)
    4184:	02112e23          	sw	ra,60(sp)
    4188:	02912a23          	sw	s1,52(sp)
    418c:	03412423          	sw	s4,40(sp)
    4190:	00058993          	mv	s3,a1
    4194:	00c12623          	sw	a2,12(sp)
    4198:	59d010ef          	jal	ra,5f34 <vTaskEnterCritical>
    419c:	03842903          	lw	s2,56(s0)
    41a0:	10091463          	bnez	s2,42a8 <xQueueReceive+0x138>
    41a4:	00c12783          	lw	a5,12(sp)
    41a8:	08078e63          	beqz	a5,4244 <xQueueReceive+0xd4>
    41ac:	01810513          	addi	a0,sp,24
    41b0:	125010ef          	jal	ra,5ad4 <vTaskInternalSetTimeOutState>
    41b4:	fff00493          	li	s1,-1
    41b8:	02440a13          	addi	s4,s0,36
    41bc:	5a9010ef          	jal	ra,5f64 <vTaskExitCritical>
    41c0:	370010ef          	jal	ra,5530 <vTaskSuspendAll>
    41c4:	571010ef          	jal	ra,5f34 <vTaskEnterCritical>
    41c8:	04444783          	lbu	a5,68(s0)
    41cc:	01879793          	slli	a5,a5,0x18
    41d0:	4187d793          	srai	a5,a5,0x18
    41d4:	00979463          	bne	a5,s1,41dc <xQueueReceive+0x6c>
    41d8:	04040223          	sb	zero,68(s0)
    41dc:	04544783          	lbu	a5,69(s0)
    41e0:	01879793          	slli	a5,a5,0x18
    41e4:	4187d793          	srai	a5,a5,0x18
    41e8:	00979463          	bne	a5,s1,41f0 <xQueueReceive+0x80>
    41ec:	040402a3          	sb	zero,69(s0)
    41f0:	575010ef          	jal	ra,5f64 <vTaskExitCritical>
    41f4:	00c10593          	addi	a1,sp,12
    41f8:	01810513          	addi	a0,sp,24
    41fc:	3a9020ef          	jal	ra,6da4 <xTaskCheckForTimeOut>
    4200:	06051663          	bnez	a0,426c <xQueueReceive+0xfc>
    4204:	531010ef          	jal	ra,5f34 <vTaskEnterCritical>
    4208:	03842783          	lw	a5,56(s0)
    420c:	08079063          	bnez	a5,428c <xQueueReceive+0x11c>
    4210:	555010ef          	jal	ra,5f64 <vTaskExitCritical>
    4214:	00c12583          	lw	a1,12(sp)
    4218:	000a0513          	mv	a0,s4
    421c:	520010ef          	jal	ra,573c <vTaskPlaceOnEventList>
    4220:	00040513          	mv	a0,s0
    4224:	db4ff0ef          	jal	ra,37d8 <prvUnlockQueue>
    4228:	035020ef          	jal	ra,6a5c <xTaskResumeAll>
    422c:	06050a63          	beqz	a0,42a0 <xQueueReceive+0x130>
    4230:	505010ef          	jal	ra,5f34 <vTaskEnterCritical>
    4234:	03842903          	lw	s2,56(s0)
    4238:	06091863          	bnez	s2,42a8 <xQueueReceive+0x138>
    423c:	00c12783          	lw	a5,12(sp)
    4240:	f6079ee3          	bnez	a5,41bc <xQueueReceive+0x4c>
    4244:	521010ef          	jal	ra,5f64 <vTaskExitCritical>
    4248:	03c12083          	lw	ra,60(sp)
    424c:	03812403          	lw	s0,56(sp)
    4250:	03412483          	lw	s1,52(sp)
    4254:	03012903          	lw	s2,48(sp)
    4258:	02c12983          	lw	s3,44(sp)
    425c:	02812a03          	lw	s4,40(sp)
    4260:	00000513          	li	a0,0
    4264:	04010113          	addi	sp,sp,64
    4268:	00008067          	ret
    426c:	00040513          	mv	a0,s0
    4270:	d68ff0ef          	jal	ra,37d8 <prvUnlockQueue>
    4274:	7e8020ef          	jal	ra,6a5c <xTaskResumeAll>
    4278:	4bd010ef          	jal	ra,5f34 <vTaskEnterCritical>
    427c:	03842783          	lw	a5,56(s0)
    4280:	fc0782e3          	beqz	a5,4244 <xQueueReceive+0xd4>
    4284:	4e1010ef          	jal	ra,5f64 <vTaskExitCritical>
    4288:	fa9ff06f          	j	4230 <xQueueReceive+0xc0>
    428c:	4d9010ef          	jal	ra,5f64 <vTaskExitCritical>
    4290:	00040513          	mv	a0,s0
    4294:	d44ff0ef          	jal	ra,37d8 <prvUnlockQueue>
    4298:	7c4020ef          	jal	ra,6a5c <xTaskResumeAll>
    429c:	f95ff06f          	j	4230 <xQueueReceive+0xc0>
    42a0:	00000073          	ecall
    42a4:	f8dff06f          	j	4230 <xQueueReceive+0xc0>
    42a8:	04042603          	lw	a2,64(s0)
    42ac:	02060063          	beqz	a2,42cc <xQueueReceive+0x15c>
    42b0:	00c42583          	lw	a1,12(s0)
    42b4:	00842783          	lw	a5,8(s0)
    42b8:	00c585b3          	add	a1,a1,a2
    42bc:	00b42623          	sw	a1,12(s0)
    42c0:	04f5f263          	bgeu	a1,a5,4304 <xQueueReceive+0x194>
    42c4:	00098513          	mv	a0,s3
    42c8:	47d040ef          	jal	ra,8f44 <memcpy>
    42cc:	fff90913          	addi	s2,s2,-1
    42d0:	03242c23          	sw	s2,56(s0)
    42d4:	01042783          	lw	a5,16(s0)
    42d8:	02079c63          	bnez	a5,4310 <xQueueReceive+0x1a0>
    42dc:	489010ef          	jal	ra,5f64 <vTaskExitCritical>
    42e0:	03c12083          	lw	ra,60(sp)
    42e4:	03812403          	lw	s0,56(sp)
    42e8:	03412483          	lw	s1,52(sp)
    42ec:	03012903          	lw	s2,48(sp)
    42f0:	02c12983          	lw	s3,44(sp)
    42f4:	02812a03          	lw	s4,40(sp)
    42f8:	00100513          	li	a0,1
    42fc:	04010113          	addi	sp,sp,64
    4300:	00008067          	ret
    4304:	00042583          	lw	a1,0(s0)
    4308:	00b42623          	sw	a1,12(s0)
    430c:	fb9ff06f          	j	42c4 <xQueueReceive+0x154>
    4310:	01040513          	addi	a0,s0,16
    4314:	4d0010ef          	jal	ra,57e4 <xTaskRemoveFromEventList>
    4318:	fc0502e3          	beqz	a0,42dc <xQueueReceive+0x16c>
    431c:	00000073          	ecall
    4320:	fbdff06f          	j	42dc <xQueueReceive+0x16c>

00004324 <xQueueSemaphoreTake>:
    4324:	fc010113          	addi	sp,sp,-64
    4328:	02812c23          	sw	s0,56(sp)
    432c:	02912a23          	sw	s1,52(sp)
    4330:	03212823          	sw	s2,48(sp)
    4334:	03312623          	sw	s3,44(sp)
    4338:	03412423          	sw	s4,40(sp)
    433c:	00050413          	mv	s0,a0
    4340:	02112e23          	sw	ra,60(sp)
    4344:	00b12623          	sw	a1,12(sp)
    4348:	02450a13          	addi	s4,a0,36
    434c:	3e9010ef          	jal	ra,5f34 <vTaskEnterCritical>
    4350:	03842783          	lw	a5,56(s0)
    4354:	00000993          	li	s3,0
    4358:	00000913          	li	s2,0
    435c:	fff00493          	li	s1,-1
    4360:	0a079063          	bnez	a5,4400 <xQueueSemaphoreTake+0xdc>
    4364:	00c12783          	lw	a5,12(sp)
    4368:	16078c63          	beqz	a5,44e0 <xQueueSemaphoreTake+0x1bc>
    436c:	0c090e63          	beqz	s2,4448 <xQueueSemaphoreTake+0x124>
    4370:	3f5010ef          	jal	ra,5f64 <vTaskExitCritical>
    4374:	1bc010ef          	jal	ra,5530 <vTaskSuspendAll>
    4378:	3bd010ef          	jal	ra,5f34 <vTaskEnterCritical>
    437c:	04444783          	lbu	a5,68(s0)
    4380:	01879793          	slli	a5,a5,0x18
    4384:	4187d793          	srai	a5,a5,0x18
    4388:	00979463          	bne	a5,s1,4390 <xQueueSemaphoreTake+0x6c>
    438c:	04040223          	sb	zero,68(s0)
    4390:	04544783          	lbu	a5,69(s0)
    4394:	01879793          	slli	a5,a5,0x18
    4398:	4187d793          	srai	a5,a5,0x18
    439c:	00979463          	bne	a5,s1,43a4 <xQueueSemaphoreTake+0x80>
    43a0:	040402a3          	sb	zero,69(s0)
    43a4:	3c1010ef          	jal	ra,5f64 <vTaskExitCritical>
    43a8:	00c10593          	addi	a1,sp,12
    43ac:	01810513          	addi	a0,sp,24
    43b0:	1f5020ef          	jal	ra,6da4 <xTaskCheckForTimeOut>
    43b4:	06051863          	bnez	a0,4424 <xQueueSemaphoreTake+0x100>
    43b8:	37d010ef          	jal	ra,5f34 <vTaskEnterCritical>
    43bc:	03842783          	lw	a5,56(s0)
    43c0:	08079a63          	bnez	a5,4454 <xQueueSemaphoreTake+0x130>
    43c4:	3a1010ef          	jal	ra,5f64 <vTaskExitCritical>
    43c8:	00042783          	lw	a5,0(s0)
    43cc:	0e078e63          	beqz	a5,44c8 <xQueueSemaphoreTake+0x1a4>
    43d0:	00c12583          	lw	a1,12(sp)
    43d4:	000a0513          	mv	a0,s4
    43d8:	364010ef          	jal	ra,573c <vTaskPlaceOnEventList>
    43dc:	00040513          	mv	a0,s0
    43e0:	bf8ff0ef          	jal	ra,37d8 <prvUnlockQueue>
    43e4:	678020ef          	jal	ra,6a5c <xTaskResumeAll>
    43e8:	00051463          	bnez	a0,43f0 <xQueueSemaphoreTake+0xcc>
    43ec:	00000073          	ecall
    43f0:	00100913          	li	s2,1
    43f4:	341010ef          	jal	ra,5f34 <vTaskEnterCritical>
    43f8:	03842783          	lw	a5,56(s0)
    43fc:	f60784e3          	beqz	a5,4364 <xQueueSemaphoreTake+0x40>
    4400:	00042703          	lw	a4,0(s0)
    4404:	fff78793          	addi	a5,a5,-1
    4408:	02f42c23          	sw	a5,56(s0)
    440c:	0e070a63          	beqz	a4,4500 <xQueueSemaphoreTake+0x1dc>
    4410:	01042783          	lw	a5,16(s0)
    4414:	0c079c63          	bnez	a5,44ec <xQueueSemaphoreTake+0x1c8>
    4418:	34d010ef          	jal	ra,5f64 <vTaskExitCritical>
    441c:	00100993          	li	s3,1
    4420:	0540006f          	j	4474 <xQueueSemaphoreTake+0x150>
    4424:	00040513          	mv	a0,s0
    4428:	bb0ff0ef          	jal	ra,37d8 <prvUnlockQueue>
    442c:	630020ef          	jal	ra,6a5c <xTaskResumeAll>
    4430:	305010ef          	jal	ra,5f34 <vTaskEnterCritical>
    4434:	03842783          	lw	a5,56(s0)
    4438:	02078a63          	beqz	a5,446c <xQueueSemaphoreTake+0x148>
    443c:	329010ef          	jal	ra,5f64 <vTaskExitCritical>
    4440:	00100913          	li	s2,1
    4444:	fb1ff06f          	j	43f4 <xQueueSemaphoreTake+0xd0>
    4448:	01810513          	addi	a0,sp,24
    444c:	688010ef          	jal	ra,5ad4 <vTaskInternalSetTimeOutState>
    4450:	f21ff06f          	j	4370 <xQueueSemaphoreTake+0x4c>
    4454:	311010ef          	jal	ra,5f64 <vTaskExitCritical>
    4458:	00040513          	mv	a0,s0
    445c:	b7cff0ef          	jal	ra,37d8 <prvUnlockQueue>
    4460:	5fc020ef          	jal	ra,6a5c <xTaskResumeAll>
    4464:	00100913          	li	s2,1
    4468:	f8dff06f          	j	43f4 <xQueueSemaphoreTake+0xd0>
    446c:	2f9010ef          	jal	ra,5f64 <vTaskExitCritical>
    4470:	02099463          	bnez	s3,4498 <xQueueSemaphoreTake+0x174>
    4474:	03c12083          	lw	ra,60(sp)
    4478:	03812403          	lw	s0,56(sp)
    447c:	03412483          	lw	s1,52(sp)
    4480:	03012903          	lw	s2,48(sp)
    4484:	02812a03          	lw	s4,40(sp)
    4488:	00098513          	mv	a0,s3
    448c:	02c12983          	lw	s3,44(sp)
    4490:	04010113          	addi	sp,sp,64
    4494:	00008067          	ret
    4498:	29d010ef          	jal	ra,5f34 <vTaskEnterCritical>
    449c:	02442583          	lw	a1,36(s0)
    44a0:	00058a63          	beqz	a1,44b4 <xQueueSemaphoreTake+0x190>
    44a4:	03042783          	lw	a5,48(s0)
    44a8:	01000593          	li	a1,16
    44ac:	0007a783          	lw	a5,0(a5)
    44b0:	40f585b3          	sub	a1,a1,a5
    44b4:	00842503          	lw	a0,8(s0)
    44b8:	00000993          	li	s3,0
    44bc:	13d010ef          	jal	ra,5df8 <vTaskPriorityDisinheritAfterTimeout>
    44c0:	2a5010ef          	jal	ra,5f64 <vTaskExitCritical>
    44c4:	fb1ff06f          	j	4474 <xQueueSemaphoreTake+0x150>
    44c8:	26d010ef          	jal	ra,5f34 <vTaskEnterCritical>
    44cc:	00842503          	lw	a0,8(s0)
    44d0:	698010ef          	jal	ra,5b68 <xTaskPriorityInherit>
    44d4:	00050993          	mv	s3,a0
    44d8:	28d010ef          	jal	ra,5f64 <vTaskExitCritical>
    44dc:	ef5ff06f          	j	43d0 <xQueueSemaphoreTake+0xac>
    44e0:	285010ef          	jal	ra,5f64 <vTaskExitCritical>
    44e4:	00000993          	li	s3,0
    44e8:	f8dff06f          	j	4474 <xQueueSemaphoreTake+0x150>
    44ec:	01040513          	addi	a0,s0,16
    44f0:	2f4010ef          	jal	ra,57e4 <xTaskRemoveFromEventList>
    44f4:	f20502e3          	beqz	a0,4418 <xQueueSemaphoreTake+0xf4>
    44f8:	00000073          	ecall
    44fc:	f1dff06f          	j	4418 <xQueueSemaphoreTake+0xf4>
    4500:	1a5020ef          	jal	ra,6ea4 <pvTaskIncrementMutexHeldCount>
    4504:	00a42423          	sw	a0,8(s0)
    4508:	f09ff06f          	j	4410 <xQueueSemaphoreTake+0xec>

0000450c <xQueueTakeMutexRecursive>:
    450c:	ff010113          	addi	sp,sp,-16
    4510:	01212023          	sw	s2,0(sp)
    4514:	00852903          	lw	s2,8(a0)
    4518:	00812423          	sw	s0,8(sp)
    451c:	00912223          	sw	s1,4(sp)
    4520:	00112623          	sw	ra,12(sp)
    4524:	00050413          	mv	s0,a0
    4528:	00058493          	mv	s1,a1
    452c:	630010ef          	jal	ra,5b5c <xTaskGetCurrentTaskHandle>
    4530:	02a90c63          	beq	s2,a0,4568 <xQueueTakeMutexRecursive+0x5c>
    4534:	00048593          	mv	a1,s1
    4538:	00040513          	mv	a0,s0
    453c:	de9ff0ef          	jal	ra,4324 <xQueueSemaphoreTake>
    4540:	00050863          	beqz	a0,4550 <xQueueTakeMutexRecursive+0x44>
    4544:	00c42783          	lw	a5,12(s0)
    4548:	00178793          	addi	a5,a5,1
    454c:	00f42623          	sw	a5,12(s0)
    4550:	00c12083          	lw	ra,12(sp)
    4554:	00812403          	lw	s0,8(sp)
    4558:	00412483          	lw	s1,4(sp)
    455c:	00012903          	lw	s2,0(sp)
    4560:	01010113          	addi	sp,sp,16
    4564:	00008067          	ret
    4568:	00c42783          	lw	a5,12(s0)
    456c:	00c12083          	lw	ra,12(sp)
    4570:	00412483          	lw	s1,4(sp)
    4574:	00178793          	addi	a5,a5,1
    4578:	00f42623          	sw	a5,12(s0)
    457c:	00812403          	lw	s0,8(sp)
    4580:	00012903          	lw	s2,0(sp)
    4584:	00100513          	li	a0,1
    4588:	01010113          	addi	sp,sp,16
    458c:	00008067          	ret

00004590 <xQueuePeek>:
    4590:	fc010113          	addi	sp,sp,-64
    4594:	02812c23          	sw	s0,56(sp)
    4598:	03212823          	sw	s2,48(sp)
    459c:	00050413          	mv	s0,a0
    45a0:	02112e23          	sw	ra,60(sp)
    45a4:	02912a23          	sw	s1,52(sp)
    45a8:	03312623          	sw	s3,44(sp)
    45ac:	00058913          	mv	s2,a1
    45b0:	00c12623          	sw	a2,12(sp)
    45b4:	181010ef          	jal	ra,5f34 <vTaskEnterCritical>
    45b8:	03842783          	lw	a5,56(s0)
    45bc:	10079263          	bnez	a5,46c0 <xQueuePeek+0x130>
    45c0:	00c12783          	lw	a5,12(sp)
    45c4:	08078e63          	beqz	a5,4660 <xQueuePeek+0xd0>
    45c8:	01810513          	addi	a0,sp,24
    45cc:	508010ef          	jal	ra,5ad4 <vTaskInternalSetTimeOutState>
    45d0:	fff00493          	li	s1,-1
    45d4:	02440993          	addi	s3,s0,36
    45d8:	18d010ef          	jal	ra,5f64 <vTaskExitCritical>
    45dc:	755000ef          	jal	ra,5530 <vTaskSuspendAll>
    45e0:	155010ef          	jal	ra,5f34 <vTaskEnterCritical>
    45e4:	04444783          	lbu	a5,68(s0)
    45e8:	01879793          	slli	a5,a5,0x18
    45ec:	4187d793          	srai	a5,a5,0x18
    45f0:	00979463          	bne	a5,s1,45f8 <xQueuePeek+0x68>
    45f4:	04040223          	sb	zero,68(s0)
    45f8:	04544783          	lbu	a5,69(s0)
    45fc:	01879793          	slli	a5,a5,0x18
    4600:	4187d793          	srai	a5,a5,0x18
    4604:	00979463          	bne	a5,s1,460c <xQueuePeek+0x7c>
    4608:	040402a3          	sb	zero,69(s0)
    460c:	159010ef          	jal	ra,5f64 <vTaskExitCritical>
    4610:	00c10593          	addi	a1,sp,12
    4614:	01810513          	addi	a0,sp,24
    4618:	78c020ef          	jal	ra,6da4 <xTaskCheckForTimeOut>
    461c:	06051463          	bnez	a0,4684 <xQueuePeek+0xf4>
    4620:	115010ef          	jal	ra,5f34 <vTaskEnterCritical>
    4624:	03842783          	lw	a5,56(s0)
    4628:	06079e63          	bnez	a5,46a4 <xQueuePeek+0x114>
    462c:	139010ef          	jal	ra,5f64 <vTaskExitCritical>
    4630:	00c12583          	lw	a1,12(sp)
    4634:	00098513          	mv	a0,s3
    4638:	104010ef          	jal	ra,573c <vTaskPlaceOnEventList>
    463c:	00040513          	mv	a0,s0
    4640:	998ff0ef          	jal	ra,37d8 <prvUnlockQueue>
    4644:	418020ef          	jal	ra,6a5c <xTaskResumeAll>
    4648:	06050863          	beqz	a0,46b8 <xQueuePeek+0x128>
    464c:	0e9010ef          	jal	ra,5f34 <vTaskEnterCritical>
    4650:	03842783          	lw	a5,56(s0)
    4654:	06079663          	bnez	a5,46c0 <xQueuePeek+0x130>
    4658:	00c12783          	lw	a5,12(sp)
    465c:	f6079ee3          	bnez	a5,45d8 <xQueuePeek+0x48>
    4660:	105010ef          	jal	ra,5f64 <vTaskExitCritical>
    4664:	03c12083          	lw	ra,60(sp)
    4668:	03812403          	lw	s0,56(sp)
    466c:	03412483          	lw	s1,52(sp)
    4670:	03012903          	lw	s2,48(sp)
    4674:	02c12983          	lw	s3,44(sp)
    4678:	00000513          	li	a0,0
    467c:	04010113          	addi	sp,sp,64
    4680:	00008067          	ret
    4684:	00040513          	mv	a0,s0
    4688:	950ff0ef          	jal	ra,37d8 <prvUnlockQueue>
    468c:	3d0020ef          	jal	ra,6a5c <xTaskResumeAll>
    4690:	0a5010ef          	jal	ra,5f34 <vTaskEnterCritical>
    4694:	03842783          	lw	a5,56(s0)
    4698:	fc0784e3          	beqz	a5,4660 <xQueuePeek+0xd0>
    469c:	0c9010ef          	jal	ra,5f64 <vTaskExitCritical>
    46a0:	fadff06f          	j	464c <xQueuePeek+0xbc>
    46a4:	0c1010ef          	jal	ra,5f64 <vTaskExitCritical>
    46a8:	00040513          	mv	a0,s0
    46ac:	92cff0ef          	jal	ra,37d8 <prvUnlockQueue>
    46b0:	3ac020ef          	jal	ra,6a5c <xTaskResumeAll>
    46b4:	f99ff06f          	j	464c <xQueuePeek+0xbc>
    46b8:	00000073          	ecall
    46bc:	f91ff06f          	j	464c <xQueuePeek+0xbc>
    46c0:	04042603          	lw	a2,64(s0)
    46c4:	00c42483          	lw	s1,12(s0)
    46c8:	00060e63          	beqz	a2,46e4 <xQueuePeek+0x154>
    46cc:	00842783          	lw	a5,8(s0)
    46d0:	00c485b3          	add	a1,s1,a2
    46d4:	00b42623          	sw	a1,12(s0)
    46d8:	02f5fe63          	bgeu	a1,a5,4714 <xQueuePeek+0x184>
    46dc:	00090513          	mv	a0,s2
    46e0:	065040ef          	jal	ra,8f44 <memcpy>
    46e4:	02442783          	lw	a5,36(s0)
    46e8:	00942623          	sw	s1,12(s0)
    46ec:	02079a63          	bnez	a5,4720 <xQueuePeek+0x190>
    46f0:	075010ef          	jal	ra,5f64 <vTaskExitCritical>
    46f4:	03c12083          	lw	ra,60(sp)
    46f8:	03812403          	lw	s0,56(sp)
    46fc:	03412483          	lw	s1,52(sp)
    4700:	03012903          	lw	s2,48(sp)
    4704:	02c12983          	lw	s3,44(sp)
    4708:	00100513          	li	a0,1
    470c:	04010113          	addi	sp,sp,64
    4710:	00008067          	ret
    4714:	00042583          	lw	a1,0(s0)
    4718:	00b42623          	sw	a1,12(s0)
    471c:	fc1ff06f          	j	46dc <xQueuePeek+0x14c>
    4720:	02440513          	addi	a0,s0,36
    4724:	0c0010ef          	jal	ra,57e4 <xTaskRemoveFromEventList>
    4728:	fc0504e3          	beqz	a0,46f0 <xQueuePeek+0x160>
    472c:	00000073          	ecall
    4730:	fc1ff06f          	j	46f0 <xQueuePeek+0x160>

00004734 <xQueueReceiveFromISR>:
    4734:	fe010113          	addi	sp,sp,-32
    4738:	01212823          	sw	s2,16(sp)
    473c:	03852903          	lw	s2,56(a0)
    4740:	00112e23          	sw	ra,28(sp)
    4744:	00812c23          	sw	s0,24(sp)
    4748:	00912a23          	sw	s1,20(sp)
    474c:	01312623          	sw	s3,12(sp)
    4750:	01412423          	sw	s4,8(sp)
    4754:	02091463          	bnez	s2,477c <xQueueReceiveFromISR+0x48>
    4758:	01c12083          	lw	ra,28(sp)
    475c:	01812403          	lw	s0,24(sp)
    4760:	01412483          	lw	s1,20(sp)
    4764:	01012903          	lw	s2,16(sp)
    4768:	00c12983          	lw	s3,12(sp)
    476c:	00812a03          	lw	s4,8(sp)
    4770:	00000513          	li	a0,0
    4774:	02010113          	addi	sp,sp,32
    4778:	00008067          	ret
    477c:	04454983          	lbu	s3,68(a0)
    4780:	00060493          	mv	s1,a2
    4784:	04052603          	lw	a2,64(a0)
    4788:	01899a13          	slli	s4,s3,0x18
    478c:	00050413          	mv	s0,a0
    4790:	418a5a13          	srai	s4,s4,0x18
    4794:	02060463          	beqz	a2,47bc <xQueueReceiveFromISR+0x88>
    4798:	00058513          	mv	a0,a1
    479c:	00c42583          	lw	a1,12(s0)
    47a0:	00842783          	lw	a5,8(s0)
    47a4:	00c585b3          	add	a1,a1,a2
    47a8:	00b42623          	sw	a1,12(s0)
    47ac:	00f5e663          	bltu	a1,a5,47b8 <xQueueReceiveFromISR+0x84>
    47b0:	00042583          	lw	a1,0(s0)
    47b4:	00b42623          	sw	a1,12(s0)
    47b8:	78c040ef          	jal	ra,8f44 <memcpy>
    47bc:	fff90913          	addi	s2,s2,-1
    47c0:	03242c23          	sw	s2,56(s0)
    47c4:	fff00793          	li	a5,-1
    47c8:	02fa0c63          	beq	s4,a5,4800 <xQueueReceiveFromISR+0xcc>
    47cc:	00198993          	addi	s3,s3,1
    47d0:	01899993          	slli	s3,s3,0x18
    47d4:	4189d993          	srai	s3,s3,0x18
    47d8:	05340223          	sb	s3,68(s0)
    47dc:	01c12083          	lw	ra,28(sp)
    47e0:	01812403          	lw	s0,24(sp)
    47e4:	01412483          	lw	s1,20(sp)
    47e8:	01012903          	lw	s2,16(sp)
    47ec:	00c12983          	lw	s3,12(sp)
    47f0:	00812a03          	lw	s4,8(sp)
    47f4:	00100513          	li	a0,1
    47f8:	02010113          	addi	sp,sp,32
    47fc:	00008067          	ret
    4800:	01042783          	lw	a5,16(s0)
    4804:	02079463          	bnez	a5,482c <xQueueReceiveFromISR+0xf8>
    4808:	00100513          	li	a0,1
    480c:	01c12083          	lw	ra,28(sp)
    4810:	01812403          	lw	s0,24(sp)
    4814:	01412483          	lw	s1,20(sp)
    4818:	01012903          	lw	s2,16(sp)
    481c:	00c12983          	lw	s3,12(sp)
    4820:	00812a03          	lw	s4,8(sp)
    4824:	02010113          	addi	sp,sp,32
    4828:	00008067          	ret
    482c:	01040513          	addi	a0,s0,16
    4830:	7b5000ef          	jal	ra,57e4 <xTaskRemoveFromEventList>
    4834:	fc050ae3          	beqz	a0,4808 <xQueueReceiveFromISR+0xd4>
    4838:	fc0488e3          	beqz	s1,4808 <xQueueReceiveFromISR+0xd4>
    483c:	00100793          	li	a5,1
    4840:	00f4a023          	sw	a5,0(s1)
    4844:	00100513          	li	a0,1
    4848:	fc5ff06f          	j	480c <xQueueReceiveFromISR+0xd8>

0000484c <xQueuePeekFromISR>:
    484c:	03852783          	lw	a5,56(a0)
    4850:	00079663          	bnez	a5,485c <xQueuePeekFromISR+0x10>
    4854:	00000513          	li	a0,0
    4858:	00008067          	ret
    485c:	04052603          	lw	a2,64(a0)
    4860:	ff010113          	addi	sp,sp,-16
    4864:	00812423          	sw	s0,8(sp)
    4868:	00912223          	sw	s1,4(sp)
    486c:	00112623          	sw	ra,12(sp)
    4870:	00c52483          	lw	s1,12(a0)
    4874:	00050413          	mv	s0,a0
    4878:	02060263          	beqz	a2,489c <xQueuePeekFromISR+0x50>
    487c:	00842783          	lw	a5,8(s0)
    4880:	00058513          	mv	a0,a1
    4884:	00c485b3          	add	a1,s1,a2
    4888:	00b42623          	sw	a1,12(s0)
    488c:	00f5e663          	bltu	a1,a5,4898 <xQueuePeekFromISR+0x4c>
    4890:	00042583          	lw	a1,0(s0)
    4894:	00b42623          	sw	a1,12(s0)
    4898:	6ac040ef          	jal	ra,8f44 <memcpy>
    489c:	00942623          	sw	s1,12(s0)
    48a0:	00c12083          	lw	ra,12(sp)
    48a4:	00812403          	lw	s0,8(sp)
    48a8:	00412483          	lw	s1,4(sp)
    48ac:	00100513          	li	a0,1
    48b0:	01010113          	addi	sp,sp,16
    48b4:	00008067          	ret

000048b8 <uxQueueMessagesWaiting>:
    48b8:	ff010113          	addi	sp,sp,-16
    48bc:	00812423          	sw	s0,8(sp)
    48c0:	00050413          	mv	s0,a0
    48c4:	00112623          	sw	ra,12(sp)
    48c8:	66c010ef          	jal	ra,5f34 <vTaskEnterCritical>
    48cc:	03842403          	lw	s0,56(s0)
    48d0:	694010ef          	jal	ra,5f64 <vTaskExitCritical>
    48d4:	00c12083          	lw	ra,12(sp)
    48d8:	00040513          	mv	a0,s0
    48dc:	00812403          	lw	s0,8(sp)
    48e0:	01010113          	addi	sp,sp,16
    48e4:	00008067          	ret

000048e8 <uxQueueSpacesAvailable>:
    48e8:	ff010113          	addi	sp,sp,-16
    48ec:	00112623          	sw	ra,12(sp)
    48f0:	00812423          	sw	s0,8(sp)
    48f4:	00050413          	mv	s0,a0
    48f8:	63c010ef          	jal	ra,5f34 <vTaskEnterCritical>
    48fc:	03842503          	lw	a0,56(s0)
    4900:	03c42403          	lw	s0,60(s0)
    4904:	40a40433          	sub	s0,s0,a0
    4908:	65c010ef          	jal	ra,5f64 <vTaskExitCritical>
    490c:	00c12083          	lw	ra,12(sp)
    4910:	00040513          	mv	a0,s0
    4914:	00812403          	lw	s0,8(sp)
    4918:	01010113          	addi	sp,sp,16
    491c:	00008067          	ret

00004920 <uxQueueMessagesWaitingFromISR>:
    4920:	03852503          	lw	a0,56(a0)
    4924:	00008067          	ret

00004928 <vQueueDelete>:
    4928:	04654783          	lbu	a5,70(a0)
    492c:	00078463          	beqz	a5,4934 <vQueueDelete+0xc>
    4930:	00008067          	ret
    4934:	2f80306f          	j	7c2c <vPortFree>

00004938 <xQueueIsQueueEmptyFromISR>:
    4938:	03852503          	lw	a0,56(a0)
    493c:	00153513          	seqz	a0,a0
    4940:	00008067          	ret

00004944 <xQueueIsQueueFullFromISR>:
    4944:	03852783          	lw	a5,56(a0)
    4948:	03c52503          	lw	a0,60(a0)
    494c:	40f50533          	sub	a0,a0,a5
    4950:	00153513          	seqz	a0,a0
    4954:	00008067          	ret

00004958 <xQueueCRSend>:
    4958:	ff010113          	addi	sp,sp,-16
    495c:	00812423          	sw	s0,8(sp)
    4960:	00912223          	sw	s1,4(sp)
    4964:	01212023          	sw	s2,0(sp)
    4968:	00112623          	sw	ra,12(sp)
    496c:	00050413          	mv	s0,a0
    4970:	00058913          	mv	s2,a1
    4974:	00060493          	mv	s1,a2
    4978:	30047073          	csrci	mstatus,8
    497c:	5b8010ef          	jal	ra,5f34 <vTaskEnterCritical>
    4980:	03842703          	lw	a4,56(s0)
    4984:	03c42783          	lw	a5,60(s0)
    4988:	04f70e63          	beq	a4,a5,49e4 <xQueueCRSend+0x8c>
    498c:	5d8010ef          	jal	ra,5f64 <vTaskExitCritical>
    4990:	30046073          	csrsi	mstatus,8
    4994:	30047073          	csrci	mstatus,8
    4998:	03842703          	lw	a4,56(s0)
    499c:	03c42783          	lw	a5,60(s0)
    49a0:	00000513          	li	a0,0
    49a4:	02f76063          	bltu	a4,a5,49c4 <xQueueCRSend+0x6c>
    49a8:	30046073          	csrsi	mstatus,8
    49ac:	00c12083          	lw	ra,12(sp)
    49b0:	00812403          	lw	s0,8(sp)
    49b4:	00412483          	lw	s1,4(sp)
    49b8:	00012903          	lw	s2,0(sp)
    49bc:	01010113          	addi	sp,sp,16
    49c0:	00008067          	ret
    49c4:	00000613          	li	a2,0
    49c8:	00090593          	mv	a1,s2
    49cc:	00040513          	mv	a0,s0
    49d0:	cd9fe0ef          	jal	ra,36a8 <prvCopyDataToQueue>
    49d4:	02442783          	lw	a5,36(s0)
    49d8:	02079a63          	bnez	a5,4a0c <xQueueCRSend+0xb4>
    49dc:	00100513          	li	a0,1
    49e0:	fc9ff06f          	j	49a8 <xQueueCRSend+0x50>
    49e4:	580010ef          	jal	ra,5f64 <vTaskExitCritical>
    49e8:	02049c63          	bnez	s1,4a20 <xQueueCRSend+0xc8>
    49ec:	30046073          	csrsi	mstatus,8
    49f0:	00c12083          	lw	ra,12(sp)
    49f4:	00812403          	lw	s0,8(sp)
    49f8:	00412483          	lw	s1,4(sp)
    49fc:	00012903          	lw	s2,0(sp)
    4a00:	00000513          	li	a0,0
    4a04:	01010113          	addi	sp,sp,16
    4a08:	00008067          	ret
    4a0c:	02440513          	addi	a0,s0,36
    4a10:	405030ef          	jal	ra,8614 <xCoRoutineRemoveFromEventList>
    4a14:	fc0504e3          	beqz	a0,49dc <xQueueCRSend+0x84>
    4a18:	ffb00513          	li	a0,-5
    4a1c:	f8dff06f          	j	49a8 <xQueueCRSend+0x50>
    4a20:	01040593          	addi	a1,s0,16
    4a24:	00048513          	mv	a0,s1
    4a28:	091030ef          	jal	ra,82b8 <vCoRoutineAddToDelayedList>
    4a2c:	30046073          	csrsi	mstatus,8
    4a30:	ffc00513          	li	a0,-4
    4a34:	f79ff06f          	j	49ac <xQueueCRSend+0x54>

00004a38 <xQueueCRReceive>:
    4a38:	ff010113          	addi	sp,sp,-16
    4a3c:	00812423          	sw	s0,8(sp)
    4a40:	00112623          	sw	ra,12(sp)
    4a44:	00050413          	mv	s0,a0
    4a48:	30047073          	csrci	mstatus,8
    4a4c:	03852703          	lw	a4,56(a0)
    4a50:	02071063          	bnez	a4,4a70 <xQueueCRReceive+0x38>
    4a54:	0a061463          	bnez	a2,4afc <xQueueCRReceive+0xc4>
    4a58:	30046073          	csrsi	mstatus,8
    4a5c:	00c12083          	lw	ra,12(sp)
    4a60:	00812403          	lw	s0,8(sp)
    4a64:	00000513          	li	a0,0
    4a68:	01010113          	addi	sp,sp,16
    4a6c:	00008067          	ret
    4a70:	30046073          	csrsi	mstatus,8
    4a74:	30047073          	csrci	mstatus,8
    4a78:	03852703          	lw	a4,56(a0)
    4a7c:	00000513          	li	a0,0
    4a80:	00071c63          	bnez	a4,4a98 <xQueueCRReceive+0x60>
    4a84:	30046073          	csrsi	mstatus,8
    4a88:	00c12083          	lw	ra,12(sp)
    4a8c:	00812403          	lw	s0,8(sp)
    4a90:	01010113          	addi	sp,sp,16
    4a94:	00008067          	ret
    4a98:	04042603          	lw	a2,64(s0)
    4a9c:	00058793          	mv	a5,a1
    4aa0:	00c42583          	lw	a1,12(s0)
    4aa4:	00842703          	lw	a4,8(s0)
    4aa8:	00c585b3          	add	a1,a1,a2
    4aac:	00b42623          	sw	a1,12(s0)
    4ab0:	00e5e663          	bltu	a1,a4,4abc <xQueueCRReceive+0x84>
    4ab4:	00042583          	lw	a1,0(s0)
    4ab8:	00b42623          	sw	a1,12(s0)
    4abc:	03842703          	lw	a4,56(s0)
    4ac0:	00078513          	mv	a0,a5
    4ac4:	fff70713          	addi	a4,a4,-1
    4ac8:	02e42c23          	sw	a4,56(s0)
    4acc:	478040ef          	jal	ra,8f44 <memcpy>
    4ad0:	01042783          	lw	a5,16(s0)
    4ad4:	00079663          	bnez	a5,4ae0 <xQueueCRReceive+0xa8>
    4ad8:	00100513          	li	a0,1
    4adc:	fa9ff06f          	j	4a84 <xQueueCRReceive+0x4c>
    4ae0:	01040513          	addi	a0,s0,16
    4ae4:	331030ef          	jal	ra,8614 <xCoRoutineRemoveFromEventList>
    4ae8:	00050793          	mv	a5,a0
    4aec:	ffb00513          	li	a0,-5
    4af0:	f8079ae3          	bnez	a5,4a84 <xQueueCRReceive+0x4c>
    4af4:	00100513          	li	a0,1
    4af8:	f8dff06f          	j	4a84 <xQueueCRReceive+0x4c>
    4afc:	02450593          	addi	a1,a0,36
    4b00:	00060513          	mv	a0,a2
    4b04:	7b4030ef          	jal	ra,82b8 <vCoRoutineAddToDelayedList>
    4b08:	30046073          	csrsi	mstatus,8
    4b0c:	ffc00513          	li	a0,-4
    4b10:	f79ff06f          	j	4a88 <xQueueCRReceive+0x50>

00004b14 <xQueueCRSendFromISR>:
    4b14:	03852703          	lw	a4,56(a0)
    4b18:	03c52783          	lw	a5,60(a0)
    4b1c:	ff010113          	addi	sp,sp,-16
    4b20:	00912223          	sw	s1,4(sp)
    4b24:	00112623          	sw	ra,12(sp)
    4b28:	00812423          	sw	s0,8(sp)
    4b2c:	01212023          	sw	s2,0(sp)
    4b30:	00060493          	mv	s1,a2
    4b34:	02f76063          	bltu	a4,a5,4b54 <xQueueCRSendFromISR+0x40>
    4b38:	00c12083          	lw	ra,12(sp)
    4b3c:	00812403          	lw	s0,8(sp)
    4b40:	00012903          	lw	s2,0(sp)
    4b44:	00048513          	mv	a0,s1
    4b48:	00412483          	lw	s1,4(sp)
    4b4c:	01010113          	addi	sp,sp,16
    4b50:	00008067          	ret
    4b54:	04052603          	lw	a2,64(a0)
    4b58:	03852903          	lw	s2,56(a0)
    4b5c:	00050413          	mv	s0,a0
    4b60:	04060863          	beqz	a2,4bb0 <xQueueCRSendFromISR+0x9c>
    4b64:	00452503          	lw	a0,4(a0)
    4b68:	3dc040ef          	jal	ra,8f44 <memcpy>
    4b6c:	00442783          	lw	a5,4(s0)
    4b70:	04042683          	lw	a3,64(s0)
    4b74:	00842703          	lw	a4,8(s0)
    4b78:	00d787b3          	add	a5,a5,a3
    4b7c:	00f42223          	sw	a5,4(s0)
    4b80:	00e7e663          	bltu	a5,a4,4b8c <xQueueCRSendFromISR+0x78>
    4b84:	00042783          	lw	a5,0(s0)
    4b88:	00f42223          	sw	a5,4(s0)
    4b8c:	00190913          	addi	s2,s2,1
    4b90:	03242c23          	sw	s2,56(s0)
    4b94:	fa0492e3          	bnez	s1,4b38 <xQueueCRSendFromISR+0x24>
    4b98:	02442783          	lw	a5,36(s0)
    4b9c:	f8078ee3          	beqz	a5,4b38 <xQueueCRSendFromISR+0x24>
    4ba0:	02440513          	addi	a0,s0,36
    4ba4:	271030ef          	jal	ra,8614 <xCoRoutineRemoveFromEventList>
    4ba8:	00a034b3          	snez	s1,a0
    4bac:	f8dff06f          	j	4b38 <xQueueCRSendFromISR+0x24>
    4bb0:	00052783          	lw	a5,0(a0)
    4bb4:	fc079ce3          	bnez	a5,4b8c <xQueueCRSendFromISR+0x78>
    4bb8:	00852503          	lw	a0,8(a0)
    4bbc:	124010ef          	jal	ra,5ce0 <xTaskPriorityDisinherit>
    4bc0:	00042423          	sw	zero,8(s0)
    4bc4:	fc9ff06f          	j	4b8c <xQueueCRSendFromISR+0x78>

00004bc8 <xQueueCRReceiveFromISR>:
    4bc8:	03852783          	lw	a5,56(a0)
    4bcc:	06078c63          	beqz	a5,4c44 <xQueueCRReceiveFromISR+0x7c>
    4bd0:	ff010113          	addi	sp,sp,-16
    4bd4:	00812423          	sw	s0,8(sp)
    4bd8:	00050413          	mv	s0,a0
    4bdc:	00912223          	sw	s1,4(sp)
    4be0:	00058513          	mv	a0,a1
    4be4:	00060493          	mv	s1,a2
    4be8:	00c42583          	lw	a1,12(s0)
    4bec:	04042603          	lw	a2,64(s0)
    4bf0:	00842783          	lw	a5,8(s0)
    4bf4:	00112623          	sw	ra,12(sp)
    4bf8:	00c585b3          	add	a1,a1,a2
    4bfc:	00b42623          	sw	a1,12(s0)
    4c00:	00f5e663          	bltu	a1,a5,4c0c <xQueueCRReceiveFromISR+0x44>
    4c04:	00042583          	lw	a1,0(s0)
    4c08:	00b42623          	sw	a1,12(s0)
    4c0c:	03842783          	lw	a5,56(s0)
    4c10:	fff78793          	addi	a5,a5,-1
    4c14:	02f42c23          	sw	a5,56(s0)
    4c18:	32c040ef          	jal	ra,8f44 <memcpy>
    4c1c:	0004a783          	lw	a5,0(s1)
    4c20:	00079663          	bnez	a5,4c2c <xQueueCRReceiveFromISR+0x64>
    4c24:	01042783          	lw	a5,16(s0)
    4c28:	02079263          	bnez	a5,4c4c <xQueueCRReceiveFromISR+0x84>
    4c2c:	00c12083          	lw	ra,12(sp)
    4c30:	00812403          	lw	s0,8(sp)
    4c34:	00412483          	lw	s1,4(sp)
    4c38:	00100513          	li	a0,1
    4c3c:	01010113          	addi	sp,sp,16
    4c40:	00008067          	ret
    4c44:	00000513          	li	a0,0
    4c48:	00008067          	ret
    4c4c:	01040513          	addi	a0,s0,16
    4c50:	1c5030ef          	jal	ra,8614 <xCoRoutineRemoveFromEventList>
    4c54:	fc050ce3          	beqz	a0,4c2c <xQueueCRReceiveFromISR+0x64>
    4c58:	00100793          	li	a5,1
    4c5c:	00f4a023          	sw	a5,0(s1)
    4c60:	fcdff06f          	j	4c2c <xQueueCRReceiveFromISR+0x64>

00004c64 <prvAddCurrentTaskToDelayedList>:
    4c64:	fe010113          	addi	sp,sp,-32
    4c68:	00912a23          	sw	s1,20(sp)
    4c6c:	0001c497          	auipc	s1,0x1c
    4c70:	7c048493          	addi	s1,s1,1984 # 2142c <pxCurrentTCB>
    4c74:	01212823          	sw	s2,16(sp)
    4c78:	0001c917          	auipc	s2,0x1c
    4c7c:	79c92903          	lw	s2,1948(s2) # 21414 <xTickCount>
    4c80:	0004a783          	lw	a5,0(s1)
    4c84:	00812c23          	sw	s0,24(sp)
    4c88:	00050413          	mv	s0,a0
    4c8c:	00478513          	addi	a0,a5,4
    4c90:	01312623          	sw	s3,12(sp)
    4c94:	00112e23          	sw	ra,28(sp)
    4c98:	00058993          	mv	s3,a1
    4c9c:	281030ef          	jal	ra,871c <uxListRemove>
    4ca0:	02051663          	bnez	a0,4ccc <prvAddCurrentTaskToDelayedList+0x68>
    4ca4:	0004a783          	lw	a5,0(s1)
    4ca8:	0001c717          	auipc	a4,0x1c
    4cac:	76870713          	addi	a4,a4,1896 # 21410 <uxTopReadyPriority>
    4cb0:	00072683          	lw	a3,0(a4)
    4cb4:	02c7a603          	lw	a2,44(a5)
    4cb8:	00100793          	li	a5,1
    4cbc:	00c797b3          	sll	a5,a5,a2
    4cc0:	fff7c793          	not	a5,a5
    4cc4:	00d7f7b3          	and	a5,a5,a3
    4cc8:	00f72023          	sw	a5,0(a4)
    4ccc:	fff00793          	li	a5,-1
    4cd0:	08f40263          	beq	s0,a5,4d54 <prvAddCurrentTaskToDelayedList+0xf0>
    4cd4:	0004a783          	lw	a5,0(s1)
    4cd8:	00890433          	add	s0,s2,s0
    4cdc:	0087a223          	sw	s0,4(a5)
    4ce0:	05246463          	bltu	s0,s2,4d28 <prvAddCurrentTaskToDelayedList+0xc4>
    4ce4:	0001c517          	auipc	a0,0x1c
    4ce8:	74452503          	lw	a0,1860(a0) # 21428 <pxDelayedTaskList>
    4cec:	0004a583          	lw	a1,0(s1)
    4cf0:	00458593          	addi	a1,a1,4
    4cf4:	1d9030ef          	jal	ra,86cc <vListInsert>
    4cf8:	0001c797          	auipc	a5,0x1c
    4cfc:	70078793          	addi	a5,a5,1792 # 213f8 <xNextTaskUnblockTime>
    4d00:	0007a703          	lw	a4,0(a5)
    4d04:	00e47463          	bgeu	s0,a4,4d0c <prvAddCurrentTaskToDelayedList+0xa8>
    4d08:	0087a023          	sw	s0,0(a5)
    4d0c:	01c12083          	lw	ra,28(sp)
    4d10:	01812403          	lw	s0,24(sp)
    4d14:	01412483          	lw	s1,20(sp)
    4d18:	01012903          	lw	s2,16(sp)
    4d1c:	00c12983          	lw	s3,12(sp)
    4d20:	02010113          	addi	sp,sp,32
    4d24:	00008067          	ret
    4d28:	01812403          	lw	s0,24(sp)
    4d2c:	0001c517          	auipc	a0,0x1c
    4d30:	6f852503          	lw	a0,1784(a0) # 21424 <pxOverflowDelayedTaskList>
    4d34:	0004a583          	lw	a1,0(s1)
    4d38:	01c12083          	lw	ra,28(sp)
    4d3c:	01412483          	lw	s1,20(sp)
    4d40:	01012903          	lw	s2,16(sp)
    4d44:	00c12983          	lw	s3,12(sp)
    4d48:	00458593          	addi	a1,a1,4
    4d4c:	02010113          	addi	sp,sp,32
    4d50:	17d0306f          	j	86cc <vListInsert>
    4d54:	f80980e3          	beqz	s3,4cd4 <prvAddCurrentTaskToDelayedList+0x70>
    4d58:	0001d797          	auipc	a5,0x1d
    4d5c:	82078793          	addi	a5,a5,-2016 # 21578 <xSuspendedTaskList>
    4d60:	0047a703          	lw	a4,4(a5)
    4d64:	0004a583          	lw	a1,0(s1)
    4d68:	0004a683          	lw	a3,0(s1)
    4d6c:	00872603          	lw	a2,8(a4)
    4d70:	00e5a423          	sw	a4,8(a1)
    4d74:	0004a583          	lw	a1,0(s1)
    4d78:	00c6a623          	sw	a2,12(a3)
    4d7c:	00872803          	lw	a6,8(a4)
    4d80:	0004a603          	lw	a2,0(s1)
    4d84:	0004a503          	lw	a0,0(s1)
    4d88:	0007a683          	lw	a3,0(a5)
    4d8c:	00458593          	addi	a1,a1,4
    4d90:	00b82223          	sw	a1,4(a6)
    4d94:	01c12083          	lw	ra,28(sp)
    4d98:	01812403          	lw	s0,24(sp)
    4d9c:	00460613          	addi	a2,a2,4
    4da0:	00c72423          	sw	a2,8(a4)
    4da4:	00168713          	addi	a4,a3,1
    4da8:	00f52a23          	sw	a5,20(a0)
    4dac:	00e7a023          	sw	a4,0(a5)
    4db0:	01412483          	lw	s1,20(sp)
    4db4:	01012903          	lw	s2,16(sp)
    4db8:	00c12983          	lw	s3,12(sp)
    4dbc:	02010113          	addi	sp,sp,32
    4dc0:	00008067          	ret

00004dc4 <vTaskSwitchContext.part.0>:
    4dc4:	ff010113          	addi	sp,sp,-16
    4dc8:	0001c797          	auipc	a5,0x1c
    4dcc:	6207ae23          	sw	zero,1596(a5) # 21404 <xYieldPending>
    4dd0:	00812423          	sw	s0,8(sp)
    4dd4:	0001c417          	auipc	s0,0x1c
    4dd8:	65840413          	addi	s0,s0,1624 # 2142c <pxCurrentTCB>
    4ddc:	00042703          	lw	a4,0(s0)
    4de0:	00042783          	lw	a5,0(s0)
    4de4:	00112623          	sw	ra,12(sp)
    4de8:	00072703          	lw	a4,0(a4)
    4dec:	0307a783          	lw	a5,48(a5)
    4df0:	00912223          	sw	s1,4(sp)
    4df4:	08e7f463          	bgeu	a5,a4,4e7c <vTaskSwitchContext.part.0+0xb8>
    4df8:	0001c497          	auipc	s1,0x1c
    4dfc:	62448493          	addi	s1,s1,1572 # 2141c <FreeRTOS_errno>
    4e00:	00042783          	lw	a5,0(s0)
    4e04:	0004a703          	lw	a4,0(s1)
    4e08:	0001c517          	auipc	a0,0x1c
    4e0c:	60852503          	lw	a0,1544(a0) # 21410 <uxTopReadyPriority>
    4e10:	04e7aa23          	sw	a4,84(a5)
    4e14:	1a5040ef          	jal	ra,97b8 <__clzsi2>
    4e18:	01f00793          	li	a5,31
    4e1c:	40a787b3          	sub	a5,a5,a0
    4e20:	00279513          	slli	a0,a5,0x2
    4e24:	00f50533          	add	a0,a0,a5
    4e28:	00251513          	slli	a0,a0,0x2
    4e2c:	0001c797          	auipc	a5,0x1c
    4e30:	74c78793          	addi	a5,a5,1868 # 21578 <xSuspendedTaskList>
    4e34:	00a787b3          	add	a5,a5,a0
    4e38:	0187a703          	lw	a4,24(a5)
    4e3c:	0001c697          	auipc	a3,0x1c
    4e40:	75868693          	addi	a3,a3,1880 # 21594 <pxReadyTasksLists+0x8>
    4e44:	00d50533          	add	a0,a0,a3
    4e48:	00472703          	lw	a4,4(a4)
    4e4c:	00e7ac23          	sw	a4,24(a5)
    4e50:	04a70063          	beq	a4,a0,4e90 <vTaskSwitchContext.part.0+0xcc>
    4e54:	00c72783          	lw	a5,12(a4)
    4e58:	00c12083          	lw	ra,12(sp)
    4e5c:	00f42023          	sw	a5,0(s0)
    4e60:	00042783          	lw	a5,0(s0)
    4e64:	00812403          	lw	s0,8(sp)
    4e68:	0547a783          	lw	a5,84(a5)
    4e6c:	00f4a023          	sw	a5,0(s1)
    4e70:	00412483          	lw	s1,4(sp)
    4e74:	01010113          	addi	sp,sp,16
    4e78:	00008067          	ret
    4e7c:	00042503          	lw	a0,0(s0)
    4e80:	00042583          	lw	a1,0(s0)
    4e84:	03458593          	addi	a1,a1,52
    4e88:	be4fc0ef          	jal	ra,126c <vApplicationStackOverflowHook>
    4e8c:	f6dff06f          	j	4df8 <vTaskSwitchContext.part.0+0x34>
    4e90:	00472703          	lw	a4,4(a4)
    4e94:	00e7ac23          	sw	a4,24(a5)
    4e98:	fbdff06f          	j	4e54 <vTaskSwitchContext.part.0+0x90>

00004e9c <prvInitialiseNewTask.constprop.0>:
    4e9c:	fe010113          	addi	sp,sp,-32
    4ea0:	01412423          	sw	s4,8(sp)
    4ea4:	00050a13          	mv	s4,a0
    4ea8:	03082503          	lw	a0,48(a6)
    4eac:	01312623          	sw	s3,12(sp)
    4eb0:	00261993          	slli	s3,a2,0x2
    4eb4:	00912a23          	sw	s1,20(sp)
    4eb8:	00098613          	mv	a2,s3
    4ebc:	00058493          	mv	s1,a1
    4ec0:	0a500593          	li	a1,165
    4ec4:	00812c23          	sw	s0,24(sp)
    4ec8:	01212823          	sw	s2,16(sp)
    4ecc:	01512223          	sw	s5,4(sp)
    4ed0:	01612023          	sw	s6,0(sp)
    4ed4:	00080413          	mv	s0,a6
    4ed8:	00078b13          	mv	s6,a5
    4edc:	00112e23          	sw	ra,28(sp)
    4ee0:	00068a93          	mv	s5,a3
    4ee4:	00070913          	mv	s2,a4
    4ee8:	184040ef          	jal	ra,906c <memset>
    4eec:	03042783          	lw	a5,48(s0)
    4ef0:	ffc98993          	addi	s3,s3,-4
    4ef4:	013789b3          	add	s3,a5,s3
    4ef8:	ff09f993          	andi	s3,s3,-16
    4efc:	0c048463          	beqz	s1,4fc4 <prvInitialiseNewTask.constprop.0+0x128>
    4f00:	00048593          	mv	a1,s1
    4f04:	03440813          	addi	a6,s0,52
    4f08:	00848793          	addi	a5,s1,8
    4f0c:	0005c883          	lbu	a7,0(a1)
    4f10:	00180813          	addi	a6,a6,1
    4f14:	00158593          	addi	a1,a1,1
    4f18:	ff180fa3          	sb	a7,-1(a6)
    4f1c:	00088463          	beqz	a7,4f24 <prvInitialiseNewTask.constprop.0+0x88>
    4f20:	fef596e3          	bne	a1,a5,4f0c <prvInitialiseNewTask.constprop.0+0x70>
    4f24:	02040da3          	sb	zero,59(s0)
    4f28:	00f00793          	li	a5,15
    4f2c:	0127f463          	bgeu	a5,s2,4f34 <prvInitialiseNewTask.constprop.0+0x98>
    4f30:	00f00913          	li	s2,15
    4f34:	00440513          	addi	a0,s0,4
    4f38:	03242623          	sw	s2,44(s0)
    4f3c:	05242023          	sw	s2,64(s0)
    4f40:	04042223          	sw	zero,68(s0)
    4f44:	750030ef          	jal	ra,8694 <vListInitialiseItem>
    4f48:	01840513          	addi	a0,s0,24
    4f4c:	748030ef          	jal	ra,8694 <vListInitialiseItem>
    4f50:	01000793          	li	a5,16
    4f54:	412784b3          	sub	s1,a5,s2
    4f58:	00842823          	sw	s0,16(s0)
    4f5c:	00942c23          	sw	s1,24(s0)
    4f60:	02842223          	sw	s0,36(s0)
    4f64:	02042e23          	sw	zero,60(s0)
    4f68:	04042423          	sw	zero,72(s0)
    4f6c:	04040623          	sb	zero,76(s0)
    4f70:	040406a3          	sb	zero,77(s0)
    4f74:	04040723          	sb	zero,78(s0)
    4f78:	040407a3          	sb	zero,79(s0)
    4f7c:	04040823          	sb	zero,80(s0)
    4f80:	000a8613          	mv	a2,s5
    4f84:	000a0593          	mv	a1,s4
    4f88:	00098513          	mv	a0,s3
    4f8c:	074030ef          	jal	ra,8000 <pxPortInitialiseStack>
    4f90:	00a42023          	sw	a0,0(s0)
    4f94:	000b0463          	beqz	s6,4f9c <prvInitialiseNewTask.constprop.0+0x100>
    4f98:	008b2023          	sw	s0,0(s6)
    4f9c:	01c12083          	lw	ra,28(sp)
    4fa0:	01812403          	lw	s0,24(sp)
    4fa4:	01412483          	lw	s1,20(sp)
    4fa8:	01012903          	lw	s2,16(sp)
    4fac:	00c12983          	lw	s3,12(sp)
    4fb0:	00812a03          	lw	s4,8(sp)
    4fb4:	00412a83          	lw	s5,4(sp)
    4fb8:	00012b03          	lw	s6,0(sp)
    4fbc:	02010113          	addi	sp,sp,32
    4fc0:	00008067          	ret
    4fc4:	02040a23          	sb	zero,52(s0)
    4fc8:	f61ff06f          	j	4f28 <prvInitialiseNewTask.constprop.0+0x8c>

00004fcc <prvIdleTask>:
    4fcc:	fe010113          	addi	sp,sp,-32
    4fd0:	00912a23          	sw	s1,20(sp)
    4fd4:	01212823          	sw	s2,16(sp)
    4fd8:	01312623          	sw	s3,12(sp)
    4fdc:	01412423          	sw	s4,8(sp)
    4fe0:	01512223          	sw	s5,4(sp)
    4fe4:	01612023          	sw	s6,0(sp)
    4fe8:	00112e23          	sw	ra,28(sp)
    4fec:	00812c23          	sw	s0,24(sp)
    4ff0:	0001c497          	auipc	s1,0x1c
    4ff4:	43048493          	addi	s1,s1,1072 # 21420 <uxDeletedTasksWaitingCleanUp>
    4ff8:	0001c997          	auipc	s3,0x1c
    4ffc:	41498993          	addi	s3,s3,1044 # 2140c <xSchedulerRunning>
    5000:	0001ca17          	auipc	s4,0x1c
    5004:	42ca0a13          	addi	s4,s4,1068 # 2142c <pxCurrentTCB>
    5008:	0001ca97          	auipc	s5,0x1c
    500c:	570a8a93          	addi	s5,s5,1392 # 21578 <xSuspendedTaskList>
    5010:	0001c917          	auipc	s2,0x1c
    5014:	40890913          	addi	s2,s2,1032 # 21418 <uxCurrentNumberOfTasks>
    5018:	00100b13          	li	s6,1
    501c:	0004a783          	lw	a5,0(s1)
    5020:	08078e63          	beqz	a5,50bc <prvIdleTask+0xf0>
    5024:	30047073          	csrci	mstatus,8
    5028:	0009a783          	lw	a5,0(s3)
    502c:	00078c63          	beqz	a5,5044 <prvIdleTask+0x78>
    5030:	000a2703          	lw	a4,0(s4)
    5034:	000a2783          	lw	a5,0(s4)
    5038:	03c72783          	lw	a5,60(a4)
    503c:	00178793          	addi	a5,a5,1
    5040:	02f72e23          	sw	a5,60(a4)
    5044:	160aa783          	lw	a5,352(s5)
    5048:	00c7a403          	lw	s0,12(a5)
    504c:	00440513          	addi	a0,s0,4
    5050:	6cc030ef          	jal	ra,871c <uxListRemove>
    5054:	00092783          	lw	a5,0(s2)
    5058:	fff78793          	addi	a5,a5,-1
    505c:	00f92023          	sw	a5,0(s2)
    5060:	0004a783          	lw	a5,0(s1)
    5064:	fff78793          	addi	a5,a5,-1
    5068:	00f4a023          	sw	a5,0(s1)
    506c:	0009a783          	lw	a5,0(s3)
    5070:	02078863          	beqz	a5,50a0 <prvIdleTask+0xd4>
    5074:	000a2783          	lw	a5,0(s4)
    5078:	03c7a783          	lw	a5,60(a5)
    507c:	02078263          	beqz	a5,50a0 <prvIdleTask+0xd4>
    5080:	000a2703          	lw	a4,0(s4)
    5084:	000a2683          	lw	a3,0(s4)
    5088:	03c72783          	lw	a5,60(a4)
    508c:	fff78793          	addi	a5,a5,-1
    5090:	02f72e23          	sw	a5,60(a4)
    5094:	03c6a783          	lw	a5,60(a3)
    5098:	00079463          	bnez	a5,50a0 <prvIdleTask+0xd4>
    509c:	30046073          	csrsi	mstatus,8
    50a0:	05144783          	lbu	a5,81(s0)
    50a4:	02078663          	beqz	a5,50d0 <prvIdleTask+0x104>
    50a8:	f7679ae3          	bne	a5,s6,501c <prvIdleTask+0x50>
    50ac:	00040513          	mv	a0,s0
    50b0:	37d020ef          	jal	ra,7c2c <vPortFree>
    50b4:	0004a783          	lw	a5,0(s1)
    50b8:	f60796e3          	bnez	a5,5024 <prvIdleTask+0x58>
    50bc:	014aa783          	lw	a5,20(s5)
    50c0:	00fb7463          	bgeu	s6,a5,50c8 <prvIdleTask+0xfc>
    50c4:	00000073          	ecall
    50c8:	9c4fc0ef          	jal	ra,128c <vApplicationIdleHook>
    50cc:	f51ff06f          	j	501c <prvIdleTask+0x50>
    50d0:	03042503          	lw	a0,48(s0)
    50d4:	359020ef          	jal	ra,7c2c <vPortFree>
    50d8:	00040513          	mv	a0,s0
    50dc:	351020ef          	jal	ra,7c2c <vPortFree>
    50e0:	f3dff06f          	j	501c <prvIdleTask+0x50>

000050e4 <xTaskIncrementTick.part.0>:
    50e4:	0001c797          	auipc	a5,0x1c
    50e8:	33078793          	addi	a5,a5,816 # 21414 <xTickCount>
    50ec:	0007a303          	lw	t1,0(a5)
    50f0:	fe010113          	addi	sp,sp,-32
    50f4:	00812c23          	sw	s0,24(sp)
    50f8:	00112e23          	sw	ra,28(sp)
    50fc:	00912a23          	sw	s1,20(sp)
    5100:	00130313          	addi	t1,t1,1
    5104:	0067a023          	sw	t1,0(a5)
    5108:	0001c417          	auipc	s0,0x1c
    510c:	2f040413          	addi	s0,s0,752 # 213f8 <xNextTaskUnblockTime>
    5110:	1c030063          	beqz	t1,52d0 <xTaskIncrementTick.part.0+0x1ec>
    5114:	00042783          	lw	a5,0(s0)
    5118:	12f36c63          	bltu	t1,a5,5250 <xTaskIncrementTick.part.0+0x16c>
    511c:	0001ce17          	auipc	t3,0x1c
    5120:	30ce0e13          	addi	t3,t3,780 # 21428 <pxDelayedTaskList>
    5124:	000e2783          	lw	a5,0(t3)
    5128:	00000513          	li	a0,0
    512c:	0001cf17          	auipc	t5,0x1c
    5130:	44cf0f13          	addi	t5,t5,1100 # 21578 <xSuspendedTaskList>
    5134:	0007a783          	lw	a5,0(a5)
    5138:	0001cf97          	auipc	t6,0x1c
    513c:	2f4f8f93          	addi	t6,t6,756 # 2142c <pxCurrentTCB>
    5140:	16078e63          	beqz	a5,52bc <xTaskIncrementTick.part.0+0x1d8>
    5144:	0001ce97          	auipc	t4,0x1c
    5148:	2cce8e93          	addi	t4,t4,716 # 21410 <uxTopReadyPriority>
    514c:	00100393          	li	t2,1
    5150:	0001c297          	auipc	t0,0x1c
    5154:	43c28293          	addi	t0,t0,1084 # 2158c <pxReadyTasksLists>
    5158:	0b80006f          	j	5210 <xTaskIncrementTick.part.0+0x12c>
    515c:	0006a603          	lw	a2,0(a3)
    5160:	0287a703          	lw	a4,40(a5)
    5164:	0007aa23          	sw	zero,20(a5)
    5168:	fff60613          	addi	a2,a2,-1
    516c:	00c6a023          	sw	a2,0(a3)
    5170:	02070863          	beqz	a4,51a0 <xTaskIncrementTick.part.0+0xbc>
    5174:	0207a603          	lw	a2,32(a5)
    5178:	01c7a683          	lw	a3,28(a5)
    517c:	00472803          	lw	a6,4(a4)
    5180:	00c6a423          	sw	a2,8(a3)
    5184:	0207a603          	lw	a2,32(a5)
    5188:	00d62223          	sw	a3,4(a2)
    518c:	13180e63          	beq	a6,a7,52c8 <xTaskIncrementTick.part.0+0x1e4>
    5190:	00072683          	lw	a3,0(a4)
    5194:	0207a423          	sw	zero,40(a5)
    5198:	fff68693          	addi	a3,a3,-1
    519c:	00d72023          	sw	a3,0(a4)
    51a0:	02c7a683          	lw	a3,44(a5)
    51a4:	000ea483          	lw	s1,0(t4)
    51a8:	00269713          	slli	a4,a3,0x2
    51ac:	00d70733          	add	a4,a4,a3
    51b0:	00271713          	slli	a4,a4,0x2
    51b4:	00ef0833          	add	a6,t5,a4
    51b8:	01882603          	lw	a2,24(a6)
    51bc:	00d398b3          	sll	a7,t2,a3
    51c0:	0098e8b3          	or	a7,a7,s1
    51c4:	00862483          	lw	s1,8(a2)
    51c8:	011ea023          	sw	a7,0(t4)
    51cc:	01482883          	lw	a7,20(a6)
    51d0:	0097a623          	sw	s1,12(a5)
    51d4:	00862483          	lw	s1,8(a2)
    51d8:	00c7a423          	sw	a2,8(a5)
    51dc:	00e28733          	add	a4,t0,a4
    51e0:	00b4a223          	sw	a1,4(s1)
    51e4:	00b62423          	sw	a1,8(a2)
    51e8:	00e7aa23          	sw	a4,20(a5)
    51ec:	00188893          	addi	a7,a7,1
    51f0:	01182a23          	sw	a7,20(a6)
    51f4:	000fa783          	lw	a5,0(t6)
    51f8:	02c7a783          	lw	a5,44(a5)
    51fc:	00f6e463          	bltu	a3,a5,5204 <xTaskIncrementTick.part.0+0x120>
    5200:	00100513          	li	a0,1
    5204:	000e2783          	lw	a5,0(t3)
    5208:	0007a783          	lw	a5,0(a5)
    520c:	0a078863          	beqz	a5,52bc <xTaskIncrementTick.part.0+0x1d8>
    5210:	000e2783          	lw	a5,0(t3)
    5214:	00c7a783          	lw	a5,12(a5)
    5218:	00c7a783          	lw	a5,12(a5)
    521c:	0047a703          	lw	a4,4(a5)
    5220:	00478593          	addi	a1,a5,4
    5224:	01878893          	addi	a7,a5,24
    5228:	10e36263          	bltu	t1,a4,532c <xTaskIncrementTick.part.0+0x248>
    522c:	0147a683          	lw	a3,20(a5)
    5230:	0087a603          	lw	a2,8(a5)
    5234:	00c7a703          	lw	a4,12(a5)
    5238:	0046a803          	lw	a6,4(a3)
    523c:	00e62423          	sw	a4,8(a2)
    5240:	00c72223          	sw	a2,4(a4)
    5244:	f0b81ce3          	bne	a6,a1,515c <xTaskIncrementTick.part.0+0x78>
    5248:	00e6a223          	sw	a4,4(a3)
    524c:	f11ff06f          	j	515c <xTaskIncrementTick.part.0+0x78>
    5250:	00000513          	li	a0,0
    5254:	0001cf17          	auipc	t5,0x1c
    5258:	324f0f13          	addi	t5,t5,804 # 21578 <xSuspendedTaskList>
    525c:	0001cf97          	auipc	t6,0x1c
    5260:	1d0f8f93          	addi	t6,t6,464 # 2142c <pxCurrentTCB>
    5264:	000fa783          	lw	a5,0(t6)
    5268:	00100693          	li	a3,1
    526c:	02c7a703          	lw	a4,44(a5)
    5270:	00271793          	slli	a5,a4,0x2
    5274:	00e787b3          	add	a5,a5,a4
    5278:	00279793          	slli	a5,a5,0x2
    527c:	00ff0f33          	add	t5,t5,a5
    5280:	014f2783          	lw	a5,20(t5)
    5284:	00f6f463          	bgeu	a3,a5,528c <xTaskIncrementTick.part.0+0x1a8>
    5288:	00100513          	li	a0,1
    528c:	0001c797          	auipc	a5,0x1c
    5290:	17c7a783          	lw	a5,380(a5) # 21408 <xPendedTicks>
    5294:	08078463          	beqz	a5,531c <xTaskIncrementTick.part.0+0x238>
    5298:	0001c797          	auipc	a5,0x1c
    529c:	16c7a783          	lw	a5,364(a5) # 21404 <xYieldPending>
    52a0:	00078463          	beqz	a5,52a8 <xTaskIncrementTick.part.0+0x1c4>
    52a4:	00100513          	li	a0,1
    52a8:	01c12083          	lw	ra,28(sp)
    52ac:	01812403          	lw	s0,24(sp)
    52b0:	01412483          	lw	s1,20(sp)
    52b4:	02010113          	addi	sp,sp,32
    52b8:	00008067          	ret
    52bc:	fff00793          	li	a5,-1
    52c0:	00f42023          	sw	a5,0(s0)
    52c4:	fa1ff06f          	j	5264 <xTaskIncrementTick.part.0+0x180>
    52c8:	00c72223          	sw	a2,4(a4)
    52cc:	ec5ff06f          	j	5190 <xTaskIncrementTick.part.0+0xac>
    52d0:	0001c797          	auipc	a5,0x1c
    52d4:	15878793          	addi	a5,a5,344 # 21428 <pxDelayedTaskList>
    52d8:	0001c717          	auipc	a4,0x1c
    52dc:	14c70713          	addi	a4,a4,332 # 21424 <pxOverflowDelayedTaskList>
    52e0:	0007a603          	lw	a2,0(a5)
    52e4:	00072583          	lw	a1,0(a4)
    52e8:	0001c697          	auipc	a3,0x1c
    52ec:	11868693          	addi	a3,a3,280 # 21400 <xNumOfOverflows>
    52f0:	00b7a023          	sw	a1,0(a5)
    52f4:	00c72023          	sw	a2,0(a4)
    52f8:	0006a703          	lw	a4,0(a3)
    52fc:	00170713          	addi	a4,a4,1
    5300:	00e6a023          	sw	a4,0(a3)
    5304:	0007a703          	lw	a4,0(a5)
    5308:	00072703          	lw	a4,0(a4)
    530c:	02071463          	bnez	a4,5334 <xTaskIncrementTick.part.0+0x250>
    5310:	fff00793          	li	a5,-1
    5314:	00f42023          	sw	a5,0(s0)
    5318:	dfdff06f          	j	5114 <xTaskIncrementTick.part.0+0x30>
    531c:	00a12623          	sw	a0,12(sp)
    5320:	f69fb0ef          	jal	ra,1288 <vApplicationTickHook>
    5324:	00c12503          	lw	a0,12(sp)
    5328:	f71ff06f          	j	5298 <xTaskIncrementTick.part.0+0x1b4>
    532c:	00e42023          	sw	a4,0(s0)
    5330:	f35ff06f          	j	5264 <xTaskIncrementTick.part.0+0x180>
    5334:	0007a783          	lw	a5,0(a5)
    5338:	00c7a783          	lw	a5,12(a5)
    533c:	0007a783          	lw	a5,0(a5)
    5340:	00f42023          	sw	a5,0(s0)
    5344:	dd1ff06f          	j	5114 <xTaskIncrementTick.part.0+0x30>

00005348 <uxTaskPriorityGet>:
    5348:	30047073          	csrci	mstatus,8
    534c:	0001c797          	auipc	a5,0x1c
    5350:	0c078793          	addi	a5,a5,192 # 2140c <xSchedulerRunning>
    5354:	0007a703          	lw	a4,0(a5)
    5358:	02070063          	beqz	a4,5378 <uxTaskPriorityGet+0x30>
    535c:	0001c717          	auipc	a4,0x1c
    5360:	0d070713          	addi	a4,a4,208 # 2142c <pxCurrentTCB>
    5364:	00072683          	lw	a3,0(a4)
    5368:	00072703          	lw	a4,0(a4)
    536c:	03c6a703          	lw	a4,60(a3)
    5370:	00170713          	addi	a4,a4,1
    5374:	02e6ae23          	sw	a4,60(a3)
    5378:	04050463          	beqz	a0,53c0 <uxTaskPriorityGet+0x78>
    537c:	0007a783          	lw	a5,0(a5)
    5380:	02c52503          	lw	a0,44(a0)
    5384:	02078c63          	beqz	a5,53bc <uxTaskPriorityGet+0x74>
    5388:	0001c797          	auipc	a5,0x1c
    538c:	0a478793          	addi	a5,a5,164 # 2142c <pxCurrentTCB>
    5390:	0007a703          	lw	a4,0(a5)
    5394:	03c72703          	lw	a4,60(a4)
    5398:	02070263          	beqz	a4,53bc <uxTaskPriorityGet+0x74>
    539c:	0007a703          	lw	a4,0(a5)
    53a0:	0007a683          	lw	a3,0(a5)
    53a4:	03c72783          	lw	a5,60(a4)
    53a8:	fff78793          	addi	a5,a5,-1
    53ac:	02f72e23          	sw	a5,60(a4)
    53b0:	03c6a783          	lw	a5,60(a3)
    53b4:	00079463          	bnez	a5,53bc <uxTaskPriorityGet+0x74>
    53b8:	30046073          	csrsi	mstatus,8
    53bc:	00008067          	ret
    53c0:	0001c517          	auipc	a0,0x1c
    53c4:	06c52503          	lw	a0,108(a0) # 2142c <pxCurrentTCB>
    53c8:	fb5ff06f          	j	537c <uxTaskPriorityGet+0x34>

