
perf.elf:     file format elf32-littleriscv


Disassembly of section .text:

00000000 <_start>:
       0:	00002297          	auipc	t0,0x2
       4:	8a028293          	addi	t0,t0,-1888 # 18a0 <trap_handler>
       8:	30529073          	csrw	mtvec,t0
       c:	00021297          	auipc	t0,0x21
      10:	3bc28293          	addi	t0,t0,956 # 213c8 <unsolicited_cycles>
      14:	00022317          	auipc	t1,0x22
      18:	7ec30313          	addi	t1,t1,2028 # 22800 <_bss_end>

0000001c <_bss_clear>:
      1c:	0002a023          	sw	zero,0(t0)
      20:	00428293          	addi	t0,t0,4
      24:	fe62ece3          	bltu	t0,t1,1c <_bss_clear>
      28:	00040117          	auipc	sp,0x40
      2c:	fd810113          	addi	sp,sp,-40 # 40000 <_stack>
      30:	031010ef          	jal	ra,1860 <main>
      34:	0e10106f          	j	1914 <exit>

00000038 <sem_get>:
      38:	fe010113          	addi	sp,sp,-32
      3c:	00812c23          	sw	s0,24(sp)
      40:	00912a23          	sw	s1,20(sp)
      44:	01212823          	sw	s2,16(sp)
      48:	01312623          	sw	s3,12(sp)
      4c:	01412423          	sw	s4,8(sp)
      50:	01512223          	sw	s5,4(sp)
      54:	00112e23          	sw	ra,28(sp)
      58:	00050a93          	mv	s5,a0
      5c:	00052023          	sw	zero,0(a0)
      60:	01400413          	li	s0,20
      64:	00021a17          	auipc	s4,0x21
      68:	378a0a13          	addi	s4,s4,888 # 213dc <xSemaphore>
      6c:	00021497          	auipc	s1,0x21
      70:	37c48493          	addi	s1,s1,892 # 213e8 <test_start>
      74:	00021997          	auipc	s3,0x21
      78:	37098993          	addi	s3,s3,880 # 213e4 <test_total>
      7c:	00021917          	auipc	s2,0x21
      80:	36490913          	addi	s2,s2,868 # 213e0 <test_max>
      84:	000a2503          	lw	a0,0(s4)
      88:	fff00593          	li	a1,-1
      8c:	298040ef          	jal	ra,4324 <xQueueSemaphoreTake>
      90:	c00027f3          	rdcycle	a5
      94:	0004a703          	lw	a4,0(s1)
      98:	fff40413          	addi	s0,s0,-1
      9c:	02070463          	beqz	a4,c4 <sem_get+0x8c>
      a0:	0004a603          	lw	a2,0(s1)
      a4:	0009a703          	lw	a4,0(s3)
      a8:	00092683          	lw	a3,0(s2)
      ac:	40c787b3          	sub	a5,a5,a2
      b0:	00f70733          	add	a4,a4,a5
      b4:	00e9a023          	sw	a4,0(s3)
      b8:	00f6f463          	bgeu	a3,a5,c0 <sem_get+0x88>
      bc:	00078693          	mv	a3,a5
      c0:	00d92023          	sw	a3,0(s2)
      c4:	fc0410e3          	bnez	s0,84 <sem_get+0x4c>
      c8:	01812403          	lw	s0,24(sp)
      cc:	00100793          	li	a5,1
      d0:	01c12083          	lw	ra,28(sp)
      d4:	01412483          	lw	s1,20(sp)
      d8:	01012903          	lw	s2,16(sp)
      dc:	00c12983          	lw	s3,12(sp)
      e0:	00812a03          	lw	s4,8(sp)
      e4:	00faa023          	sw	a5,0(s5)
      e8:	00412a83          	lw	s5,4(sp)
      ec:	00000513          	li	a0,0
      f0:	02010113          	addi	sp,sp,32
      f4:	29c0606f          	j	6390 <vTaskDelete>

000000f8 <unsolicited_background>:
      f8:	00021717          	auipc	a4,0x21
      fc:	2d470713          	addi	a4,a4,724 # 213cc <unsolicited_done>
     100:	00072783          	lw	a5,0(a4)
     104:	00079e63          	bnez	a5,120 <unsolicited_background+0x28>
     108:	00021697          	auipc	a3,0x21
     10c:	2c068693          	addi	a3,a3,704 # 213c8 <unsolicited_cycles>
     110:	c00027f3          	rdcycle	a5
     114:	00f6a023          	sw	a5,0(a3)
     118:	00072783          	lw	a5,0(a4)
     11c:	fe078ae3          	beqz	a5,110 <unsolicited_background+0x18>
     120:	00000513          	li	a0,0
     124:	26c0606f          	j	6390 <vTaskDelete>

00000128 <mutex_get>:
     128:	ff010113          	addi	sp,sp,-16
     12c:	00812423          	sw	s0,8(sp)
     130:	00912223          	sw	s1,4(sp)
     134:	01212023          	sw	s2,0(sp)
     138:	00112623          	sw	ra,12(sp)
     13c:	00050913          	mv	s2,a0
     140:	00052023          	sw	zero,0(a0)
     144:	01400413          	li	s0,20
     148:	00021497          	auipc	s1,0x21
     14c:	29048493          	addi	s1,s1,656 # 213d8 <xMutex>
     150:	0004a503          	lw	a0,0(s1)
     154:	fff00593          	li	a1,-1
     158:	fff40413          	addi	s0,s0,-1
     15c:	1c8040ef          	jal	ra,4324 <xQueueSemaphoreTake>
     160:	0004a503          	lw	a0,0(s1)
     164:	00000693          	li	a3,0
     168:	00000613          	li	a2,0
     16c:	00000593          	li	a1,0
     170:	341030ef          	jal	ra,3cb0 <xQueueGenericSend>
     174:	fc041ee3          	bnez	s0,150 <mutex_get+0x28>
     178:	00812403          	lw	s0,8(sp)
     17c:	00100793          	li	a5,1
     180:	00c12083          	lw	ra,12(sp)
     184:	00412483          	lw	s1,4(sp)
     188:	00f92023          	sw	a5,0(s2)
     18c:	00012903          	lw	s2,0(sp)
     190:	00000513          	li	a0,0
     194:	01010113          	addi	sp,sp,16
     198:	1f80606f          	j	6390 <vTaskDelete>

0000019c <mutex_get2>:
     19c:	fe010113          	addi	sp,sp,-32
     1a0:	00812c23          	sw	s0,24(sp)
     1a4:	00912a23          	sw	s1,20(sp)
     1a8:	01212823          	sw	s2,16(sp)
     1ac:	01312623          	sw	s3,12(sp)
     1b0:	01412423          	sw	s4,8(sp)
     1b4:	01512223          	sw	s5,4(sp)
     1b8:	01612023          	sw	s6,0(sp)
     1bc:	00112e23          	sw	ra,28(sp)
     1c0:	00050b13          	mv	s6,a0
     1c4:	00052023          	sw	zero,0(a0)
     1c8:	01400413          	li	s0,20
     1cc:	00021a97          	auipc	s5,0x21
     1d0:	210a8a93          	addi	s5,s5,528 # 213dc <xSemaphore>
     1d4:	00021997          	auipc	s3,0x21
     1d8:	20498993          	addi	s3,s3,516 # 213d8 <xMutex>
     1dc:	00021a17          	auipc	s4,0x21
     1e0:	20ca0a13          	addi	s4,s4,524 # 213e8 <test_start>
     1e4:	00021917          	auipc	s2,0x21
     1e8:	20090913          	addi	s2,s2,512 # 213e4 <test_total>
     1ec:	00021497          	auipc	s1,0x21
     1f0:	1f448493          	addi	s1,s1,500 # 213e0 <test_max>
     1f4:	000aa503          	lw	a0,0(s5)
     1f8:	fff00593          	li	a1,-1
     1fc:	128040ef          	jal	ra,4324 <xQueueSemaphoreTake>
     200:	0009a503          	lw	a0,0(s3)
     204:	fff00593          	li	a1,-1
     208:	11c040ef          	jal	ra,4324 <xQueueSemaphoreTake>
     20c:	c00027f3          	rdcycle	a5
     210:	000a2683          	lw	a3,0(s4)
     214:	00092703          	lw	a4,0(s2)
     218:	0004a803          	lw	a6,0(s1)
     21c:	40d787b3          	sub	a5,a5,a3
     220:	00f70733          	add	a4,a4,a5
     224:	00e92023          	sw	a4,0(s2)
     228:	0009a503          	lw	a0,0(s3)
     22c:	00000693          	li	a3,0
     230:	00000613          	li	a2,0
     234:	00000593          	li	a1,0
     238:	fff40413          	addi	s0,s0,-1
     23c:	00f87463          	bgeu	a6,a5,244 <mutex_get2+0xa8>
     240:	00078813          	mv	a6,a5
     244:	0104a023          	sw	a6,0(s1)
     248:	269030ef          	jal	ra,3cb0 <xQueueGenericSend>
     24c:	fa0414e3          	bnez	s0,1f4 <mutex_get2+0x58>
     250:	01812403          	lw	s0,24(sp)
     254:	00100793          	li	a5,1
     258:	01c12083          	lw	ra,28(sp)
     25c:	01412483          	lw	s1,20(sp)
     260:	01012903          	lw	s2,16(sp)
     264:	00c12983          	lw	s3,12(sp)
     268:	00812a03          	lw	s4,8(sp)
     26c:	00412a83          	lw	s5,4(sp)
     270:	00fb2023          	sw	a5,0(s6)
     274:	00012b03          	lw	s6,0(sp)
     278:	00000513          	li	a0,0
     27c:	02010113          	addi	sp,sp,32
     280:	1100606f          	j	6390 <vTaskDelete>

00000284 <unsolicited_hipriority>:
     284:	ff010113          	addi	sp,sp,-16
     288:	00812423          	sw	s0,8(sp)
     28c:	00912223          	sw	s1,4(sp)
     290:	01212023          	sw	s2,0(sp)
     294:	00112623          	sw	ra,12(sp)
     298:	01000493          	li	s1,16
     29c:	00021917          	auipc	s2,0x21
     2a0:	12c90913          	addi	s2,s2,300 # 213c8 <unsolicited_cycles>
     2a4:	00021417          	auipc	s0,0x21
     2a8:	1c840413          	addi	s0,s0,456 # 2146c <unsolicited_stats>
     2ac:	00a00513          	li	a0,10
     2b0:	281060ef          	jal	ra,6d30 <vTaskDelay>
     2b4:	c00027f3          	rdcycle	a5
     2b8:	00092603          	lw	a2,0(s2)
     2bc:	00042683          	lw	a3,0(s0)
     2c0:	00442703          	lw	a4,4(s0)
     2c4:	40c787b3          	sub	a5,a5,a2
     2c8:	00842603          	lw	a2,8(s0)
     2cc:	00168693          	addi	a3,a3,1
     2d0:	00f70733          	add	a4,a4,a5
     2d4:	00d42023          	sw	a3,0(s0)
     2d8:	00e42223          	sw	a4,4(s0)
     2dc:	fff48493          	addi	s1,s1,-1
     2e0:	00f65463          	bge	a2,a5,2e8 <unsolicited_hipriority+0x64>
     2e4:	00f42423          	sw	a5,8(s0)
     2e8:	fc0492e3          	bnez	s1,2ac <unsolicited_hipriority+0x28>
     2ec:	00812403          	lw	s0,8(sp)
     2f0:	00c12083          	lw	ra,12(sp)
     2f4:	00412483          	lw	s1,4(sp)
     2f8:	00012903          	lw	s2,0(sp)
     2fc:	00100793          	li	a5,1
     300:	00021717          	auipc	a4,0x21
     304:	0cf72623          	sw	a5,204(a4) # 213cc <unsolicited_done>
     308:	00000513          	li	a0,0
     30c:	01010113          	addi	sp,sp,16
     310:	0800606f          	j	6390 <vTaskDelete>

00000314 <sem_test>:
     314:	fe010113          	addi	sp,sp,-32
     318:	00112e23          	sw	ra,28(sp)
     31c:	00812c23          	sw	s0,24(sp)
     320:	00912a23          	sw	s1,20(sp)
     324:	01212823          	sw	s2,16(sp)
     328:	01312623          	sw	s3,12(sp)
     32c:	01512223          	sw	s5,4(sp)
     330:	01412423          	sw	s4,8(sp)
     334:	00052023          	sw	zero,0(a0)
     338:	00050993          	mv	s3,a0
     33c:	00020517          	auipc	a0,0x20
     340:	d9050513          	addi	a0,a0,-624 # 200cc <_impure_ptr+0x4>
     344:	1cc030ef          	jal	ra,3510 <printf_>
     348:	00000593          	li	a1,0
     34c:	01400513          	li	a0,20
     350:	0b5030ef          	jal	ra,3c04 <xQueueCreateCountingSemaphore>
     354:	00021917          	auipc	s2,0x21
     358:	08890913          	addi	s2,s2,136 # 213dc <xSemaphore>
     35c:	00a92023          	sw	a0,0(s2)
     360:	01400493          	li	s1,20
     364:	00000a93          	li	s5,0
     368:	00000413          	li	s0,0
     36c:	c0002a73          	rdcycle	s4
     370:	00000693          	li	a3,0
     374:	00000613          	li	a2,0
     378:	00000593          	li	a1,0
     37c:	135030ef          	jal	ra,3cb0 <xQueueGenericSend>
     380:	c00027f3          	rdcycle	a5
     384:	414787b3          	sub	a5,a5,s4
     388:	fff48493          	addi	s1,s1,-1
     38c:	00f40433          	add	s0,s0,a5
     390:	00faf463          	bgeu	s5,a5,398 <sem_test+0x84>
     394:	00078a93          	mv	s5,a5
     398:	00048663          	beqz	s1,3a4 <sem_test+0x90>
     39c:	00092503          	lw	a0,0(s2)
     3a0:	fcdff06f          	j	36c <sem_test+0x58>
     3a4:	01400593          	li	a1,20
     3a8:	02b455b3          	divu	a1,s0,a1
     3ac:	000a8613          	mv	a2,s5
     3b0:	00020517          	auipc	a0,0x20
     3b4:	d4c50513          	addi	a0,a0,-692 # 200fc <_impure_ptr+0x34>
     3b8:	00000a93          	li	s5,0
     3bc:	01400413          	li	s0,20
     3c0:	150030ef          	jal	ra,3510 <printf_>
     3c4:	c0002a73          	rdcycle	s4
     3c8:	00092503          	lw	a0,0(s2)
     3cc:	fff00593          	li	a1,-1
     3d0:	755030ef          	jal	ra,4324 <xQueueSemaphoreTake>
     3d4:	c00027f3          	rdcycle	a5
     3d8:	414787b3          	sub	a5,a5,s4
     3dc:	fff40413          	addi	s0,s0,-1
     3e0:	00f484b3          	add	s1,s1,a5
     3e4:	00faf463          	bgeu	s5,a5,3ec <sem_test+0xd8>
     3e8:	00078a93          	mv	s5,a5
     3ec:	fc041ce3          	bnez	s0,3c4 <sem_test+0xb0>
     3f0:	01400593          	li	a1,20
     3f4:	02b4d5b3          	divu	a1,s1,a1
     3f8:	000a8613          	mv	a2,s5
     3fc:	00020517          	auipc	a0,0x20
     400:	d4050513          	addi	a0,a0,-704 # 2013c <_impure_ptr+0x74>
     404:	00000a93          	li	s5,0
     408:	01400493          	li	s1,20
     40c:	104030ef          	jal	ra,3510 <printf_>
     410:	00000793          	li	a5,0
     414:	00400713          	li	a4,4
     418:	00021697          	auipc	a3,0x21
     41c:	06068693          	addi	a3,a3,96 # 21478 <uiTaskResponse>
     420:	40000613          	li	a2,1024
     424:	00020597          	auipc	a1,0x20
     428:	d5858593          	addi	a1,a1,-680 # 2017c <_impure_ptr+0xb4>
     42c:	00000517          	auipc	a0,0x0
     430:	c0c50513          	addi	a0,a0,-1012 # 38 <sem_get>
     434:	00021817          	auipc	a6,0x21
     438:	04082223          	sw	zero,68(a6) # 21478 <uiTaskResponse>
     43c:	5c5050ef          	jal	ra,6200 <xTaskCreate>
     440:	00100513          	li	a0,1
     444:	0ed060ef          	jal	ra,6d30 <vTaskDelay>
     448:	c0002a73          	rdcycle	s4
     44c:	00092503          	lw	a0,0(s2)
     450:	00000693          	li	a3,0
     454:	00000613          	li	a2,0
     458:	00000593          	li	a1,0
     45c:	055030ef          	jal	ra,3cb0 <xQueueGenericSend>
     460:	c00027f3          	rdcycle	a5
     464:	414787b3          	sub	a5,a5,s4
     468:	fff48493          	addi	s1,s1,-1
     46c:	00f40433          	add	s0,s0,a5
     470:	00faf463          	bgeu	s5,a5,478 <sem_test+0x164>
     474:	00078a93          	mv	s5,a5
     478:	fc0494e3          	bnez	s1,440 <sem_test+0x12c>
     47c:	00021a17          	auipc	s4,0x21
     480:	ff0a0a13          	addi	s4,s4,-16 # 2146c <unsolicited_stats>
     484:	00ca2783          	lw	a5,12(s4)
     488:	00079a63          	bnez	a5,49c <sem_test+0x188>
     48c:	00a00513          	li	a0,10
     490:	0a1060ef          	jal	ra,6d30 <vTaskDelay>
     494:	00ca2783          	lw	a5,12(s4)
     498:	fe078ae3          	beqz	a5,48c <sem_test+0x178>
     49c:	01400593          	li	a1,20
     4a0:	02b455b3          	divu	a1,s0,a1
     4a4:	000a8613          	mv	a2,s5
     4a8:	00020517          	auipc	a0,0x20
     4ac:	cdc50513          	addi	a0,a0,-804 # 20184 <_impure_ptr+0xbc>
     4b0:	01400413          	li	s0,20
     4b4:	00021497          	auipc	s1,0x21
     4b8:	f3448493          	addi	s1,s1,-204 # 213e8 <test_start>
     4bc:	054030ef          	jal	ra,3510 <printf_>
     4c0:	00000793          	li	a5,0
     4c4:	00600713          	li	a4,6
     4c8:	00021697          	auipc	a3,0x21
     4cc:	fb068693          	addi	a3,a3,-80 # 21478 <uiTaskResponse>
     4d0:	40000613          	li	a2,1024
     4d4:	00020597          	auipc	a1,0x20
     4d8:	ca858593          	addi	a1,a1,-856 # 2017c <_impure_ptr+0xb4>
     4dc:	00000517          	auipc	a0,0x0
     4e0:	b5c50513          	addi	a0,a0,-1188 # 38 <sem_get>
     4e4:	51d050ef          	jal	ra,6200 <xTaskCreate>
     4e8:	00021797          	auipc	a5,0x21
     4ec:	ee07ae23          	sw	zero,-260(a5) # 213e4 <test_total>
     4f0:	00021797          	auipc	a5,0x21
     4f4:	ee07a823          	sw	zero,-272(a5) # 213e0 <test_max>
     4f8:	c00027f3          	rdcycle	a5
     4fc:	00092503          	lw	a0,0(s2)
     500:	fff40413          	addi	s0,s0,-1
     504:	00000693          	li	a3,0
     508:	00000613          	li	a2,0
     50c:	00000593          	li	a1,0
     510:	00f4a023          	sw	a5,0(s1)
     514:	79c030ef          	jal	ra,3cb0 <xQueueGenericSend>
     518:	fe0410e3          	bnez	s0,4f8 <sem_test+0x1e4>
     51c:	00ca2783          	lw	a5,12(s4)
     520:	00079a63          	bnez	a5,534 <sem_test+0x220>
     524:	00a00513          	li	a0,10
     528:	009060ef          	jal	ra,6d30 <vTaskDelay>
     52c:	00ca2783          	lw	a5,12(s4)
     530:	fe078ae3          	beqz	a5,524 <sem_test+0x210>
     534:	01400793          	li	a5,20
     538:	00021597          	auipc	a1,0x21
     53c:	eac5a583          	lw	a1,-340(a1) # 213e4 <test_total>
     540:	02f5d5b3          	divu	a1,a1,a5
     544:	00021617          	auipc	a2,0x21
     548:	e9c62603          	lw	a2,-356(a2) # 213e0 <test_max>
     54c:	00020517          	auipc	a0,0x20
     550:	c7850513          	addi	a0,a0,-904 # 201c4 <_impure_ptr+0xfc>
     554:	7bd020ef          	jal	ra,3510 <printf_>
     558:	00092503          	lw	a0,0(s2)
     55c:	00100793          	li	a5,1
     560:	00f9a023          	sw	a5,0(s3)
     564:	3c4040ef          	jal	ra,4928 <vQueueDelete>
     568:	01812403          	lw	s0,24(sp)
     56c:	01c12083          	lw	ra,28(sp)
     570:	01412483          	lw	s1,20(sp)
     574:	01012903          	lw	s2,16(sp)
     578:	00c12983          	lw	s3,12(sp)
     57c:	00812a03          	lw	s4,8(sp)
     580:	00412a83          	lw	s5,4(sp)
     584:	00000513          	li	a0,0
     588:	02010113          	addi	sp,sp,32
     58c:	6050506f          	j	6390 <vTaskDelete>

00000590 <mutex_test>:
     590:	fd010113          	addi	sp,sp,-48
     594:	02112623          	sw	ra,44(sp)
     598:	02812423          	sw	s0,40(sp)
     59c:	01312e23          	sw	s3,28(sp)
     5a0:	01412c23          	sw	s4,24(sp)
     5a4:	02912223          	sw	s1,36(sp)
     5a8:	03212023          	sw	s2,32(sp)
     5ac:	01512a23          	sw	s5,20(sp)
     5b0:	01612823          	sw	s6,16(sp)
     5b4:	01712623          	sw	s7,12(sp)
     5b8:	01812423          	sw	s8,8(sp)
     5bc:	00052023          	sw	zero,0(a0)
     5c0:	00050a13          	mv	s4,a0
     5c4:	00020517          	auipc	a0,0x20
     5c8:	c4050513          	addi	a0,a0,-960 # 20204 <_impure_ptr+0x13c>
     5cc:	745020ef          	jal	ra,3510 <printf_>
     5d0:	00100513          	li	a0,1
     5d4:	189030ef          	jal	ra,3f5c <xQueueCreateMutex>
     5d8:	00050793          	mv	a5,a0
     5dc:	00021417          	auipc	s0,0x21
     5e0:	dfc40413          	addi	s0,s0,-516 # 213d8 <xMutex>
     5e4:	00300613          	li	a2,3
     5e8:	00000593          	li	a1,0
     5ec:	00100513          	li	a0,1
     5f0:	00f42023          	sw	a5,0(s0)
     5f4:	00021997          	auipc	s3,0x21
     5f8:	de898993          	addi	s3,s3,-536 # 213dc <xSemaphore>
     5fc:	444030ef          	jal	ra,3a40 <xQueueGenericCreate>
     600:	00a9a023          	sw	a0,0(s3)
     604:	00050a63          	beqz	a0,618 <mutex_test+0x88>
     608:	00000693          	li	a3,0
     60c:	00000613          	li	a2,0
     610:	00000593          	li	a1,0
     614:	69c030ef          	jal	ra,3cb0 <xQueueGenericSend>
     618:	00021797          	auipc	a5,0x21
     61c:	dc07a623          	sw	zero,-564(a5) # 213e4 <test_total>
     620:	00021797          	auipc	a5,0x21
     624:	dc07a023          	sw	zero,-576(a5) # 213e0 <test_max>
     628:	01400a93          	li	s5,20
     62c:	00000b93          	li	s7,0
     630:	00000b13          	li	s6,0
     634:	00021497          	auipc	s1,0x21
     638:	db048493          	addi	s1,s1,-592 # 213e4 <test_total>
     63c:	00021917          	auipc	s2,0x21
     640:	da490913          	addi	s2,s2,-604 # 213e0 <test_max>
     644:	c0002c73          	rdcycle	s8
     648:	00042503          	lw	a0,0(s0)
     64c:	fff00593          	li	a1,-1
     650:	4d5030ef          	jal	ra,4324 <xQueueSemaphoreTake>
     654:	c00027f3          	rdcycle	a5
     658:	0004a703          	lw	a4,0(s1)
     65c:	418787b3          	sub	a5,a5,s8
     660:	00092683          	lw	a3,0(s2)
     664:	00f70733          	add	a4,a4,a5
     668:	00e4a023          	sw	a4,0(s1)
     66c:	00f6f463          	bgeu	a3,a5,674 <mutex_test+0xe4>
     670:	00078693          	mv	a3,a5
     674:	00d92023          	sw	a3,0(s2)
     678:	c0002c73          	rdcycle	s8
     67c:	00042503          	lw	a0,0(s0)
     680:	00000693          	li	a3,0
     684:	00000613          	li	a2,0
     688:	00000593          	li	a1,0
     68c:	624030ef          	jal	ra,3cb0 <xQueueGenericSend>
     690:	c00027f3          	rdcycle	a5
     694:	418787b3          	sub	a5,a5,s8
     698:	fffa8a93          	addi	s5,s5,-1
     69c:	00fb0b33          	add	s6,s6,a5
     6a0:	00fbf463          	bgeu	s7,a5,6a8 <mutex_test+0x118>
     6a4:	00078b93          	mv	s7,a5
     6a8:	f80a9ee3          	bnez	s5,644 <mutex_test+0xb4>
     6ac:	0004a583          	lw	a1,0(s1)
     6b0:	01400c13          	li	s8,20
     6b4:	00092603          	lw	a2,0(s2)
     6b8:	0385d5b3          	divu	a1,a1,s8
     6bc:	00020517          	auipc	a0,0x20
     6c0:	b7050513          	addi	a0,a0,-1168 # 2022c <_impure_ptr+0x164>
     6c4:	01400a93          	li	s5,20
     6c8:	649020ef          	jal	ra,3510 <printf_>
     6cc:	038b55b3          	divu	a1,s6,s8
     6d0:	000b8613          	mv	a2,s7
     6d4:	00020517          	auipc	a0,0x20
     6d8:	b9850513          	addi	a0,a0,-1128 # 2026c <_impure_ptr+0x1a4>
     6dc:	635020ef          	jal	ra,3510 <printf_>
     6e0:	00000793          	li	a5,0
     6e4:	00400713          	li	a4,4
     6e8:	00021697          	auipc	a3,0x21
     6ec:	d9468693          	addi	a3,a3,-620 # 2147c <uiTaskResponse+0x4>
     6f0:	40000613          	li	a2,1024
     6f4:	00020597          	auipc	a1,0x20
     6f8:	bb858593          	addi	a1,a1,-1096 # 202ac <_impure_ptr+0x1e4>
     6fc:	00000517          	auipc	a0,0x0
     700:	a2c50513          	addi	a0,a0,-1492 # 128 <mutex_get>
     704:	00021817          	auipc	a6,0x21
     708:	d6082c23          	sw	zero,-648(a6) # 2147c <uiTaskResponse+0x4>
     70c:	2f5050ef          	jal	ra,6200 <xTaskCreate>
     710:	00021797          	auipc	a5,0x21
     714:	cc07aa23          	sw	zero,-812(a5) # 213e4 <test_total>
     718:	00021797          	auipc	a5,0x21
     71c:	cc07a423          	sw	zero,-824(a5) # 213e0 <test_max>
     720:	00042503          	lw	a0,0(s0)
     724:	fff00593          	li	a1,-1
     728:	3fd030ef          	jal	ra,4324 <xQueueSemaphoreTake>
     72c:	00100513          	li	a0,1
     730:	600060ef          	jal	ra,6d30 <vTaskDelay>
     734:	c0002b73          	rdcycle	s6
     738:	00042503          	lw	a0,0(s0)
     73c:	00000693          	li	a3,0
     740:	00000613          	li	a2,0
     744:	00000593          	li	a1,0
     748:	568030ef          	jal	ra,3cb0 <xQueueGenericSend>
     74c:	c00027f3          	rdcycle	a5
     750:	0004a703          	lw	a4,0(s1)
     754:	416787b3          	sub	a5,a5,s6
     758:	00092603          	lw	a2,0(s2)
     75c:	00e78733          	add	a4,a5,a4
     760:	00e4a023          	sw	a4,0(s1)
     764:	fffa8a93          	addi	s5,s5,-1
     768:	00f67463          	bgeu	a2,a5,770 <mutex_test+0x1e0>
     76c:	00078613          	mv	a2,a5
     770:	00c92023          	sw	a2,0(s2)
     774:	fa0a96e3          	bnez	s5,720 <mutex_test+0x190>
     778:	00021b97          	auipc	s7,0x21
     77c:	cf4b8b93          	addi	s7,s7,-780 # 2146c <unsolicited_stats>
     780:	010ba783          	lw	a5,16(s7)
     784:	00079e63          	bnez	a5,7a0 <mutex_test+0x210>
     788:	00a00513          	li	a0,10
     78c:	5a4060ef          	jal	ra,6d30 <vTaskDelay>
     790:	010ba783          	lw	a5,16(s7)
     794:	fe078ae3          	beqz	a5,788 <mutex_test+0x1f8>
     798:	0004a703          	lw	a4,0(s1)
     79c:	00092603          	lw	a2,0(s2)
     7a0:	01400593          	li	a1,20
     7a4:	02b755b3          	divu	a1,a4,a1
     7a8:	00020517          	auipc	a0,0x20
     7ac:	b1050513          	addi	a0,a0,-1264 # 202b8 <_impure_ptr+0x1f0>
     7b0:	01400a93          	li	s5,20
     7b4:	00021b17          	auipc	s6,0x21
     7b8:	c34b0b13          	addi	s6,s6,-972 # 213e8 <test_start>
     7bc:	555020ef          	jal	ra,3510 <printf_>
     7c0:	00000793          	li	a5,0
     7c4:	00600713          	li	a4,6
     7c8:	00021697          	auipc	a3,0x21
     7cc:	cb468693          	addi	a3,a3,-844 # 2147c <uiTaskResponse+0x4>
     7d0:	40000613          	li	a2,1024
     7d4:	00020597          	auipc	a1,0x20
     7d8:	b2458593          	addi	a1,a1,-1244 # 202f8 <_impure_ptr+0x230>
     7dc:	00000517          	auipc	a0,0x0
     7e0:	9c050513          	addi	a0,a0,-1600 # 19c <mutex_get2>
     7e4:	21d050ef          	jal	ra,6200 <xTaskCreate>
     7e8:	00021797          	auipc	a5,0x21
     7ec:	be07ae23          	sw	zero,-1028(a5) # 213e4 <test_total>
     7f0:	00021797          	auipc	a5,0x21
     7f4:	be07a823          	sw	zero,-1040(a5) # 213e0 <test_max>
     7f8:	00042503          	lw	a0,0(s0)
     7fc:	fff00593          	li	a1,-1
     800:	325030ef          	jal	ra,4324 <xQueueSemaphoreTake>
     804:	0009a503          	lw	a0,0(s3)
     808:	00000693          	li	a3,0
     80c:	00000613          	li	a2,0
     810:	00000593          	li	a1,0
     814:	49c030ef          	jal	ra,3cb0 <xQueueGenericSend>
     818:	c00027f3          	rdcycle	a5
     81c:	00042503          	lw	a0,0(s0)
     820:	fffa8a93          	addi	s5,s5,-1
     824:	00000693          	li	a3,0
     828:	00000613          	li	a2,0
     82c:	00000593          	li	a1,0
     830:	00fb2023          	sw	a5,0(s6)
     834:	47c030ef          	jal	ra,3cb0 <xQueueGenericSend>
     838:	fc0a90e3          	bnez	s5,7f8 <mutex_test+0x268>
     83c:	010ba783          	lw	a5,16(s7)
     840:	00079a63          	bnez	a5,854 <mutex_test+0x2c4>
     844:	00a00513          	li	a0,10
     848:	4e8060ef          	jal	ra,6d30 <vTaskDelay>
     84c:	010ba783          	lw	a5,16(s7)
     850:	fe078ae3          	beqz	a5,844 <mutex_test+0x2b4>
     854:	0004a583          	lw	a1,0(s1)
     858:	01400793          	li	a5,20
     85c:	00092603          	lw	a2,0(s2)
     860:	02f5d5b3          	divu	a1,a1,a5
     864:	00020517          	auipc	a0,0x20
     868:	aa050513          	addi	a0,a0,-1376 # 20304 <_impure_ptr+0x23c>
     86c:	4a5020ef          	jal	ra,3510 <printf_>
     870:	0009a503          	lw	a0,0(s3)
     874:	0b4040ef          	jal	ra,4928 <vQueueDelete>
     878:	00042503          	lw	a0,0(s0)
     87c:	0ac040ef          	jal	ra,4928 <vQueueDelete>
     880:	00100793          	li	a5,1
     884:	02812403          	lw	s0,40(sp)
     888:	02c12083          	lw	ra,44(sp)
     88c:	02412483          	lw	s1,36(sp)
     890:	02012903          	lw	s2,32(sp)
     894:	01c12983          	lw	s3,28(sp)
     898:	01412a83          	lw	s5,20(sp)
     89c:	01012b03          	lw	s6,16(sp)
     8a0:	00c12b83          	lw	s7,12(sp)
     8a4:	00812c03          	lw	s8,8(sp)
     8a8:	00fa2023          	sw	a5,0(s4)
     8ac:	01812a03          	lw	s4,24(sp)
     8b0:	00000513          	li	a0,0
     8b4:	03010113          	addi	sp,sp,48
     8b8:	2d90506f          	j	6390 <vTaskDelete>

000008bc <event_get>:
     8bc:	fe010113          	addi	sp,sp,-32
     8c0:	00812c23          	sw	s0,24(sp)
     8c4:	00912a23          	sw	s1,20(sp)
     8c8:	01212823          	sw	s2,16(sp)
     8cc:	01312623          	sw	s3,12(sp)
     8d0:	00112e23          	sw	ra,28(sp)
     8d4:	000104b7          	lui	s1,0x10
     8d8:	00050993          	mv	s3,a0
     8dc:	00052023          	sw	zero,0(a0)
     8e0:	01400413          	li	s0,20
     8e4:	00021917          	auipc	s2,0x21
     8e8:	af090913          	addi	s2,s2,-1296 # 213d4 <xGroupEvents>
     8ec:	fff48493          	addi	s1,s1,-1 # ffff <_text_end+0x3edf>
     8f0:	00092503          	lw	a0,0(s2)
     8f4:	00048593          	mv	a1,s1
     8f8:	fff00713          	li	a4,-1
     8fc:	00100693          	li	a3,1
     900:	00000613          	li	a2,0
     904:	6ed060ef          	jal	ra,77f0 <xEventGroupWaitBits>
     908:	00092503          	lw	a0,0(s2)
     90c:	fff40413          	addi	s0,s0,-1
     910:	00048593          	mv	a1,s1
     914:	7f9060ef          	jal	ra,790c <xEventGroupClearBits>
     918:	fc041ce3          	bnez	s0,8f0 <event_get+0x34>
     91c:	01812403          	lw	s0,24(sp)
     920:	00100793          	li	a5,1
     924:	01c12083          	lw	ra,28(sp)
     928:	01412483          	lw	s1,20(sp)
     92c:	01012903          	lw	s2,16(sp)
     930:	00f9a023          	sw	a5,0(s3)
     934:	00c12983          	lw	s3,12(sp)
     938:	00000513          	li	a0,0
     93c:	02010113          	addi	sp,sp,32
     940:	2510506f          	j	6390 <vTaskDelete>

00000944 <event_get2>:
     944:	fd010113          	addi	sp,sp,-48
     948:	02812423          	sw	s0,40(sp)
     94c:	02912223          	sw	s1,36(sp)
     950:	03212023          	sw	s2,32(sp)
     954:	01312e23          	sw	s3,28(sp)
     958:	01412c23          	sw	s4,24(sp)
     95c:	01512a23          	sw	s5,20(sp)
     960:	01612823          	sw	s6,16(sp)
     964:	01712623          	sw	s7,12(sp)
     968:	02112623          	sw	ra,44(sp)
     96c:	000104b7          	lui	s1,0x10
     970:	00050b93          	mv	s7,a0
     974:	00052023          	sw	zero,0(a0)
     978:	01400413          	li	s0,20
     97c:	00021b17          	auipc	s6,0x21
     980:	a60b0b13          	addi	s6,s6,-1440 # 213dc <xSemaphore>
     984:	00021a17          	auipc	s4,0x21
     988:	a50a0a13          	addi	s4,s4,-1456 # 213d4 <xGroupEvents>
     98c:	00021a97          	auipc	s5,0x21
     990:	a5ca8a93          	addi	s5,s5,-1444 # 213e8 <test_start>
     994:	00021997          	auipc	s3,0x21
     998:	a5098993          	addi	s3,s3,-1456 # 213e4 <test_total>
     99c:	00021917          	auipc	s2,0x21
     9a0:	a4490913          	addi	s2,s2,-1468 # 213e0 <test_max>
     9a4:	fff48493          	addi	s1,s1,-1 # ffff <_text_end+0x3edf>
     9a8:	000b2503          	lw	a0,0(s6)
     9ac:	fff00593          	li	a1,-1
     9b0:	175030ef          	jal	ra,4324 <xQueueSemaphoreTake>
     9b4:	000a2503          	lw	a0,0(s4)
     9b8:	fff00713          	li	a4,-1
     9bc:	00100693          	li	a3,1
     9c0:	00000613          	li	a2,0
     9c4:	00048593          	mv	a1,s1
     9c8:	629060ef          	jal	ra,77f0 <xEventGroupWaitBits>
     9cc:	c00027f3          	rdcycle	a5
     9d0:	000aa603          	lw	a2,0(s5)
     9d4:	0009a703          	lw	a4,0(s3)
     9d8:	00092683          	lw	a3,0(s2)
     9dc:	40c787b3          	sub	a5,a5,a2
     9e0:	00f70733          	add	a4,a4,a5
     9e4:	00e9a023          	sw	a4,0(s3)
     9e8:	000a2503          	lw	a0,0(s4)
     9ec:	00048593          	mv	a1,s1
     9f0:	fff40413          	addi	s0,s0,-1
     9f4:	00f6f463          	bgeu	a3,a5,9fc <event_get2+0xb8>
     9f8:	00078693          	mv	a3,a5
     9fc:	00d92023          	sw	a3,0(s2)
     a00:	70d060ef          	jal	ra,790c <xEventGroupClearBits>
     a04:	fa0412e3          	bnez	s0,9a8 <event_get2+0x64>
     a08:	02812403          	lw	s0,40(sp)
     a0c:	00100793          	li	a5,1
     a10:	02c12083          	lw	ra,44(sp)
     a14:	02412483          	lw	s1,36(sp)
     a18:	02012903          	lw	s2,32(sp)
     a1c:	01c12983          	lw	s3,28(sp)
     a20:	01812a03          	lw	s4,24(sp)
     a24:	01412a83          	lw	s5,20(sp)
     a28:	01012b03          	lw	s6,16(sp)
     a2c:	00fba023          	sw	a5,0(s7)
     a30:	00c12b83          	lw	s7,12(sp)
     a34:	00000513          	li	a0,0
     a38:	03010113          	addi	sp,sp,48
     a3c:	1550506f          	j	6390 <vTaskDelete>

00000a40 <event_test>:
     a40:	fd010113          	addi	sp,sp,-48
     a44:	02112623          	sw	ra,44(sp)
     a48:	02812423          	sw	s0,40(sp)
     a4c:	01312e23          	sw	s3,28(sp)
     a50:	01412c23          	sw	s4,24(sp)
     a54:	02912223          	sw	s1,36(sp)
     a58:	03212023          	sw	s2,32(sp)
     a5c:	01512a23          	sw	s5,20(sp)
     a60:	01612823          	sw	s6,16(sp)
     a64:	01712623          	sw	s7,12(sp)
     a68:	01812423          	sw	s8,8(sp)
     a6c:	01912223          	sw	s9,4(sp)
     a70:	00052023          	sw	zero,0(a0)
     a74:	00050a13          	mv	s4,a0
     a78:	00020517          	auipc	a0,0x20
     a7c:	8cc50513          	addi	a0,a0,-1844 # 20344 <_impure_ptr+0x27c>
     a80:	291020ef          	jal	ra,3510 <printf_>
     a84:	52d060ef          	jal	ra,77b0 <xEventGroupCreate>
     a88:	00050793          	mv	a5,a0
     a8c:	00021417          	auipc	s0,0x21
     a90:	94840413          	addi	s0,s0,-1720 # 213d4 <xGroupEvents>
     a94:	00300613          	li	a2,3
     a98:	00000593          	li	a1,0
     a9c:	00100513          	li	a0,1
     aa0:	00f42023          	sw	a5,0(s0)
     aa4:	00021997          	auipc	s3,0x21
     aa8:	93898993          	addi	s3,s3,-1736 # 213dc <xSemaphore>
     aac:	795020ef          	jal	ra,3a40 <xQueueGenericCreate>
     ab0:	00a9a023          	sw	a0,0(s3)
     ab4:	00050a63          	beqz	a0,ac8 <event_test+0x88>
     ab8:	00000693          	li	a3,0
     abc:	00000613          	li	a2,0
     ac0:	00000593          	li	a1,0
     ac4:	1ec030ef          	jal	ra,3cb0 <xQueueGenericSend>
     ac8:	00010c37          	lui	s8,0x10
     acc:	00021797          	auipc	a5,0x21
     ad0:	9007ac23          	sw	zero,-1768(a5) # 213e4 <test_total>
     ad4:	00021797          	auipc	a5,0x21
     ad8:	9007a623          	sw	zero,-1780(a5) # 213e0 <test_max>
     adc:	01400a93          	li	s5,20
     ae0:	00000b93          	li	s7,0
     ae4:	00000b13          	li	s6,0
     ae8:	00021497          	auipc	s1,0x21
     aec:	8fc48493          	addi	s1,s1,-1796 # 213e4 <test_total>
     af0:	00021917          	auipc	s2,0x21
     af4:	8f090913          	addi	s2,s2,-1808 # 213e0 <test_max>
     af8:	fffc0c13          	addi	s8,s8,-1 # ffff <_text_end+0x3edf>
     afc:	c0002cf3          	rdcycle	s9
     b00:	00042503          	lw	a0,0(s0)
     b04:	000c0593          	mv	a1,s8
     b08:	65d060ef          	jal	ra,7964 <xEventGroupSetBits>
     b0c:	c00027f3          	rdcycle	a5
     b10:	0004a703          	lw	a4,0(s1)
     b14:	419787b3          	sub	a5,a5,s9
     b18:	00092683          	lw	a3,0(s2)
     b1c:	00f70733          	add	a4,a4,a5
     b20:	00e4a023          	sw	a4,0(s1)
     b24:	00f6f463          	bgeu	a3,a5,b2c <event_test+0xec>
     b28:	00078693          	mv	a3,a5
     b2c:	00d92023          	sw	a3,0(s2)
     b30:	c0002cf3          	rdcycle	s9
     b34:	00042503          	lw	a0,0(s0)
     b38:	000c0593          	mv	a1,s8
     b3c:	5d1060ef          	jal	ra,790c <xEventGroupClearBits>
     b40:	c00027f3          	rdcycle	a5
     b44:	419787b3          	sub	a5,a5,s9
     b48:	fffa8a93          	addi	s5,s5,-1
     b4c:	00fb0b33          	add	s6,s6,a5
     b50:	00fbf463          	bgeu	s7,a5,b58 <event_test+0x118>
     b54:	00078b93          	mv	s7,a5
     b58:	fa0a92e3          	bnez	s5,afc <event_test+0xbc>
     b5c:	0004a583          	lw	a1,0(s1)
     b60:	01400c13          	li	s8,20
     b64:	00092603          	lw	a2,0(s2)
     b68:	0385d5b3          	divu	a1,a1,s8
     b6c:	00020517          	auipc	a0,0x20
     b70:	80050513          	addi	a0,a0,-2048 # 2036c <_impure_ptr+0x2a4>
     b74:	01400a93          	li	s5,20
     b78:	199020ef          	jal	ra,3510 <printf_>
     b7c:	038b55b3          	divu	a1,s6,s8
     b80:	000b8613          	mv	a2,s7
     b84:	00020517          	auipc	a0,0x20
     b88:	82850513          	addi	a0,a0,-2008 # 203ac <_impure_ptr+0x2e4>
     b8c:	00010b37          	lui	s6,0x10
     b90:	fffb0b13          	addi	s6,s6,-1 # ffff <_text_end+0x3edf>
     b94:	17d020ef          	jal	ra,3510 <printf_>
     b98:	00000793          	li	a5,0
     b9c:	00400713          	li	a4,4
     ba0:	00021697          	auipc	a3,0x21
     ba4:	8dc68693          	addi	a3,a3,-1828 # 2147c <uiTaskResponse+0x4>
     ba8:	40000613          	li	a2,1024
     bac:	00020597          	auipc	a1,0x20
     bb0:	84058593          	addi	a1,a1,-1984 # 203ec <_impure_ptr+0x324>
     bb4:	00000517          	auipc	a0,0x0
     bb8:	d0850513          	addi	a0,a0,-760 # 8bc <event_get>
     bbc:	00021817          	auipc	a6,0x21
     bc0:	8c082023          	sw	zero,-1856(a6) # 2147c <uiTaskResponse+0x4>
     bc4:	63c050ef          	jal	ra,6200 <xTaskCreate>
     bc8:	00021797          	auipc	a5,0x21
     bcc:	8007ae23          	sw	zero,-2020(a5) # 213e4 <test_total>
     bd0:	00021797          	auipc	a5,0x21
     bd4:	8007a823          	sw	zero,-2032(a5) # 213e0 <test_max>
     bd8:	00042503          	lw	a0,0(s0)
     bdc:	000b0593          	mv	a1,s6
     be0:	52d060ef          	jal	ra,790c <xEventGroupClearBits>
     be4:	00100513          	li	a0,1
     be8:	148060ef          	jal	ra,6d30 <vTaskDelay>
     bec:	c0002bf3          	rdcycle	s7
     bf0:	00042503          	lw	a0,0(s0)
     bf4:	000b0593          	mv	a1,s6
     bf8:	56d060ef          	jal	ra,7964 <xEventGroupSetBits>
     bfc:	c00027f3          	rdcycle	a5
     c00:	0004a703          	lw	a4,0(s1)
     c04:	417787b3          	sub	a5,a5,s7
     c08:	00092603          	lw	a2,0(s2)
     c0c:	00e78733          	add	a4,a5,a4
     c10:	00e4a023          	sw	a4,0(s1)
     c14:	fffa8a93          	addi	s5,s5,-1
     c18:	00f67463          	bgeu	a2,a5,c20 <event_test+0x1e0>
     c1c:	00078613          	mv	a2,a5
     c20:	00c92023          	sw	a2,0(s2)
     c24:	fa0a9ae3          	bnez	s5,bd8 <event_test+0x198>
     c28:	00021b97          	auipc	s7,0x21
     c2c:	844b8b93          	addi	s7,s7,-1980 # 2146c <unsolicited_stats>
     c30:	010ba783          	lw	a5,16(s7)
     c34:	00079e63          	bnez	a5,c50 <event_test+0x210>
     c38:	06400513          	li	a0,100
     c3c:	0f4060ef          	jal	ra,6d30 <vTaskDelay>
     c40:	010ba783          	lw	a5,16(s7)
     c44:	fe078ae3          	beqz	a5,c38 <event_test+0x1f8>
     c48:	0004a703          	lw	a4,0(s1)
     c4c:	00092603          	lw	a2,0(s2)
     c50:	01400593          	li	a1,20
     c54:	02b755b3          	divu	a1,a4,a1
     c58:	0001f517          	auipc	a0,0x1f
     c5c:	7a050513          	addi	a0,a0,1952 # 203f8 <_impure_ptr+0x330>
     c60:	00010b37          	lui	s6,0x10
     c64:	01400a93          	li	s5,20
     c68:	00020c17          	auipc	s8,0x20
     c6c:	780c0c13          	addi	s8,s8,1920 # 213e8 <test_start>
     c70:	fffb0b13          	addi	s6,s6,-1 # ffff <_text_end+0x3edf>
     c74:	09d020ef          	jal	ra,3510 <printf_>
     c78:	00000793          	li	a5,0
     c7c:	00600713          	li	a4,6
     c80:	00020697          	auipc	a3,0x20
     c84:	7fc68693          	addi	a3,a3,2044 # 2147c <uiTaskResponse+0x4>
     c88:	40000613          	li	a2,1024
     c8c:	0001f597          	auipc	a1,0x1f
     c90:	7ac58593          	addi	a1,a1,1964 # 20438 <_impure_ptr+0x370>
     c94:	00000517          	auipc	a0,0x0
     c98:	cb050513          	addi	a0,a0,-848 # 944 <event_get2>
     c9c:	00020817          	auipc	a6,0x20
     ca0:	7e082023          	sw	zero,2016(a6) # 2147c <uiTaskResponse+0x4>
     ca4:	55c050ef          	jal	ra,6200 <xTaskCreate>
     ca8:	00020797          	auipc	a5,0x20
     cac:	7207ae23          	sw	zero,1852(a5) # 213e4 <test_total>
     cb0:	00020797          	auipc	a5,0x20
     cb4:	7207a823          	sw	zero,1840(a5) # 213e0 <test_max>
     cb8:	00042503          	lw	a0,0(s0)
     cbc:	000b0593          	mv	a1,s6
     cc0:	44d060ef          	jal	ra,790c <xEventGroupClearBits>
     cc4:	0009a503          	lw	a0,0(s3)
     cc8:	00000693          	li	a3,0
     ccc:	00000613          	li	a2,0
     cd0:	00000593          	li	a1,0
     cd4:	7dd020ef          	jal	ra,3cb0 <xQueueGenericSend>
     cd8:	c00027f3          	rdcycle	a5
     cdc:	00042503          	lw	a0,0(s0)
     ce0:	fffa8a93          	addi	s5,s5,-1
     ce4:	000b0593          	mv	a1,s6
     ce8:	00fc2023          	sw	a5,0(s8)
     cec:	479060ef          	jal	ra,7964 <xEventGroupSetBits>
     cf0:	fc0a94e3          	bnez	s5,cb8 <event_test+0x278>
     cf4:	010ba783          	lw	a5,16(s7)
     cf8:	00079a63          	bnez	a5,d0c <event_test+0x2cc>
     cfc:	06400513          	li	a0,100
     d00:	030060ef          	jal	ra,6d30 <vTaskDelay>
     d04:	010ba783          	lw	a5,16(s7)
     d08:	fe078ae3          	beqz	a5,cfc <event_test+0x2bc>
     d0c:	0004a583          	lw	a1,0(s1)
     d10:	01400793          	li	a5,20
     d14:	00092603          	lw	a2,0(s2)
     d18:	02f5d5b3          	divu	a1,a1,a5
     d1c:	0001f517          	auipc	a0,0x1f
     d20:	72850513          	addi	a0,a0,1832 # 20444 <_impure_ptr+0x37c>
     d24:	7ec020ef          	jal	ra,3510 <printf_>
     d28:	0009a503          	lw	a0,0(s3)
     d2c:	3fd030ef          	jal	ra,4928 <vQueueDelete>
     d30:	00042503          	lw	a0,0(s0)
     d34:	611060ef          	jal	ra,7b44 <vEventGroupDelete>
     d38:	00100793          	li	a5,1
     d3c:	02812403          	lw	s0,40(sp)
     d40:	02c12083          	lw	ra,44(sp)
     d44:	02412483          	lw	s1,36(sp)
     d48:	02012903          	lw	s2,32(sp)
     d4c:	01c12983          	lw	s3,28(sp)
     d50:	01412a83          	lw	s5,20(sp)
     d54:	01012b03          	lw	s6,16(sp)
     d58:	00c12b83          	lw	s7,12(sp)
     d5c:	00812c03          	lw	s8,8(sp)
     d60:	00412c83          	lw	s9,4(sp)
     d64:	00fa2023          	sw	a5,0(s4)
     d68:	01812a03          	lw	s4,24(sp)
     d6c:	00000513          	li	a0,0
     d70:	03010113          	addi	sp,sp,48
     d74:	61c0506f          	j	6390 <vTaskDelete>

00000d78 <msg_get>:
     d78:	fe010113          	addi	sp,sp,-32
     d7c:	00812c23          	sw	s0,24(sp)
     d80:	00912a23          	sw	s1,20(sp)
     d84:	01212823          	sw	s2,16(sp)
     d88:	00112e23          	sw	ra,28(sp)
     d8c:	00050913          	mv	s2,a0
     d90:	00052023          	sw	zero,0(a0)
     d94:	01400413          	li	s0,20
     d98:	00020497          	auipc	s1,0x20
     d9c:	63848493          	addi	s1,s1,1592 # 213d0 <xQueue>
     da0:	0004a503          	lw	a0,0(s1)
     da4:	fff40413          	addi	s0,s0,-1
     da8:	fff00613          	li	a2,-1
     dac:	00010593          	mv	a1,sp
     db0:	3c0030ef          	jal	ra,4170 <xQueueReceive>
     db4:	fe0416e3          	bnez	s0,da0 <msg_get+0x28>
     db8:	00100793          	li	a5,1
     dbc:	00f92023          	sw	a5,0(s2)
     dc0:	00000513          	li	a0,0
     dc4:	5cc050ef          	jal	ra,6390 <vTaskDelete>
     dc8:	01c12083          	lw	ra,28(sp)
     dcc:	01812403          	lw	s0,24(sp)
     dd0:	01412483          	lw	s1,20(sp)
     dd4:	01012903          	lw	s2,16(sp)
     dd8:	02010113          	addi	sp,sp,32
     ddc:	00008067          	ret

00000de0 <msg_get2>:
     de0:	fd010113          	addi	sp,sp,-48
     de4:	02812423          	sw	s0,40(sp)
     de8:	02912223          	sw	s1,36(sp)
     dec:	03212023          	sw	s2,32(sp)
     df0:	01312e23          	sw	s3,28(sp)
     df4:	01412c23          	sw	s4,24(sp)
     df8:	01512a23          	sw	s5,20(sp)
     dfc:	01612823          	sw	s6,16(sp)
     e00:	02112623          	sw	ra,44(sp)
     e04:	00050b13          	mv	s6,a0
     e08:	00052023          	sw	zero,0(a0)
     e0c:	01400413          	li	s0,20
     e10:	00020a97          	auipc	s5,0x20
     e14:	5cca8a93          	addi	s5,s5,1484 # 213dc <xSemaphore>
     e18:	00020a17          	auipc	s4,0x20
     e1c:	5b8a0a13          	addi	s4,s4,1464 # 213d0 <xQueue>
     e20:	00020997          	auipc	s3,0x20
     e24:	5c898993          	addi	s3,s3,1480 # 213e8 <test_start>
     e28:	00020917          	auipc	s2,0x20
     e2c:	5bc90913          	addi	s2,s2,1468 # 213e4 <test_total>
     e30:	00020497          	auipc	s1,0x20
     e34:	5b048493          	addi	s1,s1,1456 # 213e0 <test_max>
     e38:	000aa503          	lw	a0,0(s5)
     e3c:	fff00593          	li	a1,-1
     e40:	4e4030ef          	jal	ra,4324 <xQueueSemaphoreTake>
     e44:	000a2503          	lw	a0,0(s4)
     e48:	fff00613          	li	a2,-1
     e4c:	00010593          	mv	a1,sp
     e50:	320030ef          	jal	ra,4170 <xQueueReceive>
     e54:	c00027f3          	rdcycle	a5
     e58:	0009a603          	lw	a2,0(s3)
     e5c:	00092703          	lw	a4,0(s2)
     e60:	0004a683          	lw	a3,0(s1)
     e64:	40c787b3          	sub	a5,a5,a2
     e68:	00f70733          	add	a4,a4,a5
     e6c:	00e92023          	sw	a4,0(s2)
     e70:	fff40413          	addi	s0,s0,-1
     e74:	00f6f463          	bgeu	a3,a5,e7c <msg_get2+0x9c>
     e78:	00078693          	mv	a3,a5
     e7c:	00d4a023          	sw	a3,0(s1)
     e80:	fa041ce3          	bnez	s0,e38 <msg_get2+0x58>
     e84:	00100793          	li	a5,1
     e88:	00fb2023          	sw	a5,0(s6)
     e8c:	00000513          	li	a0,0
     e90:	500050ef          	jal	ra,6390 <vTaskDelete>
     e94:	02c12083          	lw	ra,44(sp)
     e98:	02812403          	lw	s0,40(sp)
     e9c:	02412483          	lw	s1,36(sp)
     ea0:	02012903          	lw	s2,32(sp)
     ea4:	01c12983          	lw	s3,28(sp)
     ea8:	01812a03          	lw	s4,24(sp)
     eac:	01412a83          	lw	s5,20(sp)
     eb0:	01012b03          	lw	s6,16(sp)
     eb4:	03010113          	addi	sp,sp,48
     eb8:	00008067          	ret

00000ebc <msgq_test>:
     ebc:	fc010113          	addi	sp,sp,-64
     ec0:	02112e23          	sw	ra,60(sp)
     ec4:	03212823          	sw	s2,48(sp)
     ec8:	03312623          	sw	s3,44(sp)
     ecc:	02812c23          	sw	s0,56(sp)
     ed0:	02912a23          	sw	s1,52(sp)
     ed4:	03412423          	sw	s4,40(sp)
     ed8:	03512223          	sw	s5,36(sp)
     edc:	03612023          	sw	s6,32(sp)
     ee0:	01712e23          	sw	s7,28(sp)
     ee4:	01812c23          	sw	s8,24(sp)
     ee8:	00052023          	sw	zero,0(a0)
     eec:	00050993          	mv	s3,a0
     ef0:	0001f517          	auipc	a0,0x1f
     ef4:	59450513          	addi	a0,a0,1428 # 20484 <_impure_ptr+0x3bc>
     ef8:	618020ef          	jal	ra,3510 <printf_>
     efc:	00300613          	li	a2,3
     f00:	00000593          	li	a1,0
     f04:	00100513          	li	a0,1
     f08:	339020ef          	jal	ra,3a40 <xQueueGenericCreate>
     f0c:	00020917          	auipc	s2,0x20
     f10:	4d090913          	addi	s2,s2,1232 # 213dc <xSemaphore>
     f14:	00a92023          	sw	a0,0(s2)
     f18:	00050a63          	beqz	a0,f2c <msgq_test+0x70>
     f1c:	00000693          	li	a3,0
     f20:	00000613          	li	a2,0
     f24:	00000593          	li	a1,0
     f28:	589020ef          	jal	ra,3cb0 <xQueueGenericSend>
     f2c:	00000613          	li	a2,0
     f30:	01000593          	li	a1,16
     f34:	01000513          	li	a0,16
     f38:	309020ef          	jal	ra,3a40 <xQueueGenericCreate>
     f3c:	00020497          	auipc	s1,0x20
     f40:	49448493          	addi	s1,s1,1172 # 213d0 <xQueue>
     f44:	00a4a023          	sw	a0,0(s1)
     f48:	01000413          	li	s0,16
     f4c:	00000b13          	li	s6,0
     f50:	00000a13          	li	s4,0
     f54:	c0002af3          	rdcycle	s5
     f58:	00000693          	li	a3,0
     f5c:	fff00613          	li	a2,-1
     f60:	00010593          	mv	a1,sp
     f64:	54d020ef          	jal	ra,3cb0 <xQueueGenericSend>
     f68:	c00027f3          	rdcycle	a5
     f6c:	415787b3          	sub	a5,a5,s5
     f70:	fff40413          	addi	s0,s0,-1
     f74:	00fa0a33          	add	s4,s4,a5
     f78:	00fb7463          	bgeu	s6,a5,f80 <msgq_test+0xc4>
     f7c:	00078b13          	mv	s6,a5
     f80:	00040663          	beqz	s0,f8c <msgq_test+0xd0>
     f84:	0004a503          	lw	a0,0(s1)
     f88:	fcdff06f          	j	f54 <msgq_test+0x98>
     f8c:	004a5a93          	srli	s5,s4,0x4
     f90:	00000c13          	li	s8,0
     f94:	01000a13          	li	s4,16
     f98:	c0002bf3          	rdcycle	s7
     f9c:	0004a503          	lw	a0,0(s1)
     fa0:	fff00613          	li	a2,-1
     fa4:	00010593          	mv	a1,sp
     fa8:	1c8030ef          	jal	ra,4170 <xQueueReceive>
     fac:	c00027f3          	rdcycle	a5
     fb0:	417787b3          	sub	a5,a5,s7
     fb4:	fffa0a13          	addi	s4,s4,-1
     fb8:	00f40433          	add	s0,s0,a5
     fbc:	00fc7463          	bgeu	s8,a5,fc4 <msgq_test+0x108>
     fc0:	00078c13          	mv	s8,a5
     fc4:	fc0a1ae3          	bnez	s4,f98 <msgq_test+0xdc>
     fc8:	000a8593          	mv	a1,s5
     fcc:	000b0613          	mv	a2,s6
     fd0:	0001f517          	auipc	a0,0x1f
     fd4:	4ec50513          	addi	a0,a0,1260 # 204bc <_impure_ptr+0x3f4>
     fd8:	538020ef          	jal	ra,3510 <printf_>
     fdc:	00445593          	srli	a1,s0,0x4
     fe0:	000c0613          	mv	a2,s8
     fe4:	0001f517          	auipc	a0,0x1f
     fe8:	51850513          	addi	a0,a0,1304 # 204fc <_impure_ptr+0x434>
     fec:	524020ef          	jal	ra,3510 <printf_>
     ff0:	00000793          	li	a5,0
     ff4:	00400713          	li	a4,4
     ff8:	00020697          	auipc	a3,0x20
     ffc:	48468693          	addi	a3,a3,1156 # 2147c <uiTaskResponse+0x4>
    1000:	40000613          	li	a2,1024
    1004:	0001f597          	auipc	a1,0x1f
    1008:	53858593          	addi	a1,a1,1336 # 2053c <_impure_ptr+0x474>
    100c:	00000517          	auipc	a0,0x0
    1010:	d6c50513          	addi	a0,a0,-660 # d78 <msg_get>
    1014:	00020817          	auipc	a6,0x20
    1018:	46082423          	sw	zero,1128(a6) # 2147c <uiTaskResponse+0x4>
    101c:	01400413          	li	s0,20
    1020:	1e0050ef          	jal	ra,6200 <xTaskCreate>
    1024:	00020a17          	auipc	s4,0x20
    1028:	3c0a0a13          	addi	s4,s4,960 # 213e4 <test_total>
    102c:	00020797          	auipc	a5,0x20
    1030:	3a07ac23          	sw	zero,952(a5) # 213e4 <test_total>
    1034:	00020797          	auipc	a5,0x20
    1038:	3a07a623          	sw	zero,940(a5) # 213e0 <test_max>
    103c:	00020a97          	auipc	s5,0x20
    1040:	3a4a8a93          	addi	s5,s5,932 # 213e0 <test_max>
    1044:	00100513          	li	a0,1
    1048:	4e9050ef          	jal	ra,6d30 <vTaskDelay>
    104c:	c0002b73          	rdcycle	s6
    1050:	0004a503          	lw	a0,0(s1)
    1054:	00000693          	li	a3,0
    1058:	fff00613          	li	a2,-1
    105c:	00010593          	mv	a1,sp
    1060:	451020ef          	jal	ra,3cb0 <xQueueGenericSend>
    1064:	c00027f3          	rdcycle	a5
    1068:	000a2703          	lw	a4,0(s4)
    106c:	416787b3          	sub	a5,a5,s6
    1070:	000aa603          	lw	a2,0(s5)
    1074:	00e78733          	add	a4,a5,a4
    1078:	00ea2023          	sw	a4,0(s4)
    107c:	fff40413          	addi	s0,s0,-1
    1080:	00f67463          	bgeu	a2,a5,1088 <msgq_test+0x1cc>
    1084:	00078613          	mv	a2,a5
    1088:	00caa023          	sw	a2,0(s5)
    108c:	fa041ce3          	bnez	s0,1044 <msgq_test+0x188>
    1090:	00020b97          	auipc	s7,0x20
    1094:	3dcb8b93          	addi	s7,s7,988 # 2146c <unsolicited_stats>
    1098:	010ba783          	lw	a5,16(s7)
    109c:	00079e63          	bnez	a5,10b8 <msgq_test+0x1fc>
    10a0:	06400513          	li	a0,100
    10a4:	48d050ef          	jal	ra,6d30 <vTaskDelay>
    10a8:	010ba783          	lw	a5,16(s7)
    10ac:	fe078ae3          	beqz	a5,10a0 <msgq_test+0x1e4>
    10b0:	000a2703          	lw	a4,0(s4)
    10b4:	000aa603          	lw	a2,0(s5)
    10b8:	01400593          	li	a1,20
    10bc:	02b755b3          	divu	a1,a4,a1
    10c0:	0001f517          	auipc	a0,0x1f
    10c4:	48450513          	addi	a0,a0,1156 # 20544 <_impure_ptr+0x47c>
    10c8:	01400413          	li	s0,20
    10cc:	00020b17          	auipc	s6,0x20
    10d0:	31cb0b13          	addi	s6,s6,796 # 213e8 <test_start>
    10d4:	43c020ef          	jal	ra,3510 <printf_>
    10d8:	00000793          	li	a5,0
    10dc:	00600713          	li	a4,6
    10e0:	00020697          	auipc	a3,0x20
    10e4:	39c68693          	addi	a3,a3,924 # 2147c <uiTaskResponse+0x4>
    10e8:	40000613          	li	a2,1024
    10ec:	0001f597          	auipc	a1,0x1f
    10f0:	49858593          	addi	a1,a1,1176 # 20584 <_impure_ptr+0x4bc>
    10f4:	00000517          	auipc	a0,0x0
    10f8:	cec50513          	addi	a0,a0,-788 # de0 <msg_get2>
    10fc:	00020817          	auipc	a6,0x20
    1100:	38082023          	sw	zero,896(a6) # 2147c <uiTaskResponse+0x4>
    1104:	0fc050ef          	jal	ra,6200 <xTaskCreate>
    1108:	00020797          	auipc	a5,0x20
    110c:	2c07ae23          	sw	zero,732(a5) # 213e4 <test_total>
    1110:	00020797          	auipc	a5,0x20
    1114:	2c07a823          	sw	zero,720(a5) # 213e0 <test_max>
    1118:	00092503          	lw	a0,0(s2)
    111c:	00000693          	li	a3,0
    1120:	00000613          	li	a2,0
    1124:	00000593          	li	a1,0
    1128:	389020ef          	jal	ra,3cb0 <xQueueGenericSend>
    112c:	c00027f3          	rdcycle	a5
    1130:	0004a503          	lw	a0,0(s1)
    1134:	fff40413          	addi	s0,s0,-1
    1138:	00000693          	li	a3,0
    113c:	fff00613          	li	a2,-1
    1140:	00010593          	mv	a1,sp
    1144:	00fb2023          	sw	a5,0(s6)
    1148:	369020ef          	jal	ra,3cb0 <xQueueGenericSend>
    114c:	fc0416e3          	bnez	s0,1118 <msgq_test+0x25c>
    1150:	010ba783          	lw	a5,16(s7)
    1154:	00079a63          	bnez	a5,1168 <msgq_test+0x2ac>
    1158:	06400513          	li	a0,100
    115c:	3d5050ef          	jal	ra,6d30 <vTaskDelay>
    1160:	010ba783          	lw	a5,16(s7)
    1164:	fe078ae3          	beqz	a5,1158 <msgq_test+0x29c>
    1168:	000a2583          	lw	a1,0(s4)
    116c:	01400793          	li	a5,20
    1170:	000aa603          	lw	a2,0(s5)
    1174:	02f5d5b3          	divu	a1,a1,a5
    1178:	0001f517          	auipc	a0,0x1f
    117c:	41850513          	addi	a0,a0,1048 # 20590 <_impure_ptr+0x4c8>
    1180:	390020ef          	jal	ra,3510 <printf_>
    1184:	00100793          	li	a5,1
    1188:	00f9a023          	sw	a5,0(s3)
    118c:	00000513          	li	a0,0
    1190:	200050ef          	jal	ra,6390 <vTaskDelete>
    1194:	03c12083          	lw	ra,60(sp)
    1198:	03812403          	lw	s0,56(sp)
    119c:	03412483          	lw	s1,52(sp)
    11a0:	03012903          	lw	s2,48(sp)
    11a4:	02c12983          	lw	s3,44(sp)
    11a8:	02812a03          	lw	s4,40(sp)
    11ac:	02412a83          	lw	s5,36(sp)
    11b0:	02012b03          	lw	s6,32(sp)
    11b4:	01c12b83          	lw	s7,28(sp)
    11b8:	01812c03          	lw	s8,24(sp)
    11bc:	04010113          	addi	sp,sp,64
    11c0:	00008067          	ret

000011c4 <yield_func>:
    11c4:	fe010113          	addi	sp,sp,-32
    11c8:	00812c23          	sw	s0,24(sp)
    11cc:	00912a23          	sw	s1,20(sp)
    11d0:	01212823          	sw	s2,16(sp)
    11d4:	01312623          	sw	s3,12(sp)
    11d8:	00112e23          	sw	ra,28(sp)
    11dc:	00050993          	mv	s3,a0
    11e0:	00052023          	sw	zero,0(a0)
    11e4:	01400413          	li	s0,20
    11e8:	00020497          	auipc	s1,0x20
    11ec:	20448493          	addi	s1,s1,516 # 213ec <indx>
    11f0:	00020917          	auipc	s2,0x20
    11f4:	27c90913          	addi	s2,s2,636 # 2146c <unsolicited_stats>
    11f8:	53d040ef          	jal	ra,5f34 <vTaskEnterCritical>
    11fc:	c00026f3          	rdcycle	a3
    1200:	0004a783          	lw	a5,0(s1)
    1204:	00279713          	slli	a4,a5,0x2
    1208:	00e90733          	add	a4,s2,a4
    120c:	00178793          	addi	a5,a5,1
    1210:	00d72e23          	sw	a3,28(a4)
    1214:	00f4a023          	sw	a5,0(s1)
    1218:	54d040ef          	jal	ra,5f64 <vTaskExitCritical>
    121c:	00000073          	ecall
    1220:	fff40413          	addi	s0,s0,-1
    1224:	fc041ae3          	bnez	s0,11f8 <yield_func+0x34>
    1228:	01812403          	lw	s0,24(sp)
    122c:	00100793          	li	a5,1
    1230:	01c12083          	lw	ra,28(sp)
    1234:	01412483          	lw	s1,20(sp)
    1238:	01012903          	lw	s2,16(sp)
    123c:	00f9a023          	sw	a5,0(s3)
    1240:	00c12983          	lw	s3,12(sp)
    1244:	00000513          	li	a0,0
    1248:	02010113          	addi	sp,sp,32
    124c:	1440506f          	j	6390 <vTaskDelete>

00001250 <vApplicationMallocFailedHook>:
    1250:	ff010113          	addi	sp,sp,-16
    1254:	0001f517          	auipc	a0,0x1f
    1258:	37c50513          	addi	a0,a0,892 # 205d0 <_impure_ptr+0x508>
    125c:	00112623          	sw	ra,12(sp)
    1260:	2b0020ef          	jal	ra,3510 <printf_>
    1264:	00000513          	li	a0,0
    1268:	6ac000ef          	jal	ra,1914 <exit>

0000126c <vApplicationStackOverflowHook>:
    126c:	ff010113          	addi	sp,sp,-16
    1270:	0001f517          	auipc	a0,0x1f
    1274:	37850513          	addi	a0,a0,888 # 205e8 <_impure_ptr+0x520>
    1278:	00112623          	sw	ra,12(sp)
    127c:	294020ef          	jal	ra,3510 <printf_>
    1280:	00000513          	li	a0,0
    1284:	690000ef          	jal	ra,1914 <exit>

00001288 <vApplicationTickHook>:
    1288:	00008067          	ret

0000128c <vApplicationIdleHook>:
    128c:	00008067          	ret

00001290 <get_timer>:
    1290:	c0002573          	rdcycle	a0
    1294:	00008067          	ret

00001298 <yieldTest>:
    1298:	fe010113          	addi	sp,sp,-32
    129c:	0001f517          	auipc	a0,0x1f
    12a0:	36c50513          	addi	a0,a0,876 # 20608 <_impure_ptr+0x540>
    12a4:	00112e23          	sw	ra,28(sp)
    12a8:	00812c23          	sw	s0,24(sp)
    12ac:	00912a23          	sw	s1,20(sp)
    12b0:	01212823          	sw	s2,16(sp)
    12b4:	01312623          	sw	s3,12(sp)
    12b8:	258020ef          	jal	ra,3510 <printf_>
    12bc:	479040ef          	jal	ra,5f34 <vTaskEnterCritical>
    12c0:	00a00913          	li	s2,10
    12c4:	00020497          	auipc	s1,0x20
    12c8:	12848493          	addi	s1,s1,296 # 213ec <indx>
    12cc:	00020417          	auipc	s0,0x20
    12d0:	1a040413          	addi	s0,s0,416 # 2146c <unsolicited_stats>
    12d4:	461040ef          	jal	ra,5f34 <vTaskEnterCritical>
    12d8:	c00026f3          	rdcycle	a3
    12dc:	0004a783          	lw	a5,0(s1)
    12e0:	fff90913          	addi	s2,s2,-1
    12e4:	00279713          	slli	a4,a5,0x2
    12e8:	00e40733          	add	a4,s0,a4
    12ec:	00178793          	addi	a5,a5,1
    12f0:	00d72e23          	sw	a3,28(a4)
    12f4:	00f4a023          	sw	a5,0(s1)
    12f8:	46d040ef          	jal	ra,5f64 <vTaskExitCritical>
    12fc:	fc091ce3          	bnez	s2,12d4 <yieldTest+0x3c>
    1300:	465040ef          	jal	ra,5f64 <vTaskExitCritical>
    1304:	0004a703          	lw	a4,0(s1)
    1308:	0004a783          	lw	a5,0(s1)
    130c:	00700593          	li	a1,7
    1310:	fff70713          	addi	a4,a4,-1
    1314:	ff678793          	addi	a5,a5,-10
    1318:	00271713          	slli	a4,a4,0x2
    131c:	00279793          	slli	a5,a5,0x2
    1320:	00e40733          	add	a4,s0,a4
    1324:	00f407b3          	add	a5,s0,a5
    1328:	01c72903          	lw	s2,28(a4)
    132c:	01c7a783          	lw	a5,28(a5)
    1330:	00000513          	li	a0,0
    1334:	00200993          	li	s3,2
    1338:	40f90933          	sub	s2,s2,a5
    133c:	00900793          	li	a5,9
    1340:	02f95933          	divu	s2,s2,a5
    1344:	00020797          	auipc	a5,0x20
    1348:	0a07a423          	sw	zero,168(a5) # 213ec <indx>
    134c:	00020797          	auipc	a5,0x20
    1350:	1207aa23          	sw	zero,308(a5) # 21480 <uiTaskResponse+0x8>
    1354:	00020797          	auipc	a5,0x20
    1358:	1207a423          	sw	zero,296(a5) # 2147c <uiTaskResponse+0x4>
    135c:	00020797          	auipc	a5,0x20
    1360:	1007ae23          	sw	zero,284(a5) # 21478 <uiTaskResponse>
    1364:	20c050ef          	jal	ra,6570 <vTaskPrioritySet>
    1368:	00000793          	li	a5,0
    136c:	00700713          	li	a4,7
    1370:	00020697          	auipc	a3,0x20
    1374:	10868693          	addi	a3,a3,264 # 21478 <uiTaskResponse>
    1378:	40000613          	li	a2,1024
    137c:	0001f597          	auipc	a1,0x1f
    1380:	2b458593          	addi	a1,a1,692 # 20630 <_impure_ptr+0x568>
    1384:	00000517          	auipc	a0,0x0
    1388:	e4050513          	addi	a0,a0,-448 # 11c4 <yield_func>
    138c:	675040ef          	jal	ra,6200 <xTaskCreate>
    1390:	00000793          	li	a5,0
    1394:	00700713          	li	a4,7
    1398:	00020697          	auipc	a3,0x20
    139c:	0e468693          	addi	a3,a3,228 # 2147c <uiTaskResponse+0x4>
    13a0:	40000613          	li	a2,1024
    13a4:	0001f597          	auipc	a1,0x1f
    13a8:	29458593          	addi	a1,a1,660 # 20638 <_impure_ptr+0x570>
    13ac:	00000517          	auipc	a0,0x0
    13b0:	e1850513          	addi	a0,a0,-488 # 11c4 <yield_func>
    13b4:	64d040ef          	jal	ra,6200 <xTaskCreate>
    13b8:	00000793          	li	a5,0
    13bc:	00700713          	li	a4,7
    13c0:	00020697          	auipc	a3,0x20
    13c4:	0c068693          	addi	a3,a3,192 # 21480 <uiTaskResponse+0x8>
    13c8:	40000613          	li	a2,1024
    13cc:	0001f597          	auipc	a1,0x1f
    13d0:	27458593          	addi	a1,a1,628 # 20640 <_impure_ptr+0x578>
    13d4:	00000517          	auipc	a0,0x0
    13d8:	df050513          	addi	a0,a0,-528 # 11c4 <yield_func>
    13dc:	625040ef          	jal	ra,6200 <xTaskCreate>
    13e0:	00500593          	li	a1,5
    13e4:	00000513          	li	a0,0
    13e8:	188050ef          	jal	ra,6570 <vTaskPrioritySet>
    13ec:	00c42783          	lw	a5,12(s0)
    13f0:	01042603          	lw	a2,16(s0)
    13f4:	01442683          	lw	a3,20(s0)
    13f8:	00200713          	li	a4,2
    13fc:	00c787b3          	add	a5,a5,a2
    1400:	00d787b3          	add	a5,a5,a3
    1404:	02f76263          	bltu	a4,a5,1428 <yieldTest+0x190>
    1408:	03200513          	li	a0,50
    140c:	125050ef          	jal	ra,6d30 <vTaskDelay>
    1410:	00c42783          	lw	a5,12(s0)
    1414:	01042683          	lw	a3,16(s0)
    1418:	01442703          	lw	a4,20(s0)
    141c:	00d787b3          	add	a5,a5,a3
    1420:	00e787b3          	add	a5,a5,a4
    1424:	fef9f2e3          	bgeu	s3,a5,1408 <yieldTest+0x170>
    1428:	0004a783          	lw	a5,0(s1)
    142c:	00c00713          	li	a4,12
    1430:	ffd78793          	addi	a5,a5,-3
    1434:	0af77c63          	bgeu	a4,a5,14ec <yieldTest+0x254>
    1438:	80000637          	lui	a2,0x80000
    143c:	00000713          	li	a4,0
    1440:	00000593          	li	a1,0
    1444:	00160613          	addi	a2,a2,1 # 80000001 <_stack+0x7ffc0001>
    1448:	00c00793          	li	a5,12
    144c:	00000513          	li	a0,0
    1450:	0001f897          	auipc	a7,0x1f
    1454:	34088893          	addi	a7,a7,832 # 20790 <clock_interrupted>
    1458:	04071a63          	bnez	a4,14ac <yieldTest+0x214>
    145c:	00279693          	slli	a3,a5,0x2
    1460:	fff78713          	addi	a4,a5,-1
    1464:	00d406b3          	add	a3,s0,a3
    1468:	00271713          	slli	a4,a4,0x2
    146c:	00e40733          	add	a4,s0,a4
    1470:	01c6a683          	lw	a3,28(a3)
    1474:	01c72803          	lw	a6,28(a4)
    1478:	00158593          	addi	a1,a1,1
    147c:	41268733          	sub	a4,a3,s2
    1480:	41070733          	sub	a4,a4,a6
    1484:	00e50533          	add	a0,a0,a4
    1488:	00e65463          	bge	a2,a4,1490 <yieldTest+0x1f8>
    148c:	00070613          	mv	a2,a4
    1490:	0004a703          	lw	a4,0(s1)
    1494:	00178793          	addi	a5,a5,1
    1498:	ffd70713          	addi	a4,a4,-3
    149c:	02e7f263          	bgeu	a5,a4,14c0 <yieldTest+0x228>
    14a0:	00f88733          	add	a4,a7,a5
    14a4:	00074703          	lbu	a4,0(a4)
    14a8:	fa070ae3          	beqz	a4,145c <yieldTest+0x1c4>
    14ac:	0004a703          	lw	a4,0(s1)
    14b0:	00278793          	addi	a5,a5,2
    14b4:	00178793          	addi	a5,a5,1
    14b8:	ffd70713          	addi	a4,a4,-3
    14bc:	fee7e2e3          	bltu	a5,a4,14a0 <yieldTest+0x208>
    14c0:	02b545b3          	div	a1,a0,a1
    14c4:	01812403          	lw	s0,24(sp)
    14c8:	01c12083          	lw	ra,28(sp)
    14cc:	01412483          	lw	s1,20(sp)
    14d0:	00c12983          	lw	s3,12(sp)
    14d4:	00090693          	mv	a3,s2
    14d8:	01012903          	lw	s2,16(sp)
    14dc:	0001f517          	auipc	a0,0x1f
    14e0:	16c50513          	addi	a0,a0,364 # 20648 <_impure_ptr+0x580>
    14e4:	02010113          	addi	sp,sp,32
    14e8:	0280206f          	j	3510 <printf_>
    14ec:	00100073          	ebreak

000014f0 <unsolicitedTest>:
    14f0:	ff010113          	addi	sp,sp,-16
    14f4:	0001f517          	auipc	a0,0x1f
    14f8:	19c50513          	addi	a0,a0,412 # 20690 <_impure_ptr+0x5c8>
    14fc:	00112623          	sw	ra,12(sp)
    1500:	00812423          	sw	s0,8(sp)
    1504:	00912223          	sw	s1,4(sp)
    1508:	008020ef          	jal	ra,3510 <printf_>
    150c:	00020797          	auipc	a5,0x20
    1510:	f607a223          	sw	zero,-156(a5) # 21470 <unsolicited_stats+0x4>
    1514:	00020797          	auipc	a5,0x20
    1518:	f407ac23          	sw	zero,-168(a5) # 2146c <unsolicited_stats>
    151c:	800007b7          	lui	a5,0x80000
    1520:	00178793          	addi	a5,a5,1 # 80000001 <_stack+0x7ffc0001>
    1524:	00700593          	li	a1,7
    1528:	00000513          	li	a0,0
    152c:	00020497          	auipc	s1,0x20
    1530:	f4048493          	addi	s1,s1,-192 # 2146c <unsolicited_stats>
    1534:	00f4a423          	sw	a5,8(s1)
    1538:	038050ef          	jal	ra,6570 <vTaskPrioritySet>
    153c:	00000793          	li	a5,0
    1540:	00600713          	li	a4,6
    1544:	00000693          	li	a3,0
    1548:	40000613          	li	a2,1024
    154c:	0001f597          	auipc	a1,0x1f
    1550:	19458593          	addi	a1,a1,404 # 206e0 <_impure_ptr+0x618>
    1554:	fffff517          	auipc	a0,0xfffff
    1558:	ba450513          	addi	a0,a0,-1116 # f8 <unsolicited_background>
    155c:	4a5040ef          	jal	ra,6200 <xTaskCreate>
    1560:	00000793          	li	a5,0
    1564:	00700713          	li	a4,7
    1568:	00000693          	li	a3,0
    156c:	40000613          	li	a2,1024
    1570:	0001f597          	auipc	a1,0x1f
    1574:	17858593          	addi	a1,a1,376 # 206e8 <_impure_ptr+0x620>
    1578:	fffff517          	auipc	a0,0xfffff
    157c:	d0c50513          	addi	a0,a0,-756 # 284 <unsolicited_hipriority>
    1580:	481040ef          	jal	ra,6200 <xTaskCreate>
    1584:	00500593          	li	a1,5
    1588:	00000513          	li	a0,0
    158c:	00020417          	auipc	s0,0x20
    1590:	e4040413          	addi	s0,s0,-448 # 213cc <unsolicited_done>
    1594:	7dd040ef          	jal	ra,6570 <vTaskPrioritySet>
    1598:	00042783          	lw	a5,0(s0)
    159c:	00079a63          	bnez	a5,15b0 <unsolicitedTest+0xc0>
    15a0:	03200513          	li	a0,50
    15a4:	78c050ef          	jal	ra,6d30 <vTaskDelay>
    15a8:	00042783          	lw	a5,0(s0)
    15ac:	fe078ae3          	beqz	a5,15a0 <unsolicitedTest+0xb0>
    15b0:	c0002773          	rdcycle	a4
    15b4:	c00026f3          	rdcycle	a3
    15b8:	0004a503          	lw	a0,0(s1)
    15bc:	0044a783          	lw	a5,4(s1)
    15c0:	0084a603          	lw	a2,8(s1)
    15c4:	00812403          	lw	s0,8(sp)
    15c8:	00f507b3          	add	a5,a0,a5
    15cc:	fff78793          	addi	a5,a5,-1
    15d0:	02a7c7b3          	div	a5,a5,a0
    15d4:	00c12083          	lw	ra,12(sp)
    15d8:	00412483          	lw	s1,4(sp)
    15dc:	40d705b3          	sub	a1,a4,a3
    15e0:	00c58633          	add	a2,a1,a2
    15e4:	40e686b3          	sub	a3,a3,a4
    15e8:	0001f517          	auipc	a0,0x1f
    15ec:	10850513          	addi	a0,a0,264 # 206f0 <_impure_ptr+0x628>
    15f0:	01010113          	addi	sp,sp,16
    15f4:	00b785b3          	add	a1,a5,a1
    15f8:	7190106f          	j	3510 <printf_>

000015fc <semaphoreTest>:
    15fc:	ff010113          	addi	sp,sp,-16
    1600:	0001f517          	auipc	a0,0x1f
    1604:	14050513          	addi	a0,a0,320 # 20740 <_impure_ptr+0x678>
    1608:	00112623          	sw	ra,12(sp)
    160c:	00812423          	sw	s0,8(sp)
    1610:	701010ef          	jal	ra,3510 <printf_>
    1614:	00600593          	li	a1,6
    1618:	00000513          	li	a0,0
    161c:	00020797          	auipc	a5,0x20
    1620:	e607a023          	sw	zero,-416(a5) # 2147c <uiTaskResponse+0x4>
    1624:	74d040ef          	jal	ra,6570 <vTaskPrioritySet>
    1628:	00000793          	li	a5,0
    162c:	00500713          	li	a4,5
    1630:	00020697          	auipc	a3,0x20
    1634:	e4c68693          	addi	a3,a3,-436 # 2147c <uiTaskResponse+0x4>
    1638:	40000613          	li	a2,1024
    163c:	0001f597          	auipc	a1,0x1f
    1640:	11858593          	addi	a1,a1,280 # 20754 <_impure_ptr+0x68c>
    1644:	fffff517          	auipc	a0,0xfffff
    1648:	cd050513          	addi	a0,a0,-816 # 314 <sem_test>
    164c:	3b5040ef          	jal	ra,6200 <xTaskCreate>
    1650:	00200593          	li	a1,2
    1654:	00000513          	li	a0,0
    1658:	00020417          	auipc	s0,0x20
    165c:	e1440413          	addi	s0,s0,-492 # 2146c <unsolicited_stats>
    1660:	711040ef          	jal	ra,6570 <vTaskPrioritySet>
    1664:	01042783          	lw	a5,16(s0)
    1668:	00079a63          	bnez	a5,167c <semaphoreTest+0x80>
    166c:	00a00513          	li	a0,10
    1670:	6c0050ef          	jal	ra,6d30 <vTaskDelay>
    1674:	01042783          	lw	a5,16(s0)
    1678:	fe078ae3          	beqz	a5,166c <semaphoreTest+0x70>
    167c:	00812403          	lw	s0,8(sp)
    1680:	00c12083          	lw	ra,12(sp)
    1684:	00500593          	li	a1,5
    1688:	00000513          	li	a0,0
    168c:	01010113          	addi	sp,sp,16
    1690:	6e10406f          	j	6570 <vTaskPrioritySet>

00001694 <mutexTest>:
    1694:	ff010113          	addi	sp,sp,-16
    1698:	00600593          	li	a1,6
    169c:	00000513          	li	a0,0
    16a0:	00112623          	sw	ra,12(sp)
    16a4:	00812423          	sw	s0,8(sp)
    16a8:	00020797          	auipc	a5,0x20
    16ac:	dc07a823          	sw	zero,-560(a5) # 21478 <uiTaskResponse>
    16b0:	6c1040ef          	jal	ra,6570 <vTaskPrioritySet>
    16b4:	00000793          	li	a5,0
    16b8:	00500713          	li	a4,5
    16bc:	00020697          	auipc	a3,0x20
    16c0:	dbc68693          	addi	a3,a3,-580 # 21478 <uiTaskResponse>
    16c4:	40000613          	li	a2,1024
    16c8:	0001f597          	auipc	a1,0x1f
    16cc:	09858593          	addi	a1,a1,152 # 20760 <_impure_ptr+0x698>
    16d0:	fffff517          	auipc	a0,0xfffff
    16d4:	ec050513          	addi	a0,a0,-320 # 590 <mutex_test>
    16d8:	329040ef          	jal	ra,6200 <xTaskCreate>
    16dc:	00300593          	li	a1,3
    16e0:	00000513          	li	a0,0
    16e4:	00020417          	auipc	s0,0x20
    16e8:	d8840413          	addi	s0,s0,-632 # 2146c <unsolicited_stats>
    16ec:	685040ef          	jal	ra,6570 <vTaskPrioritySet>
    16f0:	00c42783          	lw	a5,12(s0)
    16f4:	00079a63          	bnez	a5,1708 <mutexTest+0x74>
    16f8:	00a00513          	li	a0,10
    16fc:	634050ef          	jal	ra,6d30 <vTaskDelay>
    1700:	00c42783          	lw	a5,12(s0)
    1704:	fe078ae3          	beqz	a5,16f8 <mutexTest+0x64>
    1708:	00812403          	lw	s0,8(sp)
    170c:	00c12083          	lw	ra,12(sp)
    1710:	00500593          	li	a1,5
    1714:	00000513          	li	a0,0
    1718:	01010113          	addi	sp,sp,16
    171c:	6550406f          	j	6570 <vTaskPrioritySet>

00001720 <eventTest>:
    1720:	ff010113          	addi	sp,sp,-16
    1724:	00600593          	li	a1,6
    1728:	00000513          	li	a0,0
    172c:	00112623          	sw	ra,12(sp)
    1730:	00812423          	sw	s0,8(sp)
    1734:	00020797          	auipc	a5,0x20
    1738:	d407a223          	sw	zero,-700(a5) # 21478 <uiTaskResponse>
    173c:	635040ef          	jal	ra,6570 <vTaskPrioritySet>
    1740:	00000793          	li	a5,0
    1744:	00500713          	li	a4,5
    1748:	00020697          	auipc	a3,0x20
    174c:	d3068693          	addi	a3,a3,-720 # 21478 <uiTaskResponse>
    1750:	40000613          	li	a2,1024
    1754:	0001f597          	auipc	a1,0x1f
    1758:	01858593          	addi	a1,a1,24 # 2076c <_impure_ptr+0x6a4>
    175c:	fffff517          	auipc	a0,0xfffff
    1760:	2e450513          	addi	a0,a0,740 # a40 <event_test>
    1764:	29d040ef          	jal	ra,6200 <xTaskCreate>
    1768:	00300593          	li	a1,3
    176c:	00000513          	li	a0,0
    1770:	00020417          	auipc	s0,0x20
    1774:	cfc40413          	addi	s0,s0,-772 # 2146c <unsolicited_stats>
    1778:	5f9040ef          	jal	ra,6570 <vTaskPrioritySet>
    177c:	00c42783          	lw	a5,12(s0)
    1780:	00079a63          	bnez	a5,1794 <eventTest+0x74>
    1784:	00a00513          	li	a0,10
    1788:	5a8050ef          	jal	ra,6d30 <vTaskDelay>
    178c:	00c42783          	lw	a5,12(s0)
    1790:	fe078ae3          	beqz	a5,1784 <eventTest+0x64>
    1794:	00812403          	lw	s0,8(sp)
    1798:	00c12083          	lw	ra,12(sp)
    179c:	00500593          	li	a1,5
    17a0:	00000513          	li	a0,0
    17a4:	01010113          	addi	sp,sp,16
    17a8:	5c90406f          	j	6570 <vTaskPrioritySet>

000017ac <queueTest>:
    17ac:	ff010113          	addi	sp,sp,-16
    17b0:	00600593          	li	a1,6
    17b4:	00000513          	li	a0,0
    17b8:	00112623          	sw	ra,12(sp)
    17bc:	00812423          	sw	s0,8(sp)
    17c0:	00020797          	auipc	a5,0x20
    17c4:	ca07ac23          	sw	zero,-840(a5) # 21478 <uiTaskResponse>
    17c8:	5a9040ef          	jal	ra,6570 <vTaskPrioritySet>
    17cc:	00000793          	li	a5,0
    17d0:	00500713          	li	a4,5
    17d4:	00020697          	auipc	a3,0x20
    17d8:	ca468693          	addi	a3,a3,-860 # 21478 <uiTaskResponse>
    17dc:	40000613          	li	a2,1024
    17e0:	0001f597          	auipc	a1,0x1f
    17e4:	f9858593          	addi	a1,a1,-104 # 20778 <_impure_ptr+0x6b0>
    17e8:	fffff517          	auipc	a0,0xfffff
    17ec:	6d450513          	addi	a0,a0,1748 # ebc <msgq_test>
    17f0:	211040ef          	jal	ra,6200 <xTaskCreate>
    17f4:	00300593          	li	a1,3
    17f8:	00000513          	li	a0,0
    17fc:	00020417          	auipc	s0,0x20
    1800:	c7040413          	addi	s0,s0,-912 # 2146c <unsolicited_stats>
    1804:	56d040ef          	jal	ra,6570 <vTaskPrioritySet>
    1808:	00c42783          	lw	a5,12(s0)
    180c:	00079a63          	bnez	a5,1820 <queueTest+0x74>
    1810:	00a00513          	li	a0,10
    1814:	51c050ef          	jal	ra,6d30 <vTaskDelay>
    1818:	00c42783          	lw	a5,12(s0)
    181c:	fe078ae3          	beqz	a5,1810 <queueTest+0x64>
    1820:	00812403          	lw	s0,8(sp)
    1824:	00c12083          	lw	ra,12(sp)
    1828:	00500593          	li	a1,5
    182c:	00000513          	li	a0,0
    1830:	01010113          	addi	sp,sp,16
    1834:	53d0406f          	j	6570 <vTaskPrioritySet>

00001838 <test>:
    1838:	ff010113          	addi	sp,sp,-16
    183c:	00112623          	sw	ra,12(sp)
    1840:	a59ff0ef          	jal	ra,1298 <yieldTest>
    1844:	cadff0ef          	jal	ra,14f0 <unsolicitedTest>
    1848:	db5ff0ef          	jal	ra,15fc <semaphoreTest>
    184c:	e49ff0ef          	jal	ra,1694 <mutexTest>
    1850:	ed1ff0ef          	jal	ra,1720 <eventTest>
    1854:	f59ff0ef          	jal	ra,17ac <queueTest>
    1858:	00000513          	li	a0,0
    185c:	0b8000ef          	jal	ra,1914 <exit>

00001860 <main>:
    1860:	ff010113          	addi	sp,sp,-16
    1864:	0001f517          	auipc	a0,0x1f
    1868:	f2050513          	addi	a0,a0,-224 # 20784 <_impure_ptr+0x6bc>
    186c:	00112623          	sw	ra,12(sp)
    1870:	4a1010ef          	jal	ra,3510 <printf_>
    1874:	00000793          	li	a5,0
    1878:	00500713          	li	a4,5
    187c:	00000693          	li	a3,0
    1880:	40000613          	li	a2,1024
    1884:	0001f597          	auipc	a1,0x1f
    1888:	ed458593          	addi	a1,a1,-300 # 20758 <_impure_ptr+0x690>
    188c:	00000517          	auipc	a0,0x0
    1890:	fac50513          	addi	a0,a0,-84 # 1838 <test>
    1894:	16d040ef          	jal	ra,6200 <xTaskCreate>
    1898:	241040ef          	jal	ra,62d8 <vTaskStartScheduler>
    189c:	0000006f          	j	189c <main+0x3c>

000018a0 <trap_handler>:
    18a0:	34102f73          	csrr	t5,mepc
    18a4:	004f0f13          	addi	t5,t5,4
    18a8:	341f1073          	csrw	mepc,t5
    18ac:	30200073          	mret
    18b0:	0000                	.2byte	0x0
	...

000018b4 <_putchar>:
    18b4:	900007b7          	lui	a5,0x90000
    18b8:	00a78e23          	sb	a0,28(a5) # 9000001c <_stack+0x8ffc001c>
    18bc:	00008067          	ret

000018c0 <_write>:
    18c0:	00060513          	mv	a0,a2
    18c4:	00060e63          	beqz	a2,18e0 <_write+0x20>
    18c8:	00c586b3          	add	a3,a1,a2
    18cc:	90000737          	lui	a4,0x90000
    18d0:	0005c783          	lbu	a5,0(a1)
    18d4:	00158593          	addi	a1,a1,1
    18d8:	00f70e23          	sb	a5,28(a4) # 9000001c <_stack+0x8ffc001c>
    18dc:	fed59ae3          	bne	a1,a3,18d0 <_write+0x10>
    18e0:	00008067          	ret

000018e4 <_fstat>:
    18e4:	fff00513          	li	a0,-1
    18e8:	00008067          	ret

000018ec <_close>:
    18ec:	fff00513          	li	a0,-1
    18f0:	00008067          	ret

000018f4 <_lseek>:
    18f4:	fff00513          	li	a0,-1
    18f8:	00008067          	ret

000018fc <_read>:
    18fc:	fff00513          	li	a0,-1
    1900:	00008067          	ret

00001904 <_exit>:
    1904:	0ff57793          	zext.b	a5,a0
    1908:	90000737          	lui	a4,0x90000
    190c:	02f70623          	sb	a5,44(a4) # 9000002c <_stack+0x8ffc002c>
    1910:	0000006f          	j	1910 <_exit+0xc>

00001914 <exit>:
    1914:	0ff57793          	zext.b	a5,a0
    1918:	90000737          	lui	a4,0x90000
    191c:	02f70623          	sb	a5,44(a4) # 9000002c <_stack+0x8ffc002c>
    1920:	0000006f          	j	1920 <exit+0xc>

00001924 <_isatty>:
    1924:	00353513          	sltiu	a0,a0,3
    1928:	00008067          	ret

0000192c <_sbrk>:
    192c:	00020697          	auipc	a3,0x20
    1930:	ac468693          	addi	a3,a3,-1340 # 213f0 <heap_ptr>
    1934:	0006a703          	lw	a4,0(a3)
    1938:	02070063          	beqz	a4,1958 <_sbrk+0x2c>
    193c:	00a707b3          	add	a5,a4,a0
    1940:	0003e617          	auipc	a2,0x3e
    1944:	6c060613          	addi	a2,a2,1728 # 40000 <_stack>
    1948:	02c7d663          	bge	a5,a2,1974 <_sbrk+0x48>
    194c:	00f6a023          	sw	a5,0(a3)
    1950:	00070513          	mv	a0,a4
    1954:	00008067          	ret
    1958:	00021717          	auipc	a4,0x21
    195c:	ea870713          	addi	a4,a4,-344 # 22800 <_bss_end>
    1960:	00e6a023          	sw	a4,0(a3)
    1964:	00a707b3          	add	a5,a4,a0
    1968:	0003e617          	auipc	a2,0x3e
    196c:	69860613          	addi	a2,a2,1688 # 40000 <_stack>
    1970:	fcc7cee3          	blt	a5,a2,194c <_sbrk+0x20>
    1974:	00000713          	li	a4,0
    1978:	00070513          	mv	a0,a4
    197c:	00008067          	ret

00001980 <_kill>:
    1980:	fff00513          	li	a0,-1
    1984:	00008067          	ret

00001988 <_getpid>:
    1988:	00000513          	li	a0,0
    198c:	00008067          	ret

00001990 <_out_buffer>:
    1990:	00d67663          	bgeu	a2,a3,199c <_out_buffer+0xc>
    1994:	00c585b3          	add	a1,a1,a2
    1998:	00a58023          	sb	a0,0(a1)
    199c:	00008067          	ret

000019a0 <_out_null>:
    19a0:	00008067          	ret

000019a4 <_out_rev>:
    19a4:	fd010113          	addi	sp,sp,-48
    19a8:	02912223          	sw	s1,36(sp)
    19ac:	03212023          	sw	s2,32(sp)
    19b0:	01312e23          	sw	s3,28(sp)
    19b4:	01412c23          	sw	s4,24(sp)
    19b8:	01512a23          	sw	s5,20(sp)
    19bc:	01612823          	sw	s6,16(sp)
    19c0:	00060a93          	mv	s5,a2
    19c4:	01812423          	sw	s8,8(sp)
    19c8:	01912223          	sw	s9,4(sp)
    19cc:	01a12023          	sw	s10,0(sp)
    19d0:	02112623          	sw	ra,44(sp)
    19d4:	02812423          	sw	s0,40(sp)
    19d8:	01712623          	sw	s7,12(sp)
    19dc:	0038f613          	andi	a2,a7,3
    19e0:	00088c93          	mv	s9,a7
    19e4:	00050913          	mv	s2,a0
    19e8:	00058993          	mv	s3,a1
    19ec:	00068a13          	mv	s4,a3
    19f0:	00070b13          	mv	s6,a4
    19f4:	00078d13          	mv	s10,a5
    19f8:	00080c13          	mv	s8,a6
    19fc:	000a8493          	mv	s1,s5
    1a00:	02061863          	bnez	a2,1a30 <_out_rev+0x8c>
    1a04:	0307f663          	bgeu	a5,a6,1a30 <_out_rev+0x8c>
    1a08:	40f804b3          	sub	s1,a6,a5
    1a0c:	015484b3          	add	s1,s1,s5
    1a10:	000a8413          	mv	s0,s5
    1a14:	00040613          	mv	a2,s0
    1a18:	000a0693          	mv	a3,s4
    1a1c:	00140413          	addi	s0,s0,1
    1a20:	00098593          	mv	a1,s3
    1a24:	02000513          	li	a0,32
    1a28:	000900e7          	jalr	s2
    1a2c:	fe9414e3          	bne	s0,s1,1a14 <_out_rev+0x70>
    1a30:	020d0663          	beqz	s10,1a5c <_out_rev+0xb8>
    1a34:	01ab0433          	add	s0,s6,s10
    1a38:	00940bb3          	add	s7,s0,s1
    1a3c:	fff44503          	lbu	a0,-1(s0)
    1a40:	408b8633          	sub	a2,s7,s0
    1a44:	000a0693          	mv	a3,s4
    1a48:	fff40413          	addi	s0,s0,-1
    1a4c:	00098593          	mv	a1,s3
    1a50:	000900e7          	jalr	s2
    1a54:	fe8b14e3          	bne	s6,s0,1a3c <_out_rev+0x98>
    1a58:	01a484b3          	add	s1,s1,s10
    1a5c:	002cfc93          	andi	s9,s9,2
    1a60:	020c8663          	beqz	s9,1a8c <_out_rev+0xe8>
    1a64:	41548ab3          	sub	s5,s1,s5
    1a68:	038af263          	bgeu	s5,s8,1a8c <_out_rev+0xe8>
    1a6c:	00048613          	mv	a2,s1
    1a70:	001a8a93          	addi	s5,s5,1
    1a74:	000a0693          	mv	a3,s4
    1a78:	00098593          	mv	a1,s3
    1a7c:	02000513          	li	a0,32
    1a80:	00148493          	addi	s1,s1,1
    1a84:	000900e7          	jalr	s2
    1a88:	ff8ae2e3          	bltu	s5,s8,1a6c <_out_rev+0xc8>
    1a8c:	02c12083          	lw	ra,44(sp)
    1a90:	02812403          	lw	s0,40(sp)
    1a94:	02012903          	lw	s2,32(sp)
    1a98:	01c12983          	lw	s3,28(sp)
    1a9c:	01812a03          	lw	s4,24(sp)
    1aa0:	01412a83          	lw	s5,20(sp)
    1aa4:	01012b03          	lw	s6,16(sp)
    1aa8:	00c12b83          	lw	s7,12(sp)
    1aac:	00812c03          	lw	s8,8(sp)
    1ab0:	00412c83          	lw	s9,4(sp)
    1ab4:	00012d03          	lw	s10,0(sp)
    1ab8:	00048513          	mv	a0,s1
    1abc:	02412483          	lw	s1,36(sp)
    1ac0:	03010113          	addi	sp,sp,48
    1ac4:	00008067          	ret

00001ac8 <_ntoa_format>:
    1ac8:	00812383          	lw	t2,8(sp)
    1acc:	00012283          	lw	t0,0(sp)
    1ad0:	00412f83          	lw	t6,4(sp)
    1ad4:	0023f313          	andi	t1,t2,2
    1ad8:	00080f13          	mv	t5,a6
    1adc:	06031463          	bnez	t1,1b44 <_ntoa_format+0x7c>
    1ae0:	0013f813          	andi	a6,t2,1
    1ae4:	100f9e63          	bnez	t6,1c00 <_ntoa_format+0x138>
    1ae8:	0257f663          	bgeu	a5,t0,1b14 <_ntoa_format+0x4c>
    1aec:	01f00313          	li	t1,31
    1af0:	22f36863          	bltu	t1,a5,1d20 <_ntoa_format+0x258>
    1af4:	03000e13          	li	t3,48
    1af8:	02000e93          	li	t4,32
    1afc:	0080006f          	j	1b04 <_ntoa_format+0x3c>
    1b00:	01d78a63          	beq	a5,t4,1b14 <_ntoa_format+0x4c>
    1b04:	00178793          	addi	a5,a5,1
    1b08:	00f70333          	add	t1,a4,a5
    1b0c:	ffc30fa3          	sb	t3,-1(t1)
    1b10:	fe57e8e3          	bltu	a5,t0,1b00 <_ntoa_format+0x38>
    1b14:	02080863          	beqz	a6,1b44 <_ntoa_format+0x7c>
    1b18:	03f7f663          	bgeu	a5,t6,1b44 <_ntoa_format+0x7c>
    1b1c:	02000813          	li	a6,32
    1b20:	11078263          	beq	a5,a6,1c24 <_ntoa_format+0x15c>
    1b24:	03000e13          	li	t3,48
    1b28:	02000e93          	li	t4,32
    1b2c:	0080006f          	j	1b34 <_ntoa_format+0x6c>
    1b30:	0fd78a63          	beq	a5,t4,1c24 <_ntoa_format+0x15c>
    1b34:	00178793          	addi	a5,a5,1
    1b38:	00f70333          	add	t1,a4,a5
    1b3c:	ffc30fa3          	sb	t3,-1(t1)
    1b40:	fff798e3          	bne	a5,t6,1b30 <_ntoa_format+0x68>
    1b44:	0103f813          	andi	a6,t2,16
    1b48:	08080463          	beqz	a6,1bd0 <_ntoa_format+0x108>
    1b4c:	4003f813          	andi	a6,t2,1024
    1b50:	04081c63          	bnez	a6,1ba8 <_ntoa_format+0xe0>
    1b54:	04079663          	bnez	a5,1ba0 <_ntoa_format+0xd8>
    1b58:	01000793          	li	a5,16
    1b5c:	16f88463          	beq	a7,a5,1cc4 <_ntoa_format+0x1fc>
    1b60:	00200793          	li	a5,2
    1b64:	1af88663          	beq	a7,a5,1d10 <_ntoa_format+0x248>
    1b68:	03000793          	li	a5,48
    1b6c:	00f70023          	sb	a5,0(a4)
    1b70:	00100793          	li	a5,1
    1b74:	060f0463          	beqz	t5,1bdc <_ntoa_format+0x114>
    1b78:	00f70833          	add	a6,a4,a5
    1b7c:	02d00893          	li	a7,45
    1b80:	01180023          	sb	a7,0(a6)
    1b84:	00178793          	addi	a5,a5,1
    1b88:	00038893          	mv	a7,t2
    1b8c:	000f8813          	mv	a6,t6
    1b90:	e15ff06f          	j	19a4 <_out_rev>
    1b94:	4003f793          	andi	a5,t2,1024
    1b98:	16079063          	bnez	a5,1cf8 <_ntoa_format+0x230>
    1b9c:	02000793          	li	a5,32
    1ba0:	0ef28063          	beq	t0,a5,1c80 <_ntoa_format+0x1b8>
    1ba4:	0cff8e63          	beq	t6,a5,1c80 <_ntoa_format+0x1b8>
    1ba8:	01000813          	li	a6,16
    1bac:	0f088a63          	beq	a7,a6,1ca0 <_ntoa_format+0x1d8>
    1bb0:	00200813          	li	a6,2
    1bb4:	0b088863          	beq	a7,a6,1c64 <_ntoa_format+0x19c>
    1bb8:	02000813          	li	a6,32
    1bbc:	fd0786e3          	beq	a5,a6,1b88 <_ntoa_format+0xc0>
    1bc0:	00f70833          	add	a6,a4,a5
    1bc4:	03000893          	li	a7,48
    1bc8:	01180023          	sb	a7,0(a6)
    1bcc:	00178793          	addi	a5,a5,1
    1bd0:	02000813          	li	a6,32
    1bd4:	fb078ae3          	beq	a5,a6,1b88 <_ntoa_format+0xc0>
    1bd8:	fa0f10e3          	bnez	t5,1b78 <_ntoa_format+0xb0>
    1bdc:	0043f813          	andi	a6,t2,4
    1be0:	06081463          	bnez	a6,1c48 <_ntoa_format+0x180>
    1be4:	0083f813          	andi	a6,t2,8
    1be8:	fa0800e3          	beqz	a6,1b88 <_ntoa_format+0xc0>
    1bec:	00f70833          	add	a6,a4,a5
    1bf0:	02000893          	li	a7,32
    1bf4:	01180023          	sb	a7,0(a6)
    1bf8:	00178793          	addi	a5,a5,1
    1bfc:	f8dff06f          	j	1b88 <_ntoa_format+0xc0>
    1c00:	02080a63          	beqz	a6,1c34 <_ntoa_format+0x16c>
    1c04:	060f1a63          	bnez	t5,1c78 <_ntoa_format+0x1b0>
    1c08:	00c3f313          	andi	t1,t2,12
    1c0c:	06031663          	bnez	t1,1c78 <_ntoa_format+0x1b0>
    1c10:	f057f4e3          	bgeu	a5,t0,1b18 <_ntoa_format+0x50>
    1c14:	01f00313          	li	t1,31
    1c18:	ecf37ee3          	bgeu	t1,a5,1af4 <_ntoa_format+0x2c>
    1c1c:	02000793          	li	a5,32
    1c20:	f3f7f2e3          	bgeu	a5,t6,1b44 <_ntoa_format+0x7c>
    1c24:	0103f793          	andi	a5,t2,16
    1c28:	f60796e3          	bnez	a5,1b94 <_ntoa_format+0xcc>
    1c2c:	02000793          	li	a5,32
    1c30:	f59ff06f          	j	1b88 <_ntoa_format+0xc0>
    1c34:	f057f8e3          	bgeu	a5,t0,1b44 <_ntoa_format+0x7c>
    1c38:	01f00313          	li	t1,31
    1c3c:	eaf37ce3          	bgeu	t1,a5,1af4 <_ntoa_format+0x2c>
    1c40:	02000793          	li	a5,32
    1c44:	f01ff06f          	j	1b44 <_ntoa_format+0x7c>
    1c48:	00f70833          	add	a6,a4,a5
    1c4c:	02b00893          	li	a7,43
    1c50:	01180023          	sb	a7,0(a6)
    1c54:	00178793          	addi	a5,a5,1
    1c58:	00038893          	mv	a7,t2
    1c5c:	000f8813          	mv	a6,t6
    1c60:	d45ff06f          	j	19a4 <_out_rev>
    1c64:	02000813          	li	a6,32
    1c68:	f30780e3          	beq	a5,a6,1b88 <_ntoa_format+0xc0>
    1c6c:	00f70833          	add	a6,a4,a5
    1c70:	00178793          	addi	a5,a5,1
    1c74:	0d40006f          	j	1d48 <_ntoa_format+0x280>
    1c78:	ffff8f93          	addi	t6,t6,-1
    1c7c:	f95ff06f          	j	1c10 <_ntoa_format+0x148>
    1c80:	fff78813          	addi	a6,a5,-1
    1c84:	ec080ae3          	beqz	a6,1b58 <_ntoa_format+0x90>
    1c88:	01000313          	li	t1,16
    1c8c:	0a688063          	beq	a7,t1,1d2c <_ntoa_format+0x264>
    1c90:	00200313          	li	t1,2
    1c94:	0a688863          	beq	a7,t1,1d44 <_ntoa_format+0x27c>
    1c98:	00080793          	mv	a5,a6
    1c9c:	f25ff06f          	j	1bc0 <_ntoa_format+0xf8>
    1ca0:	0203f813          	andi	a6,t2,32
    1ca4:	02081c63          	bnez	a6,1cdc <_ntoa_format+0x214>
    1ca8:	02000813          	li	a6,32
    1cac:	ed078ee3          	beq	a5,a6,1b88 <_ntoa_format+0xc0>
    1cb0:	00f708b3          	add	a7,a4,a5
    1cb4:	00178793          	addi	a5,a5,1
    1cb8:	07800813          	li	a6,120
    1cbc:	01088023          	sb	a6,0(a7)
    1cc0:	ef9ff06f          	j	1bb8 <_ntoa_format+0xf0>
    1cc4:	0203f793          	andi	a5,t2,32
    1cc8:	02079c63          	bnez	a5,1d00 <_ntoa_format+0x238>
    1ccc:	07800793          	li	a5,120
    1cd0:	00f70023          	sb	a5,0(a4)
    1cd4:	00100793          	li	a5,1
    1cd8:	ee9ff06f          	j	1bc0 <_ntoa_format+0xf8>
    1cdc:	02000813          	li	a6,32
    1ce0:	eb0784e3          	beq	a5,a6,1b88 <_ntoa_format+0xc0>
    1ce4:	00f70833          	add	a6,a4,a5
    1ce8:	05800893          	li	a7,88
    1cec:	01180023          	sb	a7,0(a6)
    1cf0:	00178793          	addi	a5,a5,1
    1cf4:	ec5ff06f          	j	1bb8 <_ntoa_format+0xf0>
    1cf8:	02000793          	li	a5,32
    1cfc:	eadff06f          	j	1ba8 <_ntoa_format+0xe0>
    1d00:	05800793          	li	a5,88
    1d04:	00f70023          	sb	a5,0(a4)
    1d08:	00100793          	li	a5,1
    1d0c:	eb5ff06f          	j	1bc0 <_ntoa_format+0xf8>
    1d10:	06200793          	li	a5,98
    1d14:	00f70023          	sb	a5,0(a4)
    1d18:	00100793          	li	a5,1
    1d1c:	ea5ff06f          	j	1bc0 <_ntoa_format+0xf8>
    1d20:	02000793          	li	a5,32
    1d24:	de081ae3          	bnez	a6,1b18 <_ntoa_format+0x50>
    1d28:	e1dff06f          	j	1b44 <_ntoa_format+0x7c>
    1d2c:	0203f893          	andi	a7,t2,32
    1d30:	ffe78793          	addi	a5,a5,-2
    1d34:	fa0898e3          	bnez	a7,1ce4 <_ntoa_format+0x21c>
    1d38:	00f708b3          	add	a7,a4,a5
    1d3c:	00080793          	mv	a5,a6
    1d40:	f79ff06f          	j	1cb8 <_ntoa_format+0x1f0>
    1d44:	01070833          	add	a6,a4,a6
    1d48:	06200893          	li	a7,98
    1d4c:	01180023          	sb	a7,0(a6)
    1d50:	e69ff06f          	j	1bb8 <_ntoa_format+0xf0>

00001d54 <_ntoa_long>:
    1d54:	fc010113          	addi	sp,sp,-64
    1d58:	02812c23          	sw	s0,56(sp)
    1d5c:	02112e23          	sw	ra,60(sp)
    1d60:	00080e93          	mv	t4,a6
    1d64:	04412403          	lw	s0,68(sp)
    1d68:	00070e13          	mv	t3,a4
    1d6c:	00078813          	mv	a6,a5
    1d70:	00071863          	bnez	a4,1d80 <_ntoa_long+0x2c>
    1d74:	40047793          	andi	a5,s0,1024
    1d78:	fef47413          	andi	s0,s0,-17
    1d7c:	08079863          	bnez	a5,1e0c <_ntoa_long+0xb8>
    1d80:	02047713          	andi	a4,s0,32
    1d84:	06100293          	li	t0,97
    1d88:	06071e63          	bnez	a4,1e04 <_ntoa_long+0xb0>
    1d8c:	00000793          	li	a5,0
    1d90:	01010713          	addi	a4,sp,16
    1d94:	00900393          	li	t2,9
    1d98:	ff628293          	addi	t0,t0,-10
    1d9c:	02000093          	li	ra,32
    1da0:	00c0006f          	j	1dac <_ntoa_long+0x58>
    1da4:	02178c63          	beq	a5,ra,1ddc <_ntoa_long+0x88>
    1da8:	00030e13          	mv	t3,t1
    1dac:	03de7f33          	remu	t5,t3,t4
    1db0:	0fff7313          	zext.b	t1,t5
    1db4:	03030f93          	addi	t6,t1,48
    1db8:	00530333          	add	t1,t1,t0
    1dbc:	0ff37313          	zext.b	t1,t1
    1dc0:	01e3e463          	bltu	t2,t5,1dc8 <_ntoa_long+0x74>
    1dc4:	0ffff313          	zext.b	t1,t6
    1dc8:	00178793          	addi	a5,a5,1
    1dcc:	00f70f33          	add	t5,a4,a5
    1dd0:	fe6f0fa3          	sb	t1,-1(t5)
    1dd4:	03de5333          	divu	t1,t3,t4
    1dd8:	fdde76e3          	bgeu	t3,t4,1da4 <_ntoa_long+0x50>
    1ddc:	04012303          	lw	t1,64(sp)
    1de0:	00812423          	sw	s0,8(sp)
    1de4:	01112023          	sw	a7,0(sp)
    1de8:	00612223          	sw	t1,4(sp)
    1dec:	000e8893          	mv	a7,t4
    1df0:	cd9ff0ef          	jal	ra,1ac8 <_ntoa_format>
    1df4:	03c12083          	lw	ra,60(sp)
    1df8:	03812403          	lw	s0,56(sp)
    1dfc:	04010113          	addi	sp,sp,64
    1e00:	00008067          	ret
    1e04:	04100293          	li	t0,65
    1e08:	f85ff06f          	j	1d8c <_ntoa_long+0x38>
    1e0c:	00000793          	li	a5,0
    1e10:	01010713          	addi	a4,sp,16
    1e14:	fc9ff06f          	j	1ddc <_ntoa_long+0x88>

00001e18 <_ntoa_long_long>:
    1e18:	f7010113          	addi	sp,sp,-144
    1e1c:	07512223          	sw	s5,100(sp)
    1e20:	07612023          	sw	s6,96(sp)
    1e24:	05712e23          	sw	s7,92(sp)
    1e28:	05812c23          	sw	s8,88(sp)
    1e2c:	05912a23          	sw	s9,84(sp)
    1e30:	05a12823          	sw	s10,80(sp)
    1e34:	05b12623          	sw	s11,76(sp)
    1e38:	06112e23          	sw	ra,124(sp)
    1e3c:	00078d93          	mv	s11,a5
    1e40:	06812c23          	sw	s0,120(sp)
    1e44:	06912a23          	sw	s1,116(sp)
    1e48:	07212823          	sw	s2,112(sp)
    1e4c:	07312623          	sw	s3,108(sp)
    1e50:	07412423          	sw	s4,104(sp)
    1e54:	09112623          	sw	a7,140(sp)
    1e58:	00f767b3          	or	a5,a4,a5
    1e5c:	00a12c23          	sw	a0,24(sp)
    1e60:	00b12e23          	sw	a1,28(sp)
    1e64:	09012b03          	lw	s6,144(sp)
    1e68:	00070a93          	mv	s5,a4
    1e6c:	00060b93          	mv	s7,a2
    1e70:	00068c13          	mv	s8,a3
    1e74:	00080c93          	mv	s9,a6
    1e78:	00088d13          	mv	s10,a7
    1e7c:	00079e63          	bnez	a5,1e98 <_ntoa_long_long+0x80>
    1e80:	09c12703          	lw	a4,156(sp)
    1e84:	09c12783          	lw	a5,156(sp)
    1e88:	fef77a13          	andi	s4,a4,-17
    1e8c:	4007f793          	andi	a5,a5,1024
    1e90:	09412e23          	sw	s4,156(sp)
    1e94:	08079663          	bnez	a5,1f20 <_ntoa_long_long+0x108>
    1e98:	09c12783          	lw	a5,156(sp)
    1e9c:	06100413          	li	s0,97
    1ea0:	0207f793          	andi	a5,a5,32
    1ea4:	10079263          	bnez	a5,1fa8 <_ntoa_long_long+0x190>
    1ea8:	00000a13          	li	s4,0
    1eac:	02010493          	addi	s1,sp,32
    1eb0:	00900913          	li	s2,9
    1eb4:	ff640413          	addi	s0,s0,-10
    1eb8:	02000993          	li	s3,32
    1ebc:	000d0613          	mv	a2,s10
    1ec0:	000b0693          	mv	a3,s6
    1ec4:	000a8513          	mv	a0,s5
    1ec8:	000d8593          	mv	a1,s11
    1ecc:	56d070ef          	jal	ra,9c38 <__umoddi3>
    1ed0:	0ff57513          	zext.b	a0,a0
    1ed4:	00850833          	add	a6,a0,s0
    1ed8:	03050613          	addi	a2,a0,48
    1edc:	0ff87813          	zext.b	a6,a6
    1ee0:	00a96463          	bltu	s2,a0,1ee8 <_ntoa_long_long+0xd0>
    1ee4:	0ff67813          	zext.b	a6,a2
    1ee8:	001a0a13          	addi	s4,s4,1
    1eec:	014488b3          	add	a7,s1,s4
    1ef0:	000a8513          	mv	a0,s5
    1ef4:	000d8593          	mv	a1,s11
    1ef8:	000d0613          	mv	a2,s10
    1efc:	000b0693          	mv	a3,s6
    1f00:	ff088fa3          	sb	a6,-1(a7)
    1f04:	101070ef          	jal	ra,9804 <__udivdi3>
    1f08:	036de063          	bltu	s11,s6,1f28 <_ntoa_long_long+0x110>
    1f0c:	09bb0a63          	beq	s6,s11,1fa0 <_ntoa_long_long+0x188>
    1f10:	013a0c63          	beq	s4,s3,1f28 <_ntoa_long_long+0x110>
    1f14:	00050a93          	mv	s5,a0
    1f18:	00058d93          	mv	s11,a1
    1f1c:	fa1ff06f          	j	1ebc <_ntoa_long_long+0xa4>
    1f20:	00000a13          	li	s4,0
    1f24:	02010493          	addi	s1,sp,32
    1f28:	09812703          	lw	a4,152(sp)
    1f2c:	09c12783          	lw	a5,156(sp)
    1f30:	01c12583          	lw	a1,28(sp)
    1f34:	00e12223          	sw	a4,4(sp)
    1f38:	09412703          	lw	a4,148(sp)
    1f3c:	01812503          	lw	a0,24(sp)
    1f40:	00f12423          	sw	a5,8(sp)
    1f44:	00e12023          	sw	a4,0(sp)
    1f48:	000d0893          	mv	a7,s10
    1f4c:	000c8813          	mv	a6,s9
    1f50:	000a0793          	mv	a5,s4
    1f54:	00048713          	mv	a4,s1
    1f58:	000c0693          	mv	a3,s8
    1f5c:	000b8613          	mv	a2,s7
    1f60:	b69ff0ef          	jal	ra,1ac8 <_ntoa_format>
    1f64:	07c12083          	lw	ra,124(sp)
    1f68:	07812403          	lw	s0,120(sp)
    1f6c:	07412483          	lw	s1,116(sp)
    1f70:	07012903          	lw	s2,112(sp)
    1f74:	06c12983          	lw	s3,108(sp)
    1f78:	06812a03          	lw	s4,104(sp)
    1f7c:	06412a83          	lw	s5,100(sp)
    1f80:	06012b03          	lw	s6,96(sp)
    1f84:	05c12b83          	lw	s7,92(sp)
    1f88:	05812c03          	lw	s8,88(sp)
    1f8c:	05412c83          	lw	s9,84(sp)
    1f90:	05012d03          	lw	s10,80(sp)
    1f94:	04c12d83          	lw	s11,76(sp)
    1f98:	09010113          	addi	sp,sp,144
    1f9c:	00008067          	ret
    1fa0:	f7aaf8e3          	bgeu	s5,s10,1f10 <_ntoa_long_long+0xf8>
    1fa4:	f85ff06f          	j	1f28 <_ntoa_long_long+0x110>
    1fa8:	04100413          	li	s0,65
    1fac:	efdff06f          	j	1ea8 <_ntoa_long_long+0x90>

00001fb0 <_etoa>:
    1fb0:	f8010113          	addi	sp,sp,-128
    1fb4:	07212823          	sw	s2,112(sp)
    1fb8:	07312623          	sw	s3,108(sp)
    1fbc:	07412423          	sw	s4,104(sp)
    1fc0:	07512223          	sw	s5,100(sp)
    1fc4:	00050993          	mv	s3,a0
    1fc8:	00058a13          	mv	s4,a1
    1fcc:	00060913          	mv	s2,a2
    1fd0:	00068a93          	mv	s5,a3
    1fd4:	00070613          	mv	a2,a4
    1fd8:	00078693          	mv	a3,a5
    1fdc:	00070513          	mv	a0,a4
    1fe0:	00078593          	mv	a1,a5
    1fe4:	06812c23          	sw	s0,120(sp)
    1fe8:	06912a23          	sw	s1,116(sp)
    1fec:	07612023          	sw	s6,96(sp)
    1ff0:	05812c23          	sw	s8,88(sp)
    1ff4:	05912a23          	sw	s9,84(sp)
    1ff8:	06112e23          	sw	ra,124(sp)
    1ffc:	05712e23          	sw	s7,92(sp)
    2000:	05a12823          	sw	s10,80(sp)
    2004:	05b12623          	sw	s11,76(sp)
    2008:	00070413          	mv	s0,a4
    200c:	00078493          	mv	s1,a5
    2010:	00080c13          	mv	s8,a6
    2014:	00088b13          	mv	s6,a7
    2018:	6dd080ef          	jal	ra,aef4 <__eqdf2>
    201c:	08012c83          	lw	s9,128(sp)
    2020:	52051863          	bnez	a0,2550 <_etoa+0x5a0>
    2024:	0001e797          	auipc	a5,0x1e
    2028:	fec78793          	addi	a5,a5,-20 # 20010 <__DTOR_END__>
    202c:	0007a603          	lw	a2,0(a5)
    2030:	0047a683          	lw	a3,4(a5)
    2034:	00040513          	mv	a0,s0
    2038:	00048593          	mv	a1,s1
    203c:	745080ef          	jal	ra,af80 <__gedf2>
    2040:	50a04863          	bgtz	a0,2550 <_etoa+0x5a0>
    2044:	0001e797          	auipc	a5,0x1e
    2048:	fd478793          	addi	a5,a5,-44 # 20018 <__DTOR_END__+0x8>
    204c:	0007a603          	lw	a2,0(a5)
    2050:	0047a683          	lw	a3,4(a5)
    2054:	00040513          	mv	a0,s0
    2058:	00048593          	mv	a1,s1
    205c:	008090ef          	jal	ra,b064 <__ledf2>
    2060:	4e054863          	bltz	a0,2550 <_etoa+0x5a0>
    2064:	00040513          	mv	a0,s0
    2068:	00048593          	mv	a1,s1
    206c:	00000613          	li	a2,0
    2070:	00000693          	li	a3,0
    2074:	7f1080ef          	jal	ra,b064 <__ledf2>
    2078:	80000bb7          	lui	s7,0x80000
    207c:	02812223          	sw	s0,36(sp)
    2080:	009bcbb3          	xor	s7,s7,s1
    2084:	00054463          	bltz	a0,208c <_etoa+0xdc>
    2088:	00048b93          	mv	s7,s1
    208c:	400cf793          	andi	a5,s9,1024
    2090:	02f12e23          	sw	a5,60(sp)
    2094:	00079463          	bnez	a5,209c <_etoa+0xec>
    2098:	00600c13          	li	s8,6
    209c:	014bd513          	srli	a0,s7,0x14
    20a0:	7ff57513          	andi	a0,a0,2047
    20a4:	c0150513          	addi	a0,a0,-1023
    20a8:	751090ef          	jal	ra,bff8 <__floatsidf>
    20ac:	0001e797          	auipc	a5,0x1e
    20b0:	f7478793          	addi	a5,a5,-140 # 20020 <__DTOR_END__+0x10>
    20b4:	0007a603          	lw	a2,0(a5)
    20b8:	0047a683          	lw	a3,4(a5)
    20bc:	08c090ef          	jal	ra,b148 <__muldf3>
    20c0:	0001e797          	auipc	a5,0x1e
    20c4:	f6878793          	addi	a5,a5,-152 # 20028 <__DTOR_END__+0x18>
    20c8:	0007a603          	lw	a2,0(a5)
    20cc:	0047a683          	lw	a3,4(a5)
    20d0:	76d070ef          	jal	ra,a03c <__adddf3>
    20d4:	00cb9793          	slli	a5,s7,0xc
    20d8:	00c7d713          	srli	a4,a5,0xc
    20dc:	0001e797          	auipc	a5,0x1e
    20e0:	f5478793          	addi	a5,a5,-172 # 20030 <__DTOR_END__+0x20>
    20e4:	0007a603          	lw	a2,0(a5)
    20e8:	0047a683          	lw	a3,4(a5)
    20ec:	3ff007b7          	lui	a5,0x3ff00
    20f0:	00e7e7b3          	or	a5,a5,a4
    20f4:	00050d93          	mv	s11,a0
    20f8:	00058d13          	mv	s10,a1
    20fc:	00040513          	mv	a0,s0
    2100:	00078593          	mv	a1,a5
    2104:	60c090ef          	jal	ra,b710 <__subdf3>
    2108:	0001e797          	auipc	a5,0x1e
    210c:	f3078793          	addi	a5,a5,-208 # 20038 <__DTOR_END__+0x28>
    2110:	0007a603          	lw	a2,0(a5)
    2114:	0047a683          	lw	a3,4(a5)
    2118:	030090ef          	jal	ra,b148 <__muldf3>
    211c:	00050613          	mv	a2,a0
    2120:	00058693          	mv	a3,a1
    2124:	000d8513          	mv	a0,s11
    2128:	000d0593          	mv	a1,s10
    212c:	711070ef          	jal	ra,a03c <__adddf3>
    2130:	5cd090ef          	jal	ra,befc <__fixdfsi>
    2134:	00050d13          	mv	s10,a0
    2138:	6c1090ef          	jal	ra,bff8 <__floatsidf>
    213c:	0001e797          	auipc	a5,0x1e
    2140:	f0478793          	addi	a5,a5,-252 # 20040 <__DTOR_END__+0x30>
    2144:	0007a603          	lw	a2,0(a5)
    2148:	0047a683          	lw	a3,4(a5)
    214c:	00058d93          	mv	s11,a1
    2150:	00a12c23          	sw	a0,24(sp)
    2154:	7f5080ef          	jal	ra,b148 <__muldf3>
    2158:	0001e717          	auipc	a4,0x1e
    215c:	ef070713          	addi	a4,a4,-272 # 20048 <__DTOR_END__+0x38>
    2160:	00072603          	lw	a2,0(a4)
    2164:	00472683          	lw	a3,4(a4)
    2168:	6d5070ef          	jal	ra,a03c <__adddf3>
    216c:	591090ef          	jal	ra,befc <__fixdfsi>
    2170:	01812783          	lw	a5,24(sp)
    2174:	0001e697          	auipc	a3,0x1e
    2178:	edc68693          	addi	a3,a3,-292 # 20050 <__DTOR_END__+0x40>
    217c:	0006a603          	lw	a2,0(a3)
    2180:	0046a683          	lw	a3,4(a3)
    2184:	00050713          	mv	a4,a0
    2188:	000d8593          	mv	a1,s11
    218c:	00078513          	mv	a0,a5
    2190:	00070d93          	mv	s11,a4
    2194:	7b5080ef          	jal	ra,b148 <__muldf3>
    2198:	00050793          	mv	a5,a0
    219c:	000d8513          	mv	a0,s11
    21a0:	00f12c23          	sw	a5,24(sp)
    21a4:	03b12423          	sw	s11,40(sp)
    21a8:	00058d93          	mv	s11,a1
    21ac:	64d090ef          	jal	ra,bff8 <__floatsidf>
    21b0:	0001e717          	auipc	a4,0x1e
    21b4:	ea870713          	addi	a4,a4,-344 # 20058 <__DTOR_END__+0x48>
    21b8:	00072603          	lw	a2,0(a4)
    21bc:	00472683          	lw	a3,4(a4)
    21c0:	789080ef          	jal	ra,b148 <__muldf3>
    21c4:	01812783          	lw	a5,24(sp)
    21c8:	00050613          	mv	a2,a0
    21cc:	00058693          	mv	a3,a1
    21d0:	00078513          	mv	a0,a5
    21d4:	000d8593          	mv	a1,s11
    21d8:	538090ef          	jal	ra,b710 <__subdf3>
    21dc:	00050613          	mv	a2,a0
    21e0:	00058693          	mv	a3,a1
    21e4:	02a12623          	sw	a0,44(sp)
    21e8:	00b12c23          	sw	a1,24(sp)
    21ec:	75d080ef          	jal	ra,b148 <__muldf3>
    21f0:	01812783          	lw	a5,24(sp)
    21f4:	02c12703          	lw	a4,44(sp)
    21f8:	00050d93          	mv	s11,a0
    21fc:	00078693          	mv	a3,a5
    2200:	00058813          	mv	a6,a1
    2204:	00070613          	mv	a2,a4
    2208:	00078593          	mv	a1,a5
    220c:	00070513          	mv	a0,a4
    2210:	02f12a23          	sw	a5,52(sp)
    2214:	02e12c23          	sw	a4,56(sp)
    2218:	01012c23          	sw	a6,24(sp)
    221c:	621070ef          	jal	ra,a03c <__adddf3>
    2220:	0001e697          	auipc	a3,0x1e
    2224:	e4068693          	addi	a3,a3,-448 # 20060 <__DTOR_END__+0x50>
    2228:	00058813          	mv	a6,a1
    222c:	0006a603          	lw	a2,0(a3)
    2230:	01812583          	lw	a1,24(sp)
    2234:	0046a683          	lw	a3,4(a3)
    2238:	00050893          	mv	a7,a0
    223c:	000d8513          	mv	a0,s11
    2240:	03112823          	sw	a7,48(sp)
    2244:	03012623          	sw	a6,44(sp)
    2248:	5cc080ef          	jal	ra,a814 <__divdf3>
    224c:	0001e717          	auipc	a4,0x1e
    2250:	e1c70713          	addi	a4,a4,-484 # 20068 <__DTOR_END__+0x58>
    2254:	00072603          	lw	a2,0(a4)
    2258:	00472683          	lw	a3,4(a4)
    225c:	5e1070ef          	jal	ra,a03c <__adddf3>
    2260:	00058693          	mv	a3,a1
    2264:	01812583          	lw	a1,24(sp)
    2268:	00050613          	mv	a2,a0
    226c:	000d8513          	mv	a0,s11
    2270:	5a4080ef          	jal	ra,a814 <__divdf3>
    2274:	0001e697          	auipc	a3,0x1e
    2278:	dfc68693          	addi	a3,a3,-516 # 20070 <__DTOR_END__+0x60>
    227c:	0006a603          	lw	a2,0(a3)
    2280:	0046a683          	lw	a3,4(a3)
    2284:	5b9070ef          	jal	ra,a03c <__adddf3>
    2288:	00058693          	mv	a3,a1
    228c:	01812583          	lw	a1,24(sp)
    2290:	00050613          	mv	a2,a0
    2294:	000d8513          	mv	a0,s11
    2298:	57c080ef          	jal	ra,a814 <__divdf3>
    229c:	03812703          	lw	a4,56(sp)
    22a0:	03412783          	lw	a5,52(sp)
    22a4:	0001e697          	auipc	a3,0x1e
    22a8:	dd468693          	addi	a3,a3,-556 # 20078 <__DTOR_END__+0x68>
    22ac:	00050313          	mv	t1,a0
    22b0:	00058d93          	mv	s11,a1
    22b4:	0006a503          	lw	a0,0(a3)
    22b8:	0046a583          	lw	a1,4(a3)
    22bc:	00070613          	mv	a2,a4
    22c0:	00078693          	mv	a3,a5
    22c4:	00612c23          	sw	t1,24(sp)
    22c8:	448090ef          	jal	ra,b710 <__subdf3>
    22cc:	01812303          	lw	t1,24(sp)
    22d0:	00050613          	mv	a2,a0
    22d4:	00058693          	mv	a3,a1
    22d8:	00030513          	mv	a0,t1
    22dc:	000d8593          	mv	a1,s11
    22e0:	55d070ef          	jal	ra,a03c <__adddf3>
    22e4:	03012883          	lw	a7,48(sp)
    22e8:	02c12803          	lw	a6,44(sp)
    22ec:	00050613          	mv	a2,a0
    22f0:	00058693          	mv	a3,a1
    22f4:	00088513          	mv	a0,a7
    22f8:	00080593          	mv	a1,a6
    22fc:	518080ef          	jal	ra,a814 <__divdf3>
    2300:	0001e797          	auipc	a5,0x1e
    2304:	d8078793          	addi	a5,a5,-640 # 20080 <__DTOR_END__+0x70>
    2308:	0007a603          	lw	a2,0(a5)
    230c:	0047a683          	lw	a3,4(a5)
    2310:	52d070ef          	jal	ra,a03c <__adddf3>
    2314:	02812783          	lw	a5,40(sp)
    2318:	00000613          	li	a2,0
    231c:	3ff78793          	addi	a5,a5,1023
    2320:	01479793          	slli	a5,a5,0x14
    2324:	00078693          	mv	a3,a5
    2328:	621080ef          	jal	ra,b148 <__muldf3>
    232c:	00040613          	mv	a2,s0
    2330:	000b8693          	mv	a3,s7
    2334:	00050d93          	mv	s11,a0
    2338:	00b12c23          	sw	a1,24(sp)
    233c:	445080ef          	jal	ra,af80 <__gedf2>
    2340:	26a04863          	bgtz	a0,25b0 <_etoa+0x600>
    2344:	01812383          	lw	t2,24(sp)
    2348:	000d8313          	mv	t1,s11
    234c:	063d0d93          	addi	s11,s10,99
    2350:	00bcd793          	srli	a5,s9,0xb
    2354:	0c600713          	li	a4,198
    2358:	01b73db3          	sltu	s11,a4,s11
    235c:	0017f793          	andi	a5,a5,1
    2360:	004d8d93          	addi	s11,s11,4
    2364:	06078663          	beqz	a5,23d0 <_etoa+0x420>
    2368:	0001e797          	auipc	a5,0x1e
    236c:	d2078793          	addi	a5,a5,-736 # 20088 <__DTOR_END__+0x78>
    2370:	0007a603          	lw	a2,0(a5)
    2374:	0047a683          	lw	a3,4(a5)
    2378:	00040513          	mv	a0,s0
    237c:	000b8593          	mv	a1,s7
    2380:	00612c23          	sw	t1,24(sp)
    2384:	00712e23          	sw	t2,28(sp)
    2388:	3f9080ef          	jal	ra,af80 <__gedf2>
    238c:	01812303          	lw	t1,24(sp)
    2390:	01c12383          	lw	t2,28(sp)
    2394:	02054663          	bltz	a0,23c0 <_etoa+0x410>
    2398:	0001e797          	auipc	a5,0x1e
    239c:	cf878793          	addi	a5,a5,-776 # 20090 <__DTOR_END__+0x80>
    23a0:	0007a603          	lw	a2,0(a5)
    23a4:	0047a683          	lw	a3,4(a5)
    23a8:	00040513          	mv	a0,s0
    23ac:	000b8593          	mv	a1,s7
    23b0:	4b5080ef          	jal	ra,b064 <__ledf2>
    23b4:	01812303          	lw	t1,24(sp)
    23b8:	01c12383          	lw	t2,28(sp)
    23bc:	22054063          	bltz	a0,25dc <_etoa+0x62c>
    23c0:	000c0863          	beqz	s8,23d0 <_etoa+0x420>
    23c4:	03c12783          	lw	a5,60(sp)
    23c8:	00f037b3          	snez	a5,a5
    23cc:	40fc0c33          	sub	s8,s8,a5
    23d0:	00000893          	li	a7,0
    23d4:	016df463          	bgeu	s11,s6,23dc <_etoa+0x42c>
    23d8:	41bb08b3          	sub	a7,s6,s11
    23dc:	002cf793          	andi	a5,s9,2
    23e0:	02f12423          	sw	a5,40(sp)
    23e4:	00078863          	beqz	a5,23f4 <_etoa+0x444>
    23e8:	001db793          	seqz	a5,s11
    23ec:	40f007b3          	neg	a5,a5
    23f0:	00f8f8b3          	and	a7,a7,a5
    23f4:	020d0463          	beqz	s10,241c <_etoa+0x46c>
    23f8:	000b8593          	mv	a1,s7
    23fc:	00040513          	mv	a0,s0
    2400:	00030613          	mv	a2,t1
    2404:	00038693          	mv	a3,t2
    2408:	01112c23          	sw	a7,24(sp)
    240c:	408080ef          	jal	ra,a814 <__divdf3>
    2410:	01812883          	lw	a7,24(sp)
    2414:	02a12223          	sw	a0,36(sp)
    2418:	00058b93          	mv	s7,a1
    241c:	00040513          	mv	a0,s0
    2420:	00048593          	mv	a1,s1
    2424:	00000613          	li	a2,0
    2428:	00000693          	li	a3,0
    242c:	01112c23          	sw	a7,24(sp)
    2430:	435080ef          	jal	ra,b064 <__ledf2>
    2434:	01812883          	lw	a7,24(sp)
    2438:	00055663          	bgez	a0,2444 <_etoa+0x494>
    243c:	800007b7          	lui	a5,0x80000
    2440:	0177cbb3          	xor	s7,a5,s7
    2444:	02412503          	lw	a0,36(sp)
    2448:	fffff7b7          	lui	a5,0xfffff
    244c:	7ff78793          	addi	a5,a5,2047 # fffff7ff <_stack+0xfffbf7ff>
    2450:	00fcf7b3          	and	a5,s9,a5
    2454:	00f12023          	sw	a5,0(sp)
    2458:	00050713          	mv	a4,a0
    245c:	000c0813          	mv	a6,s8
    2460:	000b8793          	mv	a5,s7
    2464:	000a8693          	mv	a3,s5
    2468:	00090613          	mv	a2,s2
    246c:	000a0593          	mv	a1,s4
    2470:	00098513          	mv	a0,s3
    2474:	18c000ef          	jal	ra,2600 <_ftoa>
    2478:	00050413          	mv	s0,a0
    247c:	080d8a63          	beqz	s11,2510 <_etoa+0x560>
    2480:	01ac9513          	slli	a0,s9,0x1a
    2484:	41f55513          	srai	a0,a0,0x1f
    2488:	fe057513          	andi	a0,a0,-32
    248c:	00040613          	mv	a2,s0
    2490:	000a8693          	mv	a3,s5
    2494:	000a0593          	mv	a1,s4
    2498:	06550513          	addi	a0,a0,101
    249c:	000980e7          	jalr	s3
    24a0:	41fd5713          	srai	a4,s10,0x1f
    24a4:	01a746b3          	xor	a3,a4,s10
    24a8:	00500793          	li	a5,5
    24ac:	fffd8d93          	addi	s11,s11,-1
    24b0:	00140613          	addi	a2,s0,1
    24b4:	00f12223          	sw	a5,4(sp)
    24b8:	40e68733          	sub	a4,a3,a4
    24bc:	01fd5793          	srli	a5,s10,0x1f
    24c0:	01b12023          	sw	s11,0(sp)
    24c4:	00000893          	li	a7,0
    24c8:	00a00813          	li	a6,10
    24cc:	000a8693          	mv	a3,s5
    24d0:	000a0593          	mv	a1,s4
    24d4:	00098513          	mv	a0,s3
    24d8:	87dff0ef          	jal	ra,1d54 <_ntoa_long>
    24dc:	02812783          	lw	a5,40(sp)
    24e0:	00050413          	mv	s0,a0
    24e4:	02078663          	beqz	a5,2510 <_etoa+0x560>
    24e8:	41250933          	sub	s2,a0,s2
    24ec:	03697263          	bgeu	s2,s6,2510 <_etoa+0x560>
    24f0:	00040613          	mv	a2,s0
    24f4:	00190913          	addi	s2,s2,1
    24f8:	000a8693          	mv	a3,s5
    24fc:	000a0593          	mv	a1,s4
    2500:	02000513          	li	a0,32
    2504:	00140413          	addi	s0,s0,1
    2508:	000980e7          	jalr	s3
    250c:	ff6962e3          	bltu	s2,s6,24f0 <_etoa+0x540>
    2510:	07c12083          	lw	ra,124(sp)
    2514:	00040513          	mv	a0,s0
    2518:	07812403          	lw	s0,120(sp)
    251c:	07412483          	lw	s1,116(sp)
    2520:	07012903          	lw	s2,112(sp)
    2524:	06c12983          	lw	s3,108(sp)
    2528:	06812a03          	lw	s4,104(sp)
    252c:	06412a83          	lw	s5,100(sp)
    2530:	06012b03          	lw	s6,96(sp)
    2534:	05c12b83          	lw	s7,92(sp)
    2538:	05812c03          	lw	s8,88(sp)
    253c:	05412c83          	lw	s9,84(sp)
    2540:	05012d03          	lw	s10,80(sp)
    2544:	04c12d83          	lw	s11,76(sp)
    2548:	08010113          	addi	sp,sp,128
    254c:	00008067          	ret
    2550:	00040713          	mv	a4,s0
    2554:	07812403          	lw	s0,120(sp)
    2558:	09912023          	sw	s9,128(sp)
    255c:	07c12083          	lw	ra,124(sp)
    2560:	05c12b83          	lw	s7,92(sp)
    2564:	05412c83          	lw	s9,84(sp)
    2568:	05012d03          	lw	s10,80(sp)
    256c:	04c12d83          	lw	s11,76(sp)
    2570:	00048793          	mv	a5,s1
    2574:	000b0893          	mv	a7,s6
    2578:	07412483          	lw	s1,116(sp)
    257c:	06012b03          	lw	s6,96(sp)
    2580:	000c0813          	mv	a6,s8
    2584:	000a8693          	mv	a3,s5
    2588:	05812c03          	lw	s8,88(sp)
    258c:	06412a83          	lw	s5,100(sp)
    2590:	00090613          	mv	a2,s2
    2594:	000a0593          	mv	a1,s4
    2598:	07012903          	lw	s2,112(sp)
    259c:	06812a03          	lw	s4,104(sp)
    25a0:	00098513          	mv	a0,s3
    25a4:	06c12983          	lw	s3,108(sp)
    25a8:	08010113          	addi	sp,sp,128
    25ac:	0540006f          	j	2600 <_ftoa>
    25b0:	0001e797          	auipc	a5,0x1e
    25b4:	ab878793          	addi	a5,a5,-1352 # 20068 <__DTOR_END__+0x58>
    25b8:	0007a603          	lw	a2,0(a5)
    25bc:	0047a683          	lw	a3,4(a5)
    25c0:	01812583          	lw	a1,24(sp)
    25c4:	000d8513          	mv	a0,s11
    25c8:	fffd0d13          	addi	s10,s10,-1
    25cc:	248080ef          	jal	ra,a814 <__divdf3>
    25d0:	00050313          	mv	t1,a0
    25d4:	00058393          	mv	t2,a1
    25d8:	d75ff06f          	j	234c <_etoa+0x39c>
    25dc:	018d5e63          	bge	s10,s8,25f8 <_etoa+0x648>
    25e0:	41ac0c33          	sub	s8,s8,s10
    25e4:	fffc0c13          	addi	s8,s8,-1
    25e8:	400cec93          	ori	s9,s9,1024
    25ec:	00000d93          	li	s11,0
    25f0:	00000d13          	li	s10,0
    25f4:	dddff06f          	j	23d0 <_etoa+0x420>
    25f8:	00000c13          	li	s8,0
    25fc:	fedff06f          	j	25e8 <_etoa+0x638>

00002600 <_ftoa>:
    2600:	f8010113          	addi	sp,sp,-128
    2604:	07312623          	sw	s3,108(sp)
    2608:	07412423          	sw	s4,104(sp)
    260c:	07512223          	sw	s5,100(sp)
    2610:	05812c23          	sw	s8,88(sp)
    2614:	00050993          	mv	s3,a0
    2618:	00058a13          	mv	s4,a1
    261c:	00060a93          	mv	s5,a2
    2620:	00068c13          	mv	s8,a3
    2624:	00070613          	mv	a2,a4
    2628:	00078693          	mv	a3,a5
    262c:	00070513          	mv	a0,a4
    2630:	00078593          	mv	a1,a5
    2634:	06812c23          	sw	s0,120(sp)
    2638:	06912a23          	sw	s1,116(sp)
    263c:	07212823          	sw	s2,112(sp)
    2640:	07612023          	sw	s6,96(sp)
    2644:	05912a23          	sw	s9,84(sp)
    2648:	06112e23          	sw	ra,124(sp)
    264c:	05712e23          	sw	s7,92(sp)
    2650:	05a12823          	sw	s10,80(sp)
    2654:	05b12623          	sw	s11,76(sp)
    2658:	00070493          	mv	s1,a4
    265c:	00078413          	mv	s0,a5
    2660:	00080b13          	mv	s6,a6
    2664:	00088913          	mv	s2,a7
    2668:	08d080ef          	jal	ra,aef4 <__eqdf2>
    266c:	08012c83          	lw	s9,128(sp)
    2670:	22051463          	bnez	a0,2898 <_ftoa+0x298>
    2674:	0001e797          	auipc	a5,0x1e
    2678:	9a478793          	addi	a5,a5,-1628 # 20018 <__DTOR_END__+0x8>
    267c:	0007a603          	lw	a2,0(a5)
    2680:	0047a683          	lw	a3,4(a5)
    2684:	00048513          	mv	a0,s1
    2688:	00040593          	mv	a1,s0
    268c:	1d9080ef          	jal	ra,b064 <__ledf2>
    2690:	30054063          	bltz	a0,2990 <_ftoa+0x390>
    2694:	0001e797          	auipc	a5,0x1e
    2698:	97c78793          	addi	a5,a5,-1668 # 20010 <__DTOR_END__>
    269c:	0007a603          	lw	a2,0(a5)
    26a0:	0047a683          	lw	a3,4(a5)
    26a4:	00048513          	mv	a0,s1
    26a8:	00040593          	mv	a1,s0
    26ac:	0d5080ef          	jal	ra,af80 <__gedf2>
    26b0:	1ca04463          	bgtz	a0,2878 <_ftoa+0x278>
    26b4:	0001e797          	auipc	a5,0x1e
    26b8:	9e478793          	addi	a5,a5,-1564 # 20098 <__DTOR_END__+0x88>
    26bc:	0007a603          	lw	a2,0(a5)
    26c0:	0047a683          	lw	a3,4(a5)
    26c4:	00048513          	mv	a0,s1
    26c8:	00040593          	mv	a1,s0
    26cc:	0b5080ef          	jal	ra,af80 <__gedf2>
    26d0:	26a04063          	bgtz	a0,2930 <_ftoa+0x330>
    26d4:	0001e797          	auipc	a5,0x1e
    26d8:	9cc78793          	addi	a5,a5,-1588 # 200a0 <__DTOR_END__+0x90>
    26dc:	0007a603          	lw	a2,0(a5)
    26e0:	0047a683          	lw	a3,4(a5)
    26e4:	00048513          	mv	a0,s1
    26e8:	00040593          	mv	a1,s0
    26ec:	179080ef          	jal	ra,b064 <__ledf2>
    26f0:	24054063          	bltz	a0,2930 <_ftoa+0x330>
    26f4:	00048513          	mv	a0,s1
    26f8:	00040593          	mv	a1,s0
    26fc:	00000613          	li	a2,0
    2700:	00000693          	li	a3,0
    2704:	161080ef          	jal	ra,b064 <__ledf2>
    2708:	20054063          	bltz	a0,2908 <_ftoa+0x308>
    270c:	00012e23          	sw	zero,28(sp)
    2710:	400cf793          	andi	a5,s9,1024
    2714:	00079463          	bnez	a5,271c <_ftoa+0x11c>
    2718:	00600b13          	li	s6,6
    271c:	02010693          	addi	a3,sp,32
    2720:	fe0b0513          	addi	a0,s6,-32
    2724:	000b0b93          	mv	s7,s6
    2728:	00900613          	li	a2,9
    272c:	03000593          	li	a1,48
    2730:	0140006f          	j	2744 <_ftoa+0x144>
    2734:	00b68023          	sb	a1,0(a3)
    2738:	fffb8b93          	addi	s7,s7,-1 # 7fffffff <_stack+0x7ffbffff>
    273c:	00168693          	addi	a3,a3,1
    2740:	3aab8e63          	beq	s7,a0,2afc <_ftoa+0x4fc>
    2744:	417b0db3          	sub	s11,s6,s7
    2748:	ff7666e3          	bltu	a2,s7,2734 <_ftoa+0x134>
    274c:	00040593          	mv	a1,s0
    2750:	00048513          	mv	a0,s1
    2754:	7a8090ef          	jal	ra,befc <__fixdfsi>
    2758:	003b9613          	slli	a2,s7,0x3
    275c:	0001e697          	auipc	a3,0x1e
    2760:	26c68693          	addi	a3,a3,620 # 209c8 <pow10.0>
    2764:	00c686b3          	add	a3,a3,a2
    2768:	0046a803          	lw	a6,4(a3)
    276c:	0006a783          	lw	a5,0(a3)
    2770:	00050d13          	mv	s10,a0
    2774:	01012623          	sw	a6,12(sp)
    2778:	00f12423          	sw	a5,8(sp)
    277c:	07d090ef          	jal	ra,bff8 <__floatsidf>
    2780:	00050613          	mv	a2,a0
    2784:	00058693          	mv	a3,a1
    2788:	00048513          	mv	a0,s1
    278c:	00040593          	mv	a1,s0
    2790:	781080ef          	jal	ra,b710 <__subdf3>
    2794:	00812603          	lw	a2,8(sp)
    2798:	00c12683          	lw	a3,12(sp)
    279c:	1ad080ef          	jal	ra,b148 <__muldf3>
    27a0:	00b12a23          	sw	a1,20(sp)
    27a4:	00a12c23          	sw	a0,24(sp)
    27a8:	7d4090ef          	jal	ra,bf7c <__fixunsdfsi>
    27ac:	00050b13          	mv	s6,a0
    27b0:	0f1090ef          	jal	ra,c0a0 <__floatunsidf>
    27b4:	01412783          	lw	a5,20(sp)
    27b8:	01812303          	lw	t1,24(sp)
    27bc:	00050613          	mv	a2,a0
    27c0:	00058693          	mv	a3,a1
    27c4:	00030513          	mv	a0,t1
    27c8:	00078593          	mv	a1,a5
    27cc:	745080ef          	jal	ra,b710 <__subdf3>
    27d0:	0001e717          	auipc	a4,0x1e
    27d4:	87870713          	addi	a4,a4,-1928 # 20048 <__DTOR_END__+0x38>
    27d8:	00072303          	lw	t1,0(a4)
    27dc:	00472383          	lw	t2,4(a4)
    27e0:	00a12a23          	sw	a0,20(sp)
    27e4:	00030613          	mv	a2,t1
    27e8:	00038693          	mv	a3,t2
    27ec:	00b12c23          	sw	a1,24(sp)
    27f0:	790080ef          	jal	ra,af80 <__gedf2>
    27f4:	0001e797          	auipc	a5,0x1e
    27f8:	85478793          	addi	a5,a5,-1964 # 20048 <__DTOR_END__+0x38>
    27fc:	0007a303          	lw	t1,0(a5)
    2800:	0047a383          	lw	t2,4(a5)
    2804:	2ca05a63          	blez	a0,2ad8 <_ftoa+0x4d8>
    2808:	001b0b13          	addi	s6,s6,1
    280c:	000b0513          	mv	a0,s6
    2810:	091090ef          	jal	ra,c0a0 <__floatunsidf>
    2814:	00050613          	mv	a2,a0
    2818:	00058693          	mv	a3,a1
    281c:	00812503          	lw	a0,8(sp)
    2820:	00c12583          	lw	a1,12(sp)
    2824:	041080ef          	jal	ra,b064 <__ledf2>
    2828:	00a04663          	bgtz	a0,2834 <_ftoa+0x234>
    282c:	001d0d13          	addi	s10,s10,1
    2830:	00000b13          	li	s6,0
    2834:	1e0b8063          	beqz	s7,2a14 <_ftoa+0x414>
    2838:	02000313          	li	t1,32
    283c:	00a00613          	li	a2,10
    2840:	00900e13          	li	t3,9
    2844:	166d8263          	beq	s11,t1,29a8 <_ftoa+0x3a8>
    2848:	02cb76b3          	remu	a3,s6,a2
    284c:	001d8d93          	addi	s11,s11,1
    2850:	02010793          	addi	a5,sp,32
    2854:	01b78533          	add	a0,a5,s11
    2858:	fffb8593          	addi	a1,s7,-1
    285c:	03068693          	addi	a3,a3,48
    2860:	fed50fa3          	sb	a3,-1(a0)
    2864:	02cb56b3          	divu	a3,s6,a2
    2868:	316e7663          	bgeu	t3,s6,2b74 <_ftoa+0x574>
    286c:	00058b93          	mv	s7,a1
    2870:	00068b13          	mv	s6,a3
    2874:	fd1ff06f          	j	2844 <_ftoa+0x244>
    2878:	004cf793          	andi	a5,s9,4
    287c:	06079e63          	bnez	a5,28f8 <_ftoa+0x2f8>
    2880:	0001e717          	auipc	a4,0x1e
    2884:	f4c70713          	addi	a4,a4,-180 # 207cc <clock_interrupted+0x3c>
    2888:	00300793          	li	a5,3
    288c:	000c8893          	mv	a7,s9
    2890:	00090813          	mv	a6,s2
    2894:	0180006f          	j	28ac <_ftoa+0x2ac>
    2898:	000c8893          	mv	a7,s9
    289c:	00090813          	mv	a6,s2
    28a0:	00300793          	li	a5,3
    28a4:	0001e717          	auipc	a4,0x1e
    28a8:	f3470713          	addi	a4,a4,-204 # 207d8 <clock_interrupted+0x48>
    28ac:	07812403          	lw	s0,120(sp)
    28b0:	07c12083          	lw	ra,124(sp)
    28b4:	07412483          	lw	s1,116(sp)
    28b8:	07012903          	lw	s2,112(sp)
    28bc:	06012b03          	lw	s6,96(sp)
    28c0:	05c12b83          	lw	s7,92(sp)
    28c4:	05412c83          	lw	s9,84(sp)
    28c8:	05012d03          	lw	s10,80(sp)
    28cc:	04c12d83          	lw	s11,76(sp)
    28d0:	000c0693          	mv	a3,s8
    28d4:	000a8613          	mv	a2,s5
    28d8:	05812c03          	lw	s8,88(sp)
    28dc:	06412a83          	lw	s5,100(sp)
    28e0:	000a0593          	mv	a1,s4
    28e4:	00098513          	mv	a0,s3
    28e8:	06812a03          	lw	s4,104(sp)
    28ec:	06c12983          	lw	s3,108(sp)
    28f0:	08010113          	addi	sp,sp,128
    28f4:	8b0ff06f          	j	19a4 <_out_rev>
    28f8:	0001e717          	auipc	a4,0x1e
    28fc:	ed870713          	addi	a4,a4,-296 # 207d0 <clock_interrupted+0x40>
    2900:	00400793          	li	a5,4
    2904:	f89ff06f          	j	288c <_ftoa+0x28c>
    2908:	00048613          	mv	a2,s1
    290c:	00040693          	mv	a3,s0
    2910:	00000513          	li	a0,0
    2914:	00000593          	li	a1,0
    2918:	5f9080ef          	jal	ra,b710 <__subdf3>
    291c:	00100793          	li	a5,1
    2920:	00050493          	mv	s1,a0
    2924:	00058413          	mv	s0,a1
    2928:	00f12e23          	sw	a5,28(sp)
    292c:	de5ff06f          	j	2710 <_ftoa+0x110>
    2930:	00040793          	mv	a5,s0
    2934:	07812403          	lw	s0,120(sp)
    2938:	09912023          	sw	s9,128(sp)
    293c:	07c12083          	lw	ra,124(sp)
    2940:	05c12b83          	lw	s7,92(sp)
    2944:	05412c83          	lw	s9,84(sp)
    2948:	05012d03          	lw	s10,80(sp)
    294c:	04c12d83          	lw	s11,76(sp)
    2950:	00048713          	mv	a4,s1
    2954:	00090893          	mv	a7,s2
    2958:	07412483          	lw	s1,116(sp)
    295c:	07012903          	lw	s2,112(sp)
    2960:	000b0813          	mv	a6,s6
    2964:	000c0693          	mv	a3,s8
    2968:	06012b03          	lw	s6,96(sp)
    296c:	05812c03          	lw	s8,88(sp)
    2970:	000a8613          	mv	a2,s5
    2974:	000a0593          	mv	a1,s4
    2978:	06412a83          	lw	s5,100(sp)
    297c:	06812a03          	lw	s4,104(sp)
    2980:	00098513          	mv	a0,s3
    2984:	06c12983          	lw	s3,108(sp)
    2988:	08010113          	addi	sp,sp,128
    298c:	e24ff06f          	j	1fb0 <_etoa>
    2990:	000c8893          	mv	a7,s9
    2994:	00090813          	mv	a6,s2
    2998:	00400793          	li	a5,4
    299c:	0001e717          	auipc	a4,0x1e
    29a0:	e4070713          	addi	a4,a4,-448 # 207dc <clock_interrupted+0x4c>
    29a4:	f09ff06f          	j	28ac <_ftoa+0x2ac>
    29a8:	003cf793          	andi	a5,s9,3
    29ac:	00100713          	li	a4,1
    29b0:	14e78a63          	beq	a5,a4,2b04 <_ftoa+0x504>
    29b4:	02000793          	li	a5,32
    29b8:	000c8893          	mv	a7,s9
    29bc:	00090813          	mv	a6,s2
    29c0:	02010713          	addi	a4,sp,32
    29c4:	000c0693          	mv	a3,s8
    29c8:	000a8613          	mv	a2,s5
    29cc:	000a0593          	mv	a1,s4
    29d0:	00098513          	mv	a0,s3
    29d4:	fd1fe0ef          	jal	ra,19a4 <_out_rev>
    29d8:	07c12083          	lw	ra,124(sp)
    29dc:	07812403          	lw	s0,120(sp)
    29e0:	07412483          	lw	s1,116(sp)
    29e4:	07012903          	lw	s2,112(sp)
    29e8:	06c12983          	lw	s3,108(sp)
    29ec:	06812a03          	lw	s4,104(sp)
    29f0:	06412a83          	lw	s5,100(sp)
    29f4:	06012b03          	lw	s6,96(sp)
    29f8:	05c12b83          	lw	s7,92(sp)
    29fc:	05812c03          	lw	s8,88(sp)
    2a00:	05412c83          	lw	s9,84(sp)
    2a04:	05012d03          	lw	s10,80(sp)
    2a08:	04c12d83          	lw	s11,76(sp)
    2a0c:	08010113          	addi	sp,sp,128
    2a10:	00008067          	ret
    2a14:	000d0513          	mv	a0,s10
    2a18:	5e0090ef          	jal	ra,bff8 <__floatsidf>
    2a1c:	00050613          	mv	a2,a0
    2a20:	00058693          	mv	a3,a1
    2a24:	00048513          	mv	a0,s1
    2a28:	00040593          	mv	a1,s0
    2a2c:	4e5080ef          	jal	ra,b710 <__subdf3>
    2a30:	0001d797          	auipc	a5,0x1d
    2a34:	61878793          	addi	a5,a5,1560 # 20048 <__DTOR_END__+0x38>
    2a38:	0007ab03          	lw	s6,0(a5)
    2a3c:	0047ab83          	lw	s7,4(a5)
    2a40:	00050493          	mv	s1,a0
    2a44:	000b0613          	mv	a2,s6
    2a48:	000b8693          	mv	a3,s7
    2a4c:	00058413          	mv	s0,a1
    2a50:	614080ef          	jal	ra,b064 <__ledf2>
    2a54:	00055e63          	bgez	a0,2a70 <_ftoa+0x470>
    2a58:	00048513          	mv	a0,s1
    2a5c:	00040593          	mv	a1,s0
    2a60:	000b0613          	mv	a2,s6
    2a64:	000b8693          	mv	a3,s7
    2a68:	518080ef          	jal	ra,af80 <__gedf2>
    2a6c:	00a05663          	blez	a0,2a78 <_ftoa+0x478>
    2a70:	001d7793          	andi	a5,s10,1
    2a74:	00fd0d33          	add	s10,s10,a5
    2a78:	02000593          	li	a1,32
    2a7c:	00a00693          	li	a3,10
    2a80:	f2bd84e3          	beq	s11,a1,29a8 <_ftoa+0x3a8>
    2a84:	02dd67b3          	rem	a5,s10,a3
    2a88:	001d8d93          	addi	s11,s11,1
    2a8c:	02010713          	addi	a4,sp,32
    2a90:	01b70633          	add	a2,a4,s11
    2a94:	02dd4d33          	div	s10,s10,a3
    2a98:	03078793          	addi	a5,a5,48
    2a9c:	fef60fa3          	sb	a5,-1(a2)
    2aa0:	fe0d10e3          	bnez	s10,2a80 <_ftoa+0x480>
    2aa4:	003cf793          	andi	a5,s9,3
    2aa8:	00100693          	li	a3,1
    2aac:	04d78e63          	beq	a5,a3,2b08 <_ftoa+0x508>
    2ab0:	02000693          	li	a3,32
    2ab4:	f0dd80e3          	beq	s11,a3,29b4 <_ftoa+0x3b4>
    2ab8:	01c12783          	lw	a5,28(sp)
    2abc:	08078863          	beqz	a5,2b4c <_ftoa+0x54c>
    2ac0:	04010793          	addi	a5,sp,64
    2ac4:	01b786b3          	add	a3,a5,s11
    2ac8:	02d00713          	li	a4,45
    2acc:	001d8793          	addi	a5,s11,1
    2ad0:	fee68023          	sb	a4,-32(a3)
    2ad4:	ee5ff06f          	j	29b8 <_ftoa+0x3b8>
    2ad8:	01412503          	lw	a0,20(sp)
    2adc:	01812583          	lw	a1,24(sp)
    2ae0:	00030613          	mv	a2,t1
    2ae4:	00038693          	mv	a3,t2
    2ae8:	57c080ef          	jal	ra,b064 <__ledf2>
    2aec:	d40544e3          	bltz	a0,2834 <_ftoa+0x234>
    2af0:	0c0b1a63          	bnez	s6,2bc4 <_ftoa+0x5c4>
    2af4:	001b0b13          	addi	s6,s6,1
    2af8:	d3dff06f          	j	2834 <_ftoa+0x234>
    2afc:	02000d93          	li	s11,32
    2b00:	c4dff06f          	j	274c <_ftoa+0x14c>
    2b04:	02000d93          	li	s11,32
    2b08:	fa0904e3          	beqz	s2,2ab0 <_ftoa+0x4b0>
    2b0c:	01c12783          	lw	a5,28(sp)
    2b10:	0c079e63          	bnez	a5,2bec <_ftoa+0x5ec>
    2b14:	00ccf793          	andi	a5,s9,12
    2b18:	0c079a63          	bnez	a5,2bec <_ftoa+0x5ec>
    2b1c:	f92dfae3          	bgeu	s11,s2,2ab0 <_ftoa+0x4b0>
    2b20:	02000793          	li	a5,32
    2b24:	03000613          	li	a2,48
    2b28:	02000693          	li	a3,32
    2b2c:	e8fd84e3          	beq	s11,a5,29b4 <_ftoa+0x3b4>
    2b30:	001d8d93          	addi	s11,s11,1
    2b34:	02010793          	addi	a5,sp,32
    2b38:	01b787b3          	add	a5,a5,s11
    2b3c:	fec78fa3          	sb	a2,-1(a5)
    2b40:	f72d88e3          	beq	s11,s2,2ab0 <_ftoa+0x4b0>
    2b44:	fedd96e3          	bne	s11,a3,2b30 <_ftoa+0x530>
    2b48:	e6dff06f          	j	29b4 <_ftoa+0x3b4>
    2b4c:	004cf793          	andi	a5,s9,4
    2b50:	08079263          	bnez	a5,2bd4 <_ftoa+0x5d4>
    2b54:	008cf613          	andi	a2,s9,8
    2b58:	000d8793          	mv	a5,s11
    2b5c:	e4060ee3          	beqz	a2,29b8 <_ftoa+0x3b8>
    2b60:	04010713          	addi	a4,sp,64
    2b64:	01b70733          	add	a4,a4,s11
    2b68:	001d8793          	addi	a5,s11,1
    2b6c:	fed70023          	sb	a3,-32(a4)
    2b70:	e49ff06f          	j	29b8 <_ftoa+0x3b8>
    2b74:	e26d8ae3          	beq	s11,t1,29a8 <_ftoa+0x3a8>
    2b78:	000d8613          	mv	a2,s11
    2b7c:	03000893          	li	a7,48
    2b80:	02000513          	li	a0,32
    2b84:	02058463          	beqz	a1,2bac <_ftoa+0x5ac>
    2b88:	00160613          	addi	a2,a2,1
    2b8c:	02010793          	addi	a5,sp,32
    2b90:	fff64693          	not	a3,a2
    2b94:	00c785b3          	add	a1,a5,a2
    2b98:	01b686b3          	add	a3,a3,s11
    2b9c:	ff158fa3          	sb	a7,-1(a1)
    2ba0:	017686b3          	add	a3,a3,s7
    2ba4:	e0a602e3          	beq	a2,a0,29a8 <_ftoa+0x3a8>
    2ba8:	fe0690e3          	bnez	a3,2b88 <_ftoa+0x588>
    2bac:	04010793          	addi	a5,sp,64
    2bb0:	00c787b3          	add	a5,a5,a2
    2bb4:	02e00693          	li	a3,46
    2bb8:	00160d93          	addi	s11,a2,1
    2bbc:	fed78023          	sb	a3,-32(a5)
    2bc0:	eb9ff06f          	j	2a78 <_ftoa+0x478>
    2bc4:	001b7693          	andi	a3,s6,1
    2bc8:	c60686e3          	beqz	a3,2834 <_ftoa+0x234>
    2bcc:	001b0b13          	addi	s6,s6,1
    2bd0:	c65ff06f          	j	2834 <_ftoa+0x234>
    2bd4:	04010793          	addi	a5,sp,64
    2bd8:	01b786b3          	add	a3,a5,s11
    2bdc:	02b00713          	li	a4,43
    2be0:	001d8793          	addi	a5,s11,1
    2be4:	fee68023          	sb	a4,-32(a3)
    2be8:	dd1ff06f          	j	29b8 <_ftoa+0x3b8>
    2bec:	fff90913          	addi	s2,s2,-1
    2bf0:	f2dff06f          	j	2b1c <_ftoa+0x51c>

00002bf4 <_out_char>:
    2bf4:	00051463          	bnez	a0,2bfc <_out_char+0x8>
    2bf8:	00008067          	ret
    2bfc:	cb9fe06f          	j	18b4 <_putchar>

00002c00 <_out_fct>:
    2c00:	00050863          	beqz	a0,2c10 <_out_fct+0x10>
    2c04:	0005a783          	lw	a5,0(a1)
    2c08:	0045a583          	lw	a1,4(a1)
    2c0c:	00078067          	jr	a5
    2c10:	00008067          	ret

00002c14 <_vsnprintf>:
    2c14:	fa010113          	addi	sp,sp,-96
    2c18:	04812c23          	sw	s0,88(sp)
    2c1c:	05312623          	sw	s3,76(sp)
    2c20:	05412423          	sw	s4,72(sp)
    2c24:	03912a23          	sw	s9,52(sp)
    2c28:	03b12623          	sw	s11,44(sp)
    2c2c:	04112e23          	sw	ra,92(sp)
    2c30:	04912a23          	sw	s1,84(sp)
    2c34:	05212823          	sw	s2,80(sp)
    2c38:	05512223          	sw	s5,68(sp)
    2c3c:	05612023          	sw	s6,64(sp)
    2c40:	03712e23          	sw	s7,60(sp)
    2c44:	03812c23          	sw	s8,56(sp)
    2c48:	03a12823          	sw	s10,48(sp)
    2c4c:	00058d93          	mv	s11,a1
    2c50:	00060c93          	mv	s9,a2
    2c54:	00068413          	mv	s0,a3
    2c58:	00070a13          	mv	s4,a4
    2c5c:	fffff997          	auipc	s3,0xfffff
    2c60:	d4498993          	addi	s3,s3,-700 # 19a0 <_out_null>
    2c64:	00058463          	beqz	a1,2c6c <_vsnprintf+0x58>
    2c68:	00050993          	mv	s3,a0
    2c6c:	00044503          	lbu	a0,0(s0)
    2c70:	00000d13          	li	s10,0
    2c74:	60050663          	beqz	a0,3280 <_vsnprintf+0x66c>
    2c78:	000017b7          	lui	a5,0x1
    2c7c:	80078793          	addi	a5,a5,-2048 # 800 <mutex_test+0x270>
    2c80:	00f12a23          	sw	a5,20(sp)
    2c84:	000107b7          	lui	a5,0x10
    2c88:	fff78793          	addi	a5,a5,-1 # ffff <_text_end+0x3edf>
    2c8c:	0001e917          	auipc	s2,0x1e
    2c90:	b5c90913          	addi	s2,s2,-1188 # 207e8 <clock_interrupted+0x58>
    2c94:	00f12c23          	sw	a5,24(sp)
    2c98:	0200006f          	j	2cb8 <_vsnprintf+0xa4>
    2c9c:	000d0613          	mv	a2,s10
    2ca0:	000c8693          	mv	a3,s9
    2ca4:	000d8593          	mv	a1,s11
    2ca8:	001d0d13          	addi	s10,s10,1
    2cac:	000980e7          	jalr	s3
    2cb0:	00044503          	lbu	a0,0(s0)
    2cb4:	10050a63          	beqz	a0,2dc8 <_vsnprintf+0x1b4>
    2cb8:	02500793          	li	a5,37
    2cbc:	00140413          	addi	s0,s0,1
    2cc0:	fcf51ee3          	bne	a0,a5,2c9c <_vsnprintf+0x88>
    2cc4:	00000493          	li	s1,0
    2cc8:	01000813          	li	a6,16
    2ccc:	00044503          	lbu	a0,0(s0)
    2cd0:	00140713          	addi	a4,s0,1
    2cd4:	00070613          	mv	a2,a4
    2cd8:	fe050793          	addi	a5,a0,-32
    2cdc:	0ff7f793          	zext.b	a5,a5
    2ce0:	00f86c63          	bltu	a6,a5,2cf8 <_vsnprintf+0xe4>
    2ce4:	00279793          	slli	a5,a5,0x2
    2ce8:	012787b3          	add	a5,a5,s2
    2cec:	0007a783          	lw	a5,0(a5)
    2cf0:	012787b3          	add	a5,a5,s2
    2cf4:	00078067          	jr	a5
    2cf8:	fd050793          	addi	a5,a0,-48
    2cfc:	0ff7f793          	zext.b	a5,a5
    2d00:	00900813          	li	a6,9
    2d04:	18f87463          	bgeu	a6,a5,2e8c <_vsnprintf+0x278>
    2d08:	02a00793          	li	a5,42
    2d0c:	1cf50463          	beq	a0,a5,2ed4 <_vsnprintf+0x2c0>
    2d10:	00040613          	mv	a2,s0
    2d14:	00000a93          	li	s5,0
    2d18:	00070413          	mv	s0,a4
    2d1c:	02e00793          	li	a5,46
    2d20:	00000c13          	li	s8,0
    2d24:	10f50263          	beq	a0,a5,2e28 <_vsnprintf+0x214>
    2d28:	f9850793          	addi	a5,a0,-104
    2d2c:	0ff7f793          	zext.b	a5,a5
    2d30:	01200713          	li	a4,18
    2d34:	02f76663          	bltu	a4,a5,2d60 <_vsnprintf+0x14c>
    2d38:	0001e717          	auipc	a4,0x1e
    2d3c:	af470713          	addi	a4,a4,-1292 # 2082c <clock_interrupted+0x9c>
    2d40:	00279793          	slli	a5,a5,0x2
    2d44:	00e787b3          	add	a5,a5,a4
    2d48:	0007a783          	lw	a5,0(a5)
    2d4c:	00e787b3          	add	a5,a5,a4
    2d50:	00078067          	jr	a5
    2d54:	00164503          	lbu	a0,1(a2)
    2d58:	1004e493          	ori	s1,s1,256
    2d5c:	00140413          	addi	s0,s0,1
    2d60:	fdb50793          	addi	a5,a0,-37
    2d64:	0ff7f793          	zext.b	a5,a5
    2d68:	05300713          	li	a4,83
    2d6c:	f2f768e3          	bltu	a4,a5,2c9c <_vsnprintf+0x88>
    2d70:	0001e717          	auipc	a4,0x1e
    2d74:	b0870713          	addi	a4,a4,-1272 # 20878 <clock_interrupted+0xe8>
    2d78:	00279793          	slli	a5,a5,0x2
    2d7c:	00e787b3          	add	a5,a5,a4
    2d80:	0007a783          	lw	a5,0(a5)
    2d84:	00e787b3          	add	a5,a5,a4
    2d88:	00078067          	jr	a5
    2d8c:	0014e493          	ori	s1,s1,1
    2d90:	00070413          	mv	s0,a4
    2d94:	f39ff06f          	j	2ccc <_vsnprintf+0xb8>
    2d98:	0024e493          	ori	s1,s1,2
    2d9c:	00070413          	mv	s0,a4
    2da0:	f2dff06f          	j	2ccc <_vsnprintf+0xb8>
    2da4:	0044e493          	ori	s1,s1,4
    2da8:	00070413          	mv	s0,a4
    2dac:	f21ff06f          	j	2ccc <_vsnprintf+0xb8>
    2db0:	0104e493          	ori	s1,s1,16
    2db4:	00070413          	mv	s0,a4
    2db8:	f15ff06f          	j	2ccc <_vsnprintf+0xb8>
    2dbc:	0084e493          	ori	s1,s1,8
    2dc0:	00070413          	mv	s0,a4
    2dc4:	f09ff06f          	j	2ccc <_vsnprintf+0xb8>
    2dc8:	000d0413          	mv	s0,s10
    2dcc:	019d6463          	bltu	s10,s9,2dd4 <_vsnprintf+0x1c0>
    2dd0:	fffc8d13          	addi	s10,s9,-1
    2dd4:	000c8693          	mv	a3,s9
    2dd8:	000d0613          	mv	a2,s10
    2ddc:	000d8593          	mv	a1,s11
    2de0:	00000513          	li	a0,0
    2de4:	000980e7          	jalr	s3
    2de8:	05c12083          	lw	ra,92(sp)
    2dec:	00040513          	mv	a0,s0
    2df0:	05812403          	lw	s0,88(sp)
    2df4:	05412483          	lw	s1,84(sp)
    2df8:	05012903          	lw	s2,80(sp)
    2dfc:	04c12983          	lw	s3,76(sp)
    2e00:	04812a03          	lw	s4,72(sp)
    2e04:	04412a83          	lw	s5,68(sp)
    2e08:	04012b03          	lw	s6,64(sp)
    2e0c:	03c12b83          	lw	s7,60(sp)
    2e10:	03812c03          	lw	s8,56(sp)
    2e14:	03412c83          	lw	s9,52(sp)
    2e18:	03012d03          	lw	s10,48(sp)
    2e1c:	02c12d83          	lw	s11,44(sp)
    2e20:	06010113          	addi	sp,sp,96
    2e24:	00008067          	ret
    2e28:	00164503          	lbu	a0,1(a2)
    2e2c:	00900713          	li	a4,9
    2e30:	4004e493          	ori	s1,s1,1024
    2e34:	fd050793          	addi	a5,a0,-48
    2e38:	0ff7f793          	zext.b	a5,a5
    2e3c:	00f77c63          	bgeu	a4,a5,2e54 <_vsnprintf+0x240>
    2e40:	02a00793          	li	a5,42
    2e44:	34f50663          	beq	a0,a5,3190 <_vsnprintf+0x57c>
    2e48:	00040613          	mv	a2,s0
    2e4c:	00140413          	addi	s0,s0,1
    2e50:	ed9ff06f          	j	2d28 <_vsnprintf+0x114>
    2e54:	002c1793          	slli	a5,s8,0x2
    2e58:	01878833          	add	a6,a5,s8
    2e5c:	00040e13          	mv	t3,s0
    2e60:	00181813          	slli	a6,a6,0x1
    2e64:	00140413          	addi	s0,s0,1
    2e68:	00a80833          	add	a6,a6,a0
    2e6c:	00044503          	lbu	a0,0(s0)
    2e70:	fd080c13          	addi	s8,a6,-48
    2e74:	fd050793          	addi	a5,a0,-48
    2e78:	0ff7f793          	zext.b	a5,a5
    2e7c:	fcf77ce3          	bgeu	a4,a5,2e54 <_vsnprintf+0x240>
    2e80:	00040613          	mv	a2,s0
    2e84:	002e0413          	addi	s0,t3,2
    2e88:	ea1ff06f          	j	2d28 <_vsnprintf+0x114>
    2e8c:	00000a93          	li	s5,0
    2e90:	00900613          	li	a2,9
    2e94:	0080006f          	j	2e9c <_vsnprintf+0x288>
    2e98:	00170713          	addi	a4,a4,1
    2e9c:	002a9793          	slli	a5,s5,0x2
    2ea0:	015788b3          	add	a7,a5,s5
    2ea4:	00189893          	slli	a7,a7,0x1
    2ea8:	00a888b3          	add	a7,a7,a0
    2eac:	00074503          	lbu	a0,0(a4)
    2eb0:	00040813          	mv	a6,s0
    2eb4:	fd088a93          	addi	s5,a7,-48
    2eb8:	fd050793          	addi	a5,a0,-48
    2ebc:	0ff7f793          	zext.b	a5,a5
    2ec0:	00070413          	mv	s0,a4
    2ec4:	fcf67ae3          	bgeu	a2,a5,2e98 <_vsnprintf+0x284>
    2ec8:	00070613          	mv	a2,a4
    2ecc:	00280413          	addi	s0,a6,2
    2ed0:	e4dff06f          	j	2d1c <_vsnprintf+0x108>
    2ed4:	000a2a83          	lw	s5,0(s4)
    2ed8:	004a0a13          	addi	s4,s4,4
    2edc:	000ac863          	bltz	s5,2eec <_vsnprintf+0x2d8>
    2ee0:	00144503          	lbu	a0,1(s0)
    2ee4:	00240413          	addi	s0,s0,2
    2ee8:	e35ff06f          	j	2d1c <_vsnprintf+0x108>
    2eec:	00144503          	lbu	a0,1(s0)
    2ef0:	0024e493          	ori	s1,s1,2
    2ef4:	41500ab3          	neg	s5,s5
    2ef8:	00240413          	addi	s0,s0,2
    2efc:	e21ff06f          	j	2d1c <_vsnprintf+0x108>
    2f00:	07800793          	li	a5,120
    2f04:	4ef50e63          	beq	a0,a5,3400 <_vsnprintf+0x7ec>
    2f08:	05800793          	li	a5,88
    2f0c:	38f50063          	beq	a0,a5,328c <_vsnprintf+0x678>
    2f10:	06f00793          	li	a5,111
    2f14:	52f50863          	beq	a0,a5,3444 <_vsnprintf+0x830>
    2f18:	06200793          	li	a5,98
    2f1c:	5af50063          	beq	a0,a5,34bc <_vsnprintf+0x8a8>
    2f20:	06900713          	li	a4,105
    2f24:	fef4fe13          	andi	t3,s1,-17
    2f28:	4004f793          	andi	a5,s1,1024
    2f2c:	5ce51e63          	bne	a0,a4,3508 <_vsnprintf+0x8f4>
    2f30:	4e079263          	bnez	a5,3414 <_vsnprintf+0x800>
    2f34:	2004f493          	andi	s1,s1,512
    2f38:	00a00813          	li	a6,10
    2f3c:	46049063          	bnez	s1,339c <_vsnprintf+0x788>
    2f40:	100e7793          	andi	a5,t3,256
    2f44:	004a0493          	addi	s1,s4,4
    2f48:	54079663          	bnez	a5,3494 <_vsnprintf+0x880>
    2f4c:	040e7793          	andi	a5,t3,64
    2f50:	4c079a63          	bnez	a5,3424 <_vsnprintf+0x810>
    2f54:	080e7793          	andi	a5,t3,128
    2f58:	56078a63          	beqz	a5,34cc <_vsnprintf+0x8b8>
    2f5c:	000a1783          	lh	a5,0(s4)
    2f60:	40f7d613          	srai	a2,a5,0xf
    2f64:	00c7c733          	xor	a4,a5,a2
    2f68:	40c70733          	sub	a4,a4,a2
    2f6c:	01071713          	slli	a4,a4,0x10
    2f70:	01075713          	srli	a4,a4,0x10
    2f74:	000d0613          	mv	a2,s10
    2f78:	01c12223          	sw	t3,4(sp)
    2f7c:	01512023          	sw	s5,0(sp)
    2f80:	000c0893          	mv	a7,s8
    2f84:	01f7d793          	srli	a5,a5,0x1f
    2f88:	000c8693          	mv	a3,s9
    2f8c:	000d8593          	mv	a1,s11
    2f90:	00098513          	mv	a0,s3
    2f94:	dc1fe0ef          	jal	ra,1d54 <_ntoa_long>
    2f98:	00050d13          	mv	s10,a0
    2f9c:	00048a13          	mv	s4,s1
    2fa0:	d11ff06f          	j	2cb0 <_vsnprintf+0x9c>
    2fa4:	00164503          	lbu	a0,1(a2)
    2fa8:	06c00793          	li	a5,108
    2fac:	daf516e3          	bne	a0,a5,2d58 <_vsnprintf+0x144>
    2fb0:	00264503          	lbu	a0,2(a2)
    2fb4:	3004e493          	ori	s1,s1,768
    2fb8:	00360413          	addi	s0,a2,3
    2fbc:	da5ff06f          	j	2d60 <_vsnprintf+0x14c>
    2fc0:	00164503          	lbu	a0,1(a2)
    2fc4:	2004e493          	ori	s1,s1,512
    2fc8:	00140413          	addi	s0,s0,1
    2fcc:	d95ff06f          	j	2d60 <_vsnprintf+0x14c>
    2fd0:	00164503          	lbu	a0,1(a2)
    2fd4:	06800793          	li	a5,104
    2fd8:	28f50863          	beq	a0,a5,3268 <_vsnprintf+0x654>
    2fdc:	0804e493          	ori	s1,s1,128
    2fe0:	00140413          	addi	s0,s0,1
    2fe4:	d7dff06f          	j	2d60 <_vsnprintf+0x14c>
    2fe8:	04600793          	li	a5,70
    2fec:	22f50263          	beq	a0,a5,3210 <_vsnprintf+0x5fc>
    2ff0:	007a0a13          	addi	s4,s4,7
    2ff4:	ff8a7a13          	andi	s4,s4,-8
    2ff8:	000a2703          	lw	a4,0(s4)
    2ffc:	004a2783          	lw	a5,4(s4)
    3000:	000d0613          	mv	a2,s10
    3004:	00912023          	sw	s1,0(sp)
    3008:	000a8893          	mv	a7,s5
    300c:	000c0813          	mv	a6,s8
    3010:	000c8693          	mv	a3,s9
    3014:	000d8593          	mv	a1,s11
    3018:	00098513          	mv	a0,s3
    301c:	de4ff0ef          	jal	ra,2600 <_ftoa>
    3020:	008a0a13          	addi	s4,s4,8
    3024:	00050d13          	mv	s10,a0
    3028:	c89ff06f          	j	2cb0 <_vsnprintf+0x9c>
    302c:	000a2b83          	lw	s7,0(s4)
    3030:	004a0a13          	addi	s4,s4,4
    3034:	000bc503          	lbu	a0,0(s7)
    3038:	160c1e63          	bnez	s8,31b4 <_vsnprintf+0x5a0>
    303c:	ffe00b13          	li	s6,-2
    3040:	4a050063          	beqz	a0,34e0 <_vsnprintf+0x8cc>
    3044:	001b0b13          	addi	s6,s6,1
    3048:	016b8b33          	add	s6,s7,s6
    304c:	000b8793          	mv	a5,s7
    3050:	0080006f          	j	3058 <_vsnprintf+0x444>
    3054:	22fb0263          	beq	s6,a5,3278 <_vsnprintf+0x664>
    3058:	0017c703          	lbu	a4,1(a5)
    305c:	00178793          	addi	a5,a5,1
    3060:	fe071ae3          	bnez	a4,3054 <_vsnprintf+0x440>
    3064:	41778b33          	sub	s6,a5,s7
    3068:	4004f793          	andi	a5,s1,1024
    306c:	00f12823          	sw	a5,16(sp)
    3070:	00078663          	beqz	a5,307c <_vsnprintf+0x468>
    3074:	016c7463          	bgeu	s8,s6,307c <_vsnprintf+0x468>
    3078:	000c0b13          	mv	s6,s8
    307c:	0024f793          	andi	a5,s1,2
    3080:	00f12e23          	sw	a5,28(sp)
    3084:	2c078a63          	beqz	a5,3358 <_vsnprintf+0x744>
    3088:	18050a63          	beqz	a0,321c <_vsnprintf+0x608>
    308c:	000d0613          	mv	a2,s10
    3090:	0080006f          	j	3098 <_vsnprintf+0x484>
    3094:	00048613          	mv	a2,s1
    3098:	01012783          	lw	a5,16(sp)
    309c:	00078863          	beqz	a5,30ac <_vsnprintf+0x498>
    30a0:	fffc0793          	addi	a5,s8,-1
    30a4:	240c0c63          	beqz	s8,32fc <_vsnprintf+0x6e8>
    30a8:	00078c13          	mv	s8,a5
    30ac:	000c8693          	mv	a3,s9
    30b0:	000d8593          	mv	a1,s11
    30b4:	00160493          	addi	s1,a2,1
    30b8:	000980e7          	jalr	s3
    30bc:	41a487b3          	sub	a5,s1,s10
    30c0:	00fb87b3          	add	a5,s7,a5
    30c4:	0007c503          	lbu	a0,0(a5)
    30c8:	fc0516e3          	bnez	a0,3094 <_vsnprintf+0x480>
    30cc:	01c12783          	lw	a5,28(sp)
    30d0:	14079463          	bnez	a5,3218 <_vsnprintf+0x604>
    30d4:	00048d13          	mv	s10,s1
    30d8:	bd9ff06f          	j	2cb0 <_vsnprintf+0x9c>
    30dc:	000d0613          	mv	a2,s10
    30e0:	000c8693          	mv	a3,s9
    30e4:	000d8593          	mv	a1,s11
    30e8:	02500513          	li	a0,37
    30ec:	001d0d13          	addi	s10,s10,1
    30f0:	000980e7          	jalr	s3
    30f4:	bbdff06f          	j	2cb0 <_vsnprintf+0x9c>
    30f8:	000a2703          	lw	a4,0(s4)
    30fc:	00800793          	li	a5,8
    3100:	0214e493          	ori	s1,s1,33
    3104:	000d0613          	mv	a2,s10
    3108:	00f12023          	sw	a5,0(sp)
    310c:	00912223          	sw	s1,4(sp)
    3110:	000c0893          	mv	a7,s8
    3114:	01000813          	li	a6,16
    3118:	00000793          	li	a5,0
    311c:	000c8693          	mv	a3,s9
    3120:	000d8593          	mv	a1,s11
    3124:	00098513          	mv	a0,s3
    3128:	c2dfe0ef          	jal	ra,1d54 <_ntoa_long>
    312c:	004a0a13          	addi	s4,s4,4
    3130:	00050d13          	mv	s10,a0
    3134:	b7dff06f          	j	2cb0 <_vsnprintf+0x9c>
    3138:	001d0b93          	addi	s7,s10,1
    313c:	0024f493          	andi	s1,s1,2
    3140:	000b8b13          	mv	s6,s7
    3144:	004a0c13          	addi	s8,s4,4
    3148:	1a048e63          	beqz	s1,3304 <_vsnprintf+0x6f0>
    314c:	000a4503          	lbu	a0,0(s4)
    3150:	000d0613          	mv	a2,s10
    3154:	000c8693          	mv	a3,s9
    3158:	000d8593          	mv	a1,s11
    315c:	000980e7          	jalr	s3
    3160:	00100793          	li	a5,1
    3164:	015d0d33          	add	s10,s10,s5
    3168:	2d57f863          	bgeu	a5,s5,3438 <_vsnprintf+0x824>
    316c:	000b0613          	mv	a2,s6
    3170:	000c8693          	mv	a3,s9
    3174:	001b0b13          	addi	s6,s6,1
    3178:	000d8593          	mv	a1,s11
    317c:	02000513          	li	a0,32
    3180:	000980e7          	jalr	s3
    3184:	ff6d14e3          	bne	s10,s6,316c <_vsnprintf+0x558>
    3188:	000c0a13          	mv	s4,s8
    318c:	b25ff06f          	j	2cb0 <_vsnprintf+0x9c>
    3190:	000a2c03          	lw	s8,0(s4)
    3194:	00264503          	lbu	a0,2(a2)
    3198:	00360413          	addi	s0,a2,3
    319c:	fffc4793          	not	a5,s8
    31a0:	41f7d793          	srai	a5,a5,0x1f
    31a4:	00fc7c33          	and	s8,s8,a5
    31a8:	004a0a13          	addi	s4,s4,4
    31ac:	00260613          	addi	a2,a2,2
    31b0:	b79ff06f          	j	2d28 <_vsnprintf+0x114>
    31b4:	32050663          	beqz	a0,34e0 <_vsnprintf+0x8cc>
    31b8:	fffc0b13          	addi	s6,s8,-1
    31bc:	e89ff06f          	j	3044 <_vsnprintf+0x430>
    31c0:	0df57793          	andi	a5,a0,223
    31c4:	04700713          	li	a4,71
    31c8:	08e78263          	beq	a5,a4,324c <_vsnprintf+0x638>
    31cc:	04500793          	li	a5,69
    31d0:	08f50863          	beq	a0,a5,3260 <_vsnprintf+0x64c>
    31d4:	007a0a13          	addi	s4,s4,7
    31d8:	ff8a7a13          	andi	s4,s4,-8
    31dc:	000a2703          	lw	a4,0(s4)
    31e0:	004a2783          	lw	a5,4(s4)
    31e4:	000d0613          	mv	a2,s10
    31e8:	00912023          	sw	s1,0(sp)
    31ec:	000a8893          	mv	a7,s5
    31f0:	000c0813          	mv	a6,s8
    31f4:	000c8693          	mv	a3,s9
    31f8:	000d8593          	mv	a1,s11
    31fc:	00098513          	mv	a0,s3
    3200:	db1fe0ef          	jal	ra,1fb0 <_etoa>
    3204:	008a0a13          	addi	s4,s4,8
    3208:	00050d13          	mv	s10,a0
    320c:	aa5ff06f          	j	2cb0 <_vsnprintf+0x9c>
    3210:	0204e493          	ori	s1,s1,32
    3214:	dddff06f          	j	2ff0 <_vsnprintf+0x3dc>
    3218:	00048d13          	mv	s10,s1
    321c:	175b7a63          	bgeu	s6,s5,3390 <_vsnprintf+0x77c>
    3220:	01aa8733          	add	a4,s5,s10
    3224:	416704b3          	sub	s1,a4,s6
    3228:	000d0613          	mv	a2,s10
    322c:	000c8693          	mv	a3,s9
    3230:	001d0d13          	addi	s10,s10,1
    3234:	000d8593          	mv	a1,s11
    3238:	02000513          	li	a0,32
    323c:	000980e7          	jalr	s3
    3240:	ffa494e3          	bne	s1,s10,3228 <_vsnprintf+0x614>
    3244:	00048d13          	mv	s10,s1
    3248:	a69ff06f          	j	2cb0 <_vsnprintf+0x9c>
    324c:	01412703          	lw	a4,20(sp)
    3250:	0fd57513          	andi	a0,a0,253
    3254:	04500793          	li	a5,69
    3258:	00e4e4b3          	or	s1,s1,a4
    325c:	f6f51ce3          	bne	a0,a5,31d4 <_vsnprintf+0x5c0>
    3260:	0204e493          	ori	s1,s1,32
    3264:	f71ff06f          	j	31d4 <_vsnprintf+0x5c0>
    3268:	00264503          	lbu	a0,2(a2)
    326c:	0c04e493          	ori	s1,s1,192
    3270:	00360413          	addi	s0,a2,3
    3274:	aedff06f          	j	2d60 <_vsnprintf+0x14c>
    3278:	417b0b33          	sub	s6,s6,s7
    327c:	dedff06f          	j	3068 <_vsnprintf+0x454>
    3280:	00000413          	li	s0,0
    3284:	b59d68e3          	bltu	s10,s9,2dd4 <_vsnprintf+0x1c0>
    3288:	b49ff06f          	j	2dd0 <_vsnprintf+0x1bc>
    328c:	ff34fe13          	andi	t3,s1,-13
    3290:	4004f793          	andi	a5,s1,1024
    3294:	020e6e13          	ori	t3,t3,32
    3298:	01000813          	li	a6,16
    329c:	18078063          	beqz	a5,341c <_vsnprintf+0x808>
    32a0:	ffee7e13          	andi	t3,t3,-2
    32a4:	06900793          	li	a5,105
    32a8:	200e7493          	andi	s1,t3,512
    32ac:	c8f508e3          	beq	a0,a5,2f3c <_vsnprintf+0x328>
    32b0:	06400793          	li	a5,100
    32b4:	c8f504e3          	beq	a0,a5,2f3c <_vsnprintf+0x328>
    32b8:	1a049663          	bnez	s1,3464 <_vsnprintf+0x850>
    32bc:	100e7793          	andi	a5,t3,256
    32c0:	004a0493          	addi	s1,s4,4
    32c4:	20079063          	bnez	a5,34c4 <_vsnprintf+0x8b0>
    32c8:	040e7793          	andi	a5,t3,64
    32cc:	16079263          	bnez	a5,3430 <_vsnprintf+0x81c>
    32d0:	080e7793          	andi	a5,t3,128
    32d4:	000a2703          	lw	a4,0(s4)
    32d8:	00078663          	beqz	a5,32e4 <_vsnprintf+0x6d0>
    32dc:	01812783          	lw	a5,24(sp)
    32e0:	00f77733          	and	a4,a4,a5
    32e4:	000d0613          	mv	a2,s10
    32e8:	01c12223          	sw	t3,4(sp)
    32ec:	01512023          	sw	s5,0(sp)
    32f0:	000c0893          	mv	a7,s8
    32f4:	00000793          	li	a5,0
    32f8:	c91ff06f          	j	2f88 <_vsnprintf+0x374>
    32fc:	00060493          	mv	s1,a2
    3300:	dcdff06f          	j	30cc <_vsnprintf+0x4b8>
    3304:	00100793          	li	a5,1
    3308:	1f57f663          	bgeu	a5,s5,34f4 <_vsnprintf+0x8e0>
    330c:	fffd0493          	addi	s1,s10,-1
    3310:	015484b3          	add	s1,s1,s5
    3314:	0080006f          	j	331c <_vsnprintf+0x708>
    3318:	001b8b93          	addi	s7,s7,1
    331c:	000d0613          	mv	a2,s10
    3320:	000c8693          	mv	a3,s9
    3324:	000d8593          	mv	a1,s11
    3328:	02000513          	li	a0,32
    332c:	000b8d13          	mv	s10,s7
    3330:	000980e7          	jalr	s3
    3334:	fe9b92e3          	bne	s7,s1,3318 <_vsnprintf+0x704>
    3338:	001b8d13          	addi	s10,s7,1
    333c:	000a4503          	lbu	a0,0(s4)
    3340:	000c8693          	mv	a3,s9
    3344:	00048613          	mv	a2,s1
    3348:	000d8593          	mv	a1,s11
    334c:	000980e7          	jalr	s3
    3350:	000c0a13          	mv	s4,s8
    3354:	95dff06f          	j	2cb0 <_vsnprintf+0x9c>
    3358:	001b0793          	addi	a5,s6,1
    335c:	195b7663          	bgeu	s6,s5,34e8 <_vsnprintf+0x8d4>
    3360:	01aa87b3          	add	a5,s5,s10
    3364:	41678b33          	sub	s6,a5,s6
    3368:	000d0613          	mv	a2,s10
    336c:	000c8693          	mv	a3,s9
    3370:	001d0d13          	addi	s10,s10,1
    3374:	000d8593          	mv	a1,s11
    3378:	02000513          	li	a0,32
    337c:	000980e7          	jalr	s3
    3380:	ffab14e3          	bne	s6,s10,3368 <_vsnprintf+0x754>
    3384:	000bc503          	lbu	a0,0(s7)
    3388:	001a8b13          	addi	s6,s5,1
    338c:	d00510e3          	bnez	a0,308c <_vsnprintf+0x478>
    3390:	000d0493          	mv	s1,s10
    3394:	00048d13          	mv	s10,s1
    3398:	919ff06f          	j	2cb0 <_vsnprintf+0x9c>
    339c:	007a0a13          	addi	s4,s4,7
    33a0:	ff8a7a13          	andi	s4,s4,-8
    33a4:	004a2f03          	lw	t5,4(s4)
    33a8:	000a2783          	lw	a5,0(s4)
    33ac:	00080893          	mv	a7,a6
    33b0:	41ff5513          	srai	a0,t5,0x1f
    33b4:	00f547b3          	xor	a5,a0,a5
    33b8:	40a78733          	sub	a4,a5,a0
    33bc:	01e54333          	xor	t1,a0,t5
    33c0:	00e7b7b3          	sltu	a5,a5,a4
    33c4:	40a30533          	sub	a0,t1,a0
    33c8:	000d0613          	mv	a2,s10
    33cc:	01c12623          	sw	t3,12(sp)
    33d0:	01512423          	sw	s5,8(sp)
    33d4:	01812223          	sw	s8,4(sp)
    33d8:	00012023          	sw	zero,0(sp)
    33dc:	01ff5813          	srli	a6,t5,0x1f
    33e0:	40f507b3          	sub	a5,a0,a5
    33e4:	000c8693          	mv	a3,s9
    33e8:	000d8593          	mv	a1,s11
    33ec:	00098513          	mv	a0,s3
    33f0:	a29fe0ef          	jal	ra,1e18 <_ntoa_long_long>
    33f4:	008a0a13          	addi	s4,s4,8
    33f8:	00050d13          	mv	s10,a0
    33fc:	8b5ff06f          	j	2cb0 <_vsnprintf+0x9c>
    3400:	4004f793          	andi	a5,s1,1024
    3404:	01000813          	li	a6,16
    3408:	ff34fe13          	andi	t3,s1,-13
    340c:	e8078ce3          	beqz	a5,32a4 <_vsnprintf+0x690>
    3410:	e91ff06f          	j	32a0 <_vsnprintf+0x68c>
    3414:	00a00813          	li	a6,10
    3418:	e89ff06f          	j	32a0 <_vsnprintf+0x68c>
    341c:	2004f493          	andi	s1,s1,512
    3420:	e99ff06f          	j	32b8 <_vsnprintf+0x6a4>
    3424:	000a4783          	lbu	a5,0(s4)
    3428:	00078713          	mv	a4,a5
    342c:	b49ff06f          	j	2f74 <_vsnprintf+0x360>
    3430:	000a4703          	lbu	a4,0(s4)
    3434:	eb1ff06f          	j	32e4 <_vsnprintf+0x6d0>
    3438:	000b8d13          	mv	s10,s7
    343c:	000c0a13          	mv	s4,s8
    3440:	871ff06f          	j	2cb0 <_vsnprintf+0x9c>
    3444:	00800813          	li	a6,8
    3448:	00048e13          	mv	t3,s1
    344c:	06400713          	li	a4,100
    3450:	400e7793          	andi	a5,t3,1024
    3454:	0ae51663          	bne	a0,a4,3500 <_vsnprintf+0x8ec>
    3458:	200e7493          	andi	s1,t3,512
    345c:	ae0780e3          	beqz	a5,2f3c <_vsnprintf+0x328>
    3460:	e41ff06f          	j	32a0 <_vsnprintf+0x68c>
    3464:	007a0a13          	addi	s4,s4,7
    3468:	ff8a7a13          	andi	s4,s4,-8
    346c:	000a2703          	lw	a4,0(s4)
    3470:	004a2783          	lw	a5,4(s4)
    3474:	00080893          	mv	a7,a6
    3478:	000d0613          	mv	a2,s10
    347c:	01c12623          	sw	t3,12(sp)
    3480:	01512423          	sw	s5,8(sp)
    3484:	01812223          	sw	s8,4(sp)
    3488:	00012023          	sw	zero,0(sp)
    348c:	00000813          	li	a6,0
    3490:	f55ff06f          	j	33e4 <_vsnprintf+0x7d0>
    3494:	000a2783          	lw	a5,0(s4)
    3498:	000d0613          	mv	a2,s10
    349c:	01c12223          	sw	t3,4(sp)
    34a0:	41f7d713          	srai	a4,a5,0x1f
    34a4:	00f74533          	xor	a0,a4,a5
    34a8:	01512023          	sw	s5,0(sp)
    34ac:	000c0893          	mv	a7,s8
    34b0:	01f7d793          	srli	a5,a5,0x1f
    34b4:	40e50733          	sub	a4,a0,a4
    34b8:	ad1ff06f          	j	2f88 <_vsnprintf+0x374>
    34bc:	00200813          	li	a6,2
    34c0:	f89ff06f          	j	3448 <_vsnprintf+0x834>
    34c4:	000a2703          	lw	a4,0(s4)
    34c8:	e1dff06f          	j	32e4 <_vsnprintf+0x6d0>
    34cc:	000a2783          	lw	a5,0(s4)
    34d0:	41f7d613          	srai	a2,a5,0x1f
    34d4:	00f64733          	xor	a4,a2,a5
    34d8:	40c70733          	sub	a4,a4,a2
    34dc:	a99ff06f          	j	2f74 <_vsnprintf+0x360>
    34e0:	00000b13          	li	s6,0
    34e4:	b85ff06f          	j	3068 <_vsnprintf+0x454>
    34e8:	00078b13          	mv	s6,a5
    34ec:	ba0510e3          	bnez	a0,308c <_vsnprintf+0x478>
    34f0:	ea1ff06f          	j	3390 <_vsnprintf+0x77c>
    34f4:	000d0493          	mv	s1,s10
    34f8:	000b8d13          	mv	s10,s7
    34fc:	e41ff06f          	j	333c <_vsnprintf+0x728>
    3500:	000e0493          	mv	s1,t3
    3504:	f05ff06f          	j	3408 <_vsnprintf+0x7f4>
    3508:	00a00813          	li	a6,10
    350c:	f41ff06f          	j	344c <_vsnprintf+0x838>

00003510 <printf_>:
    3510:	fc010113          	addi	sp,sp,-64
    3514:	02410313          	addi	t1,sp,36
    3518:	02b12223          	sw	a1,36(sp)
    351c:	02c12423          	sw	a2,40(sp)
    3520:	02d12623          	sw	a3,44(sp)
    3524:	02e12823          	sw	a4,48(sp)
    3528:	00050693          	mv	a3,a0
    352c:	00810593          	addi	a1,sp,8
    3530:	00030713          	mv	a4,t1
    3534:	fff00613          	li	a2,-1
    3538:	fffff517          	auipc	a0,0xfffff
    353c:	6bc50513          	addi	a0,a0,1724 # 2bf4 <_out_char>
    3540:	00112e23          	sw	ra,28(sp)
    3544:	02f12a23          	sw	a5,52(sp)
    3548:	03012c23          	sw	a6,56(sp)
    354c:	03112e23          	sw	a7,60(sp)
    3550:	00612623          	sw	t1,12(sp)
    3554:	ec0ff0ef          	jal	ra,2c14 <_vsnprintf>
    3558:	01c12083          	lw	ra,28(sp)
    355c:	04010113          	addi	sp,sp,64
    3560:	00008067          	ret

00003564 <sprintf_>:
    3564:	fc010113          	addi	sp,sp,-64
    3568:	02810313          	addi	t1,sp,40
    356c:	02c12423          	sw	a2,40(sp)
    3570:	02d12623          	sw	a3,44(sp)
    3574:	02e12823          	sw	a4,48(sp)
    3578:	00058693          	mv	a3,a1
    357c:	00030713          	mv	a4,t1
    3580:	00050593          	mv	a1,a0
    3584:	fff00613          	li	a2,-1
    3588:	ffffe517          	auipc	a0,0xffffe
    358c:	40850513          	addi	a0,a0,1032 # 1990 <_out_buffer>
    3590:	00112e23          	sw	ra,28(sp)
    3594:	02f12a23          	sw	a5,52(sp)
    3598:	03012c23          	sw	a6,56(sp)
    359c:	03112e23          	sw	a7,60(sp)
    35a0:	00612623          	sw	t1,12(sp)
    35a4:	e70ff0ef          	jal	ra,2c14 <_vsnprintf>
    35a8:	01c12083          	lw	ra,28(sp)
    35ac:	04010113          	addi	sp,sp,64
    35b0:	00008067          	ret

000035b4 <snprintf_>:
    35b4:	fc010113          	addi	sp,sp,-64
    35b8:	02c10313          	addi	t1,sp,44
    35bc:	02d12623          	sw	a3,44(sp)
    35c0:	02e12823          	sw	a4,48(sp)
    35c4:	00060693          	mv	a3,a2
    35c8:	00030713          	mv	a4,t1
    35cc:	00058613          	mv	a2,a1
    35d0:	00050593          	mv	a1,a0
    35d4:	ffffe517          	auipc	a0,0xffffe
    35d8:	3bc50513          	addi	a0,a0,956 # 1990 <_out_buffer>
    35dc:	00112e23          	sw	ra,28(sp)
    35e0:	02f12a23          	sw	a5,52(sp)
    35e4:	03012c23          	sw	a6,56(sp)
    35e8:	03112e23          	sw	a7,60(sp)
    35ec:	00612623          	sw	t1,12(sp)
    35f0:	e24ff0ef          	jal	ra,2c14 <_vsnprintf>
    35f4:	01c12083          	lw	ra,28(sp)
    35f8:	04010113          	addi	sp,sp,64
    35fc:	00008067          	ret

00003600 <vprintf_>:
    3600:	fe010113          	addi	sp,sp,-32
    3604:	00050693          	mv	a3,a0
    3608:	00058713          	mv	a4,a1
    360c:	fff00613          	li	a2,-1
    3610:	00c10593          	addi	a1,sp,12
    3614:	fffff517          	auipc	a0,0xfffff
    3618:	5e050513          	addi	a0,a0,1504 # 2bf4 <_out_char>
    361c:	00112e23          	sw	ra,28(sp)
    3620:	df4ff0ef          	jal	ra,2c14 <_vsnprintf>
    3624:	01c12083          	lw	ra,28(sp)
    3628:	02010113          	addi	sp,sp,32
    362c:	00008067          	ret

00003630 <vsnprintf_>:
    3630:	00068713          	mv	a4,a3
    3634:	00060693          	mv	a3,a2
    3638:	00058613          	mv	a2,a1
    363c:	00050593          	mv	a1,a0
    3640:	ffffe517          	auipc	a0,0xffffe
    3644:	35050513          	addi	a0,a0,848 # 1990 <_out_buffer>
    3648:	dccff06f          	j	2c14 <_vsnprintf>

0000364c <fctprintf>:
    364c:	fc010113          	addi	sp,sp,-64
    3650:	02c10313          	addi	t1,sp,44
    3654:	00050e93          	mv	t4,a0
    3658:	00058e13          	mv	t3,a1
    365c:	02d12623          	sw	a3,44(sp)
    3660:	02e12823          	sw	a4,48(sp)
    3664:	00060693          	mv	a3,a2
    3668:	00810593          	addi	a1,sp,8
    366c:	00030713          	mv	a4,t1
    3670:	fff00613          	li	a2,-1
    3674:	fffff517          	auipc	a0,0xfffff
    3678:	58c50513          	addi	a0,a0,1420 # 2c00 <_out_fct>
    367c:	00112e23          	sw	ra,28(sp)
    3680:	02f12a23          	sw	a5,52(sp)
    3684:	03012c23          	sw	a6,56(sp)
    3688:	03112e23          	sw	a7,60(sp)
    368c:	00612223          	sw	t1,4(sp)
    3690:	01d12423          	sw	t4,8(sp)
    3694:	01c12623          	sw	t3,12(sp)
    3698:	d7cff0ef          	jal	ra,2c14 <_vsnprintf>
    369c:	01c12083          	lw	ra,28(sp)
    36a0:	04010113          	addi	sp,sp,64
    36a4:	00008067          	ret

000036a8 <prvCopyDataToQueue>:
    36a8:	ff010113          	addi	sp,sp,-16
    36ac:	04052783          	lw	a5,64(a0)
    36b0:	00912223          	sw	s1,4(sp)
    36b4:	03852483          	lw	s1,56(a0)
    36b8:	00812423          	sw	s0,8(sp)
    36bc:	00112623          	sw	ra,12(sp)
    36c0:	01212023          	sw	s2,0(sp)
    36c4:	00050413          	mv	s0,a0
    36c8:	02079863          	bnez	a5,36f8 <prvCopyDataToQueue+0x50>
    36cc:	00052783          	lw	a5,0(a0)
    36d0:	00148493          	addi	s1,s1,1
    36d4:	00000513          	li	a0,0
    36d8:	0c078c63          	beqz	a5,37b0 <prvCopyDataToQueue+0x108>
    36dc:	02942c23          	sw	s1,56(s0)
    36e0:	00c12083          	lw	ra,12(sp)
    36e4:	00812403          	lw	s0,8(sp)
    36e8:	00412483          	lw	s1,4(sp)
    36ec:	00012903          	lw	s2,0(sp)
    36f0:	01010113          	addi	sp,sp,16
    36f4:	00008067          	ret
    36f8:	00060913          	mv	s2,a2
    36fc:	04061a63          	bnez	a2,3750 <prvCopyDataToQueue+0xa8>
    3700:	00452503          	lw	a0,4(a0)
    3704:	00078613          	mv	a2,a5
    3708:	00148493          	addi	s1,s1,1
    370c:	039050ef          	jal	ra,8f44 <memcpy>
    3710:	00442783          	lw	a5,4(s0)
    3714:	04042683          	lw	a3,64(s0)
    3718:	00842703          	lw	a4,8(s0)
    371c:	00000513          	li	a0,0
    3720:	00d787b3          	add	a5,a5,a3
    3724:	00f42223          	sw	a5,4(s0)
    3728:	fae7eae3          	bltu	a5,a4,36dc <prvCopyDataToQueue+0x34>
    372c:	00042783          	lw	a5,0(s0)
    3730:	02942c23          	sw	s1,56(s0)
    3734:	00c12083          	lw	ra,12(sp)
    3738:	00f42223          	sw	a5,4(s0)
    373c:	00812403          	lw	s0,8(sp)
    3740:	00412483          	lw	s1,4(sp)
    3744:	00012903          	lw	s2,0(sp)
    3748:	01010113          	addi	sp,sp,16
    374c:	00008067          	ret
    3750:	00c52503          	lw	a0,12(a0)
    3754:	00078613          	mv	a2,a5
    3758:	7ec050ef          	jal	ra,8f44 <memcpy>
    375c:	04042703          	lw	a4,64(s0)
    3760:	00c42783          	lw	a5,12(s0)
    3764:	00042683          	lw	a3,0(s0)
    3768:	40e00633          	neg	a2,a4
    376c:	40e787b3          	sub	a5,a5,a4
    3770:	00f42623          	sw	a5,12(s0)
    3774:	00d7f863          	bgeu	a5,a3,3784 <prvCopyDataToQueue+0xdc>
    3778:	00842783          	lw	a5,8(s0)
    377c:	00c787b3          	add	a5,a5,a2
    3780:	00f42623          	sw	a5,12(s0)
    3784:	00200793          	li	a5,2
    3788:	02f90c63          	beq	s2,a5,37c0 <prvCopyDataToQueue+0x118>
    378c:	00148493          	addi	s1,s1,1
    3790:	02942c23          	sw	s1,56(s0)
    3794:	00c12083          	lw	ra,12(sp)
    3798:	00812403          	lw	s0,8(sp)
    379c:	00412483          	lw	s1,4(sp)
    37a0:	00012903          	lw	s2,0(sp)
    37a4:	00000513          	li	a0,0
    37a8:	01010113          	addi	sp,sp,16
    37ac:	00008067          	ret
    37b0:	00842503          	lw	a0,8(s0)
    37b4:	52c020ef          	jal	ra,5ce0 <xTaskPriorityDisinherit>
    37b8:	00042423          	sw	zero,8(s0)
    37bc:	f21ff06f          	j	36dc <prvCopyDataToQueue+0x34>
    37c0:	00048663          	beqz	s1,37cc <prvCopyDataToQueue+0x124>
    37c4:	00000513          	li	a0,0
    37c8:	f15ff06f          	j	36dc <prvCopyDataToQueue+0x34>
    37cc:	00100493          	li	s1,1
    37d0:	00000513          	li	a0,0
    37d4:	f09ff06f          	j	36dc <prvCopyDataToQueue+0x34>

000037d8 <prvUnlockQueue>:
    37d8:	ff010113          	addi	sp,sp,-16
    37dc:	00812423          	sw	s0,8(sp)
    37e0:	00912223          	sw	s1,4(sp)
    37e4:	00112623          	sw	ra,12(sp)
    37e8:	00050493          	mv	s1,a0
    37ec:	01212023          	sw	s2,0(sp)
    37f0:	744020ef          	jal	ra,5f34 <vTaskEnterCritical>
    37f4:	0454c783          	lbu	a5,69(s1)
    37f8:	01879413          	slli	s0,a5,0x18
    37fc:	41845413          	srai	s0,s0,0x18
    3800:	04805663          	blez	s0,384c <prvUnlockQueue+0x74>
    3804:	02448913          	addi	s2,s1,36
    3808:	0180006f          	j	3820 <prvUnlockQueue+0x48>
    380c:	fff40793          	addi	a5,s0,-1
    3810:	01879413          	slli	s0,a5,0x18
    3814:	0ff7f713          	zext.b	a4,a5
    3818:	41845413          	srai	s0,s0,0x18
    381c:	02070863          	beqz	a4,384c <prvUnlockQueue+0x74>
    3820:	0244a783          	lw	a5,36(s1)
    3824:	00090513          	mv	a0,s2
    3828:	02078263          	beqz	a5,384c <prvUnlockQueue+0x74>
    382c:	7b9010ef          	jal	ra,57e4 <xTaskRemoveFromEventList>
    3830:	fc050ee3          	beqz	a0,380c <prvUnlockQueue+0x34>
    3834:	2bc020ef          	jal	ra,5af0 <vTaskMissedYield>
    3838:	fff40793          	addi	a5,s0,-1
    383c:	01879413          	slli	s0,a5,0x18
    3840:	0ff7f713          	zext.b	a4,a5
    3844:	41845413          	srai	s0,s0,0x18
    3848:	fc071ce3          	bnez	a4,3820 <prvUnlockQueue+0x48>
    384c:	fff00793          	li	a5,-1
    3850:	04f482a3          	sb	a5,69(s1)
    3854:	710020ef          	jal	ra,5f64 <vTaskExitCritical>
    3858:	6dc020ef          	jal	ra,5f34 <vTaskEnterCritical>
    385c:	0444c783          	lbu	a5,68(s1)
    3860:	01879413          	slli	s0,a5,0x18
    3864:	41845413          	srai	s0,s0,0x18
    3868:	04805663          	blez	s0,38b4 <prvUnlockQueue+0xdc>
    386c:	01048913          	addi	s2,s1,16
    3870:	0180006f          	j	3888 <prvUnlockQueue+0xb0>
    3874:	fff40793          	addi	a5,s0,-1
    3878:	01879413          	slli	s0,a5,0x18
    387c:	0ff7f713          	zext.b	a4,a5
    3880:	41845413          	srai	s0,s0,0x18
    3884:	02070863          	beqz	a4,38b4 <prvUnlockQueue+0xdc>
    3888:	0104a783          	lw	a5,16(s1)
    388c:	00090513          	mv	a0,s2
    3890:	02078263          	beqz	a5,38b4 <prvUnlockQueue+0xdc>
    3894:	751010ef          	jal	ra,57e4 <xTaskRemoveFromEventList>
    3898:	fc050ee3          	beqz	a0,3874 <prvUnlockQueue+0x9c>
    389c:	254020ef          	jal	ra,5af0 <vTaskMissedYield>
    38a0:	fff40793          	addi	a5,s0,-1
    38a4:	01879413          	slli	s0,a5,0x18
    38a8:	0ff7f713          	zext.b	a4,a5
    38ac:	41845413          	srai	s0,s0,0x18
    38b0:	fc071ce3          	bnez	a4,3888 <prvUnlockQueue+0xb0>
    38b4:	fff00793          	li	a5,-1
    38b8:	04f48223          	sb	a5,68(s1)
    38bc:	00812403          	lw	s0,8(sp)
    38c0:	00c12083          	lw	ra,12(sp)
    38c4:	00412483          	lw	s1,4(sp)
    38c8:	00012903          	lw	s2,0(sp)
    38cc:	01010113          	addi	sp,sp,16
    38d0:	6940206f          	j	5f64 <vTaskExitCritical>

000038d4 <xQueueGenericReset>:
    38d4:	ff010113          	addi	sp,sp,-16
    38d8:	00812423          	sw	s0,8(sp)
    38dc:	00912223          	sw	s1,4(sp)
    38e0:	00050413          	mv	s0,a0
    38e4:	00112623          	sw	ra,12(sp)
    38e8:	00058493          	mv	s1,a1
    38ec:	648020ef          	jal	ra,5f34 <vTaskEnterCritical>
    38f0:	04042683          	lw	a3,64(s0)
    38f4:	03c42783          	lw	a5,60(s0)
    38f8:	00042703          	lw	a4,0(s0)
    38fc:	02042c23          	sw	zero,56(s0)
    3900:	02f687b3          	mul	a5,a3,a5
    3904:	fff00613          	li	a2,-1
    3908:	04c40223          	sb	a2,68(s0)
    390c:	00e42223          	sw	a4,4(s0)
    3910:	04c402a3          	sb	a2,69(s0)
    3914:	40d786b3          	sub	a3,a5,a3
    3918:	00f707b3          	add	a5,a4,a5
    391c:	00d70733          	add	a4,a4,a3
    3920:	00f42423          	sw	a5,8(s0)
    3924:	00e42623          	sw	a4,12(s0)
    3928:	04049a63          	bnez	s1,397c <xQueueGenericReset+0xa8>
    392c:	01042783          	lw	a5,16(s0)
    3930:	02079063          	bnez	a5,3950 <xQueueGenericReset+0x7c>
    3934:	630020ef          	jal	ra,5f64 <vTaskExitCritical>
    3938:	00c12083          	lw	ra,12(sp)
    393c:	00812403          	lw	s0,8(sp)
    3940:	00412483          	lw	s1,4(sp)
    3944:	00100513          	li	a0,1
    3948:	01010113          	addi	sp,sp,16
    394c:	00008067          	ret
    3950:	01040513          	addi	a0,s0,16
    3954:	691010ef          	jal	ra,57e4 <xTaskRemoveFromEventList>
    3958:	fc050ee3          	beqz	a0,3934 <xQueueGenericReset+0x60>
    395c:	00000073          	ecall
    3960:	604020ef          	jal	ra,5f64 <vTaskExitCritical>
    3964:	00c12083          	lw	ra,12(sp)
    3968:	00812403          	lw	s0,8(sp)
    396c:	00412483          	lw	s1,4(sp)
    3970:	00100513          	li	a0,1
    3974:	01010113          	addi	sp,sp,16
    3978:	00008067          	ret
    397c:	01040513          	addi	a0,s0,16
    3980:	4f5040ef          	jal	ra,8674 <vListInitialise>
    3984:	02440513          	addi	a0,s0,36
    3988:	4ed040ef          	jal	ra,8674 <vListInitialise>
    398c:	5d8020ef          	jal	ra,5f64 <vTaskExitCritical>
    3990:	00c12083          	lw	ra,12(sp)
    3994:	00812403          	lw	s0,8(sp)
    3998:	00412483          	lw	s1,4(sp)
    399c:	00100513          	li	a0,1
    39a0:	01010113          	addi	sp,sp,16
    39a4:	00008067          	ret

000039a8 <xQueueGenericCreateStatic>:
    39a8:	ff010113          	addi	sp,sp,-16
    39ac:	00812423          	sw	s0,8(sp)
    39b0:	00112623          	sw	ra,12(sp)
    39b4:	00068413          	mv	s0,a3
    39b8:	06068663          	beqz	a3,3a24 <xQueueGenericCreateStatic+0x7c>
    39bc:	00100793          	li	a5,1
    39c0:	04f68323          	sb	a5,70(a3)
    39c4:	06058a63          	beqz	a1,3a38 <xQueueGenericCreateStatic+0x90>
    39c8:	04b42023          	sw	a1,64(s0)
    39cc:	00c42023          	sw	a2,0(s0)
    39d0:	02a42e23          	sw	a0,60(s0)
    39d4:	560020ef          	jal	ra,5f34 <vTaskEnterCritical>
    39d8:	04042683          	lw	a3,64(s0)
    39dc:	03c42783          	lw	a5,60(s0)
    39e0:	00042703          	lw	a4,0(s0)
    39e4:	fff00613          	li	a2,-1
    39e8:	02f687b3          	mul	a5,a3,a5
    39ec:	02042c23          	sw	zero,56(s0)
    39f0:	04c40223          	sb	a2,68(s0)
    39f4:	00e42223          	sw	a4,4(s0)
    39f8:	01040513          	addi	a0,s0,16
    39fc:	04c402a3          	sb	a2,69(s0)
    3a00:	40d786b3          	sub	a3,a5,a3
    3a04:	00f707b3          	add	a5,a4,a5
    3a08:	00d70733          	add	a4,a4,a3
    3a0c:	00f42423          	sw	a5,8(s0)
    3a10:	00e42623          	sw	a4,12(s0)
    3a14:	461040ef          	jal	ra,8674 <vListInitialise>
    3a18:	02440513          	addi	a0,s0,36
    3a1c:	459040ef          	jal	ra,8674 <vListInitialise>
    3a20:	544020ef          	jal	ra,5f64 <vTaskExitCritical>
    3a24:	00c12083          	lw	ra,12(sp)
    3a28:	00040513          	mv	a0,s0
    3a2c:	00812403          	lw	s0,8(sp)
    3a30:	01010113          	addi	sp,sp,16
    3a34:	00008067          	ret
    3a38:	00068613          	mv	a2,a3
    3a3c:	f8dff06f          	j	39c8 <xQueueGenericCreateStatic+0x20>

00003a40 <xQueueGenericCreate>:
    3a40:	ff010113          	addi	sp,sp,-16
    3a44:	01212023          	sw	s2,0(sp)
    3a48:	00050913          	mv	s2,a0
    3a4c:	02b50533          	mul	a0,a0,a1
    3a50:	00812423          	sw	s0,8(sp)
    3a54:	00912223          	sw	s1,4(sp)
    3a58:	00112623          	sw	ra,12(sp)
    3a5c:	00058493          	mv	s1,a1
    3a60:	04850513          	addi	a0,a0,72
    3a64:	184040ef          	jal	ra,7be8 <pvPortMalloc>
    3a68:	00050413          	mv	s0,a0
    3a6c:	06050663          	beqz	a0,3ad8 <xQueueGenericCreate+0x98>
    3a70:	04050323          	sb	zero,70(a0)
    3a74:	00050793          	mv	a5,a0
    3a78:	06049e63          	bnez	s1,3af4 <xQueueGenericCreate+0xb4>
    3a7c:	00f42023          	sw	a5,0(s0)
    3a80:	03242e23          	sw	s2,60(s0)
    3a84:	04942023          	sw	s1,64(s0)
    3a88:	4ac020ef          	jal	ra,5f34 <vTaskEnterCritical>
    3a8c:	04042683          	lw	a3,64(s0)
    3a90:	03c42783          	lw	a5,60(s0)
    3a94:	00042703          	lw	a4,0(s0)
    3a98:	fff00613          	li	a2,-1
    3a9c:	02f687b3          	mul	a5,a3,a5
    3aa0:	02042c23          	sw	zero,56(s0)
    3aa4:	04c40223          	sb	a2,68(s0)
    3aa8:	00e42223          	sw	a4,4(s0)
    3aac:	01040513          	addi	a0,s0,16
    3ab0:	04c402a3          	sb	a2,69(s0)
    3ab4:	40d786b3          	sub	a3,a5,a3
    3ab8:	00f707b3          	add	a5,a4,a5
    3abc:	00d70733          	add	a4,a4,a3
    3ac0:	00f42423          	sw	a5,8(s0)
    3ac4:	00e42623          	sw	a4,12(s0)
    3ac8:	3ad040ef          	jal	ra,8674 <vListInitialise>
    3acc:	02440513          	addi	a0,s0,36
    3ad0:	3a5040ef          	jal	ra,8674 <vListInitialise>
    3ad4:	490020ef          	jal	ra,5f64 <vTaskExitCritical>
    3ad8:	00c12083          	lw	ra,12(sp)
    3adc:	00040513          	mv	a0,s0
    3ae0:	00812403          	lw	s0,8(sp)
    3ae4:	00412483          	lw	s1,4(sp)
    3ae8:	00012903          	lw	s2,0(sp)
    3aec:	01010113          	addi	sp,sp,16
    3af0:	00008067          	ret
    3af4:	04850793          	addi	a5,a0,72
    3af8:	f85ff06f          	j	3a7c <xQueueGenericCreate+0x3c>

00003afc <xQueueGetMutexHolder>:
    3afc:	ff010113          	addi	sp,sp,-16
    3b00:	00812423          	sw	s0,8(sp)
    3b04:	00112623          	sw	ra,12(sp)
    3b08:	00050413          	mv	s0,a0
    3b0c:	428020ef          	jal	ra,5f34 <vTaskEnterCritical>
    3b10:	00042783          	lw	a5,0(s0)
    3b14:	02079063          	bnez	a5,3b34 <xQueueGetMutexHolder+0x38>
    3b18:	00842403          	lw	s0,8(s0)
    3b1c:	448020ef          	jal	ra,5f64 <vTaskExitCritical>
    3b20:	00c12083          	lw	ra,12(sp)
    3b24:	00040513          	mv	a0,s0
    3b28:	00812403          	lw	s0,8(sp)
    3b2c:	01010113          	addi	sp,sp,16
    3b30:	00008067          	ret
    3b34:	430020ef          	jal	ra,5f64 <vTaskExitCritical>
    3b38:	00000413          	li	s0,0
    3b3c:	00c12083          	lw	ra,12(sp)
    3b40:	00040513          	mv	a0,s0
    3b44:	00812403          	lw	s0,8(sp)
    3b48:	01010113          	addi	sp,sp,16
    3b4c:	00008067          	ret

00003b50 <xQueueGetMutexHolderFromISR>:
    3b50:	00052783          	lw	a5,0(a0)
    3b54:	00079663          	bnez	a5,3b60 <xQueueGetMutexHolderFromISR+0x10>
    3b58:	00852503          	lw	a0,8(a0)
    3b5c:	00008067          	ret
    3b60:	00000513          	li	a0,0
    3b64:	00008067          	ret

00003b68 <xQueueCreateCountingSemaphoreStatic>:
    3b68:	ff010113          	addi	sp,sp,-16
    3b6c:	00812423          	sw	s0,8(sp)
    3b70:	00112623          	sw	ra,12(sp)
    3b74:	00912223          	sw	s1,4(sp)
    3b78:	00060413          	mv	s0,a2
    3b7c:	06060863          	beqz	a2,3bec <xQueueCreateCountingSemaphoreStatic+0x84>
    3b80:	00100793          	li	a5,1
    3b84:	04f60323          	sb	a5,70(a2)
    3b88:	00c42023          	sw	a2,0(s0)
    3b8c:	02a62e23          	sw	a0,60(a2)
    3b90:	04062023          	sw	zero,64(a2)
    3b94:	00058493          	mv	s1,a1
    3b98:	39c020ef          	jal	ra,5f34 <vTaskEnterCritical>
    3b9c:	04042683          	lw	a3,64(s0)
    3ba0:	03c42783          	lw	a5,60(s0)
    3ba4:	00042703          	lw	a4,0(s0)
    3ba8:	fff00613          	li	a2,-1
    3bac:	02f687b3          	mul	a5,a3,a5
    3bb0:	02042c23          	sw	zero,56(s0)
    3bb4:	04c40223          	sb	a2,68(s0)
    3bb8:	00e42223          	sw	a4,4(s0)
    3bbc:	04c402a3          	sb	a2,69(s0)
    3bc0:	01040513          	addi	a0,s0,16
    3bc4:	40d786b3          	sub	a3,a5,a3
    3bc8:	00f707b3          	add	a5,a4,a5
    3bcc:	00d70733          	add	a4,a4,a3
    3bd0:	00f42423          	sw	a5,8(s0)
    3bd4:	00e42623          	sw	a4,12(s0)
    3bd8:	29d040ef          	jal	ra,8674 <vListInitialise>
    3bdc:	02440513          	addi	a0,s0,36
    3be0:	295040ef          	jal	ra,8674 <vListInitialise>
    3be4:	380020ef          	jal	ra,5f64 <vTaskExitCritical>
    3be8:	02942c23          	sw	s1,56(s0)
    3bec:	00c12083          	lw	ra,12(sp)
    3bf0:	00040513          	mv	a0,s0
    3bf4:	00812403          	lw	s0,8(sp)
    3bf8:	00412483          	lw	s1,4(sp)
    3bfc:	01010113          	addi	sp,sp,16
    3c00:	00008067          	ret

00003c04 <xQueueCreateCountingSemaphore>:
    3c04:	ff010113          	addi	sp,sp,-16
    3c08:	01212023          	sw	s2,0(sp)
    3c0c:	00050913          	mv	s2,a0
    3c10:	04800513          	li	a0,72
    3c14:	00812423          	sw	s0,8(sp)
    3c18:	00912223          	sw	s1,4(sp)
    3c1c:	00112623          	sw	ra,12(sp)
    3c20:	00058493          	mv	s1,a1
    3c24:	7c5030ef          	jal	ra,7be8 <pvPortMalloc>
    3c28:	00050413          	mv	s0,a0
    3c2c:	06050463          	beqz	a0,3c94 <xQueueCreateCountingSemaphore+0x90>
    3c30:	04050323          	sb	zero,70(a0)
    3c34:	00a42023          	sw	a0,0(s0)
    3c38:	03252e23          	sw	s2,60(a0)
    3c3c:	04052023          	sw	zero,64(a0)
    3c40:	2f4020ef          	jal	ra,5f34 <vTaskEnterCritical>
    3c44:	04042683          	lw	a3,64(s0)
    3c48:	03c42783          	lw	a5,60(s0)
    3c4c:	00042703          	lw	a4,0(s0)
    3c50:	fff00613          	li	a2,-1
    3c54:	02f687b3          	mul	a5,a3,a5
    3c58:	02042c23          	sw	zero,56(s0)
    3c5c:	04c40223          	sb	a2,68(s0)
    3c60:	00e42223          	sw	a4,4(s0)
    3c64:	04c402a3          	sb	a2,69(s0)
    3c68:	01040513          	addi	a0,s0,16
    3c6c:	40d786b3          	sub	a3,a5,a3
    3c70:	00f707b3          	add	a5,a4,a5
    3c74:	00d70733          	add	a4,a4,a3
    3c78:	00f42423          	sw	a5,8(s0)
    3c7c:	00e42623          	sw	a4,12(s0)
    3c80:	1f5040ef          	jal	ra,8674 <vListInitialise>
    3c84:	02440513          	addi	a0,s0,36
    3c88:	1ed040ef          	jal	ra,8674 <vListInitialise>
    3c8c:	2d8020ef          	jal	ra,5f64 <vTaskExitCritical>
    3c90:	02942c23          	sw	s1,56(s0)
    3c94:	00c12083          	lw	ra,12(sp)
    3c98:	00040513          	mv	a0,s0
    3c9c:	00812403          	lw	s0,8(sp)
    3ca0:	00412483          	lw	s1,4(sp)
    3ca4:	00012903          	lw	s2,0(sp)
    3ca8:	01010113          	addi	sp,sp,16
    3cac:	00008067          	ret

00003cb0 <xQueueGenericSend>:
    3cb0:	fc010113          	addi	sp,sp,-64
    3cb4:	02812c23          	sw	s0,56(sp)
    3cb8:	02912a23          	sw	s1,52(sp)
    3cbc:	00050413          	mv	s0,a0
    3cc0:	03212823          	sw	s2,48(sp)
    3cc4:	03312623          	sw	s3,44(sp)
    3cc8:	03412423          	sw	s4,40(sp)
    3ccc:	03512223          	sw	s5,36(sp)
    3cd0:	03612023          	sw	s6,32(sp)
    3cd4:	02112e23          	sw	ra,60(sp)
    3cd8:	00058a93          	mv	s5,a1
    3cdc:	00c12623          	sw	a2,12(sp)
    3ce0:	00068913          	mv	s2,a3
    3ce4:	01050a13          	addi	s4,a0,16
    3ce8:	24c020ef          	jal	ra,5f34 <vTaskEnterCritical>
    3cec:	03842703          	lw	a4,56(s0)
    3cf0:	03c42783          	lw	a5,60(s0)
    3cf4:	00000b13          	li	s6,0
    3cf8:	00200993          	li	s3,2
    3cfc:	fff00493          	li	s1,-1
    3d00:	08f76863          	bltu	a4,a5,3d90 <xQueueGenericSend+0xe0>
    3d04:	09390663          	beq	s2,s3,3d90 <xQueueGenericSend+0xe0>
    3d08:	00c12783          	lw	a5,12(sp)
    3d0c:	10078e63          	beqz	a5,3e28 <xQueueGenericSend+0x178>
    3d10:	0e0b0c63          	beqz	s6,3e08 <xQueueGenericSend+0x158>
    3d14:	250020ef          	jal	ra,5f64 <vTaskExitCritical>
    3d18:	019010ef          	jal	ra,5530 <vTaskSuspendAll>
    3d1c:	218020ef          	jal	ra,5f34 <vTaskEnterCritical>
    3d20:	04444783          	lbu	a5,68(s0)
    3d24:	01879793          	slli	a5,a5,0x18
    3d28:	4187d793          	srai	a5,a5,0x18
    3d2c:	00979463          	bne	a5,s1,3d34 <xQueueGenericSend+0x84>
    3d30:	04040223          	sb	zero,68(s0)
    3d34:	04544783          	lbu	a5,69(s0)
    3d38:	01879793          	slli	a5,a5,0x18
    3d3c:	4187d793          	srai	a5,a5,0x18
    3d40:	00979463          	bne	a5,s1,3d48 <xQueueGenericSend+0x98>
    3d44:	040402a3          	sb	zero,69(s0)
    3d48:	21c020ef          	jal	ra,5f64 <vTaskExitCritical>
    3d4c:	00c10593          	addi	a1,sp,12
    3d50:	01810513          	addi	a0,sp,24
    3d54:	050030ef          	jal	ra,6da4 <xTaskCheckForTimeOut>
    3d58:	0c051e63          	bnez	a0,3e34 <xQueueGenericSend+0x184>
    3d5c:	1d8020ef          	jal	ra,5f34 <vTaskEnterCritical>
    3d60:	03842703          	lw	a4,56(s0)
    3d64:	03c42783          	lw	a5,60(s0)
    3d68:	06f70a63          	beq	a4,a5,3ddc <xQueueGenericSend+0x12c>
    3d6c:	1f8020ef          	jal	ra,5f64 <vTaskExitCritical>
    3d70:	00040513          	mv	a0,s0
    3d74:	a65ff0ef          	jal	ra,37d8 <prvUnlockQueue>
    3d78:	4e5020ef          	jal	ra,6a5c <xTaskResumeAll>
    3d7c:	00100b13          	li	s6,1
    3d80:	1b4020ef          	jal	ra,5f34 <vTaskEnterCritical>
    3d84:	03842703          	lw	a4,56(s0)
    3d88:	03c42783          	lw	a5,60(s0)
    3d8c:	f6f77ce3          	bgeu	a4,a5,3d04 <xQueueGenericSend+0x54>
    3d90:	00090613          	mv	a2,s2
    3d94:	000a8593          	mv	a1,s5
    3d98:	00040513          	mv	a0,s0
    3d9c:	90dff0ef          	jal	ra,36a8 <prvCopyDataToQueue>
    3da0:	02442783          	lw	a5,36(s0)
    3da4:	06079863          	bnez	a5,3e14 <xQueueGenericSend+0x164>
    3da8:	06051c63          	bnez	a0,3e20 <xQueueGenericSend+0x170>
    3dac:	1b8020ef          	jal	ra,5f64 <vTaskExitCritical>
    3db0:	00100513          	li	a0,1
    3db4:	03c12083          	lw	ra,60(sp)
    3db8:	03812403          	lw	s0,56(sp)
    3dbc:	03412483          	lw	s1,52(sp)
    3dc0:	03012903          	lw	s2,48(sp)
    3dc4:	02c12983          	lw	s3,44(sp)
    3dc8:	02812a03          	lw	s4,40(sp)
    3dcc:	02412a83          	lw	s5,36(sp)
    3dd0:	02012b03          	lw	s6,32(sp)
    3dd4:	04010113          	addi	sp,sp,64
    3dd8:	00008067          	ret
    3ddc:	188020ef          	jal	ra,5f64 <vTaskExitCritical>
    3de0:	00c12583          	lw	a1,12(sp)
    3de4:	000a0513          	mv	a0,s4
    3de8:	155010ef          	jal	ra,573c <vTaskPlaceOnEventList>
    3dec:	00040513          	mv	a0,s0
    3df0:	9e9ff0ef          	jal	ra,37d8 <prvUnlockQueue>
    3df4:	469020ef          	jal	ra,6a5c <xTaskResumeAll>
    3df8:	f80512e3          	bnez	a0,3d7c <xQueueGenericSend+0xcc>
    3dfc:	00000073          	ecall
    3e00:	00100b13          	li	s6,1
    3e04:	f7dff06f          	j	3d80 <xQueueGenericSend+0xd0>
    3e08:	01810513          	addi	a0,sp,24
    3e0c:	4c9010ef          	jal	ra,5ad4 <vTaskInternalSetTimeOutState>
    3e10:	f05ff06f          	j	3d14 <xQueueGenericSend+0x64>
    3e14:	02440513          	addi	a0,s0,36
    3e18:	1cd010ef          	jal	ra,57e4 <xTaskRemoveFromEventList>
    3e1c:	f80508e3          	beqz	a0,3dac <xQueueGenericSend+0xfc>
    3e20:	00000073          	ecall
    3e24:	f89ff06f          	j	3dac <xQueueGenericSend+0xfc>
    3e28:	13c020ef          	jal	ra,5f64 <vTaskExitCritical>
    3e2c:	00000513          	li	a0,0
    3e30:	f85ff06f          	j	3db4 <xQueueGenericSend+0x104>
    3e34:	00040513          	mv	a0,s0
    3e38:	9a1ff0ef          	jal	ra,37d8 <prvUnlockQueue>
    3e3c:	421020ef          	jal	ra,6a5c <xTaskResumeAll>
    3e40:	00000513          	li	a0,0
    3e44:	f71ff06f          	j	3db4 <xQueueGenericSend+0x104>

00003e48 <xQueueCreateMutexStatic>:
    3e48:	ff010113          	addi	sp,sp,-16
    3e4c:	00812423          	sw	s0,8(sp)
    3e50:	00112623          	sw	ra,12(sp)
    3e54:	00058413          	mv	s0,a1
    3e58:	08058463          	beqz	a1,3ee0 <xQueueCreateMutexStatic+0x98>
    3e5c:	00100793          	li	a5,1
    3e60:	04f58323          	sb	a5,70(a1)
    3e64:	00b42023          	sw	a1,0(s0)
    3e68:	02f5ae23          	sw	a5,60(a1)
    3e6c:	0405a023          	sw	zero,64(a1)
    3e70:	0c4020ef          	jal	ra,5f34 <vTaskEnterCritical>
    3e74:	04042683          	lw	a3,64(s0)
    3e78:	03c42783          	lw	a5,60(s0)
    3e7c:	00042703          	lw	a4,0(s0)
    3e80:	fff00613          	li	a2,-1
    3e84:	02f687b3          	mul	a5,a3,a5
    3e88:	02042c23          	sw	zero,56(s0)
    3e8c:	04c40223          	sb	a2,68(s0)
    3e90:	00e42223          	sw	a4,4(s0)
    3e94:	04c402a3          	sb	a2,69(s0)
    3e98:	01040513          	addi	a0,s0,16
    3e9c:	40d786b3          	sub	a3,a5,a3
    3ea0:	00f707b3          	add	a5,a4,a5
    3ea4:	00d70733          	add	a4,a4,a3
    3ea8:	00f42423          	sw	a5,8(s0)
    3eac:	00e42623          	sw	a4,12(s0)
    3eb0:	7c4040ef          	jal	ra,8674 <vListInitialise>
    3eb4:	02440513          	addi	a0,s0,36
    3eb8:	7bc040ef          	jal	ra,8674 <vListInitialise>
    3ebc:	0a8020ef          	jal	ra,5f64 <vTaskExitCritical>
    3ec0:	00000693          	li	a3,0
    3ec4:	00042423          	sw	zero,8(s0)
    3ec8:	00042023          	sw	zero,0(s0)
    3ecc:	00042623          	sw	zero,12(s0)
    3ed0:	00000613          	li	a2,0
    3ed4:	00000593          	li	a1,0
    3ed8:	00040513          	mv	a0,s0
    3edc:	dd5ff0ef          	jal	ra,3cb0 <xQueueGenericSend>
    3ee0:	00c12083          	lw	ra,12(sp)
    3ee4:	00040513          	mv	a0,s0
    3ee8:	00812403          	lw	s0,8(sp)
    3eec:	01010113          	addi	sp,sp,16
    3ef0:	00008067          	ret

00003ef4 <xQueueGiveMutexRecursive>:
    3ef4:	ff010113          	addi	sp,sp,-16
    3ef8:	00912223          	sw	s1,4(sp)
    3efc:	00852483          	lw	s1,8(a0)
    3f00:	00812423          	sw	s0,8(sp)
    3f04:	00112623          	sw	ra,12(sp)
    3f08:	00050413          	mv	s0,a0
    3f0c:	451010ef          	jal	ra,5b5c <xTaskGetCurrentTaskHandle>
    3f10:	02a48063          	beq	s1,a0,3f30 <xQueueGiveMutexRecursive+0x3c>
    3f14:	00000493          	li	s1,0
    3f18:	00c12083          	lw	ra,12(sp)
    3f1c:	00812403          	lw	s0,8(sp)
    3f20:	00048513          	mv	a0,s1
    3f24:	00412483          	lw	s1,4(sp)
    3f28:	01010113          	addi	sp,sp,16
    3f2c:	00008067          	ret
    3f30:	00c42783          	lw	a5,12(s0)
    3f34:	00100493          	li	s1,1
    3f38:	fff78793          	addi	a5,a5,-1
    3f3c:	00f42623          	sw	a5,12(s0)
    3f40:	fc079ce3          	bnez	a5,3f18 <xQueueGiveMutexRecursive+0x24>
    3f44:	00000693          	li	a3,0
    3f48:	00000613          	li	a2,0
    3f4c:	00000593          	li	a1,0
    3f50:	00040513          	mv	a0,s0
    3f54:	d5dff0ef          	jal	ra,3cb0 <xQueueGenericSend>
    3f58:	fc1ff06f          	j	3f18 <xQueueGiveMutexRecursive+0x24>

00003f5c <xQueueCreateMutex>:
    3f5c:	ff010113          	addi	sp,sp,-16
    3f60:	04800513          	li	a0,72
    3f64:	00812423          	sw	s0,8(sp)
    3f68:	00112623          	sw	ra,12(sp)
    3f6c:	47d030ef          	jal	ra,7be8 <pvPortMalloc>
    3f70:	00050413          	mv	s0,a0
    3f74:	08050463          	beqz	a0,3ffc <xQueueCreateMutex+0xa0>
    3f78:	04050323          	sb	zero,70(a0)
    3f7c:	00a42023          	sw	a0,0(s0)
    3f80:	00100793          	li	a5,1
    3f84:	02f52e23          	sw	a5,60(a0)
    3f88:	04052023          	sw	zero,64(a0)
    3f8c:	7a9010ef          	jal	ra,5f34 <vTaskEnterCritical>
    3f90:	04042683          	lw	a3,64(s0)
    3f94:	03c42783          	lw	a5,60(s0)
    3f98:	00042703          	lw	a4,0(s0)
    3f9c:	fff00613          	li	a2,-1
    3fa0:	02f687b3          	mul	a5,a3,a5
    3fa4:	02042c23          	sw	zero,56(s0)
    3fa8:	04c40223          	sb	a2,68(s0)
    3fac:	00e42223          	sw	a4,4(s0)
    3fb0:	04c402a3          	sb	a2,69(s0)
    3fb4:	01040513          	addi	a0,s0,16
    3fb8:	40d786b3          	sub	a3,a5,a3
    3fbc:	00f707b3          	add	a5,a4,a5
    3fc0:	00d70733          	add	a4,a4,a3
    3fc4:	00f42423          	sw	a5,8(s0)
    3fc8:	00e42623          	sw	a4,12(s0)
    3fcc:	6a8040ef          	jal	ra,8674 <vListInitialise>
    3fd0:	02440513          	addi	a0,s0,36
    3fd4:	6a0040ef          	jal	ra,8674 <vListInitialise>
    3fd8:	78d010ef          	jal	ra,5f64 <vTaskExitCritical>
    3fdc:	00000693          	li	a3,0
    3fe0:	00042423          	sw	zero,8(s0)
    3fe4:	00042023          	sw	zero,0(s0)
    3fe8:	00042623          	sw	zero,12(s0)
    3fec:	00000613          	li	a2,0
    3ff0:	00000593          	li	a1,0
    3ff4:	00040513          	mv	a0,s0
    3ff8:	cb9ff0ef          	jal	ra,3cb0 <xQueueGenericSend>
    3ffc:	00c12083          	lw	ra,12(sp)
    4000:	00040513          	mv	a0,s0
    4004:	00812403          	lw	s0,8(sp)
    4008:	01010113          	addi	sp,sp,16
    400c:	00008067          	ret

00004010 <xQueueGenericSendFromISR>:
    4010:	03852703          	lw	a4,56(a0)
    4014:	03c52783          	lw	a5,60(a0)
    4018:	fe010113          	addi	sp,sp,-32
    401c:	00812c23          	sw	s0,24(sp)
    4020:	01212823          	sw	s2,16(sp)
    4024:	00112e23          	sw	ra,28(sp)
    4028:	00912a23          	sw	s1,20(sp)
    402c:	01312623          	sw	s3,12(sp)
    4030:	00060913          	mv	s2,a2
    4034:	00050413          	mv	s0,a0
    4038:	00068613          	mv	a2,a3
    403c:	02f76663          	bltu	a4,a5,4068 <xQueueGenericSendFromISR+0x58>
    4040:	00200793          	li	a5,2
    4044:	00000513          	li	a0,0
    4048:	02f68063          	beq	a3,a5,4068 <xQueueGenericSendFromISR+0x58>
    404c:	01c12083          	lw	ra,28(sp)
    4050:	01812403          	lw	s0,24(sp)
    4054:	01412483          	lw	s1,20(sp)
    4058:	01012903          	lw	s2,16(sp)
    405c:	00c12983          	lw	s3,12(sp)
    4060:	02010113          	addi	sp,sp,32
    4064:	00008067          	ret
    4068:	04544483          	lbu	s1,69(s0)
    406c:	03842783          	lw	a5,56(s0)
    4070:	00040513          	mv	a0,s0
    4074:	01849993          	slli	s3,s1,0x18
    4078:	e30ff0ef          	jal	ra,36a8 <prvCopyDataToQueue>
    407c:	4189d993          	srai	s3,s3,0x18
    4080:	fff00793          	li	a5,-1
    4084:	02f98a63          	beq	s3,a5,40b8 <xQueueGenericSendFromISR+0xa8>
    4088:	00148493          	addi	s1,s1,1
    408c:	01849493          	slli	s1,s1,0x18
    4090:	4184d493          	srai	s1,s1,0x18
    4094:	049402a3          	sb	s1,69(s0)
    4098:	01c12083          	lw	ra,28(sp)
    409c:	01812403          	lw	s0,24(sp)
    40a0:	01412483          	lw	s1,20(sp)
    40a4:	01012903          	lw	s2,16(sp)
    40a8:	00c12983          	lw	s3,12(sp)
    40ac:	00100513          	li	a0,1
    40b0:	02010113          	addi	sp,sp,32
    40b4:	00008067          	ret
    40b8:	02442783          	lw	a5,36(s0)
    40bc:	fc078ee3          	beqz	a5,4098 <xQueueGenericSendFromISR+0x88>
    40c0:	02440513          	addi	a0,s0,36
    40c4:	720010ef          	jal	ra,57e4 <xTaskRemoveFromEventList>
    40c8:	fc0508e3          	beqz	a0,4098 <xQueueGenericSendFromISR+0x88>
    40cc:	fc0906e3          	beqz	s2,4098 <xQueueGenericSendFromISR+0x88>
    40d0:	00100793          	li	a5,1
    40d4:	00f92023          	sw	a5,0(s2)
    40d8:	00100513          	li	a0,1
    40dc:	f71ff06f          	j	404c <xQueueGenericSendFromISR+0x3c>

000040e0 <xQueueGiveFromISR>:
    40e0:	03852783          	lw	a5,56(a0)
    40e4:	03c52703          	lw	a4,60(a0)
    40e8:	02e7fc63          	bgeu	a5,a4,4120 <xQueueGiveFromISR+0x40>
    40ec:	04554703          	lbu	a4,69(a0)
    40f0:	00178793          	addi	a5,a5,1
    40f4:	02f52c23          	sw	a5,56(a0)
    40f8:	01871693          	slli	a3,a4,0x18
    40fc:	4186d693          	srai	a3,a3,0x18
    4100:	fff00793          	li	a5,-1
    4104:	02f68263          	beq	a3,a5,4128 <xQueueGiveFromISR+0x48>
    4108:	00170713          	addi	a4,a4,1
    410c:	01871713          	slli	a4,a4,0x18
    4110:	41875713          	srai	a4,a4,0x18
    4114:	04e502a3          	sb	a4,69(a0)
    4118:	00100513          	li	a0,1
    411c:	00008067          	ret
    4120:	00000513          	li	a0,0
    4124:	00008067          	ret
    4128:	02452783          	lw	a5,36(a0)
    412c:	00079663          	bnez	a5,4138 <xQueueGiveFromISR+0x58>
    4130:	00100513          	li	a0,1
    4134:	00008067          	ret
    4138:	fe010113          	addi	sp,sp,-32
    413c:	02450513          	addi	a0,a0,36
    4140:	00112e23          	sw	ra,28(sp)
    4144:	00b12623          	sw	a1,12(sp)
    4148:	69c010ef          	jal	ra,57e4 <xTaskRemoveFromEventList>
    414c:	00050a63          	beqz	a0,4160 <xQueueGiveFromISR+0x80>
    4150:	00c12583          	lw	a1,12(sp)
    4154:	00058663          	beqz	a1,4160 <xQueueGiveFromISR+0x80>
    4158:	00100793          	li	a5,1
    415c:	00f5a023          	sw	a5,0(a1)
    4160:	01c12083          	lw	ra,28(sp)
    4164:	00100513          	li	a0,1
    4168:	02010113          	addi	sp,sp,32
    416c:	00008067          	ret

00004170 <xQueueReceive>:
    4170:	fc010113          	addi	sp,sp,-64
    4174:	02812c23          	sw	s0,56(sp)
    4178:	00050413          	mv	s0,a0
    417c:	03212823          	sw	s2,48(sp)
    4180:	03312623          	sw	s3,44(sp)
    4184:	02112e23          	sw	ra,60(sp)
    4188:	02912a23          	sw	s1,52(sp)
    418c:	03412423          	sw	s4,40(sp)
    4190:	00058993          	mv	s3,a1
    4194:	00c12623          	sw	a2,12(sp)
    4198:	59d010ef          	jal	ra,5f34 <vTaskEnterCritical>
    419c:	03842903          	lw	s2,56(s0)
    41a0:	10091463          	bnez	s2,42a8 <xQueueReceive+0x138>
    41a4:	00c12783          	lw	a5,12(sp)
    41a8:	08078e63          	beqz	a5,4244 <xQueueReceive+0xd4>
    41ac:	01810513          	addi	a0,sp,24
    41b0:	125010ef          	jal	ra,5ad4 <vTaskInternalSetTimeOutState>
    41b4:	fff00493          	li	s1,-1
    41b8:	02440a13          	addi	s4,s0,36
    41bc:	5a9010ef          	jal	ra,5f64 <vTaskExitCritical>
    41c0:	370010ef          	jal	ra,5530 <vTaskSuspendAll>
    41c4:	571010ef          	jal	ra,5f34 <vTaskEnterCritical>
    41c8:	04444783          	lbu	a5,68(s0)
    41cc:	01879793          	slli	a5,a5,0x18
    41d0:	4187d793          	srai	a5,a5,0x18
    41d4:	00979463          	bne	a5,s1,41dc <xQueueReceive+0x6c>
    41d8:	04040223          	sb	zero,68(s0)
    41dc:	04544783          	lbu	a5,69(s0)
    41e0:	01879793          	slli	a5,a5,0x18
    41e4:	4187d793          	srai	a5,a5,0x18
    41e8:	00979463          	bne	a5,s1,41f0 <xQueueReceive+0x80>
    41ec:	040402a3          	sb	zero,69(s0)
    41f0:	575010ef          	jal	ra,5f64 <vTaskExitCritical>
    41f4:	00c10593          	addi	a1,sp,12
    41f8:	01810513          	addi	a0,sp,24
    41fc:	3a9020ef          	jal	ra,6da4 <xTaskCheckForTimeOut>
    4200:	06051663          	bnez	a0,426c <xQueueReceive+0xfc>
    4204:	531010ef          	jal	ra,5f34 <vTaskEnterCritical>
    4208:	03842783          	lw	a5,56(s0)
    420c:	08079063          	bnez	a5,428c <xQueueReceive+0x11c>
    4210:	555010ef          	jal	ra,5f64 <vTaskExitCritical>
    4214:	00c12583          	lw	a1,12(sp)
    4218:	000a0513          	mv	a0,s4
    421c:	520010ef          	jal	ra,573c <vTaskPlaceOnEventList>
    4220:	00040513          	mv	a0,s0
    4224:	db4ff0ef          	jal	ra,37d8 <prvUnlockQueue>
    4228:	035020ef          	jal	ra,6a5c <xTaskResumeAll>
    422c:	06050a63          	beqz	a0,42a0 <xQueueReceive+0x130>
    4230:	505010ef          	jal	ra,5f34 <vTaskEnterCritical>
    4234:	03842903          	lw	s2,56(s0)
    4238:	06091863          	bnez	s2,42a8 <xQueueReceive+0x138>
    423c:	00c12783          	lw	a5,12(sp)
    4240:	f6079ee3          	bnez	a5,41bc <xQueueReceive+0x4c>
    4244:	521010ef          	jal	ra,5f64 <vTaskExitCritical>
    4248:	03c12083          	lw	ra,60(sp)
    424c:	03812403          	lw	s0,56(sp)
    4250:	03412483          	lw	s1,52(sp)
    4254:	03012903          	lw	s2,48(sp)
    4258:	02c12983          	lw	s3,44(sp)
    425c:	02812a03          	lw	s4,40(sp)
    4260:	00000513          	li	a0,0
    4264:	04010113          	addi	sp,sp,64
    4268:	00008067          	ret
    426c:	00040513          	mv	a0,s0
    4270:	d68ff0ef          	jal	ra,37d8 <prvUnlockQueue>
    4274:	7e8020ef          	jal	ra,6a5c <xTaskResumeAll>
    4278:	4bd010ef          	jal	ra,5f34 <vTaskEnterCritical>
    427c:	03842783          	lw	a5,56(s0)
    4280:	fc0782e3          	beqz	a5,4244 <xQueueReceive+0xd4>
    4284:	4e1010ef          	jal	ra,5f64 <vTaskExitCritical>
    4288:	fa9ff06f          	j	4230 <xQueueReceive+0xc0>
    428c:	4d9010ef          	jal	ra,5f64 <vTaskExitCritical>
    4290:	00040513          	mv	a0,s0
    4294:	d44ff0ef          	jal	ra,37d8 <prvUnlockQueue>
    4298:	7c4020ef          	jal	ra,6a5c <xTaskResumeAll>
    429c:	f95ff06f          	j	4230 <xQueueReceive+0xc0>
    42a0:	00000073          	ecall
    42a4:	f8dff06f          	j	4230 <xQueueReceive+0xc0>
    42a8:	04042603          	lw	a2,64(s0)
    42ac:	02060063          	beqz	a2,42cc <xQueueReceive+0x15c>
    42b0:	00c42583          	lw	a1,12(s0)
    42b4:	00842783          	lw	a5,8(s0)
    42b8:	00c585b3          	add	a1,a1,a2
    42bc:	00b42623          	sw	a1,12(s0)
    42c0:	04f5f263          	bgeu	a1,a5,4304 <xQueueReceive+0x194>
    42c4:	00098513          	mv	a0,s3
    42c8:	47d040ef          	jal	ra,8f44 <memcpy>
    42cc:	fff90913          	addi	s2,s2,-1
    42d0:	03242c23          	sw	s2,56(s0)
    42d4:	01042783          	lw	a5,16(s0)
    42d8:	02079c63          	bnez	a5,4310 <xQueueReceive+0x1a0>
    42dc:	489010ef          	jal	ra,5f64 <vTaskExitCritical>
    42e0:	03c12083          	lw	ra,60(sp)
    42e4:	03812403          	lw	s0,56(sp)
    42e8:	03412483          	lw	s1,52(sp)
    42ec:	03012903          	lw	s2,48(sp)
    42f0:	02c12983          	lw	s3,44(sp)
    42f4:	02812a03          	lw	s4,40(sp)
    42f8:	00100513          	li	a0,1
    42fc:	04010113          	addi	sp,sp,64
    4300:	00008067          	ret
    4304:	00042583          	lw	a1,0(s0)
    4308:	00b42623          	sw	a1,12(s0)
    430c:	fb9ff06f          	j	42c4 <xQueueReceive+0x154>
    4310:	01040513          	addi	a0,s0,16
    4314:	4d0010ef          	jal	ra,57e4 <xTaskRemoveFromEventList>
    4318:	fc0502e3          	beqz	a0,42dc <xQueueReceive+0x16c>
    431c:	00000073          	ecall
    4320:	fbdff06f          	j	42dc <xQueueReceive+0x16c>

00004324 <xQueueSemaphoreTake>:
    4324:	fc010113          	addi	sp,sp,-64
    4328:	02812c23          	sw	s0,56(sp)
    432c:	02912a23          	sw	s1,52(sp)
    4330:	03212823          	sw	s2,48(sp)
    4334:	03312623          	sw	s3,44(sp)
    4338:	03412423          	sw	s4,40(sp)
    433c:	00050413          	mv	s0,a0
    4340:	02112e23          	sw	ra,60(sp)
    4344:	00b12623          	sw	a1,12(sp)
    4348:	02450a13          	addi	s4,a0,36
    434c:	3e9010ef          	jal	ra,5f34 <vTaskEnterCritical>
    4350:	03842783          	lw	a5,56(s0)
    4354:	00000993          	li	s3,0
    4358:	00000913          	li	s2,0
    435c:	fff00493          	li	s1,-1
    4360:	0a079063          	bnez	a5,4400 <xQueueSemaphoreTake+0xdc>
    4364:	00c12783          	lw	a5,12(sp)
    4368:	16078c63          	beqz	a5,44e0 <xQueueSemaphoreTake+0x1bc>
    436c:	0c090e63          	beqz	s2,4448 <xQueueSemaphoreTake+0x124>
    4370:	3f5010ef          	jal	ra,5f64 <vTaskExitCritical>
    4374:	1bc010ef          	jal	ra,5530 <vTaskSuspendAll>
    4378:	3bd010ef          	jal	ra,5f34 <vTaskEnterCritical>
    437c:	04444783          	lbu	a5,68(s0)
    4380:	01879793          	slli	a5,a5,0x18
    4384:	4187d793          	srai	a5,a5,0x18
    4388:	00979463          	bne	a5,s1,4390 <xQueueSemaphoreTake+0x6c>
    438c:	04040223          	sb	zero,68(s0)
    4390:	04544783          	lbu	a5,69(s0)
    4394:	01879793          	slli	a5,a5,0x18
    4398:	4187d793          	srai	a5,a5,0x18
    439c:	00979463          	bne	a5,s1,43a4 <xQueueSemaphoreTake+0x80>
    43a0:	040402a3          	sb	zero,69(s0)
    43a4:	3c1010ef          	jal	ra,5f64 <vTaskExitCritical>
    43a8:	00c10593          	addi	a1,sp,12
    43ac:	01810513          	addi	a0,sp,24
    43b0:	1f5020ef          	jal	ra,6da4 <xTaskCheckForTimeOut>
    43b4:	06051863          	bnez	a0,4424 <xQueueSemaphoreTake+0x100>
    43b8:	37d010ef          	jal	ra,5f34 <vTaskEnterCritical>
    43bc:	03842783          	lw	a5,56(s0)
    43c0:	08079a63          	bnez	a5,4454 <xQueueSemaphoreTake+0x130>
    43c4:	3a1010ef          	jal	ra,5f64 <vTaskExitCritical>
    43c8:	00042783          	lw	a5,0(s0)
    43cc:	0e078e63          	beqz	a5,44c8 <xQueueSemaphoreTake+0x1a4>
    43d0:	00c12583          	lw	a1,12(sp)
    43d4:	000a0513          	mv	a0,s4
    43d8:	364010ef          	jal	ra,573c <vTaskPlaceOnEventList>
    43dc:	00040513          	mv	a0,s0
    43e0:	bf8ff0ef          	jal	ra,37d8 <prvUnlockQueue>
    43e4:	678020ef          	jal	ra,6a5c <xTaskResumeAll>
    43e8:	00051463          	bnez	a0,43f0 <xQueueSemaphoreTake+0xcc>
    43ec:	00000073          	ecall
    43f0:	00100913          	li	s2,1
    43f4:	341010ef          	jal	ra,5f34 <vTaskEnterCritical>
    43f8:	03842783          	lw	a5,56(s0)
    43fc:	f60784e3          	beqz	a5,4364 <xQueueSemaphoreTake+0x40>
    4400:	00042703          	lw	a4,0(s0)
    4404:	fff78793          	addi	a5,a5,-1
    4408:	02f42c23          	sw	a5,56(s0)
    440c:	0e070a63          	beqz	a4,4500 <xQueueSemaphoreTake+0x1dc>
    4410:	01042783          	lw	a5,16(s0)
    4414:	0c079c63          	bnez	a5,44ec <xQueueSemaphoreTake+0x1c8>
    4418:	34d010ef          	jal	ra,5f64 <vTaskExitCritical>
    441c:	00100993          	li	s3,1
    4420:	0540006f          	j	4474 <xQueueSemaphoreTake+0x150>
    4424:	00040513          	mv	a0,s0
    4428:	bb0ff0ef          	jal	ra,37d8 <prvUnlockQueue>
    442c:	630020ef          	jal	ra,6a5c <xTaskResumeAll>
    4430:	305010ef          	jal	ra,5f34 <vTaskEnterCritical>
    4434:	03842783          	lw	a5,56(s0)
    4438:	02078a63          	beqz	a5,446c <xQueueSemaphoreTake+0x148>
    443c:	329010ef          	jal	ra,5f64 <vTaskExitCritical>
    4440:	00100913          	li	s2,1
    4444:	fb1ff06f          	j	43f4 <xQueueSemaphoreTake+0xd0>
    4448:	01810513          	addi	a0,sp,24
    444c:	688010ef          	jal	ra,5ad4 <vTaskInternalSetTimeOutState>
    4450:	f21ff06f          	j	4370 <xQueueSemaphoreTake+0x4c>
    4454:	311010ef          	jal	ra,5f64 <vTaskExitCritical>
    4458:	00040513          	mv	a0,s0
    445c:	b7cff0ef          	jal	ra,37d8 <prvUnlockQueue>
    4460:	5fc020ef          	jal	ra,6a5c <xTaskResumeAll>
    4464:	00100913          	li	s2,1
    4468:	f8dff06f          	j	43f4 <xQueueSemaphoreTake+0xd0>
    446c:	2f9010ef          	jal	ra,5f64 <vTaskExitCritical>
    4470:	02099463          	bnez	s3,4498 <xQueueSemaphoreTake+0x174>
    4474:	03c12083          	lw	ra,60(sp)
    4478:	03812403          	lw	s0,56(sp)
    447c:	03412483          	lw	s1,52(sp)
    4480:	03012903          	lw	s2,48(sp)
    4484:	02812a03          	lw	s4,40(sp)
    4488:	00098513          	mv	a0,s3
    448c:	02c12983          	lw	s3,44(sp)
    4490:	04010113          	addi	sp,sp,64
    4494:	00008067          	ret
    4498:	29d010ef          	jal	ra,5f34 <vTaskEnterCritical>
    449c:	02442583          	lw	a1,36(s0)
    44a0:	00058a63          	beqz	a1,44b4 <xQueueSemaphoreTake+0x190>
    44a4:	03042783          	lw	a5,48(s0)
    44a8:	01000593          	li	a1,16
    44ac:	0007a783          	lw	a5,0(a5)
    44b0:	40f585b3          	sub	a1,a1,a5
    44b4:	00842503          	lw	a0,8(s0)
    44b8:	00000993          	li	s3,0
    44bc:	13d010ef          	jal	ra,5df8 <vTaskPriorityDisinheritAfterTimeout>
    44c0:	2a5010ef          	jal	ra,5f64 <vTaskExitCritical>
    44c4:	fb1ff06f          	j	4474 <xQueueSemaphoreTake+0x150>
    44c8:	26d010ef          	jal	ra,5f34 <vTaskEnterCritical>
    44cc:	00842503          	lw	a0,8(s0)
    44d0:	698010ef          	jal	ra,5b68 <xTaskPriorityInherit>
    44d4:	00050993          	mv	s3,a0
    44d8:	28d010ef          	jal	ra,5f64 <vTaskExitCritical>
    44dc:	ef5ff06f          	j	43d0 <xQueueSemaphoreTake+0xac>
    44e0:	285010ef          	jal	ra,5f64 <vTaskExitCritical>
    44e4:	00000993          	li	s3,0
    44e8:	f8dff06f          	j	4474 <xQueueSemaphoreTake+0x150>
    44ec:	01040513          	addi	a0,s0,16
    44f0:	2f4010ef          	jal	ra,57e4 <xTaskRemoveFromEventList>
    44f4:	f20502e3          	beqz	a0,4418 <xQueueSemaphoreTake+0xf4>
    44f8:	00000073          	ecall
    44fc:	f1dff06f          	j	4418 <xQueueSemaphoreTake+0xf4>
    4500:	1a5020ef          	jal	ra,6ea4 <pvTaskIncrementMutexHeldCount>
    4504:	00a42423          	sw	a0,8(s0)
    4508:	f09ff06f          	j	4410 <xQueueSemaphoreTake+0xec>

0000450c <xQueueTakeMutexRecursive>:
    450c:	ff010113          	addi	sp,sp,-16
    4510:	01212023          	sw	s2,0(sp)
    4514:	00852903          	lw	s2,8(a0)
    4518:	00812423          	sw	s0,8(sp)
    451c:	00912223          	sw	s1,4(sp)
    4520:	00112623          	sw	ra,12(sp)
    4524:	00050413          	mv	s0,a0
    4528:	00058493          	mv	s1,a1
    452c:	630010ef          	jal	ra,5b5c <xTaskGetCurrentTaskHandle>
    4530:	02a90c63          	beq	s2,a0,4568 <xQueueTakeMutexRecursive+0x5c>
    4534:	00048593          	mv	a1,s1
    4538:	00040513          	mv	a0,s0
    453c:	de9ff0ef          	jal	ra,4324 <xQueueSemaphoreTake>
    4540:	00050863          	beqz	a0,4550 <xQueueTakeMutexRecursive+0x44>
    4544:	00c42783          	lw	a5,12(s0)
    4548:	00178793          	addi	a5,a5,1
    454c:	00f42623          	sw	a5,12(s0)
    4550:	00c12083          	lw	ra,12(sp)
    4554:	00812403          	lw	s0,8(sp)
    4558:	00412483          	lw	s1,4(sp)
    455c:	00012903          	lw	s2,0(sp)
    4560:	01010113          	addi	sp,sp,16
    4564:	00008067          	ret
    4568:	00c42783          	lw	a5,12(s0)
    456c:	00c12083          	lw	ra,12(sp)
    4570:	00412483          	lw	s1,4(sp)
    4574:	00178793          	addi	a5,a5,1
    4578:	00f42623          	sw	a5,12(s0)
    457c:	00812403          	lw	s0,8(sp)
    4580:	00012903          	lw	s2,0(sp)
    4584:	00100513          	li	a0,1
    4588:	01010113          	addi	sp,sp,16
    458c:	00008067          	ret

00004590 <xQueuePeek>:
    4590:	fc010113          	addi	sp,sp,-64
    4594:	02812c23          	sw	s0,56(sp)
    4598:	03212823          	sw	s2,48(sp)
    459c:	00050413          	mv	s0,a0
    45a0:	02112e23          	sw	ra,60(sp)
    45a4:	02912a23          	sw	s1,52(sp)
    45a8:	03312623          	sw	s3,44(sp)
    45ac:	00058913          	mv	s2,a1
    45b0:	00c12623          	sw	a2,12(sp)
    45b4:	181010ef          	jal	ra,5f34 <vTaskEnterCritical>
    45b8:	03842783          	lw	a5,56(s0)
    45bc:	10079263          	bnez	a5,46c0 <xQueuePeek+0x130>
    45c0:	00c12783          	lw	a5,12(sp)
    45c4:	08078e63          	beqz	a5,4660 <xQueuePeek+0xd0>
    45c8:	01810513          	addi	a0,sp,24
    45cc:	508010ef          	jal	ra,5ad4 <vTaskInternalSetTimeOutState>
    45d0:	fff00493          	li	s1,-1
    45d4:	02440993          	addi	s3,s0,36
    45d8:	18d010ef          	jal	ra,5f64 <vTaskExitCritical>
    45dc:	755000ef          	jal	ra,5530 <vTaskSuspendAll>
    45e0:	155010ef          	jal	ra,5f34 <vTaskEnterCritical>
    45e4:	04444783          	lbu	a5,68(s0)
    45e8:	01879793          	slli	a5,a5,0x18
    45ec:	4187d793          	srai	a5,a5,0x18
    45f0:	00979463          	bne	a5,s1,45f8 <xQueuePeek+0x68>
    45f4:	04040223          	sb	zero,68(s0)
    45f8:	04544783          	lbu	a5,69(s0)
    45fc:	01879793          	slli	a5,a5,0x18
    4600:	4187d793          	srai	a5,a5,0x18
    4604:	00979463          	bne	a5,s1,460c <xQueuePeek+0x7c>
    4608:	040402a3          	sb	zero,69(s0)
    460c:	159010ef          	jal	ra,5f64 <vTaskExitCritical>
    4610:	00c10593          	addi	a1,sp,12
    4614:	01810513          	addi	a0,sp,24
    4618:	78c020ef          	jal	ra,6da4 <xTaskCheckForTimeOut>
    461c:	06051463          	bnez	a0,4684 <xQueuePeek+0xf4>
    4620:	115010ef          	jal	ra,5f34 <vTaskEnterCritical>
    4624:	03842783          	lw	a5,56(s0)
    4628:	06079e63          	bnez	a5,46a4 <xQueuePeek+0x114>
    462c:	139010ef          	jal	ra,5f64 <vTaskExitCritical>
    4630:	00c12583          	lw	a1,12(sp)
    4634:	00098513          	mv	a0,s3
    4638:	104010ef          	jal	ra,573c <vTaskPlaceOnEventList>
    463c:	00040513          	mv	a0,s0
    4640:	998ff0ef          	jal	ra,37d8 <prvUnlockQueue>
    4644:	418020ef          	jal	ra,6a5c <xTaskResumeAll>
    4648:	06050863          	beqz	a0,46b8 <xQueuePeek+0x128>
    464c:	0e9010ef          	jal	ra,5f34 <vTaskEnterCritical>
    4650:	03842783          	lw	a5,56(s0)
    4654:	06079663          	bnez	a5,46c0 <xQueuePeek+0x130>
    4658:	00c12783          	lw	a5,12(sp)
    465c:	f6079ee3          	bnez	a5,45d8 <xQueuePeek+0x48>
    4660:	105010ef          	jal	ra,5f64 <vTaskExitCritical>
    4664:	03c12083          	lw	ra,60(sp)
    4668:	03812403          	lw	s0,56(sp)
    466c:	03412483          	lw	s1,52(sp)
    4670:	03012903          	lw	s2,48(sp)
    4674:	02c12983          	lw	s3,44(sp)
    4678:	00000513          	li	a0,0
    467c:	04010113          	addi	sp,sp,64
    4680:	00008067          	ret
    4684:	00040513          	mv	a0,s0
    4688:	950ff0ef          	jal	ra,37d8 <prvUnlockQueue>
    468c:	3d0020ef          	jal	ra,6a5c <xTaskResumeAll>
    4690:	0a5010ef          	jal	ra,5f34 <vTaskEnterCritical>
    4694:	03842783          	lw	a5,56(s0)
    4698:	fc0784e3          	beqz	a5,4660 <xQueuePeek+0xd0>
    469c:	0c9010ef          	jal	ra,5f64 <vTaskExitCritical>
    46a0:	fadff06f          	j	464c <xQueuePeek+0xbc>
    46a4:	0c1010ef          	jal	ra,5f64 <vTaskExitCritical>
    46a8:	00040513          	mv	a0,s0
    46ac:	92cff0ef          	jal	ra,37d8 <prvUnlockQueue>
    46b0:	3ac020ef          	jal	ra,6a5c <xTaskResumeAll>
    46b4:	f99ff06f          	j	464c <xQueuePeek+0xbc>
    46b8:	00000073          	ecall
    46bc:	f91ff06f          	j	464c <xQueuePeek+0xbc>
    46c0:	04042603          	lw	a2,64(s0)
    46c4:	00c42483          	lw	s1,12(s0)
    46c8:	00060e63          	beqz	a2,46e4 <xQueuePeek+0x154>
    46cc:	00842783          	lw	a5,8(s0)
    46d0:	00c485b3          	add	a1,s1,a2
    46d4:	00b42623          	sw	a1,12(s0)
    46d8:	02f5fe63          	bgeu	a1,a5,4714 <xQueuePeek+0x184>
    46dc:	00090513          	mv	a0,s2
    46e0:	065040ef          	jal	ra,8f44 <memcpy>
    46e4:	02442783          	lw	a5,36(s0)
    46e8:	00942623          	sw	s1,12(s0)
    46ec:	02079a63          	bnez	a5,4720 <xQueuePeek+0x190>
    46f0:	075010ef          	jal	ra,5f64 <vTaskExitCritical>
    46f4:	03c12083          	lw	ra,60(sp)
    46f8:	03812403          	lw	s0,56(sp)
    46fc:	03412483          	lw	s1,52(sp)
    4700:	03012903          	lw	s2,48(sp)
    4704:	02c12983          	lw	s3,44(sp)
    4708:	00100513          	li	a0,1
    470c:	04010113          	addi	sp,sp,64
    4710:	00008067          	ret
    4714:	00042583          	lw	a1,0(s0)
    4718:	00b42623          	sw	a1,12(s0)
    471c:	fc1ff06f          	j	46dc <xQueuePeek+0x14c>
    4720:	02440513          	addi	a0,s0,36
    4724:	0c0010ef          	jal	ra,57e4 <xTaskRemoveFromEventList>
    4728:	fc0504e3          	beqz	a0,46f0 <xQueuePeek+0x160>
    472c:	00000073          	ecall
    4730:	fc1ff06f          	j	46f0 <xQueuePeek+0x160>

00004734 <xQueueReceiveFromISR>:
    4734:	fe010113          	addi	sp,sp,-32
    4738:	01212823          	sw	s2,16(sp)
    473c:	03852903          	lw	s2,56(a0)
    4740:	00112e23          	sw	ra,28(sp)
    4744:	00812c23          	sw	s0,24(sp)
    4748:	00912a23          	sw	s1,20(sp)
    474c:	01312623          	sw	s3,12(sp)
    4750:	01412423          	sw	s4,8(sp)
    4754:	02091463          	bnez	s2,477c <xQueueReceiveFromISR+0x48>
    4758:	01c12083          	lw	ra,28(sp)
    475c:	01812403          	lw	s0,24(sp)
    4760:	01412483          	lw	s1,20(sp)
    4764:	01012903          	lw	s2,16(sp)
    4768:	00c12983          	lw	s3,12(sp)
    476c:	00812a03          	lw	s4,8(sp)
    4770:	00000513          	li	a0,0
    4774:	02010113          	addi	sp,sp,32
    4778:	00008067          	ret
    477c:	04454983          	lbu	s3,68(a0)
    4780:	00060493          	mv	s1,a2
    4784:	04052603          	lw	a2,64(a0)
    4788:	01899a13          	slli	s4,s3,0x18
    478c:	00050413          	mv	s0,a0
    4790:	418a5a13          	srai	s4,s4,0x18
    4794:	02060463          	beqz	a2,47bc <xQueueReceiveFromISR+0x88>
    4798:	00058513          	mv	a0,a1
    479c:	00c42583          	lw	a1,12(s0)
    47a0:	00842783          	lw	a5,8(s0)
    47a4:	00c585b3          	add	a1,a1,a2
    47a8:	00b42623          	sw	a1,12(s0)
    47ac:	00f5e663          	bltu	a1,a5,47b8 <xQueueReceiveFromISR+0x84>
    47b0:	00042583          	lw	a1,0(s0)
    47b4:	00b42623          	sw	a1,12(s0)
    47b8:	78c040ef          	jal	ra,8f44 <memcpy>
    47bc:	fff90913          	addi	s2,s2,-1
    47c0:	03242c23          	sw	s2,56(s0)
    47c4:	fff00793          	li	a5,-1
    47c8:	02fa0c63          	beq	s4,a5,4800 <xQueueReceiveFromISR+0xcc>
    47cc:	00198993          	addi	s3,s3,1
    47d0:	01899993          	slli	s3,s3,0x18
    47d4:	4189d993          	srai	s3,s3,0x18
    47d8:	05340223          	sb	s3,68(s0)
    47dc:	01c12083          	lw	ra,28(sp)
    47e0:	01812403          	lw	s0,24(sp)
    47e4:	01412483          	lw	s1,20(sp)
    47e8:	01012903          	lw	s2,16(sp)
    47ec:	00c12983          	lw	s3,12(sp)
    47f0:	00812a03          	lw	s4,8(sp)
    47f4:	00100513          	li	a0,1
    47f8:	02010113          	addi	sp,sp,32
    47fc:	00008067          	ret
    4800:	01042783          	lw	a5,16(s0)
    4804:	02079463          	bnez	a5,482c <xQueueReceiveFromISR+0xf8>
    4808:	00100513          	li	a0,1
    480c:	01c12083          	lw	ra,28(sp)
    4810:	01812403          	lw	s0,24(sp)
    4814:	01412483          	lw	s1,20(sp)
    4818:	01012903          	lw	s2,16(sp)
    481c:	00c12983          	lw	s3,12(sp)
    4820:	00812a03          	lw	s4,8(sp)
    4824:	02010113          	addi	sp,sp,32
    4828:	00008067          	ret
    482c:	01040513          	addi	a0,s0,16
    4830:	7b5000ef          	jal	ra,57e4 <xTaskRemoveFromEventList>
    4834:	fc050ae3          	beqz	a0,4808 <xQueueReceiveFromISR+0xd4>
    4838:	fc0488e3          	beqz	s1,4808 <xQueueReceiveFromISR+0xd4>
    483c:	00100793          	li	a5,1
    4840:	00f4a023          	sw	a5,0(s1)
    4844:	00100513          	li	a0,1
    4848:	fc5ff06f          	j	480c <xQueueReceiveFromISR+0xd8>

0000484c <xQueuePeekFromISR>:
    484c:	03852783          	lw	a5,56(a0)
    4850:	00079663          	bnez	a5,485c <xQueuePeekFromISR+0x10>
    4854:	00000513          	li	a0,0
    4858:	00008067          	ret
    485c:	04052603          	lw	a2,64(a0)
    4860:	ff010113          	addi	sp,sp,-16
    4864:	00812423          	sw	s0,8(sp)
    4868:	00912223          	sw	s1,4(sp)
    486c:	00112623          	sw	ra,12(sp)
    4870:	00c52483          	lw	s1,12(a0)
    4874:	00050413          	mv	s0,a0
    4878:	02060263          	beqz	a2,489c <xQueuePeekFromISR+0x50>
    487c:	00842783          	lw	a5,8(s0)
    4880:	00058513          	mv	a0,a1
    4884:	00c485b3          	add	a1,s1,a2
    4888:	00b42623          	sw	a1,12(s0)
    488c:	00f5e663          	bltu	a1,a5,4898 <xQueuePeekFromISR+0x4c>
    4890:	00042583          	lw	a1,0(s0)
    4894:	00b42623          	sw	a1,12(s0)
    4898:	6ac040ef          	jal	ra,8f44 <memcpy>
    489c:	00942623          	sw	s1,12(s0)
    48a0:	00c12083          	lw	ra,12(sp)
    48a4:	00812403          	lw	s0,8(sp)
    48a8:	00412483          	lw	s1,4(sp)
    48ac:	00100513          	li	a0,1
    48b0:	01010113          	addi	sp,sp,16
    48b4:	00008067          	ret

000048b8 <uxQueueMessagesWaiting>:
    48b8:	ff010113          	addi	sp,sp,-16
    48bc:	00812423          	sw	s0,8(sp)
    48c0:	00050413          	mv	s0,a0
    48c4:	00112623          	sw	ra,12(sp)
    48c8:	66c010ef          	jal	ra,5f34 <vTaskEnterCritical>
    48cc:	03842403          	lw	s0,56(s0)
    48d0:	694010ef          	jal	ra,5f64 <vTaskExitCritical>
    48d4:	00c12083          	lw	ra,12(sp)
    48d8:	00040513          	mv	a0,s0
    48dc:	00812403          	lw	s0,8(sp)
    48e0:	01010113          	addi	sp,sp,16
    48e4:	00008067          	ret

000048e8 <uxQueueSpacesAvailable>:
    48e8:	ff010113          	addi	sp,sp,-16
    48ec:	00112623          	sw	ra,12(sp)
    48f0:	00812423          	sw	s0,8(sp)
    48f4:	00050413          	mv	s0,a0
    48f8:	63c010ef          	jal	ra,5f34 <vTaskEnterCritical>
    48fc:	03842503          	lw	a0,56(s0)
    4900:	03c42403          	lw	s0,60(s0)
    4904:	40a40433          	sub	s0,s0,a0
    4908:	65c010ef          	jal	ra,5f64 <vTaskExitCritical>
    490c:	00c12083          	lw	ra,12(sp)
    4910:	00040513          	mv	a0,s0
    4914:	00812403          	lw	s0,8(sp)
    4918:	01010113          	addi	sp,sp,16
    491c:	00008067          	ret

00004920 <uxQueueMessagesWaitingFromISR>:
    4920:	03852503          	lw	a0,56(a0)
    4924:	00008067          	ret

00004928 <vQueueDelete>:
    4928:	04654783          	lbu	a5,70(a0)
    492c:	00078463          	beqz	a5,4934 <vQueueDelete+0xc>
    4930:	00008067          	ret
    4934:	2f80306f          	j	7c2c <vPortFree>

00004938 <xQueueIsQueueEmptyFromISR>:
    4938:	03852503          	lw	a0,56(a0)
    493c:	00153513          	seqz	a0,a0
    4940:	00008067          	ret

00004944 <xQueueIsQueueFullFromISR>:
    4944:	03852783          	lw	a5,56(a0)
    4948:	03c52503          	lw	a0,60(a0)
    494c:	40f50533          	sub	a0,a0,a5
    4950:	00153513          	seqz	a0,a0
    4954:	00008067          	ret

00004958 <xQueueCRSend>:
    4958:	ff010113          	addi	sp,sp,-16
    495c:	00812423          	sw	s0,8(sp)
    4960:	00912223          	sw	s1,4(sp)
    4964:	01212023          	sw	s2,0(sp)
    4968:	00112623          	sw	ra,12(sp)
    496c:	00050413          	mv	s0,a0
    4970:	00058913          	mv	s2,a1
    4974:	00060493          	mv	s1,a2
    4978:	30047073          	csrci	mstatus,8
    497c:	5b8010ef          	jal	ra,5f34 <vTaskEnterCritical>
    4980:	03842703          	lw	a4,56(s0)
    4984:	03c42783          	lw	a5,60(s0)
    4988:	04f70e63          	beq	a4,a5,49e4 <xQueueCRSend+0x8c>
    498c:	5d8010ef          	jal	ra,5f64 <vTaskExitCritical>
    4990:	30046073          	csrsi	mstatus,8
    4994:	30047073          	csrci	mstatus,8
    4998:	03842703          	lw	a4,56(s0)
    499c:	03c42783          	lw	a5,60(s0)
    49a0:	00000513          	li	a0,0
    49a4:	02f76063          	bltu	a4,a5,49c4 <xQueueCRSend+0x6c>
    49a8:	30046073          	csrsi	mstatus,8
    49ac:	00c12083          	lw	ra,12(sp)
    49b0:	00812403          	lw	s0,8(sp)
    49b4:	00412483          	lw	s1,4(sp)
    49b8:	00012903          	lw	s2,0(sp)
    49bc:	01010113          	addi	sp,sp,16
    49c0:	00008067          	ret
    49c4:	00000613          	li	a2,0
    49c8:	00090593          	mv	a1,s2
    49cc:	00040513          	mv	a0,s0
    49d0:	cd9fe0ef          	jal	ra,36a8 <prvCopyDataToQueue>
    49d4:	02442783          	lw	a5,36(s0)
    49d8:	02079a63          	bnez	a5,4a0c <xQueueCRSend+0xb4>
    49dc:	00100513          	li	a0,1
    49e0:	fc9ff06f          	j	49a8 <xQueueCRSend+0x50>
    49e4:	580010ef          	jal	ra,5f64 <vTaskExitCritical>
    49e8:	02049c63          	bnez	s1,4a20 <xQueueCRSend+0xc8>
    49ec:	30046073          	csrsi	mstatus,8
    49f0:	00c12083          	lw	ra,12(sp)
    49f4:	00812403          	lw	s0,8(sp)
    49f8:	00412483          	lw	s1,4(sp)
    49fc:	00012903          	lw	s2,0(sp)
    4a00:	00000513          	li	a0,0
    4a04:	01010113          	addi	sp,sp,16
    4a08:	00008067          	ret
    4a0c:	02440513          	addi	a0,s0,36
    4a10:	405030ef          	jal	ra,8614 <xCoRoutineRemoveFromEventList>
    4a14:	fc0504e3          	beqz	a0,49dc <xQueueCRSend+0x84>
    4a18:	ffb00513          	li	a0,-5
    4a1c:	f8dff06f          	j	49a8 <xQueueCRSend+0x50>
    4a20:	01040593          	addi	a1,s0,16
    4a24:	00048513          	mv	a0,s1
    4a28:	091030ef          	jal	ra,82b8 <vCoRoutineAddToDelayedList>
    4a2c:	30046073          	csrsi	mstatus,8
    4a30:	ffc00513          	li	a0,-4
    4a34:	f79ff06f          	j	49ac <xQueueCRSend+0x54>

00004a38 <xQueueCRReceive>:
    4a38:	ff010113          	addi	sp,sp,-16
    4a3c:	00812423          	sw	s0,8(sp)
    4a40:	00112623          	sw	ra,12(sp)
    4a44:	00050413          	mv	s0,a0
    4a48:	30047073          	csrci	mstatus,8
    4a4c:	03852703          	lw	a4,56(a0)
    4a50:	02071063          	bnez	a4,4a70 <xQueueCRReceive+0x38>
    4a54:	0a061463          	bnez	a2,4afc <xQueueCRReceive+0xc4>
    4a58:	30046073          	csrsi	mstatus,8
    4a5c:	00c12083          	lw	ra,12(sp)
    4a60:	00812403          	lw	s0,8(sp)
    4a64:	00000513          	li	a0,0
    4a68:	01010113          	addi	sp,sp,16
    4a6c:	00008067          	ret
    4a70:	30046073          	csrsi	mstatus,8
    4a74:	30047073          	csrci	mstatus,8
    4a78:	03852703          	lw	a4,56(a0)
    4a7c:	00000513          	li	a0,0
    4a80:	00071c63          	bnez	a4,4a98 <xQueueCRReceive+0x60>
    4a84:	30046073          	csrsi	mstatus,8
    4a88:	00c12083          	lw	ra,12(sp)
    4a8c:	00812403          	lw	s0,8(sp)
    4a90:	01010113          	addi	sp,sp,16
    4a94:	00008067          	ret
    4a98:	04042603          	lw	a2,64(s0)
    4a9c:	00058793          	mv	a5,a1
    4aa0:	00c42583          	lw	a1,12(s0)
    4aa4:	00842703          	lw	a4,8(s0)
    4aa8:	00c585b3          	add	a1,a1,a2
    4aac:	00b42623          	sw	a1,12(s0)
    4ab0:	00e5e663          	bltu	a1,a4,4abc <xQueueCRReceive+0x84>
    4ab4:	00042583          	lw	a1,0(s0)
    4ab8:	00b42623          	sw	a1,12(s0)
    4abc:	03842703          	lw	a4,56(s0)
    4ac0:	00078513          	mv	a0,a5
    4ac4:	fff70713          	addi	a4,a4,-1
    4ac8:	02e42c23          	sw	a4,56(s0)
    4acc:	478040ef          	jal	ra,8f44 <memcpy>
    4ad0:	01042783          	lw	a5,16(s0)
    4ad4:	00079663          	bnez	a5,4ae0 <xQueueCRReceive+0xa8>
    4ad8:	00100513          	li	a0,1
    4adc:	fa9ff06f          	j	4a84 <xQueueCRReceive+0x4c>
    4ae0:	01040513          	addi	a0,s0,16
    4ae4:	331030ef          	jal	ra,8614 <xCoRoutineRemoveFromEventList>
    4ae8:	00050793          	mv	a5,a0
    4aec:	ffb00513          	li	a0,-5
    4af0:	f8079ae3          	bnez	a5,4a84 <xQueueCRReceive+0x4c>
    4af4:	00100513          	li	a0,1
    4af8:	f8dff06f          	j	4a84 <xQueueCRReceive+0x4c>
    4afc:	02450593          	addi	a1,a0,36
    4b00:	00060513          	mv	a0,a2
    4b04:	7b4030ef          	jal	ra,82b8 <vCoRoutineAddToDelayedList>
    4b08:	30046073          	csrsi	mstatus,8
    4b0c:	ffc00513          	li	a0,-4
    4b10:	f79ff06f          	j	4a88 <xQueueCRReceive+0x50>

00004b14 <xQueueCRSendFromISR>:
    4b14:	03852703          	lw	a4,56(a0)
    4b18:	03c52783          	lw	a5,60(a0)
    4b1c:	ff010113          	addi	sp,sp,-16
    4b20:	00912223          	sw	s1,4(sp)
    4b24:	00112623          	sw	ra,12(sp)
    4b28:	00812423          	sw	s0,8(sp)
    4b2c:	01212023          	sw	s2,0(sp)
    4b30:	00060493          	mv	s1,a2
    4b34:	02f76063          	bltu	a4,a5,4b54 <xQueueCRSendFromISR+0x40>
    4b38:	00c12083          	lw	ra,12(sp)
    4b3c:	00812403          	lw	s0,8(sp)
    4b40:	00012903          	lw	s2,0(sp)
    4b44:	00048513          	mv	a0,s1
    4b48:	00412483          	lw	s1,4(sp)
    4b4c:	01010113          	addi	sp,sp,16
    4b50:	00008067          	ret
    4b54:	04052603          	lw	a2,64(a0)
    4b58:	03852903          	lw	s2,56(a0)
    4b5c:	00050413          	mv	s0,a0
    4b60:	04060863          	beqz	a2,4bb0 <xQueueCRSendFromISR+0x9c>
    4b64:	00452503          	lw	a0,4(a0)
    4b68:	3dc040ef          	jal	ra,8f44 <memcpy>
    4b6c:	00442783          	lw	a5,4(s0)
    4b70:	04042683          	lw	a3,64(s0)
    4b74:	00842703          	lw	a4,8(s0)
    4b78:	00d787b3          	add	a5,a5,a3
    4b7c:	00f42223          	sw	a5,4(s0)
    4b80:	00e7e663          	bltu	a5,a4,4b8c <xQueueCRSendFromISR+0x78>
    4b84:	00042783          	lw	a5,0(s0)
    4b88:	00f42223          	sw	a5,4(s0)
    4b8c:	00190913          	addi	s2,s2,1
    4b90:	03242c23          	sw	s2,56(s0)
    4b94:	fa0492e3          	bnez	s1,4b38 <xQueueCRSendFromISR+0x24>
    4b98:	02442783          	lw	a5,36(s0)
    4b9c:	f8078ee3          	beqz	a5,4b38 <xQueueCRSendFromISR+0x24>
    4ba0:	02440513          	addi	a0,s0,36
    4ba4:	271030ef          	jal	ra,8614 <xCoRoutineRemoveFromEventList>
    4ba8:	00a034b3          	snez	s1,a0
    4bac:	f8dff06f          	j	4b38 <xQueueCRSendFromISR+0x24>
    4bb0:	00052783          	lw	a5,0(a0)
    4bb4:	fc079ce3          	bnez	a5,4b8c <xQueueCRSendFromISR+0x78>
    4bb8:	00852503          	lw	a0,8(a0)
    4bbc:	124010ef          	jal	ra,5ce0 <xTaskPriorityDisinherit>
    4bc0:	00042423          	sw	zero,8(s0)
    4bc4:	fc9ff06f          	j	4b8c <xQueueCRSendFromISR+0x78>

00004bc8 <xQueueCRReceiveFromISR>:
    4bc8:	03852783          	lw	a5,56(a0)
    4bcc:	06078c63          	beqz	a5,4c44 <xQueueCRReceiveFromISR+0x7c>
    4bd0:	ff010113          	addi	sp,sp,-16
    4bd4:	00812423          	sw	s0,8(sp)
    4bd8:	00050413          	mv	s0,a0
    4bdc:	00912223          	sw	s1,4(sp)
    4be0:	00058513          	mv	a0,a1
    4be4:	00060493          	mv	s1,a2
    4be8:	00c42583          	lw	a1,12(s0)
    4bec:	04042603          	lw	a2,64(s0)
    4bf0:	00842783          	lw	a5,8(s0)
    4bf4:	00112623          	sw	ra,12(sp)
    4bf8:	00c585b3          	add	a1,a1,a2
    4bfc:	00b42623          	sw	a1,12(s0)
    4c00:	00f5e663          	bltu	a1,a5,4c0c <xQueueCRReceiveFromISR+0x44>
    4c04:	00042583          	lw	a1,0(s0)
    4c08:	00b42623          	sw	a1,12(s0)
    4c0c:	03842783          	lw	a5,56(s0)
    4c10:	fff78793          	addi	a5,a5,-1
    4c14:	02f42c23          	sw	a5,56(s0)
    4c18:	32c040ef          	jal	ra,8f44 <memcpy>
    4c1c:	0004a783          	lw	a5,0(s1)
    4c20:	00079663          	bnez	a5,4c2c <xQueueCRReceiveFromISR+0x64>
    4c24:	01042783          	lw	a5,16(s0)
    4c28:	02079263          	bnez	a5,4c4c <xQueueCRReceiveFromISR+0x84>
    4c2c:	00c12083          	lw	ra,12(sp)
    4c30:	00812403          	lw	s0,8(sp)
    4c34:	00412483          	lw	s1,4(sp)
    4c38:	00100513          	li	a0,1
    4c3c:	01010113          	addi	sp,sp,16
    4c40:	00008067          	ret
    4c44:	00000513          	li	a0,0
    4c48:	00008067          	ret
    4c4c:	01040513          	addi	a0,s0,16
    4c50:	1c5030ef          	jal	ra,8614 <xCoRoutineRemoveFromEventList>
    4c54:	fc050ce3          	beqz	a0,4c2c <xQueueCRReceiveFromISR+0x64>
    4c58:	00100793          	li	a5,1
    4c5c:	00f4a023          	sw	a5,0(s1)
    4c60:	fcdff06f          	j	4c2c <xQueueCRReceiveFromISR+0x64>

00004c64 <prvAddCurrentTaskToDelayedList>:
    4c64:	fe010113          	addi	sp,sp,-32
    4c68:	00912a23          	sw	s1,20(sp)
    4c6c:	0001c497          	auipc	s1,0x1c
    4c70:	7c048493          	addi	s1,s1,1984 # 2142c <pxCurrentTCB>
    4c74:	01212823          	sw	s2,16(sp)
    4c78:	0001c917          	auipc	s2,0x1c
    4c7c:	79c92903          	lw	s2,1948(s2) # 21414 <xTickCount>
    4c80:	0004a783          	lw	a5,0(s1)
    4c84:	00812c23          	sw	s0,24(sp)
    4c88:	00050413          	mv	s0,a0
    4c8c:	00478513          	addi	a0,a5,4
    4c90:	01312623          	sw	s3,12(sp)
    4c94:	00112e23          	sw	ra,28(sp)
    4c98:	00058993          	mv	s3,a1
    4c9c:	281030ef          	jal	ra,871c <uxListRemove>
    4ca0:	02051663          	bnez	a0,4ccc <prvAddCurrentTaskToDelayedList+0x68>
    4ca4:	0004a783          	lw	a5,0(s1)
    4ca8:	0001c717          	auipc	a4,0x1c
    4cac:	76870713          	addi	a4,a4,1896 # 21410 <uxTopReadyPriority>
    4cb0:	00072683          	lw	a3,0(a4)
    4cb4:	02c7a603          	lw	a2,44(a5)
    4cb8:	00100793          	li	a5,1
    4cbc:	00c797b3          	sll	a5,a5,a2
    4cc0:	fff7c793          	not	a5,a5
    4cc4:	00d7f7b3          	and	a5,a5,a3
    4cc8:	00f72023          	sw	a5,0(a4)
    4ccc:	fff00793          	li	a5,-1
    4cd0:	08f40263          	beq	s0,a5,4d54 <prvAddCurrentTaskToDelayedList+0xf0>
    4cd4:	0004a783          	lw	a5,0(s1)
    4cd8:	00890433          	add	s0,s2,s0
    4cdc:	0087a223          	sw	s0,4(a5)
    4ce0:	05246463          	bltu	s0,s2,4d28 <prvAddCurrentTaskToDelayedList+0xc4>
    4ce4:	0001c517          	auipc	a0,0x1c
    4ce8:	74452503          	lw	a0,1860(a0) # 21428 <pxDelayedTaskList>
    4cec:	0004a583          	lw	a1,0(s1)
    4cf0:	00458593          	addi	a1,a1,4
    4cf4:	1d9030ef          	jal	ra,86cc <vListInsert>
    4cf8:	0001c797          	auipc	a5,0x1c
    4cfc:	70078793          	addi	a5,a5,1792 # 213f8 <xNextTaskUnblockTime>
    4d00:	0007a703          	lw	a4,0(a5)
    4d04:	00e47463          	bgeu	s0,a4,4d0c <prvAddCurrentTaskToDelayedList+0xa8>
    4d08:	0087a023          	sw	s0,0(a5)
    4d0c:	01c12083          	lw	ra,28(sp)
    4d10:	01812403          	lw	s0,24(sp)
    4d14:	01412483          	lw	s1,20(sp)
    4d18:	01012903          	lw	s2,16(sp)
    4d1c:	00c12983          	lw	s3,12(sp)
    4d20:	02010113          	addi	sp,sp,32
    4d24:	00008067          	ret
    4d28:	01812403          	lw	s0,24(sp)
    4d2c:	0001c517          	auipc	a0,0x1c
    4d30:	6f852503          	lw	a0,1784(a0) # 21424 <pxOverflowDelayedTaskList>
    4d34:	0004a583          	lw	a1,0(s1)
    4d38:	01c12083          	lw	ra,28(sp)
    4d3c:	01412483          	lw	s1,20(sp)
    4d40:	01012903          	lw	s2,16(sp)
    4d44:	00c12983          	lw	s3,12(sp)
    4d48:	00458593          	addi	a1,a1,4
    4d4c:	02010113          	addi	sp,sp,32
    4d50:	17d0306f          	j	86cc <vListInsert>
    4d54:	f80980e3          	beqz	s3,4cd4 <prvAddCurrentTaskToDelayedList+0x70>
    4d58:	0001d797          	auipc	a5,0x1d
    4d5c:	82078793          	addi	a5,a5,-2016 # 21578 <xSuspendedTaskList>
    4d60:	0047a703          	lw	a4,4(a5)
    4d64:	0004a583          	lw	a1,0(s1)
    4d68:	0004a683          	lw	a3,0(s1)
    4d6c:	00872603          	lw	a2,8(a4)
    4d70:	00e5a423          	sw	a4,8(a1)
    4d74:	0004a583          	lw	a1,0(s1)
    4d78:	00c6a623          	sw	a2,12(a3)
    4d7c:	00872803          	lw	a6,8(a4)
    4d80:	0004a603          	lw	a2,0(s1)
    4d84:	0004a503          	lw	a0,0(s1)
    4d88:	0007a683          	lw	a3,0(a5)
    4d8c:	00458593          	addi	a1,a1,4
    4d90:	00b82223          	sw	a1,4(a6)
    4d94:	01c12083          	lw	ra,28(sp)
    4d98:	01812403          	lw	s0,24(sp)
    4d9c:	00460613          	addi	a2,a2,4
    4da0:	00c72423          	sw	a2,8(a4)
    4da4:	00168713          	addi	a4,a3,1
    4da8:	00f52a23          	sw	a5,20(a0)
    4dac:	00e7a023          	sw	a4,0(a5)
    4db0:	01412483          	lw	s1,20(sp)
    4db4:	01012903          	lw	s2,16(sp)
    4db8:	00c12983          	lw	s3,12(sp)
    4dbc:	02010113          	addi	sp,sp,32
    4dc0:	00008067          	ret

00004dc4 <vTaskSwitchContext.part.0>:
    4dc4:	ff010113          	addi	sp,sp,-16
    4dc8:	0001c797          	auipc	a5,0x1c
    4dcc:	6207ae23          	sw	zero,1596(a5) # 21404 <xYieldPending>
    4dd0:	00812423          	sw	s0,8(sp)
    4dd4:	0001c417          	auipc	s0,0x1c
    4dd8:	65840413          	addi	s0,s0,1624 # 2142c <pxCurrentTCB>
    4ddc:	00042703          	lw	a4,0(s0)
    4de0:	00042783          	lw	a5,0(s0)
    4de4:	00112623          	sw	ra,12(sp)
    4de8:	00072703          	lw	a4,0(a4)
    4dec:	0307a783          	lw	a5,48(a5)
    4df0:	00912223          	sw	s1,4(sp)
    4df4:	08e7f463          	bgeu	a5,a4,4e7c <vTaskSwitchContext.part.0+0xb8>
    4df8:	0001c497          	auipc	s1,0x1c
    4dfc:	62448493          	addi	s1,s1,1572 # 2141c <FreeRTOS_errno>
    4e00:	00042783          	lw	a5,0(s0)
    4e04:	0004a703          	lw	a4,0(s1)
    4e08:	0001c517          	auipc	a0,0x1c
    4e0c:	60852503          	lw	a0,1544(a0) # 21410 <uxTopReadyPriority>
    4e10:	04e7aa23          	sw	a4,84(a5)
    4e14:	1a5040ef          	jal	ra,97b8 <__clzsi2>
    4e18:	01f00793          	li	a5,31
    4e1c:	40a787b3          	sub	a5,a5,a0
    4e20:	00279513          	slli	a0,a5,0x2
    4e24:	00f50533          	add	a0,a0,a5
    4e28:	00251513          	slli	a0,a0,0x2
    4e2c:	0001c797          	auipc	a5,0x1c
    4e30:	74c78793          	addi	a5,a5,1868 # 21578 <xSuspendedTaskList>
    4e34:	00a787b3          	add	a5,a5,a0
    4e38:	0187a703          	lw	a4,24(a5)
    4e3c:	0001c697          	auipc	a3,0x1c
    4e40:	75868693          	addi	a3,a3,1880 # 21594 <pxReadyTasksLists+0x8>
    4e44:	00d50533          	add	a0,a0,a3
    4e48:	00472703          	lw	a4,4(a4)
    4e4c:	00e7ac23          	sw	a4,24(a5)
    4e50:	04a70063          	beq	a4,a0,4e90 <vTaskSwitchContext.part.0+0xcc>
    4e54:	00c72783          	lw	a5,12(a4)
    4e58:	00c12083          	lw	ra,12(sp)
    4e5c:	00f42023          	sw	a5,0(s0)
    4e60:	00042783          	lw	a5,0(s0)
    4e64:	00812403          	lw	s0,8(sp)
    4e68:	0547a783          	lw	a5,84(a5)
    4e6c:	00f4a023          	sw	a5,0(s1)
    4e70:	00412483          	lw	s1,4(sp)
    4e74:	01010113          	addi	sp,sp,16
    4e78:	00008067          	ret
    4e7c:	00042503          	lw	a0,0(s0)
    4e80:	00042583          	lw	a1,0(s0)
    4e84:	03458593          	addi	a1,a1,52
    4e88:	be4fc0ef          	jal	ra,126c <vApplicationStackOverflowHook>
    4e8c:	f6dff06f          	j	4df8 <vTaskSwitchContext.part.0+0x34>
    4e90:	00472703          	lw	a4,4(a4)
    4e94:	00e7ac23          	sw	a4,24(a5)
    4e98:	fbdff06f          	j	4e54 <vTaskSwitchContext.part.0+0x90>

00004e9c <prvInitialiseNewTask.constprop.0>:
    4e9c:	fe010113          	addi	sp,sp,-32
    4ea0:	01412423          	sw	s4,8(sp)
    4ea4:	00050a13          	mv	s4,a0
    4ea8:	03082503          	lw	a0,48(a6)
    4eac:	01312623          	sw	s3,12(sp)
    4eb0:	00261993          	slli	s3,a2,0x2
    4eb4:	00912a23          	sw	s1,20(sp)
    4eb8:	00098613          	mv	a2,s3
    4ebc:	00058493          	mv	s1,a1
    4ec0:	0a500593          	li	a1,165
    4ec4:	00812c23          	sw	s0,24(sp)
    4ec8:	01212823          	sw	s2,16(sp)
    4ecc:	01512223          	sw	s5,4(sp)
    4ed0:	01612023          	sw	s6,0(sp)
    4ed4:	00080413          	mv	s0,a6
    4ed8:	00078b13          	mv	s6,a5
    4edc:	00112e23          	sw	ra,28(sp)
    4ee0:	00068a93          	mv	s5,a3
    4ee4:	00070913          	mv	s2,a4
    4ee8:	184040ef          	jal	ra,906c <memset>
    4eec:	03042783          	lw	a5,48(s0)
    4ef0:	ffc98993          	addi	s3,s3,-4
    4ef4:	013789b3          	add	s3,a5,s3
    4ef8:	ff09f993          	andi	s3,s3,-16
    4efc:	0c048463          	beqz	s1,4fc4 <prvInitialiseNewTask.constprop.0+0x128>
    4f00:	00048593          	mv	a1,s1
    4f04:	03440813          	addi	a6,s0,52
    4f08:	00848793          	addi	a5,s1,8
    4f0c:	0005c883          	lbu	a7,0(a1)
    4f10:	00180813          	addi	a6,a6,1
    4f14:	00158593          	addi	a1,a1,1
    4f18:	ff180fa3          	sb	a7,-1(a6)
    4f1c:	00088463          	beqz	a7,4f24 <prvInitialiseNewTask.constprop.0+0x88>
    4f20:	fef596e3          	bne	a1,a5,4f0c <prvInitialiseNewTask.constprop.0+0x70>
    4f24:	02040da3          	sb	zero,59(s0)
    4f28:	00f00793          	li	a5,15
    4f2c:	0127f463          	bgeu	a5,s2,4f34 <prvInitialiseNewTask.constprop.0+0x98>
    4f30:	00f00913          	li	s2,15
    4f34:	00440513          	addi	a0,s0,4
    4f38:	03242623          	sw	s2,44(s0)
    4f3c:	05242023          	sw	s2,64(s0)
    4f40:	04042223          	sw	zero,68(s0)
    4f44:	750030ef          	jal	ra,8694 <vListInitialiseItem>
    4f48:	01840513          	addi	a0,s0,24
    4f4c:	748030ef          	jal	ra,8694 <vListInitialiseItem>
    4f50:	01000793          	li	a5,16
    4f54:	412784b3          	sub	s1,a5,s2
    4f58:	00842823          	sw	s0,16(s0)
    4f5c:	00942c23          	sw	s1,24(s0)
    4f60:	02842223          	sw	s0,36(s0)
    4f64:	02042e23          	sw	zero,60(s0)
    4f68:	04042423          	sw	zero,72(s0)
    4f6c:	04040623          	sb	zero,76(s0)
    4f70:	040406a3          	sb	zero,77(s0)
    4f74:	04040723          	sb	zero,78(s0)
    4f78:	040407a3          	sb	zero,79(s0)
    4f7c:	04040823          	sb	zero,80(s0)
    4f80:	000a8613          	mv	a2,s5
    4f84:	000a0593          	mv	a1,s4
    4f88:	00098513          	mv	a0,s3
    4f8c:	074030ef          	jal	ra,8000 <pxPortInitialiseStack>
    4f90:	00a42023          	sw	a0,0(s0)
    4f94:	000b0463          	beqz	s6,4f9c <prvInitialiseNewTask.constprop.0+0x100>
    4f98:	008b2023          	sw	s0,0(s6)
    4f9c:	01c12083          	lw	ra,28(sp)
    4fa0:	01812403          	lw	s0,24(sp)
    4fa4:	01412483          	lw	s1,20(sp)
    4fa8:	01012903          	lw	s2,16(sp)
    4fac:	00c12983          	lw	s3,12(sp)
    4fb0:	00812a03          	lw	s4,8(sp)
    4fb4:	00412a83          	lw	s5,4(sp)
    4fb8:	00012b03          	lw	s6,0(sp)
    4fbc:	02010113          	addi	sp,sp,32
    4fc0:	00008067          	ret
    4fc4:	02040a23          	sb	zero,52(s0)
    4fc8:	f61ff06f          	j	4f28 <prvInitialiseNewTask.constprop.0+0x8c>

00004fcc <prvIdleTask>:
    4fcc:	fe010113          	addi	sp,sp,-32
    4fd0:	00912a23          	sw	s1,20(sp)
    4fd4:	01212823          	sw	s2,16(sp)
    4fd8:	01312623          	sw	s3,12(sp)
    4fdc:	01412423          	sw	s4,8(sp)
    4fe0:	01512223          	sw	s5,4(sp)
    4fe4:	01612023          	sw	s6,0(sp)
    4fe8:	00112e23          	sw	ra,28(sp)
    4fec:	00812c23          	sw	s0,24(sp)
    4ff0:	0001c497          	auipc	s1,0x1c
    4ff4:	43048493          	addi	s1,s1,1072 # 21420 <uxDeletedTasksWaitingCleanUp>
    4ff8:	0001c997          	auipc	s3,0x1c
    4ffc:	41498993          	addi	s3,s3,1044 # 2140c <xSchedulerRunning>
    5000:	0001ca17          	auipc	s4,0x1c
    5004:	42ca0a13          	addi	s4,s4,1068 # 2142c <pxCurrentTCB>
    5008:	0001ca97          	auipc	s5,0x1c
    500c:	570a8a93          	addi	s5,s5,1392 # 21578 <xSuspendedTaskList>
    5010:	0001c917          	auipc	s2,0x1c
    5014:	40890913          	addi	s2,s2,1032 # 21418 <uxCurrentNumberOfTasks>
    5018:	00100b13          	li	s6,1
    501c:	0004a783          	lw	a5,0(s1)
    5020:	08078e63          	beqz	a5,50bc <prvIdleTask+0xf0>
    5024:	30047073          	csrci	mstatus,8
    5028:	0009a783          	lw	a5,0(s3)
    502c:	00078c63          	beqz	a5,5044 <prvIdleTask+0x78>
    5030:	000a2703          	lw	a4,0(s4)
    5034:	000a2783          	lw	a5,0(s4)
    5038:	03c72783          	lw	a5,60(a4)
    503c:	00178793          	addi	a5,a5,1
    5040:	02f72e23          	sw	a5,60(a4)
    5044:	160aa783          	lw	a5,352(s5)
    5048:	00c7a403          	lw	s0,12(a5)
    504c:	00440513          	addi	a0,s0,4
    5050:	6cc030ef          	jal	ra,871c <uxListRemove>
    5054:	00092783          	lw	a5,0(s2)
    5058:	fff78793          	addi	a5,a5,-1
    505c:	00f92023          	sw	a5,0(s2)
    5060:	0004a783          	lw	a5,0(s1)
    5064:	fff78793          	addi	a5,a5,-1
    5068:	00f4a023          	sw	a5,0(s1)
    506c:	0009a783          	lw	a5,0(s3)
    5070:	02078863          	beqz	a5,50a0 <prvIdleTask+0xd4>
    5074:	000a2783          	lw	a5,0(s4)
    5078:	03c7a783          	lw	a5,60(a5)
    507c:	02078263          	beqz	a5,50a0 <prvIdleTask+0xd4>
    5080:	000a2703          	lw	a4,0(s4)
    5084:	000a2683          	lw	a3,0(s4)
    5088:	03c72783          	lw	a5,60(a4)
    508c:	fff78793          	addi	a5,a5,-1
    5090:	02f72e23          	sw	a5,60(a4)
    5094:	03c6a783          	lw	a5,60(a3)
    5098:	00079463          	bnez	a5,50a0 <prvIdleTask+0xd4>
    509c:	30046073          	csrsi	mstatus,8
    50a0:	05144783          	lbu	a5,81(s0)
    50a4:	02078663          	beqz	a5,50d0 <prvIdleTask+0x104>
    50a8:	f7679ae3          	bne	a5,s6,501c <prvIdleTask+0x50>
    50ac:	00040513          	mv	a0,s0
    50b0:	37d020ef          	jal	ra,7c2c <vPortFree>
    50b4:	0004a783          	lw	a5,0(s1)
    50b8:	f60796e3          	bnez	a5,5024 <prvIdleTask+0x58>
    50bc:	014aa783          	lw	a5,20(s5)
    50c0:	00fb7463          	bgeu	s6,a5,50c8 <prvIdleTask+0xfc>
    50c4:	00000073          	ecall
    50c8:	9c4fc0ef          	jal	ra,128c <vApplicationIdleHook>
    50cc:	f51ff06f          	j	501c <prvIdleTask+0x50>
    50d0:	03042503          	lw	a0,48(s0)
    50d4:	359020ef          	jal	ra,7c2c <vPortFree>
    50d8:	00040513          	mv	a0,s0
    50dc:	351020ef          	jal	ra,7c2c <vPortFree>
    50e0:	f3dff06f          	j	501c <prvIdleTask+0x50>

000050e4 <xTaskIncrementTick.part.0>:
    50e4:	0001c797          	auipc	a5,0x1c
    50e8:	33078793          	addi	a5,a5,816 # 21414 <xTickCount>
    50ec:	0007a303          	lw	t1,0(a5)
    50f0:	fe010113          	addi	sp,sp,-32
    50f4:	00812c23          	sw	s0,24(sp)
    50f8:	00112e23          	sw	ra,28(sp)
    50fc:	00912a23          	sw	s1,20(sp)
    5100:	00130313          	addi	t1,t1,1
    5104:	0067a023          	sw	t1,0(a5)
    5108:	0001c417          	auipc	s0,0x1c
    510c:	2f040413          	addi	s0,s0,752 # 213f8 <xNextTaskUnblockTime>
    5110:	1c030063          	beqz	t1,52d0 <xTaskIncrementTick.part.0+0x1ec>
    5114:	00042783          	lw	a5,0(s0)
    5118:	12f36c63          	bltu	t1,a5,5250 <xTaskIncrementTick.part.0+0x16c>
    511c:	0001ce17          	auipc	t3,0x1c
    5120:	30ce0e13          	addi	t3,t3,780 # 21428 <pxDelayedTaskList>
    5124:	000e2783          	lw	a5,0(t3)
    5128:	00000513          	li	a0,0
    512c:	0001cf17          	auipc	t5,0x1c
    5130:	44cf0f13          	addi	t5,t5,1100 # 21578 <xSuspendedTaskList>
    5134:	0007a783          	lw	a5,0(a5)
    5138:	0001cf97          	auipc	t6,0x1c
    513c:	2f4f8f93          	addi	t6,t6,756 # 2142c <pxCurrentTCB>
    5140:	16078e63          	beqz	a5,52bc <xTaskIncrementTick.part.0+0x1d8>
    5144:	0001ce97          	auipc	t4,0x1c
    5148:	2cce8e93          	addi	t4,t4,716 # 21410 <uxTopReadyPriority>
    514c:	00100393          	li	t2,1
    5150:	0001c297          	auipc	t0,0x1c
    5154:	43c28293          	addi	t0,t0,1084 # 2158c <pxReadyTasksLists>
    5158:	0b80006f          	j	5210 <xTaskIncrementTick.part.0+0x12c>
    515c:	0006a603          	lw	a2,0(a3)
    5160:	0287a703          	lw	a4,40(a5)
    5164:	0007aa23          	sw	zero,20(a5)
    5168:	fff60613          	addi	a2,a2,-1
    516c:	00c6a023          	sw	a2,0(a3)
    5170:	02070863          	beqz	a4,51a0 <xTaskIncrementTick.part.0+0xbc>
    5174:	0207a603          	lw	a2,32(a5)
    5178:	01c7a683          	lw	a3,28(a5)
    517c:	00472803          	lw	a6,4(a4)
    5180:	00c6a423          	sw	a2,8(a3)
    5184:	0207a603          	lw	a2,32(a5)
    5188:	00d62223          	sw	a3,4(a2)
    518c:	13180e63          	beq	a6,a7,52c8 <xTaskIncrementTick.part.0+0x1e4>
    5190:	00072683          	lw	a3,0(a4)
    5194:	0207a423          	sw	zero,40(a5)
    5198:	fff68693          	addi	a3,a3,-1
    519c:	00d72023          	sw	a3,0(a4)
    51a0:	02c7a683          	lw	a3,44(a5)
    51a4:	000ea483          	lw	s1,0(t4)
    51a8:	00269713          	slli	a4,a3,0x2
    51ac:	00d70733          	add	a4,a4,a3
    51b0:	00271713          	slli	a4,a4,0x2
    51b4:	00ef0833          	add	a6,t5,a4
    51b8:	01882603          	lw	a2,24(a6)
    51bc:	00d398b3          	sll	a7,t2,a3
    51c0:	0098e8b3          	or	a7,a7,s1
    51c4:	00862483          	lw	s1,8(a2)
    51c8:	011ea023          	sw	a7,0(t4)
    51cc:	01482883          	lw	a7,20(a6)
    51d0:	0097a623          	sw	s1,12(a5)
    51d4:	00862483          	lw	s1,8(a2)
    51d8:	00c7a423          	sw	a2,8(a5)
    51dc:	00e28733          	add	a4,t0,a4
    51e0:	00b4a223          	sw	a1,4(s1)
    51e4:	00b62423          	sw	a1,8(a2)
    51e8:	00e7aa23          	sw	a4,20(a5)
    51ec:	00188893          	addi	a7,a7,1
    51f0:	01182a23          	sw	a7,20(a6)
    51f4:	000fa783          	lw	a5,0(t6)
    51f8:	02c7a783          	lw	a5,44(a5)
    51fc:	00f6e463          	bltu	a3,a5,5204 <xTaskIncrementTick.part.0+0x120>
    5200:	00100513          	li	a0,1
    5204:	000e2783          	lw	a5,0(t3)
    5208:	0007a783          	lw	a5,0(a5)
    520c:	0a078863          	beqz	a5,52bc <xTaskIncrementTick.part.0+0x1d8>
    5210:	000e2783          	lw	a5,0(t3)
    5214:	00c7a783          	lw	a5,12(a5)
    5218:	00c7a783          	lw	a5,12(a5)
    521c:	0047a703          	lw	a4,4(a5)
    5220:	00478593          	addi	a1,a5,4
    5224:	01878893          	addi	a7,a5,24
    5228:	10e36263          	bltu	t1,a4,532c <xTaskIncrementTick.part.0+0x248>
    522c:	0147a683          	lw	a3,20(a5)
    5230:	0087a603          	lw	a2,8(a5)
    5234:	00c7a703          	lw	a4,12(a5)
    5238:	0046a803          	lw	a6,4(a3)
    523c:	00e62423          	sw	a4,8(a2)
    5240:	00c72223          	sw	a2,4(a4)
    5244:	f0b81ce3          	bne	a6,a1,515c <xTaskIncrementTick.part.0+0x78>
    5248:	00e6a223          	sw	a4,4(a3)
    524c:	f11ff06f          	j	515c <xTaskIncrementTick.part.0+0x78>
    5250:	00000513          	li	a0,0
    5254:	0001cf17          	auipc	t5,0x1c
    5258:	324f0f13          	addi	t5,t5,804 # 21578 <xSuspendedTaskList>
    525c:	0001cf97          	auipc	t6,0x1c
    5260:	1d0f8f93          	addi	t6,t6,464 # 2142c <pxCurrentTCB>
    5264:	000fa783          	lw	a5,0(t6)
    5268:	00100693          	li	a3,1
    526c:	02c7a703          	lw	a4,44(a5)
    5270:	00271793          	slli	a5,a4,0x2
    5274:	00e787b3          	add	a5,a5,a4
    5278:	00279793          	slli	a5,a5,0x2
    527c:	00ff0f33          	add	t5,t5,a5
    5280:	014f2783          	lw	a5,20(t5)
    5284:	00f6f463          	bgeu	a3,a5,528c <xTaskIncrementTick.part.0+0x1a8>
    5288:	00100513          	li	a0,1
    528c:	0001c797          	auipc	a5,0x1c
    5290:	17c7a783          	lw	a5,380(a5) # 21408 <xPendedTicks>
    5294:	08078463          	beqz	a5,531c <xTaskIncrementTick.part.0+0x238>
    5298:	0001c797          	auipc	a5,0x1c
    529c:	16c7a783          	lw	a5,364(a5) # 21404 <xYieldPending>
    52a0:	00078463          	beqz	a5,52a8 <xTaskIncrementTick.part.0+0x1c4>
    52a4:	00100513          	li	a0,1
    52a8:	01c12083          	lw	ra,28(sp)
    52ac:	01812403          	lw	s0,24(sp)
    52b0:	01412483          	lw	s1,20(sp)
    52b4:	02010113          	addi	sp,sp,32
    52b8:	00008067          	ret
    52bc:	fff00793          	li	a5,-1
    52c0:	00f42023          	sw	a5,0(s0)
    52c4:	fa1ff06f          	j	5264 <xTaskIncrementTick.part.0+0x180>
    52c8:	00c72223          	sw	a2,4(a4)
    52cc:	ec5ff06f          	j	5190 <xTaskIncrementTick.part.0+0xac>
    52d0:	0001c797          	auipc	a5,0x1c
    52d4:	15878793          	addi	a5,a5,344 # 21428 <pxDelayedTaskList>
    52d8:	0001c717          	auipc	a4,0x1c
    52dc:	14c70713          	addi	a4,a4,332 # 21424 <pxOverflowDelayedTaskList>
    52e0:	0007a603          	lw	a2,0(a5)
    52e4:	00072583          	lw	a1,0(a4)
    52e8:	0001c697          	auipc	a3,0x1c
    52ec:	11868693          	addi	a3,a3,280 # 21400 <xNumOfOverflows>
    52f0:	00b7a023          	sw	a1,0(a5)
    52f4:	00c72023          	sw	a2,0(a4)
    52f8:	0006a703          	lw	a4,0(a3)
    52fc:	00170713          	addi	a4,a4,1
    5300:	00e6a023          	sw	a4,0(a3)
    5304:	0007a703          	lw	a4,0(a5)
    5308:	00072703          	lw	a4,0(a4)
    530c:	02071463          	bnez	a4,5334 <xTaskIncrementTick.part.0+0x250>
    5310:	fff00793          	li	a5,-1
    5314:	00f42023          	sw	a5,0(s0)
    5318:	dfdff06f          	j	5114 <xTaskIncrementTick.part.0+0x30>
    531c:	00a12623          	sw	a0,12(sp)
    5320:	f69fb0ef          	jal	ra,1288 <vApplicationTickHook>
    5324:	00c12503          	lw	a0,12(sp)
    5328:	f71ff06f          	j	5298 <xTaskIncrementTick.part.0+0x1b4>
    532c:	00e42023          	sw	a4,0(s0)
    5330:	f35ff06f          	j	5264 <xTaskIncrementTick.part.0+0x180>
    5334:	0007a783          	lw	a5,0(a5)
    5338:	00c7a783          	lw	a5,12(a5)
    533c:	0007a783          	lw	a5,0(a5)
    5340:	00f42023          	sw	a5,0(s0)
    5344:	dd1ff06f          	j	5114 <xTaskIncrementTick.part.0+0x30>

00005348 <uxTaskPriorityGet>:
    5348:	30047073          	csrci	mstatus,8
    534c:	0001c797          	auipc	a5,0x1c
    5350:	0c078793          	addi	a5,a5,192 # 2140c <xSchedulerRunning>
    5354:	0007a703          	lw	a4,0(a5)
    5358:	02070063          	beqz	a4,5378 <uxTaskPriorityGet+0x30>
    535c:	0001c717          	auipc	a4,0x1c
    5360:	0d070713          	addi	a4,a4,208 # 2142c <pxCurrentTCB>
    5364:	00072683          	lw	a3,0(a4)
    5368:	00072703          	lw	a4,0(a4)
    536c:	03c6a703          	lw	a4,60(a3)
    5370:	00170713          	addi	a4,a4,1
    5374:	02e6ae23          	sw	a4,60(a3)
    5378:	04050463          	beqz	a0,53c0 <uxTaskPriorityGet+0x78>
    537c:	0007a783          	lw	a5,0(a5)
    5380:	02c52503          	lw	a0,44(a0)
    5384:	02078c63          	beqz	a5,53bc <uxTaskPriorityGet+0x74>
    5388:	0001c797          	auipc	a5,0x1c
    538c:	0a478793          	addi	a5,a5,164 # 2142c <pxCurrentTCB>
    5390:	0007a703          	lw	a4,0(a5)
    5394:	03c72703          	lw	a4,60(a4)
    5398:	02070263          	beqz	a4,53bc <uxTaskPriorityGet+0x74>
    539c:	0007a703          	lw	a4,0(a5)
    53a0:	0007a683          	lw	a3,0(a5)
    53a4:	03c72783          	lw	a5,60(a4)
    53a8:	fff78793          	addi	a5,a5,-1
    53ac:	02f72e23          	sw	a5,60(a4)
    53b0:	03c6a783          	lw	a5,60(a3)
    53b4:	00079463          	bnez	a5,53bc <uxTaskPriorityGet+0x74>
    53b8:	30046073          	csrsi	mstatus,8
    53bc:	00008067          	ret
    53c0:	0001c517          	auipc	a0,0x1c
    53c4:	06c52503          	lw	a0,108(a0) # 2142c <pxCurrentTCB>
    53c8:	fb5ff06f          	j	537c <uxTaskPriorityGet+0x34>

000053cc <uxTaskPriorityGetFromISR>:
    53cc:	00050663          	beqz	a0,53d8 <uxTaskPriorityGetFromISR+0xc>
    53d0:	02c52503          	lw	a0,44(a0)
    53d4:	00008067          	ret
    53d8:	0001c517          	auipc	a0,0x1c
    53dc:	05452503          	lw	a0,84(a0) # 2142c <pxCurrentTCB>
    53e0:	02c52503          	lw	a0,44(a0)
    53e4:	00008067          	ret

000053e8 <xTaskResumeFromISR>:
    53e8:	01452783          	lw	a5,20(a0)
    53ec:	fe010113          	addi	sp,sp,-32
    53f0:	00912a23          	sw	s1,20(sp)
    53f4:	01212823          	sw	s2,16(sp)
    53f8:	00112e23          	sw	ra,28(sp)
    53fc:	00812c23          	sw	s0,24(sp)
    5400:	01312623          	sw	s3,12(sp)
    5404:	0001c497          	auipc	s1,0x1c
    5408:	17448493          	addi	s1,s1,372 # 21578 <xSuspendedTaskList>
    540c:	00000913          	li	s2,0
    5410:	02978263          	beq	a5,s1,5434 <xTaskResumeFromISR+0x4c>
    5414:	01c12083          	lw	ra,28(sp)
    5418:	01812403          	lw	s0,24(sp)
    541c:	01412483          	lw	s1,20(sp)
    5420:	00c12983          	lw	s3,12(sp)
    5424:	00090513          	mv	a0,s2
    5428:	01012903          	lw	s2,16(sp)
    542c:	02010113          	addi	sp,sp,32
    5430:	00008067          	ret
    5434:	02852783          	lw	a5,40(a0)
    5438:	00050413          	mv	s0,a0
    543c:	0001c517          	auipc	a0,0x1c
    5440:	2a450513          	addi	a0,a0,676 # 216e0 <xPendingReadyList>
    5444:	00000913          	li	s2,0
    5448:	fca786e3          	beq	a5,a0,5414 <xTaskResumeFromISR+0x2c>
    544c:	fc0794e3          	bnez	a5,5414 <xTaskResumeFromISR+0x2c>
    5450:	0001c797          	auipc	a5,0x1c
    5454:	fa47a783          	lw	a5,-92(a5) # 213f4 <uxSchedulerSuspended>
    5458:	0a079e63          	bnez	a5,5514 <xTaskResumeFromISR+0x12c>
    545c:	0001c797          	auipc	a5,0x1c
    5460:	fd07a783          	lw	a5,-48(a5) # 2142c <pxCurrentTCB>
    5464:	02c42703          	lw	a4,44(s0)
    5468:	02c7a783          	lw	a5,44(a5)
    546c:	00f76a63          	bltu	a4,a5,5480 <xTaskResumeFromISR+0x98>
    5470:	00100793          	li	a5,1
    5474:	0001c717          	auipc	a4,0x1c
    5478:	f8f72823          	sw	a5,-112(a4) # 21404 <xYieldPending>
    547c:	00100913          	li	s2,1
    5480:	00440993          	addi	s3,s0,4
    5484:	00098513          	mv	a0,s3
    5488:	294030ef          	jal	ra,871c <uxListRemove>
    548c:	02c42603          	lw	a2,44(s0)
    5490:	00100713          	li	a4,1
    5494:	0001c597          	auipc	a1,0x1c
    5498:	f7c58593          	addi	a1,a1,-132 # 21410 <uxTopReadyPriority>
    549c:	00261793          	slli	a5,a2,0x2
    54a0:	00c787b3          	add	a5,a5,a2
    54a4:	00279793          	slli	a5,a5,0x2
    54a8:	00f484b3          	add	s1,s1,a5
    54ac:	0184a683          	lw	a3,24(s1)
    54b0:	00c71733          	sll	a4,a4,a2
    54b4:	0005a503          	lw	a0,0(a1)
    54b8:	0086a603          	lw	a2,8(a3)
    54bc:	01c12083          	lw	ra,28(sp)
    54c0:	00a76733          	or	a4,a4,a0
    54c4:	00c42623          	sw	a2,12(s0)
    54c8:	0086a603          	lw	a2,8(a3)
    54cc:	00e5a023          	sw	a4,0(a1)
    54d0:	00d42423          	sw	a3,8(s0)
    54d4:	0144a703          	lw	a4,20(s1)
    54d8:	01362223          	sw	s3,4(a2)
    54dc:	0136a423          	sw	s3,8(a3)
    54e0:	0001c697          	auipc	a3,0x1c
    54e4:	0ac68693          	addi	a3,a3,172 # 2158c <pxReadyTasksLists>
    54e8:	00f687b3          	add	a5,a3,a5
    54ec:	00f42a23          	sw	a5,20(s0)
    54f0:	01812403          	lw	s0,24(sp)
    54f4:	00170713          	addi	a4,a4,1
    54f8:	00e4aa23          	sw	a4,20(s1)
    54fc:	00c12983          	lw	s3,12(sp)
    5500:	01412483          	lw	s1,20(sp)
    5504:	00090513          	mv	a0,s2
    5508:	01012903          	lw	s2,16(sp)
    550c:	02010113          	addi	sp,sp,32
    5510:	00008067          	ret
    5514:	01840593          	addi	a1,s0,24
    5518:	184030ef          	jal	ra,869c <vListInsertEnd>
    551c:	ef9ff06f          	j	5414 <xTaskResumeFromISR+0x2c>

00005520 <vTaskEndScheduler>:
    5520:	30047073          	csrci	mstatus,8
    5524:	0001c797          	auipc	a5,0x1c
    5528:	ee07a423          	sw	zero,-280(a5) # 2140c <xSchedulerRunning>
    552c:	4090206f          	j	8134 <vPortEndScheduler>

00005530 <vTaskSuspendAll>:
    5530:	0001c717          	auipc	a4,0x1c
    5534:	ec470713          	addi	a4,a4,-316 # 213f4 <uxSchedulerSuspended>
    5538:	00072783          	lw	a5,0(a4)
    553c:	00178793          	addi	a5,a5,1
    5540:	00f72023          	sw	a5,0(a4)
    5544:	00008067          	ret

00005548 <xTaskGetTickCount>:
    5548:	0001c517          	auipc	a0,0x1c
    554c:	ecc52503          	lw	a0,-308(a0) # 21414 <xTickCount>
    5550:	00008067          	ret

00005554 <xTaskGetTickCountFromISR>:
    5554:	0001c517          	auipc	a0,0x1c
    5558:	ec052503          	lw	a0,-320(a0) # 21414 <xTickCount>
    555c:	00008067          	ret

00005560 <uxTaskGetNumberOfTasks>:
    5560:	0001c517          	auipc	a0,0x1c
    5564:	eb852503          	lw	a0,-328(a0) # 21418 <uxCurrentNumberOfTasks>
    5568:	00008067          	ret

0000556c <pcTaskGetName>:
    556c:	00050663          	beqz	a0,5578 <pcTaskGetName+0xc>
    5570:	03450513          	addi	a0,a0,52
    5574:	00008067          	ret
    5578:	0001c517          	auipc	a0,0x1c
    557c:	eb452503          	lw	a0,-332(a0) # 2142c <pxCurrentTCB>
    5580:	03450513          	addi	a0,a0,52
    5584:	00008067          	ret

00005588 <xTaskIncrementTick>:
    5588:	0001c797          	auipc	a5,0x1c
    558c:	e6c7a783          	lw	a5,-404(a5) # 213f4 <uxSchedulerSuspended>
    5590:	00079463          	bnez	a5,5598 <xTaskIncrementTick+0x10>
    5594:	b51ff06f          	j	50e4 <xTaskIncrementTick.part.0>
    5598:	0001c717          	auipc	a4,0x1c
    559c:	e7070713          	addi	a4,a4,-400 # 21408 <xPendedTicks>
    55a0:	00072783          	lw	a5,0(a4)
    55a4:	ff010113          	addi	sp,sp,-16
    55a8:	00112623          	sw	ra,12(sp)
    55ac:	00178793          	addi	a5,a5,1
    55b0:	00f72023          	sw	a5,0(a4)
    55b4:	cd5fb0ef          	jal	ra,1288 <vApplicationTickHook>
    55b8:	00c12083          	lw	ra,12(sp)
    55bc:	00000513          	li	a0,0
    55c0:	01010113          	addi	sp,sp,16
    55c4:	00008067          	ret

000055c8 <vTaskSetApplicationTaskTag>:
    55c8:	06050c63          	beqz	a0,5640 <vTaskSetApplicationTaskTag+0x78>
    55cc:	30047073          	csrci	mstatus,8
    55d0:	0001c797          	auipc	a5,0x1c
    55d4:	e3c78793          	addi	a5,a5,-452 # 2140c <xSchedulerRunning>
    55d8:	0007a703          	lw	a4,0(a5)
    55dc:	02070063          	beqz	a4,55fc <vTaskSetApplicationTaskTag+0x34>
    55e0:	0001c717          	auipc	a4,0x1c
    55e4:	e4c70713          	addi	a4,a4,-436 # 2142c <pxCurrentTCB>
    55e8:	00072683          	lw	a3,0(a4)
    55ec:	00072703          	lw	a4,0(a4)
    55f0:	03c6a703          	lw	a4,60(a3)
    55f4:	00170713          	addi	a4,a4,1
    55f8:	02e6ae23          	sw	a4,60(a3)
    55fc:	0007a783          	lw	a5,0(a5)
    5600:	04b52423          	sw	a1,72(a0)
    5604:	02078c63          	beqz	a5,563c <vTaskSetApplicationTaskTag+0x74>
    5608:	0001c797          	auipc	a5,0x1c
    560c:	e2478793          	addi	a5,a5,-476 # 2142c <pxCurrentTCB>
    5610:	0007a703          	lw	a4,0(a5)
    5614:	03c72703          	lw	a4,60(a4)
    5618:	02070263          	beqz	a4,563c <vTaskSetApplicationTaskTag+0x74>
    561c:	0007a703          	lw	a4,0(a5)
    5620:	0007a683          	lw	a3,0(a5)
    5624:	03c72783          	lw	a5,60(a4)
    5628:	fff78793          	addi	a5,a5,-1
    562c:	02f72e23          	sw	a5,60(a4)
    5630:	03c6a783          	lw	a5,60(a3)
    5634:	00079463          	bnez	a5,563c <vTaskSetApplicationTaskTag+0x74>
    5638:	30046073          	csrsi	mstatus,8
    563c:	00008067          	ret
    5640:	0001c517          	auipc	a0,0x1c
    5644:	dec52503          	lw	a0,-532(a0) # 2142c <pxCurrentTCB>
    5648:	f85ff06f          	j	55cc <vTaskSetApplicationTaskTag+0x4>

0000564c <xTaskGetApplicationTaskTag>:
    564c:	06050c63          	beqz	a0,56c4 <xTaskGetApplicationTaskTag+0x78>
    5650:	30047073          	csrci	mstatus,8
    5654:	0001c797          	auipc	a5,0x1c
    5658:	db878793          	addi	a5,a5,-584 # 2140c <xSchedulerRunning>
    565c:	0007a703          	lw	a4,0(a5)
    5660:	02070063          	beqz	a4,5680 <xTaskGetApplicationTaskTag+0x34>
    5664:	0001c717          	auipc	a4,0x1c
    5668:	dc870713          	addi	a4,a4,-568 # 2142c <pxCurrentTCB>
    566c:	00072683          	lw	a3,0(a4)
    5670:	00072703          	lw	a4,0(a4)
    5674:	03c6a703          	lw	a4,60(a3)
    5678:	00170713          	addi	a4,a4,1
    567c:	02e6ae23          	sw	a4,60(a3)
    5680:	0007a783          	lw	a5,0(a5)
    5684:	04852503          	lw	a0,72(a0)
    5688:	02078c63          	beqz	a5,56c0 <xTaskGetApplicationTaskTag+0x74>
    568c:	0001c797          	auipc	a5,0x1c
    5690:	da078793          	addi	a5,a5,-608 # 2142c <pxCurrentTCB>
    5694:	0007a703          	lw	a4,0(a5)
    5698:	03c72703          	lw	a4,60(a4)
    569c:	02070263          	beqz	a4,56c0 <xTaskGetApplicationTaskTag+0x74>
    56a0:	0007a703          	lw	a4,0(a5)
    56a4:	0007a683          	lw	a3,0(a5)
    56a8:	03c72783          	lw	a5,60(a4)
    56ac:	fff78793          	addi	a5,a5,-1
    56b0:	02f72e23          	sw	a5,60(a4)
    56b4:	03c6a783          	lw	a5,60(a3)
    56b8:	00079463          	bnez	a5,56c0 <xTaskGetApplicationTaskTag+0x74>
    56bc:	30046073          	csrsi	mstatus,8
    56c0:	00008067          	ret
    56c4:	0001c517          	auipc	a0,0x1c
    56c8:	d6852503          	lw	a0,-664(a0) # 2142c <pxCurrentTCB>
    56cc:	f85ff06f          	j	5650 <xTaskGetApplicationTaskTag+0x4>

000056d0 <xTaskGetApplicationTaskTagFromISR>:
    56d0:	00050663          	beqz	a0,56dc <xTaskGetApplicationTaskTagFromISR+0xc>
    56d4:	04852503          	lw	a0,72(a0)
    56d8:	00008067          	ret
    56dc:	0001c517          	auipc	a0,0x1c
    56e0:	d5052503          	lw	a0,-688(a0) # 2142c <pxCurrentTCB>
    56e4:	04852503          	lw	a0,72(a0)
    56e8:	00008067          	ret

000056ec <xTaskCallApplicationTaskHook>:
    56ec:	00050793          	mv	a5,a0
    56f0:	00058513          	mv	a0,a1
    56f4:	00078863          	beqz	a5,5704 <xTaskCallApplicationTaskHook+0x18>
    56f8:	0487a783          	lw	a5,72(a5)
    56fc:	00078c63          	beqz	a5,5714 <xTaskCallApplicationTaskHook+0x28>
    5700:	00078067          	jr	a5
    5704:	0001c797          	auipc	a5,0x1c
    5708:	d287a783          	lw	a5,-728(a5) # 2142c <pxCurrentTCB>
    570c:	0487a783          	lw	a5,72(a5)
    5710:	fe0798e3          	bnez	a5,5700 <xTaskCallApplicationTaskHook+0x14>
    5714:	00000513          	li	a0,0
    5718:	00008067          	ret

0000571c <vTaskSwitchContext>:
    571c:	0001c797          	auipc	a5,0x1c
    5720:	cd87a783          	lw	a5,-808(a5) # 213f4 <uxSchedulerSuspended>
    5724:	00078a63          	beqz	a5,5738 <vTaskSwitchContext+0x1c>
    5728:	00100793          	li	a5,1
    572c:	0001c717          	auipc	a4,0x1c
    5730:	ccf72c23          	sw	a5,-808(a4) # 21404 <xYieldPending>
    5734:	00008067          	ret
    5738:	e8cff06f          	j	4dc4 <vTaskSwitchContext.part.0>

0000573c <vTaskPlaceOnEventList>:
    573c:	ff010113          	addi	sp,sp,-16
    5740:	0001c797          	auipc	a5,0x1c
    5744:	cec7a783          	lw	a5,-788(a5) # 2142c <pxCurrentTCB>
    5748:	00812423          	sw	s0,8(sp)
    574c:	00058413          	mv	s0,a1
    5750:	01878593          	addi	a1,a5,24
    5754:	00112623          	sw	ra,12(sp)
    5758:	775020ef          	jal	ra,86cc <vListInsert>
    575c:	00040513          	mv	a0,s0
    5760:	00812403          	lw	s0,8(sp)
    5764:	00c12083          	lw	ra,12(sp)
    5768:	00100593          	li	a1,1
    576c:	01010113          	addi	sp,sp,16
    5770:	cf4ff06f          	j	4c64 <prvAddCurrentTaskToDelayedList>

00005774 <vTaskPlaceOnUnorderedEventList>:
    5774:	00452683          	lw	a3,4(a0)
    5778:	0001c717          	auipc	a4,0x1c
    577c:	cb470713          	addi	a4,a4,-844 # 2142c <pxCurrentTCB>
    5780:	00072303          	lw	t1,0(a4)
    5784:	00050793          	mv	a5,a0
    5788:	80000e37          	lui	t3,0x80000
    578c:	00072503          	lw	a0,0(a4)
    5790:	0086a883          	lw	a7,8(a3)
    5794:	00072803          	lw	a6,0(a4)
    5798:	01c5e5b3          	or	a1,a1,t3
    579c:	00b32c23          	sw	a1,24(t1)
    57a0:	00d52e23          	sw	a3,28(a0)
    57a4:	03182023          	sw	a7,32(a6)
    57a8:	00072503          	lw	a0,0(a4)
    57ac:	0086a883          	lw	a7,8(a3)
    57b0:	00072583          	lw	a1,0(a4)
    57b4:	01850513          	addi	a0,a0,24
    57b8:	00072803          	lw	a6,0(a4)
    57bc:	0007a703          	lw	a4,0(a5)
    57c0:	01858593          	addi	a1,a1,24
    57c4:	00a8a223          	sw	a0,4(a7)
    57c8:	00b6a423          	sw	a1,8(a3)
    57cc:	02f82423          	sw	a5,40(a6)
    57d0:	00170713          	addi	a4,a4,1
    57d4:	00e7a023          	sw	a4,0(a5)
    57d8:	00100593          	li	a1,1
    57dc:	00060513          	mv	a0,a2
    57e0:	c84ff06f          	j	4c64 <prvAddCurrentTaskToDelayedList>

000057e4 <xTaskRemoveFromEventList>:
    57e4:	00c52783          	lw	a5,12(a0)
    57e8:	00c7a783          	lw	a5,12(a5)
    57ec:	0287a703          	lw	a4,40(a5)
    57f0:	01c7a603          	lw	a2,28(a5)
    57f4:	0207a683          	lw	a3,32(a5)
    57f8:	00472503          	lw	a0,4(a4)
    57fc:	01878593          	addi	a1,a5,24
    5800:	00d62423          	sw	a3,8(a2)
    5804:	00c6a223          	sw	a2,4(a3)
    5808:	12b50463          	beq	a0,a1,5930 <xTaskRemoveFromEventList+0x14c>
    580c:	00072683          	lw	a3,0(a4)
    5810:	0207a423          	sw	zero,40(a5)
    5814:	02c7a603          	lw	a2,44(a5)
    5818:	fff68693          	addi	a3,a3,-1
    581c:	00d72023          	sw	a3,0(a4)
    5820:	0001c717          	auipc	a4,0x1c
    5824:	bd472703          	lw	a4,-1068(a4) # 213f4 <uxSchedulerSuspended>
    5828:	0c071463          	bnez	a4,58f0 <xTaskRemoveFromEventList+0x10c>
    582c:	00c7a683          	lw	a3,12(a5)
    5830:	0087a703          	lw	a4,8(a5)
    5834:	0147a583          	lw	a1,20(a5)
    5838:	00478813          	addi	a6,a5,4
    583c:	00d72423          	sw	a3,8(a4)
    5840:	00c7a683          	lw	a3,12(a5)
    5844:	0045a503          	lw	a0,4(a1)
    5848:	00e6a223          	sw	a4,4(a3)
    584c:	0f050663          	beq	a0,a6,5938 <xTaskRemoveFromEventList+0x154>
    5850:	00261713          	slli	a4,a2,0x2
    5854:	00c70733          	add	a4,a4,a2
    5858:	00271713          	slli	a4,a4,0x2
    585c:	0001c697          	auipc	a3,0x1c
    5860:	d1c68693          	addi	a3,a3,-740 # 21578 <xSuspendedTaskList>
    5864:	0005a883          	lw	a7,0(a1)
    5868:	00e686b3          	add	a3,a3,a4
    586c:	0186a503          	lw	a0,24(a3)
    5870:	fff88893          	addi	a7,a7,-1
    5874:	0115a023          	sw	a7,0(a1)
    5878:	00852583          	lw	a1,8(a0)
    587c:	0001c897          	auipc	a7,0x1c
    5880:	b9488893          	addi	a7,a7,-1132 # 21410 <uxTopReadyPriority>
    5884:	0008ae03          	lw	t3,0(a7)
    5888:	00b7a623          	sw	a1,12(a5)
    588c:	00100593          	li	a1,1
    5890:	00852303          	lw	t1,8(a0)
    5894:	00c595b3          	sll	a1,a1,a2
    5898:	01c5e5b3          	or	a1,a1,t3
    589c:	00a7a423          	sw	a0,8(a5)
    58a0:	00b8a023          	sw	a1,0(a7)
    58a4:	0146a583          	lw	a1,20(a3)
    58a8:	01032223          	sw	a6,4(t1)
    58ac:	01052423          	sw	a6,8(a0)
    58b0:	0001c517          	auipc	a0,0x1c
    58b4:	cdc50513          	addi	a0,a0,-804 # 2158c <pxReadyTasksLists>
    58b8:	00e50733          	add	a4,a0,a4
    58bc:	00e7aa23          	sw	a4,20(a5)
    58c0:	00158793          	addi	a5,a1,1
    58c4:	00f6aa23          	sw	a5,20(a3)
    58c8:	0001c797          	auipc	a5,0x1c
    58cc:	b647a783          	lw	a5,-1180(a5) # 2142c <pxCurrentTCB>
    58d0:	02c7a783          	lw	a5,44(a5)
    58d4:	00000513          	li	a0,0
    58d8:	00c7fa63          	bgeu	a5,a2,58ec <xTaskRemoveFromEventList+0x108>
    58dc:	00100793          	li	a5,1
    58e0:	0001c717          	auipc	a4,0x1c
    58e4:	b2f72223          	sw	a5,-1244(a4) # 21404 <xYieldPending>
    58e8:	00100513          	li	a0,1
    58ec:	00008067          	ret
    58f0:	0001c697          	auipc	a3,0x1c
    58f4:	c8868693          	addi	a3,a3,-888 # 21578 <xSuspendedTaskList>
    58f8:	16c6a703          	lw	a4,364(a3)
    58fc:	1686a503          	lw	a0,360(a3)
    5900:	00872803          	lw	a6,8(a4)
    5904:	00e7ae23          	sw	a4,28(a5)
    5908:	00150513          	addi	a0,a0,1
    590c:	0307a023          	sw	a6,32(a5)
    5910:	00872803          	lw	a6,8(a4)
    5914:	16a6a423          	sw	a0,360(a3)
    5918:	00b82223          	sw	a1,4(a6)
    591c:	00b72423          	sw	a1,8(a4)
    5920:	0001c717          	auipc	a4,0x1c
    5924:	dc070713          	addi	a4,a4,-576 # 216e0 <xPendingReadyList>
    5928:	02e7a423          	sw	a4,40(a5)
    592c:	f9dff06f          	j	58c8 <xTaskRemoveFromEventList+0xe4>
    5930:	00d72223          	sw	a3,4(a4)
    5934:	ed9ff06f          	j	580c <xTaskRemoveFromEventList+0x28>
    5938:	00d5a223          	sw	a3,4(a1)
    593c:	f15ff06f          	j	5850 <xTaskRemoveFromEventList+0x6c>

00005940 <vTaskRemoveFromUnorderedEventList>:
    5940:	00852603          	lw	a2,8(a0)
    5944:	00452683          	lw	a3,4(a0)
    5948:	800007b7          	lui	a5,0x80000
    594c:	00f5e5b3          	or	a1,a1,a5
    5950:	01052703          	lw	a4,16(a0)
    5954:	00b52023          	sw	a1,0(a0)
    5958:	00c52783          	lw	a5,12(a0)
    595c:	00c6a423          	sw	a2,8(a3)
    5960:	00852603          	lw	a2,8(a0)
    5964:	00472583          	lw	a1,4(a4)
    5968:	00d62223          	sw	a3,4(a2)
    596c:	0ca58863          	beq	a1,a0,5a3c <vTaskRemoveFromUnorderedEventList+0xfc>
    5970:	00072683          	lw	a3,0(a4)
    5974:	0087a603          	lw	a2,8(a5) # 80000008 <_stack+0x7ffc0008>
    5978:	00c7a583          	lw	a1,12(a5)
    597c:	fff68693          	addi	a3,a3,-1
    5980:	00052823          	sw	zero,16(a0)
    5984:	0147a503          	lw	a0,20(a5)
    5988:	00d72023          	sw	a3,0(a4)
    598c:	00b62423          	sw	a1,8(a2)
    5990:	00c7a703          	lw	a4,12(a5)
    5994:	00452683          	lw	a3,4(a0)
    5998:	00478813          	addi	a6,a5,4
    599c:	00c72223          	sw	a2,4(a4)
    59a0:	0b068263          	beq	a3,a6,5a44 <vTaskRemoveFromUnorderedEventList+0x104>
    59a4:	02c7a603          	lw	a2,44(a5)
    59a8:	0001c697          	auipc	a3,0x1c
    59ac:	bd068693          	addi	a3,a3,-1072 # 21578 <xSuspendedTaskList>
    59b0:	00052883          	lw	a7,0(a0)
    59b4:	00261713          	slli	a4,a2,0x2
    59b8:	00c70733          	add	a4,a4,a2
    59bc:	00271713          	slli	a4,a4,0x2
    59c0:	00e686b3          	add	a3,a3,a4
    59c4:	0186a583          	lw	a1,24(a3)
    59c8:	fff88893          	addi	a7,a7,-1
    59cc:	01152023          	sw	a7,0(a0)
    59d0:	0085a503          	lw	a0,8(a1)
    59d4:	0001c897          	auipc	a7,0x1c
    59d8:	a3c88893          	addi	a7,a7,-1476 # 21410 <uxTopReadyPriority>
    59dc:	0008ae83          	lw	t4,0(a7)
    59e0:	00100313          	li	t1,1
    59e4:	00a7a623          	sw	a0,12(a5)
    59e8:	00c31533          	sll	a0,t1,a2
    59ec:	0085ae03          	lw	t3,8(a1)
    59f0:	01d56533          	or	a0,a0,t4
    59f4:	00a8a023          	sw	a0,0(a7)
    59f8:	0146a503          	lw	a0,20(a3)
    59fc:	00b7a423          	sw	a1,8(a5)
    5a00:	010e2223          	sw	a6,4(t3) # 80000004 <_stack+0x7ffc0004>
    5a04:	0105a423          	sw	a6,8(a1)
    5a08:	0001c597          	auipc	a1,0x1c
    5a0c:	b8458593          	addi	a1,a1,-1148 # 2158c <pxReadyTasksLists>
    5a10:	00e58733          	add	a4,a1,a4
    5a14:	00e7aa23          	sw	a4,20(a5)
    5a18:	00150793          	addi	a5,a0,1
    5a1c:	00f6aa23          	sw	a5,20(a3)
    5a20:	0001c797          	auipc	a5,0x1c
    5a24:	a0c7a783          	lw	a5,-1524(a5) # 2142c <pxCurrentTCB>
    5a28:	02c7a783          	lw	a5,44(a5)
    5a2c:	00c7f663          	bgeu	a5,a2,5a38 <vTaskRemoveFromUnorderedEventList+0xf8>
    5a30:	0001c797          	auipc	a5,0x1c
    5a34:	9c67aa23          	sw	t1,-1580(a5) # 21404 <xYieldPending>
    5a38:	00008067          	ret
    5a3c:	00c72223          	sw	a2,4(a4)
    5a40:	f31ff06f          	j	5970 <vTaskRemoveFromUnorderedEventList+0x30>
    5a44:	00e52223          	sw	a4,4(a0)
    5a48:	f5dff06f          	j	59a4 <vTaskRemoveFromUnorderedEventList+0x64>

00005a4c <vTaskSetTimeOutState>:
    5a4c:	30047073          	csrci	mstatus,8
    5a50:	0001c797          	auipc	a5,0x1c
    5a54:	9bc78793          	addi	a5,a5,-1604 # 2140c <xSchedulerRunning>
    5a58:	0007a703          	lw	a4,0(a5)
    5a5c:	02070063          	beqz	a4,5a7c <vTaskSetTimeOutState+0x30>
    5a60:	0001c717          	auipc	a4,0x1c
    5a64:	9cc70713          	addi	a4,a4,-1588 # 2142c <pxCurrentTCB>
    5a68:	00072683          	lw	a3,0(a4)
    5a6c:	00072703          	lw	a4,0(a4)
    5a70:	03c6a703          	lw	a4,60(a3)
    5a74:	00170713          	addi	a4,a4,1
    5a78:	02e6ae23          	sw	a4,60(a3)
    5a7c:	0001c697          	auipc	a3,0x1c
    5a80:	9846a683          	lw	a3,-1660(a3) # 21400 <xNumOfOverflows>
    5a84:	0001c717          	auipc	a4,0x1c
    5a88:	99072703          	lw	a4,-1648(a4) # 21414 <xTickCount>
    5a8c:	0007a783          	lw	a5,0(a5)
    5a90:	00d52023          	sw	a3,0(a0)
    5a94:	00e52223          	sw	a4,4(a0)
    5a98:	02078c63          	beqz	a5,5ad0 <vTaskSetTimeOutState+0x84>
    5a9c:	0001c797          	auipc	a5,0x1c
    5aa0:	99078793          	addi	a5,a5,-1648 # 2142c <pxCurrentTCB>
    5aa4:	0007a703          	lw	a4,0(a5)
    5aa8:	03c72703          	lw	a4,60(a4)
    5aac:	02070263          	beqz	a4,5ad0 <vTaskSetTimeOutState+0x84>
    5ab0:	0007a703          	lw	a4,0(a5)
    5ab4:	0007a683          	lw	a3,0(a5)
    5ab8:	03c72783          	lw	a5,60(a4)
    5abc:	fff78793          	addi	a5,a5,-1
    5ac0:	02f72e23          	sw	a5,60(a4)
    5ac4:	03c6a783          	lw	a5,60(a3)
    5ac8:	00079463          	bnez	a5,5ad0 <vTaskSetTimeOutState+0x84>
    5acc:	30046073          	csrsi	mstatus,8
    5ad0:	00008067          	ret

00005ad4 <vTaskInternalSetTimeOutState>:
    5ad4:	0001c717          	auipc	a4,0x1c
    5ad8:	92c72703          	lw	a4,-1748(a4) # 21400 <xNumOfOverflows>
    5adc:	0001c797          	auipc	a5,0x1c
    5ae0:	9387a783          	lw	a5,-1736(a5) # 21414 <xTickCount>
    5ae4:	00e52023          	sw	a4,0(a0)
    5ae8:	00f52223          	sw	a5,4(a0)
    5aec:	00008067          	ret

00005af0 <vTaskMissedYield>:
    5af0:	00100793          	li	a5,1
    5af4:	0001c717          	auipc	a4,0x1c
    5af8:	90f72823          	sw	a5,-1776(a4) # 21404 <xYieldPending>
    5afc:	00008067          	ret

00005b00 <uxTaskGetStackHighWaterMark>:
    5b00:	02050e63          	beqz	a0,5b3c <uxTaskGetStackHighWaterMark+0x3c>
    5b04:	03052703          	lw	a4,48(a0)
    5b08:	0a500793          	li	a5,165
    5b0c:	00000513          	li	a0,0
    5b10:	00074683          	lbu	a3,0(a4)
    5b14:	04f69263          	bne	a3,a5,5b58 <uxTaskGetStackHighWaterMark+0x58>
    5b18:	0a500693          	li	a3,165
    5b1c:	00150513          	addi	a0,a0,1
    5b20:	00a707b3          	add	a5,a4,a0
    5b24:	0007c783          	lbu	a5,0(a5)
    5b28:	fed78ae3          	beq	a5,a3,5b1c <uxTaskGetStackHighWaterMark+0x1c>
    5b2c:	00255513          	srli	a0,a0,0x2
    5b30:	01051513          	slli	a0,a0,0x10
    5b34:	01055513          	srli	a0,a0,0x10
    5b38:	00008067          	ret
    5b3c:	0001c517          	auipc	a0,0x1c
    5b40:	8f052503          	lw	a0,-1808(a0) # 2142c <pxCurrentTCB>
    5b44:	03052703          	lw	a4,48(a0)
    5b48:	0a500793          	li	a5,165
    5b4c:	00000513          	li	a0,0
    5b50:	00074683          	lbu	a3,0(a4)
    5b54:	fcf682e3          	beq	a3,a5,5b18 <uxTaskGetStackHighWaterMark+0x18>
    5b58:	00008067          	ret

00005b5c <xTaskGetCurrentTaskHandle>:
    5b5c:	0001c517          	auipc	a0,0x1c
    5b60:	8d052503          	lw	a0,-1840(a0) # 2142c <pxCurrentTCB>
    5b64:	00008067          	ret

00005b68 <xTaskPriorityInherit>:
    5b68:	0c050663          	beqz	a0,5c34 <xTaskPriorityInherit+0xcc>
    5b6c:	fe010113          	addi	sp,sp,-32
    5b70:	00912a23          	sw	s1,20(sp)
    5b74:	0001c497          	auipc	s1,0x1c
    5b78:	8b848493          	addi	s1,s1,-1864 # 2142c <pxCurrentTCB>
    5b7c:	0004a783          	lw	a5,0(s1)
    5b80:	02c52703          	lw	a4,44(a0)
    5b84:	00812c23          	sw	s0,24(sp)
    5b88:	02c7a783          	lw	a5,44(a5)
    5b8c:	00112e23          	sw	ra,28(sp)
    5b90:	01212823          	sw	s2,16(sp)
    5b94:	01312623          	sw	s3,12(sp)
    5b98:	00050413          	mv	s0,a0
    5b9c:	06f77663          	bgeu	a4,a5,5c08 <xTaskPriorityInherit+0xa0>
    5ba0:	01852783          	lw	a5,24(a0)
    5ba4:	0007cc63          	bltz	a5,5bbc <xTaskPriorityInherit+0x54>
    5ba8:	0004a783          	lw	a5,0(s1)
    5bac:	02c7a683          	lw	a3,44(a5)
    5bb0:	01000793          	li	a5,16
    5bb4:	40d787b3          	sub	a5,a5,a3
    5bb8:	00f52c23          	sw	a5,24(a0)
    5bbc:	00271793          	slli	a5,a4,0x2
    5bc0:	00e787b3          	add	a5,a5,a4
    5bc4:	01442703          	lw	a4,20(s0)
    5bc8:	0001c917          	auipc	s2,0x1c
    5bcc:	9c490913          	addi	s2,s2,-1596 # 2158c <pxReadyTasksLists>
    5bd0:	00279793          	slli	a5,a5,0x2
    5bd4:	00f907b3          	add	a5,s2,a5
    5bd8:	06f70263          	beq	a4,a5,5c3c <xTaskPriorityInherit+0xd4>
    5bdc:	0004a783          	lw	a5,0(s1)
    5be0:	01c12083          	lw	ra,28(sp)
    5be4:	01412483          	lw	s1,20(sp)
    5be8:	02c7a783          	lw	a5,44(a5)
    5bec:	01012903          	lw	s2,16(sp)
    5bf0:	00c12983          	lw	s3,12(sp)
    5bf4:	02f42623          	sw	a5,44(s0)
    5bf8:	01812403          	lw	s0,24(sp)
    5bfc:	00100513          	li	a0,1
    5c00:	02010113          	addi	sp,sp,32
    5c04:	00008067          	ret
    5c08:	0004a783          	lw	a5,0(s1)
    5c0c:	04052503          	lw	a0,64(a0)
    5c10:	02c7a783          	lw	a5,44(a5)
    5c14:	00f53533          	sltu	a0,a0,a5
    5c18:	01c12083          	lw	ra,28(sp)
    5c1c:	01812403          	lw	s0,24(sp)
    5c20:	01412483          	lw	s1,20(sp)
    5c24:	01012903          	lw	s2,16(sp)
    5c28:	00c12983          	lw	s3,12(sp)
    5c2c:	02010113          	addi	sp,sp,32
    5c30:	00008067          	ret
    5c34:	00000513          	li	a0,0
    5c38:	00008067          	ret
    5c3c:	00440993          	addi	s3,s0,4
    5c40:	00098513          	mv	a0,s3
    5c44:	2d9020ef          	jal	ra,871c <uxListRemove>
    5c48:	0001b817          	auipc	a6,0x1b
    5c4c:	7c880813          	addi	a6,a6,1992 # 21410 <uxTopReadyPriority>
    5c50:	02051063          	bnez	a0,5c70 <xTaskPriorityInherit+0x108>
    5c54:	02c42683          	lw	a3,44(s0)
    5c58:	00082703          	lw	a4,0(a6)
    5c5c:	00100793          	li	a5,1
    5c60:	00d797b3          	sll	a5,a5,a3
    5c64:	fff7c793          	not	a5,a5
    5c68:	00e7f7b3          	and	a5,a5,a4
    5c6c:	00f82023          	sw	a5,0(a6)
    5c70:	0004a783          	lw	a5,0(s1)
    5c74:	0001c717          	auipc	a4,0x1c
    5c78:	90470713          	addi	a4,a4,-1788 # 21578 <xSuspendedTaskList>
    5c7c:	00082883          	lw	a7,0(a6)
    5c80:	02c7a583          	lw	a1,44(a5)
    5c84:	00100693          	li	a3,1
    5c88:	00100513          	li	a0,1
    5c8c:	00259793          	slli	a5,a1,0x2
    5c90:	00b787b3          	add	a5,a5,a1
    5c94:	00279793          	slli	a5,a5,0x2
    5c98:	00f70733          	add	a4,a4,a5
    5c9c:	01872603          	lw	a2,24(a4)
    5ca0:	00b696b3          	sll	a3,a3,a1
    5ca4:	0116e6b3          	or	a3,a3,a7
    5ca8:	00862883          	lw	a7,8(a2)
    5cac:	02b42623          	sw	a1,44(s0)
    5cb0:	00d82023          	sw	a3,0(a6)
    5cb4:	01142623          	sw	a7,12(s0)
    5cb8:	00862583          	lw	a1,8(a2)
    5cbc:	01472683          	lw	a3,20(a4)
    5cc0:	00c42423          	sw	a2,8(s0)
    5cc4:	0135a223          	sw	s3,4(a1)
    5cc8:	01362423          	sw	s3,8(a2)
    5ccc:	00f90933          	add	s2,s2,a5
    5cd0:	01242a23          	sw	s2,20(s0)
    5cd4:	00168793          	addi	a5,a3,1
    5cd8:	00f72a23          	sw	a5,20(a4)
    5cdc:	f3dff06f          	j	5c18 <xTaskPriorityInherit+0xb0>

00005ce0 <xTaskPriorityDisinherit>:
    5ce0:	04050663          	beqz	a0,5d2c <xTaskPriorityDisinherit+0x4c>
    5ce4:	04452783          	lw	a5,68(a0)
    5ce8:	ff010113          	addi	sp,sp,-16
    5cec:	02c52683          	lw	a3,44(a0)
    5cf0:	04052703          	lw	a4,64(a0)
    5cf4:	00812423          	sw	s0,8(sp)
    5cf8:	00112623          	sw	ra,12(sp)
    5cfc:	00912223          	sw	s1,4(sp)
    5d00:	fff78793          	addi	a5,a5,-1
    5d04:	04f52223          	sw	a5,68(a0)
    5d08:	00050413          	mv	s0,a0
    5d0c:	00e68463          	beq	a3,a4,5d14 <xTaskPriorityDisinherit+0x34>
    5d10:	02078263          	beqz	a5,5d34 <xTaskPriorityDisinherit+0x54>
    5d14:	00c12083          	lw	ra,12(sp)
    5d18:	00812403          	lw	s0,8(sp)
    5d1c:	00412483          	lw	s1,4(sp)
    5d20:	00000513          	li	a0,0
    5d24:	01010113          	addi	sp,sp,16
    5d28:	00008067          	ret
    5d2c:	00000513          	li	a0,0
    5d30:	00008067          	ret
    5d34:	00450493          	addi	s1,a0,4
    5d38:	00048513          	mv	a0,s1
    5d3c:	1e1020ef          	jal	ra,871c <uxListRemove>
    5d40:	0001b817          	auipc	a6,0x1b
    5d44:	6d080813          	addi	a6,a6,1744 # 21410 <uxTopReadyPriority>
    5d48:	02051063          	bnez	a0,5d68 <xTaskPriorityDisinherit+0x88>
    5d4c:	02c42683          	lw	a3,44(s0)
    5d50:	00082703          	lw	a4,0(a6)
    5d54:	00100793          	li	a5,1
    5d58:	00d797b3          	sll	a5,a5,a3
    5d5c:	fff7c793          	not	a5,a5
    5d60:	00e7f7b3          	and	a5,a5,a4
    5d64:	00f82023          	sw	a5,0(a6)
    5d68:	04042683          	lw	a3,64(s0)
    5d6c:	0001c717          	auipc	a4,0x1c
    5d70:	80c70713          	addi	a4,a4,-2036 # 21578 <xSuspendedTaskList>
    5d74:	00082883          	lw	a7,0(a6)
    5d78:	00269793          	slli	a5,a3,0x2
    5d7c:	00d787b3          	add	a5,a5,a3
    5d80:	00279793          	slli	a5,a5,0x2
    5d84:	00f70733          	add	a4,a4,a5
    5d88:	01872583          	lw	a1,24(a4)
    5d8c:	00100613          	li	a2,1
    5d90:	00d61633          	sll	a2,a2,a3
    5d94:	0085a503          	lw	a0,8(a1)
    5d98:	01166633          	or	a2,a2,a7
    5d9c:	00c82023          	sw	a2,0(a6)
    5da0:	00a42623          	sw	a0,12(s0)
    5da4:	0085a503          	lw	a0,8(a1)
    5da8:	01000613          	li	a2,16
    5dac:	40d60633          	sub	a2,a2,a3
    5db0:	02d42623          	sw	a3,44(s0)
    5db4:	00c42c23          	sw	a2,24(s0)
    5db8:	00b42423          	sw	a1,8(s0)
    5dbc:	01472683          	lw	a3,20(a4)
    5dc0:	0001b617          	auipc	a2,0x1b
    5dc4:	7cc60613          	addi	a2,a2,1996 # 2158c <pxReadyTasksLists>
    5dc8:	00952223          	sw	s1,4(a0)
    5dcc:	0095a423          	sw	s1,8(a1)
    5dd0:	00f607b3          	add	a5,a2,a5
    5dd4:	00f42a23          	sw	a5,20(s0)
    5dd8:	00c12083          	lw	ra,12(sp)
    5ddc:	00812403          	lw	s0,8(sp)
    5de0:	00168793          	addi	a5,a3,1
    5de4:	00f72a23          	sw	a5,20(a4)
    5de8:	00412483          	lw	s1,4(sp)
    5dec:	00100513          	li	a0,1
    5df0:	01010113          	addi	sp,sp,16
    5df4:	00008067          	ret

00005df8 <vTaskPriorityDisinheritAfterTimeout>:
    5df8:	06050063          	beqz	a0,5e58 <vTaskPriorityDisinheritAfterTimeout+0x60>
    5dfc:	04052783          	lw	a5,64(a0)
    5e00:	ff010113          	addi	sp,sp,-16
    5e04:	00812423          	sw	s0,8(sp)
    5e08:	00112623          	sw	ra,12(sp)
    5e0c:	00912223          	sw	s1,4(sp)
    5e10:	01212023          	sw	s2,0(sp)
    5e14:	00050413          	mv	s0,a0
    5e18:	02b7e863          	bltu	a5,a1,5e48 <vTaskPriorityDisinheritAfterTimeout+0x50>
    5e1c:	02c42703          	lw	a4,44(s0)
    5e20:	00f70863          	beq	a4,a5,5e30 <vTaskPriorityDisinheritAfterTimeout+0x38>
    5e24:	04442603          	lw	a2,68(s0)
    5e28:	00100693          	li	a3,1
    5e2c:	02d60863          	beq	a2,a3,5e5c <vTaskPriorityDisinheritAfterTimeout+0x64>
    5e30:	00c12083          	lw	ra,12(sp)
    5e34:	00812403          	lw	s0,8(sp)
    5e38:	00412483          	lw	s1,4(sp)
    5e3c:	00012903          	lw	s2,0(sp)
    5e40:	01010113          	addi	sp,sp,16
    5e44:	00008067          	ret
    5e48:	02c42703          	lw	a4,44(s0)
    5e4c:	00058793          	mv	a5,a1
    5e50:	fcf71ae3          	bne	a4,a5,5e24 <vTaskPriorityDisinheritAfterTimeout+0x2c>
    5e54:	fddff06f          	j	5e30 <vTaskPriorityDisinheritAfterTimeout+0x38>
    5e58:	00008067          	ret
    5e5c:	01842683          	lw	a3,24(s0)
    5e60:	02f42623          	sw	a5,44(s0)
    5e64:	0006c863          	bltz	a3,5e74 <vTaskPriorityDisinheritAfterTimeout+0x7c>
    5e68:	01000693          	li	a3,16
    5e6c:	40f687b3          	sub	a5,a3,a5
    5e70:	00f42c23          	sw	a5,24(s0)
    5e74:	00271793          	slli	a5,a4,0x2
    5e78:	00e78733          	add	a4,a5,a4
    5e7c:	01442783          	lw	a5,20(s0)
    5e80:	0001b497          	auipc	s1,0x1b
    5e84:	70c48493          	addi	s1,s1,1804 # 2158c <pxReadyTasksLists>
    5e88:	00271713          	slli	a4,a4,0x2
    5e8c:	00e48733          	add	a4,s1,a4
    5e90:	fae790e3          	bne	a5,a4,5e30 <vTaskPriorityDisinheritAfterTimeout+0x38>
    5e94:	00440913          	addi	s2,s0,4
    5e98:	00090513          	mv	a0,s2
    5e9c:	081020ef          	jal	ra,871c <uxListRemove>
    5ea0:	02c42703          	lw	a4,44(s0)
    5ea4:	06050663          	beqz	a0,5f10 <vTaskPriorityDisinheritAfterTimeout+0x118>
    5ea8:	00100613          	li	a2,1
    5eac:	0001b517          	auipc	a0,0x1b
    5eb0:	56450513          	addi	a0,a0,1380 # 21410 <uxTopReadyPriority>
    5eb4:	00e61633          	sll	a2,a2,a4
    5eb8:	00271793          	slli	a5,a4,0x2
    5ebc:	00e787b3          	add	a5,a5,a4
    5ec0:	00279793          	slli	a5,a5,0x2
    5ec4:	0001b717          	auipc	a4,0x1b
    5ec8:	6b470713          	addi	a4,a4,1716 # 21578 <xSuspendedTaskList>
    5ecc:	00f70733          	add	a4,a4,a5
    5ed0:	01872683          	lw	a3,24(a4)
    5ed4:	00052583          	lw	a1,0(a0)
    5ed8:	00f484b3          	add	s1,s1,a5
    5edc:	0086a783          	lw	a5,8(a3)
    5ee0:	00c5e633          	or	a2,a1,a2
    5ee4:	00c52023          	sw	a2,0(a0)
    5ee8:	00f42623          	sw	a5,12(s0)
    5eec:	0086a603          	lw	a2,8(a3)
    5ef0:	01472783          	lw	a5,20(a4)
    5ef4:	00d42423          	sw	a3,8(s0)
    5ef8:	01262223          	sw	s2,4(a2)
    5efc:	0126a423          	sw	s2,8(a3)
    5f00:	00942a23          	sw	s1,20(s0)
    5f04:	00178793          	addi	a5,a5,1
    5f08:	00f72a23          	sw	a5,20(a4)
    5f0c:	f25ff06f          	j	5e30 <vTaskPriorityDisinheritAfterTimeout+0x38>
    5f10:	0001b517          	auipc	a0,0x1b
    5f14:	50050513          	addi	a0,a0,1280 # 21410 <uxTopReadyPriority>
    5f18:	00052683          	lw	a3,0(a0)
    5f1c:	00100613          	li	a2,1
    5f20:	00e61633          	sll	a2,a2,a4
    5f24:	fff64793          	not	a5,a2
    5f28:	00d7f7b3          	and	a5,a5,a3
    5f2c:	00f52023          	sw	a5,0(a0)
    5f30:	f89ff06f          	j	5eb8 <vTaskPriorityDisinheritAfterTimeout+0xc0>

00005f34 <vTaskEnterCritical>:
    5f34:	30047073          	csrci	mstatus,8
    5f38:	0001b797          	auipc	a5,0x1b
    5f3c:	4d47a783          	lw	a5,1236(a5) # 2140c <xSchedulerRunning>
    5f40:	02078063          	beqz	a5,5f60 <vTaskEnterCritical+0x2c>
    5f44:	0001b797          	auipc	a5,0x1b
    5f48:	4e878793          	addi	a5,a5,1256 # 2142c <pxCurrentTCB>
    5f4c:	0007a703          	lw	a4,0(a5)
    5f50:	0007a783          	lw	a5,0(a5)
    5f54:	03c72783          	lw	a5,60(a4)
    5f58:	00178793          	addi	a5,a5,1
    5f5c:	02f72e23          	sw	a5,60(a4)
    5f60:	00008067          	ret

00005f64 <vTaskExitCritical>:
    5f64:	0001b797          	auipc	a5,0x1b
    5f68:	4a87a783          	lw	a5,1192(a5) # 2140c <xSchedulerRunning>
    5f6c:	02078c63          	beqz	a5,5fa4 <vTaskExitCritical+0x40>
    5f70:	0001b797          	auipc	a5,0x1b
    5f74:	4bc78793          	addi	a5,a5,1212 # 2142c <pxCurrentTCB>
    5f78:	0007a703          	lw	a4,0(a5)
    5f7c:	03c72703          	lw	a4,60(a4)
    5f80:	02070263          	beqz	a4,5fa4 <vTaskExitCritical+0x40>
    5f84:	0007a703          	lw	a4,0(a5)
    5f88:	0007a683          	lw	a3,0(a5)
    5f8c:	03c72783          	lw	a5,60(a4)
    5f90:	fff78793          	addi	a5,a5,-1
    5f94:	02f72e23          	sw	a5,60(a4)
    5f98:	03c6a783          	lw	a5,60(a3)
    5f9c:	00079463          	bnez	a5,5fa4 <vTaskExitCritical+0x40>
    5fa0:	30046073          	csrsi	mstatus,8
    5fa4:	00008067          	ret

00005fa8 <prvAddNewTaskToReadyList>:
    5fa8:	fe010113          	addi	sp,sp,-32
    5fac:	00812c23          	sw	s0,24(sp)
    5fb0:	00112e23          	sw	ra,28(sp)
    5fb4:	00912a23          	sw	s1,20(sp)
    5fb8:	01212823          	sw	s2,16(sp)
    5fbc:	01312623          	sw	s3,12(sp)
    5fc0:	01412423          	sw	s4,8(sp)
    5fc4:	01512223          	sw	s5,4(sp)
    5fc8:	00050413          	mv	s0,a0
    5fcc:	30047073          	csrci	mstatus,8
    5fd0:	0001b917          	auipc	s2,0x1b
    5fd4:	43c90913          	addi	s2,s2,1084 # 2140c <xSchedulerRunning>
    5fd8:	00092783          	lw	a5,0(s2)
    5fdc:	0001b997          	auipc	s3,0x1b
    5fe0:	45098993          	addi	s3,s3,1104 # 2142c <pxCurrentTCB>
    5fe4:	00078c63          	beqz	a5,5ffc <prvAddNewTaskToReadyList+0x54>
    5fe8:	0009a703          	lw	a4,0(s3)
    5fec:	0009a783          	lw	a5,0(s3)
    5ff0:	03c72783          	lw	a5,60(a4)
    5ff4:	00178793          	addi	a5,a5,1
    5ff8:	02f72e23          	sw	a5,60(a4)
    5ffc:	0001b717          	auipc	a4,0x1b
    6000:	41c70713          	addi	a4,a4,1052 # 21418 <uxCurrentNumberOfTasks>
    6004:	00072783          	lw	a5,0(a4)
    6008:	00178793          	addi	a5,a5,1
    600c:	00f72023          	sw	a5,0(a4)
    6010:	0009a783          	lw	a5,0(s3)
    6014:	0e078663          	beqz	a5,6100 <prvAddNewTaskToReadyList+0x158>
    6018:	00092783          	lw	a5,0(s2)
    601c:	02c42583          	lw	a1,44(s0)
    6020:	0001b497          	auipc	s1,0x1b
    6024:	56c48493          	addi	s1,s1,1388 # 2158c <pxReadyTasksLists>
    6028:	0c078263          	beqz	a5,60ec <prvAddNewTaskToReadyList+0x144>
    602c:	00259793          	slli	a5,a1,0x2
    6030:	00b787b3          	add	a5,a5,a1
    6034:	00279793          	slli	a5,a5,0x2
    6038:	0001b717          	auipc	a4,0x1b
    603c:	54070713          	addi	a4,a4,1344 # 21578 <xSuspendedTaskList>
    6040:	00f70733          	add	a4,a4,a5
    6044:	01872603          	lw	a2,24(a4)
    6048:	0001b517          	auipc	a0,0x1b
    604c:	3c850513          	addi	a0,a0,968 # 21410 <uxTopReadyPriority>
    6050:	00052803          	lw	a6,0(a0)
    6054:	00862883          	lw	a7,8(a2)
    6058:	00100693          	li	a3,1
    605c:	00b696b3          	sll	a3,a3,a1
    6060:	01142623          	sw	a7,12(s0)
    6064:	00862883          	lw	a7,8(a2)
    6068:	0106e6b3          	or	a3,a3,a6
    606c:	00d52023          	sw	a3,0(a0)
    6070:	01472683          	lw	a3,20(a4)
    6074:	00c42423          	sw	a2,8(s0)
    6078:	0001b517          	auipc	a0,0x1b
    607c:	38450513          	addi	a0,a0,900 # 213fc <uxTaskNumber>
    6080:	00440813          	addi	a6,s0,4
    6084:	0108a223          	sw	a6,4(a7)
    6088:	00052583          	lw	a1,0(a0)
    608c:	01062423          	sw	a6,8(a2)
    6090:	00f487b3          	add	a5,s1,a5
    6094:	00f42a23          	sw	a5,20(s0)
    6098:	00168793          	addi	a5,a3,1
    609c:	00158613          	addi	a2,a1,1
    60a0:	00f72a23          	sw	a5,20(a4)
    60a4:	00c52023          	sw	a2,0(a0)
    60a8:	ebdff0ef          	jal	ra,5f64 <vTaskExitCritical>
    60ac:	00092783          	lw	a5,0(s2)
    60b0:	00078c63          	beqz	a5,60c8 <prvAddNewTaskToReadyList+0x120>
    60b4:	0009a703          	lw	a4,0(s3)
    60b8:	02c42783          	lw	a5,44(s0)
    60bc:	02c72703          	lw	a4,44(a4)
    60c0:	00f77463          	bgeu	a4,a5,60c8 <prvAddNewTaskToReadyList+0x120>
    60c4:	00000073          	ecall
    60c8:	01c12083          	lw	ra,28(sp)
    60cc:	01812403          	lw	s0,24(sp)
    60d0:	01412483          	lw	s1,20(sp)
    60d4:	01012903          	lw	s2,16(sp)
    60d8:	00c12983          	lw	s3,12(sp)
    60dc:	00812a03          	lw	s4,8(sp)
    60e0:	00412a83          	lw	s5,4(sp)
    60e4:	02010113          	addi	sp,sp,32
    60e8:	00008067          	ret
    60ec:	0009a783          	lw	a5,0(s3)
    60f0:	02c7a783          	lw	a5,44(a5)
    60f4:	f2f5ece3          	bltu	a1,a5,602c <prvAddNewTaskToReadyList+0x84>
    60f8:	0089a023          	sw	s0,0(s3)
    60fc:	f31ff06f          	j	602c <prvAddNewTaskToReadyList+0x84>
    6100:	0089a023          	sw	s0,0(s3)
    6104:	00072703          	lw	a4,0(a4)
    6108:	00100793          	li	a5,1
    610c:	00f70a63          	beq	a4,a5,6120 <prvAddNewTaskToReadyList+0x178>
    6110:	02c42583          	lw	a1,44(s0)
    6114:	0001b497          	auipc	s1,0x1b
    6118:	47848493          	addi	s1,s1,1144 # 2158c <pxReadyTasksLists>
    611c:	f11ff06f          	j	602c <prvAddNewTaskToReadyList+0x84>
    6120:	0001b497          	auipc	s1,0x1b
    6124:	46c48493          	addi	s1,s1,1132 # 2158c <pxReadyTasksLists>
    6128:	00048a13          	mv	s4,s1
    612c:	0001ba97          	auipc	s5,0x1b
    6130:	5a0a8a93          	addi	s5,s5,1440 # 216cc <xTasksWaitingTermination>
    6134:	000a0513          	mv	a0,s4
    6138:	014a0a13          	addi	s4,s4,20
    613c:	538020ef          	jal	ra,8674 <vListInitialise>
    6140:	ff4a9ae3          	bne	s5,s4,6134 <prvAddNewTaskToReadyList+0x18c>
    6144:	0001ba97          	auipc	s5,0x1b
    6148:	5b0a8a93          	addi	s5,s5,1456 # 216f4 <xDelayedTaskList1>
    614c:	000a8513          	mv	a0,s5
    6150:	524020ef          	jal	ra,8674 <vListInitialise>
    6154:	0001ba17          	auipc	s4,0x1b
    6158:	5b4a0a13          	addi	s4,s4,1460 # 21708 <xDelayedTaskList2>
    615c:	000a0513          	mv	a0,s4
    6160:	514020ef          	jal	ra,8674 <vListInitialise>
    6164:	0001b517          	auipc	a0,0x1b
    6168:	57c50513          	addi	a0,a0,1404 # 216e0 <xPendingReadyList>
    616c:	508020ef          	jal	ra,8674 <vListInitialise>
    6170:	0001b517          	auipc	a0,0x1b
    6174:	55c50513          	addi	a0,a0,1372 # 216cc <xTasksWaitingTermination>
    6178:	4fc020ef          	jal	ra,8674 <vListInitialise>
    617c:	0001b517          	auipc	a0,0x1b
    6180:	3fc50513          	addi	a0,a0,1020 # 21578 <xSuspendedTaskList>
    6184:	4f0020ef          	jal	ra,8674 <vListInitialise>
    6188:	0001b797          	auipc	a5,0x1b
    618c:	2b57a023          	sw	s5,672(a5) # 21428 <pxDelayedTaskList>
    6190:	02c42583          	lw	a1,44(s0)
    6194:	0001b797          	auipc	a5,0x1b
    6198:	2947a823          	sw	s4,656(a5) # 21424 <pxOverflowDelayedTaskList>
    619c:	e91ff06f          	j	602c <prvAddNewTaskToReadyList+0x84>

000061a0 <xTaskCreateStatic>:
    61a0:	04080a63          	beqz	a6,61f4 <xTaskCreateStatic+0x54>
    61a4:	00078893          	mv	a7,a5
    61a8:	00000793          	li	a5,0
    61ac:	04088663          	beqz	a7,61f8 <xTaskCreateStatic+0x58>
    61b0:	fe010113          	addi	sp,sp,-32
    61b4:	03182823          	sw	a7,48(a6)
    61b8:	00200893          	li	a7,2
    61bc:	00c10793          	addi	a5,sp,12
    61c0:	051808a3          	sb	a7,81(a6)
    61c4:	00112e23          	sw	ra,28(sp)
    61c8:	00812c23          	sw	s0,24(sp)
    61cc:	00080413          	mv	s0,a6
    61d0:	ccdfe0ef          	jal	ra,4e9c <prvInitialiseNewTask.constprop.0>
    61d4:	00040513          	mv	a0,s0
    61d8:	dd1ff0ef          	jal	ra,5fa8 <prvAddNewTaskToReadyList>
    61dc:	00c12783          	lw	a5,12(sp)
    61e0:	01c12083          	lw	ra,28(sp)
    61e4:	01812403          	lw	s0,24(sp)
    61e8:	00078513          	mv	a0,a5
    61ec:	02010113          	addi	sp,sp,32
    61f0:	00008067          	ret
    61f4:	00000793          	li	a5,0
    61f8:	00078513          	mv	a0,a5
    61fc:	00008067          	ret

00006200 <xTaskCreate>:
    6200:	fd010113          	addi	sp,sp,-48
    6204:	01312e23          	sw	s3,28(sp)
    6208:	00050993          	mv	s3,a0
    620c:	00261513          	slli	a0,a2,0x2
    6210:	02912223          	sw	s1,36(sp)
    6214:	01412c23          	sw	s4,24(sp)
    6218:	01512a23          	sw	s5,20(sp)
    621c:	01612823          	sw	s6,16(sp)
    6220:	01712623          	sw	s7,12(sp)
    6224:	02112623          	sw	ra,44(sp)
    6228:	02812423          	sw	s0,40(sp)
    622c:	03212023          	sw	s2,32(sp)
    6230:	00060493          	mv	s1,a2
    6234:	00058a13          	mv	s4,a1
    6238:	00068a93          	mv	s5,a3
    623c:	00070b13          	mv	s6,a4
    6240:	00078b93          	mv	s7,a5
    6244:	1a5010ef          	jal	ra,7be8 <pvPortMalloc>
    6248:	06050c63          	beqz	a0,62c0 <xTaskCreate+0xc0>
    624c:	00050413          	mv	s0,a0
    6250:	05800513          	li	a0,88
    6254:	195010ef          	jal	ra,7be8 <pvPortMalloc>
    6258:	00050913          	mv	s2,a0
    625c:	06050663          	beqz	a0,62c8 <xTaskCreate+0xc8>
    6260:	00050813          	mv	a6,a0
    6264:	000b8793          	mv	a5,s7
    6268:	000b0713          	mv	a4,s6
    626c:	000a8693          	mv	a3,s5
    6270:	00048613          	mv	a2,s1
    6274:	000a0593          	mv	a1,s4
    6278:	02852823          	sw	s0,48(a0)
    627c:	040508a3          	sb	zero,81(a0)
    6280:	00098513          	mv	a0,s3
    6284:	c19fe0ef          	jal	ra,4e9c <prvInitialiseNewTask.constprop.0>
    6288:	00090513          	mv	a0,s2
    628c:	d1dff0ef          	jal	ra,5fa8 <prvAddNewTaskToReadyList>
    6290:	00100513          	li	a0,1
    6294:	02c12083          	lw	ra,44(sp)
    6298:	02812403          	lw	s0,40(sp)
    629c:	02412483          	lw	s1,36(sp)
    62a0:	02012903          	lw	s2,32(sp)
    62a4:	01c12983          	lw	s3,28(sp)
    62a8:	01812a03          	lw	s4,24(sp)
    62ac:	01412a83          	lw	s5,20(sp)
    62b0:	01012b03          	lw	s6,16(sp)
    62b4:	00c12b83          	lw	s7,12(sp)
    62b8:	03010113          	addi	sp,sp,48
    62bc:	00008067          	ret
    62c0:	fff00513          	li	a0,-1
    62c4:	fd1ff06f          	j	6294 <xTaskCreate+0x94>
    62c8:	00040513          	mv	a0,s0
    62cc:	161010ef          	jal	ra,7c2c <vPortFree>
    62d0:	fff00513          	li	a0,-1
    62d4:	fc1ff06f          	j	6294 <xTaskCreate+0x94>

000062d8 <vTaskStartScheduler>:
    62d8:	fe010113          	addi	sp,sp,-32
    62dc:	00810613          	addi	a2,sp,8
    62e0:	00410593          	addi	a1,sp,4
    62e4:	00010513          	mv	a0,sp
    62e8:	00812c23          	sw	s0,24(sp)
    62ec:	00112e23          	sw	ra,28(sp)
    62f0:	00012023          	sw	zero,0(sp)
    62f4:	00012223          	sw	zero,4(sp)
    62f8:	641010ef          	jal	ra,8138 <vApplicationGetIdleTaskMemory>
    62fc:	00012403          	lw	s0,0(sp)
    6300:	06040c63          	beqz	s0,6378 <vTaskStartScheduler+0xa0>
    6304:	00412503          	lw	a0,4(sp)
    6308:	06050863          	beqz	a0,6378 <vTaskStartScheduler+0xa0>
    630c:	00812603          	lw	a2,8(sp)
    6310:	02a42823          	sw	a0,48(s0)
    6314:	00200513          	li	a0,2
    6318:	00c10793          	addi	a5,sp,12
    631c:	00040813          	mv	a6,s0
    6320:	00000713          	li	a4,0
    6324:	00000693          	li	a3,0
    6328:	0001a597          	auipc	a1,0x1a
    632c:	6f058593          	addi	a1,a1,1776 # 20a18 <pow10.0+0x50>
    6330:	04a408a3          	sb	a0,81(s0)
    6334:	fffff517          	auipc	a0,0xfffff
    6338:	c9850513          	addi	a0,a0,-872 # 4fcc <prvIdleTask>
    633c:	b61fe0ef          	jal	ra,4e9c <prvInitialiseNewTask.constprop.0>
    6340:	00040513          	mv	a0,s0
    6344:	c65ff0ef          	jal	ra,5fa8 <prvAddNewTaskToReadyList>
    6348:	00c12783          	lw	a5,12(sp)
    634c:	02078663          	beqz	a5,6378 <vTaskStartScheduler+0xa0>
    6350:	30047073          	csrci	mstatus,8
    6354:	fff00793          	li	a5,-1
    6358:	0001b717          	auipc	a4,0x1b
    635c:	0af72023          	sw	a5,160(a4) # 213f8 <xNextTaskUnblockTime>
    6360:	00100793          	li	a5,1
    6364:	0001b717          	auipc	a4,0x1b
    6368:	0af72423          	sw	a5,168(a4) # 2140c <xSchedulerRunning>
    636c:	0001b797          	auipc	a5,0x1b
    6370:	0a07a423          	sw	zero,168(a5) # 21414 <xTickCount>
    6374:	595010ef          	jal	ra,8108 <xPortStartScheduler>
    6378:	01c12083          	lw	ra,28(sp)
    637c:	01812403          	lw	s0,24(sp)
    6380:	0001a797          	auipc	a5,0x1a
    6384:	d387a783          	lw	a5,-712(a5) # 200b8 <uxTopUsedPriority>
    6388:	02010113          	addi	sp,sp,32
    638c:	00008067          	ret

00006390 <vTaskDelete>:
    6390:	fe010113          	addi	sp,sp,-32
    6394:	00812c23          	sw	s0,24(sp)
    6398:	00112e23          	sw	ra,28(sp)
    639c:	00912a23          	sw	s1,20(sp)
    63a0:	01212823          	sw	s2,16(sp)
    63a4:	01312623          	sw	s3,12(sp)
    63a8:	00050413          	mv	s0,a0
    63ac:	30047073          	csrci	mstatus,8
    63b0:	0001b917          	auipc	s2,0x1b
    63b4:	05c90913          	addi	s2,s2,92 # 2140c <xSchedulerRunning>
    63b8:	00092783          	lw	a5,0(s2)
    63bc:	0001b497          	auipc	s1,0x1b
    63c0:	07048493          	addi	s1,s1,112 # 2142c <pxCurrentTCB>
    63c4:	00078c63          	beqz	a5,63dc <vTaskDelete+0x4c>
    63c8:	0004a703          	lw	a4,0(s1)
    63cc:	0004a783          	lw	a5,0(s1)
    63d0:	03c72783          	lw	a5,60(a4)
    63d4:	00178793          	addi	a5,a5,1
    63d8:	02f72e23          	sw	a5,60(a4)
    63dc:	16040063          	beqz	s0,653c <vTaskDelete+0x1ac>
    63e0:	00440993          	addi	s3,s0,4
    63e4:	00098513          	mv	a0,s3
    63e8:	334020ef          	jal	ra,871c <uxListRemove>
    63ec:	02051463          	bnez	a0,6414 <vTaskDelete+0x84>
    63f0:	02c42683          	lw	a3,44(s0)
    63f4:	0001b717          	auipc	a4,0x1b
    63f8:	18470713          	addi	a4,a4,388 # 21578 <xSuspendedTaskList>
    63fc:	00269793          	slli	a5,a3,0x2
    6400:	00d787b3          	add	a5,a5,a3
    6404:	00279793          	slli	a5,a5,0x2
    6408:	00f707b3          	add	a5,a4,a5
    640c:	0147a783          	lw	a5,20(a5)
    6410:	0a078263          	beqz	a5,64b4 <vTaskDelete+0x124>
    6414:	02842783          	lw	a5,40(s0)
    6418:	00078663          	beqz	a5,6424 <vTaskDelete+0x94>
    641c:	01840513          	addi	a0,s0,24
    6420:	2fc020ef          	jal	ra,871c <uxListRemove>
    6424:	0001b717          	auipc	a4,0x1b
    6428:	fd870713          	addi	a4,a4,-40 # 213fc <uxTaskNumber>
    642c:	00072783          	lw	a5,0(a4)
    6430:	0004a683          	lw	a3,0(s1)
    6434:	00178793          	addi	a5,a5,1
    6438:	00f72023          	sw	a5,0(a4)
    643c:	0c868c63          	beq	a3,s0,6514 <vTaskDelete+0x184>
    6440:	0001b717          	auipc	a4,0x1b
    6444:	fd870713          	addi	a4,a4,-40 # 21418 <uxCurrentNumberOfTasks>
    6448:	00072783          	lw	a5,0(a4)
    644c:	05144683          	lbu	a3,81(s0)
    6450:	fff78793          	addi	a5,a5,-1
    6454:	00f72023          	sw	a5,0(a4)
    6458:	08068063          	beqz	a3,64d8 <vTaskDelete+0x148>
    645c:	00100793          	li	a5,1
    6460:	10f68263          	beq	a3,a5,6564 <vTaskDelete+0x1d4>
    6464:	0001b797          	auipc	a5,0x1b
    6468:	fc478793          	addi	a5,a5,-60 # 21428 <pxDelayedTaskList>
    646c:	0007a703          	lw	a4,0(a5)
    6470:	00072703          	lw	a4,0(a4)
    6474:	08071463          	bnez	a4,64fc <vTaskDelete+0x16c>
    6478:	fff00793          	li	a5,-1
    647c:	0001b717          	auipc	a4,0x1b
    6480:	f6f72e23          	sw	a5,-132(a4) # 213f8 <xNextTaskUnblockTime>
    6484:	ae1ff0ef          	jal	ra,5f64 <vTaskExitCritical>
    6488:	00092783          	lw	a5,0(s2)
    648c:	00078663          	beqz	a5,6498 <vTaskDelete+0x108>
    6490:	0004a783          	lw	a5,0(s1)
    6494:	0a878863          	beq	a5,s0,6544 <vTaskDelete+0x1b4>
    6498:	01c12083          	lw	ra,28(sp)
    649c:	01812403          	lw	s0,24(sp)
    64a0:	01412483          	lw	s1,20(sp)
    64a4:	01012903          	lw	s2,16(sp)
    64a8:	00c12983          	lw	s3,12(sp)
    64ac:	02010113          	addi	sp,sp,32
    64b0:	00008067          	ret
    64b4:	0001b717          	auipc	a4,0x1b
    64b8:	f5c70713          	addi	a4,a4,-164 # 21410 <uxTopReadyPriority>
    64bc:	00072603          	lw	a2,0(a4)
    64c0:	00100793          	li	a5,1
    64c4:	00d797b3          	sll	a5,a5,a3
    64c8:	fff7c793          	not	a5,a5
    64cc:	00c7f7b3          	and	a5,a5,a2
    64d0:	00f72023          	sw	a5,0(a4)
    64d4:	f41ff06f          	j	6414 <vTaskDelete+0x84>
    64d8:	03042503          	lw	a0,48(s0)
    64dc:	750010ef          	jal	ra,7c2c <vPortFree>
    64e0:	00040513          	mv	a0,s0
    64e4:	748010ef          	jal	ra,7c2c <vPortFree>
    64e8:	0001b797          	auipc	a5,0x1b
    64ec:	f4078793          	addi	a5,a5,-192 # 21428 <pxDelayedTaskList>
    64f0:	0007a703          	lw	a4,0(a5)
    64f4:	00072703          	lw	a4,0(a4)
    64f8:	f80700e3          	beqz	a4,6478 <vTaskDelete+0xe8>
    64fc:	0007a783          	lw	a5,0(a5)
    6500:	00c7a783          	lw	a5,12(a5)
    6504:	0007a783          	lw	a5,0(a5)
    6508:	0001b717          	auipc	a4,0x1b
    650c:	eef72823          	sw	a5,-272(a4) # 213f8 <xNextTaskUnblockTime>
    6510:	f75ff06f          	j	6484 <vTaskDelete+0xf4>
    6514:	00098593          	mv	a1,s3
    6518:	0001b517          	auipc	a0,0x1b
    651c:	1b450513          	addi	a0,a0,436 # 216cc <xTasksWaitingTermination>
    6520:	17c020ef          	jal	ra,869c <vListInsertEnd>
    6524:	0001b717          	auipc	a4,0x1b
    6528:	efc70713          	addi	a4,a4,-260 # 21420 <uxDeletedTasksWaitingCleanUp>
    652c:	00072783          	lw	a5,0(a4)
    6530:	00178793          	addi	a5,a5,1
    6534:	00f72023          	sw	a5,0(a4)
    6538:	f4dff06f          	j	6484 <vTaskDelete+0xf4>
    653c:	0004a403          	lw	s0,0(s1)
    6540:	ea1ff06f          	j	63e0 <vTaskDelete+0x50>
    6544:	00000073          	ecall
    6548:	01c12083          	lw	ra,28(sp)
    654c:	01812403          	lw	s0,24(sp)
    6550:	01412483          	lw	s1,20(sp)
    6554:	01012903          	lw	s2,16(sp)
    6558:	00c12983          	lw	s3,12(sp)
    655c:	02010113          	addi	sp,sp,32
    6560:	00008067          	ret
    6564:	00040513          	mv	a0,s0
    6568:	6c4010ef          	jal	ra,7c2c <vPortFree>
    656c:	ef9ff06f          	j	6464 <vTaskDelete+0xd4>

00006570 <vTaskPrioritySet>:
    6570:	fe010113          	addi	sp,sp,-32
    6574:	00812c23          	sw	s0,24(sp)
    6578:	00112e23          	sw	ra,28(sp)
    657c:	00912a23          	sw	s1,20(sp)
    6580:	01212823          	sw	s2,16(sp)
    6584:	01312623          	sw	s3,12(sp)
    6588:	01412423          	sw	s4,8(sp)
    658c:	00f00793          	li	a5,15
    6590:	00050413          	mv	s0,a0
    6594:	00b7f463          	bgeu	a5,a1,659c <vTaskPrioritySet+0x2c>
    6598:	00f00593          	li	a1,15
    659c:	30047073          	csrci	mstatus,8
    65a0:	0001b797          	auipc	a5,0x1b
    65a4:	e6c7a783          	lw	a5,-404(a5) # 2140c <xSchedulerRunning>
    65a8:	02078063          	beqz	a5,65c8 <vTaskPrioritySet+0x58>
    65ac:	0001b797          	auipc	a5,0x1b
    65b0:	e8078793          	addi	a5,a5,-384 # 2142c <pxCurrentTCB>
    65b4:	0007a703          	lw	a4,0(a5)
    65b8:	0007a783          	lw	a5,0(a5)
    65bc:	03c72783          	lw	a5,60(a4)
    65c0:	00178793          	addi	a5,a5,1
    65c4:	02f72e23          	sw	a5,60(a4)
    65c8:	0a040a63          	beqz	s0,667c <vTaskPrioritySet+0x10c>
    65cc:	04042783          	lw	a5,64(s0)
    65d0:	06f58263          	beq	a1,a5,6634 <vTaskPrioritySet+0xc4>
    65d4:	08b7e063          	bltu	a5,a1,6654 <vTaskPrioritySet+0xe4>
    65d8:	0001b497          	auipc	s1,0x1b
    65dc:	e544a483          	lw	s1,-428(s1) # 2142c <pxCurrentTCB>
    65e0:	408484b3          	sub	s1,s1,s0
    65e4:	0014b493          	seqz	s1,s1
    65e8:	02c42903          	lw	s2,44(s0)
    65ec:	01279463          	bne	a5,s2,65f4 <vTaskPrioritySet+0x84>
    65f0:	02b42623          	sw	a1,44(s0)
    65f4:	01842783          	lw	a5,24(s0)
    65f8:	04b42023          	sw	a1,64(s0)
    65fc:	0007c863          	bltz	a5,660c <vTaskPrioritySet+0x9c>
    6600:	01000793          	li	a5,16
    6604:	40b785b3          	sub	a1,a5,a1
    6608:	00b42c23          	sw	a1,24(s0)
    660c:	00291793          	slli	a5,s2,0x2
    6610:	012787b3          	add	a5,a5,s2
    6614:	01442703          	lw	a4,20(s0)
    6618:	0001b997          	auipc	s3,0x1b
    661c:	f7498993          	addi	s3,s3,-140 # 2158c <pxReadyTasksLists>
    6620:	00279793          	slli	a5,a5,0x2
    6624:	00f987b3          	add	a5,s3,a5
    6628:	06f70063          	beq	a4,a5,6688 <vTaskPrioritySet+0x118>
    662c:	00048463          	beqz	s1,6634 <vTaskPrioritySet+0xc4>
    6630:	00000073          	ecall
    6634:	01812403          	lw	s0,24(sp)
    6638:	01c12083          	lw	ra,28(sp)
    663c:	01412483          	lw	s1,20(sp)
    6640:	01012903          	lw	s2,16(sp)
    6644:	00c12983          	lw	s3,12(sp)
    6648:	00812a03          	lw	s4,8(sp)
    664c:	02010113          	addi	sp,sp,32
    6650:	915ff06f          	j	5f64 <vTaskExitCritical>
    6654:	0001b717          	auipc	a4,0x1b
    6658:	dd870713          	addi	a4,a4,-552 # 2142c <pxCurrentTCB>
    665c:	00072683          	lw	a3,0(a4)
    6660:	00000493          	li	s1,0
    6664:	f88682e3          	beq	a3,s0,65e8 <vTaskPrioritySet+0x78>
    6668:	00072703          	lw	a4,0(a4)
    666c:	02c72483          	lw	s1,44(a4)
    6670:	0095b4b3          	sltu	s1,a1,s1
    6674:	0014c493          	xori	s1,s1,1
    6678:	f71ff06f          	j	65e8 <vTaskPrioritySet+0x78>
    667c:	0001b417          	auipc	s0,0x1b
    6680:	db042403          	lw	s0,-592(s0) # 2142c <pxCurrentTCB>
    6684:	f49ff06f          	j	65cc <vTaskPrioritySet+0x5c>
    6688:	00440a13          	addi	s4,s0,4
    668c:	000a0513          	mv	a0,s4
    6690:	08c020ef          	jal	ra,871c <uxListRemove>
    6694:	0001b817          	auipc	a6,0x1b
    6698:	d7c80813          	addi	a6,a6,-644 # 21410 <uxTopReadyPriority>
    669c:	00051e63          	bnez	a0,66b8 <vTaskPrioritySet+0x148>
    66a0:	00082703          	lw	a4,0(a6)
    66a4:	00100793          	li	a5,1
    66a8:	012797b3          	sll	a5,a5,s2
    66ac:	fff7c793          	not	a5,a5
    66b0:	00e7f7b3          	and	a5,a5,a4
    66b4:	00f82023          	sw	a5,0(a6)
    66b8:	02c42583          	lw	a1,44(s0)
    66bc:	0001b717          	auipc	a4,0x1b
    66c0:	ebc70713          	addi	a4,a4,-324 # 21578 <xSuspendedTaskList>
    66c4:	00100693          	li	a3,1
    66c8:	00259793          	slli	a5,a1,0x2
    66cc:	00b787b3          	add	a5,a5,a1
    66d0:	00279793          	slli	a5,a5,0x2
    66d4:	00f70733          	add	a4,a4,a5
    66d8:	01872603          	lw	a2,24(a4)
    66dc:	00b696b3          	sll	a3,a3,a1
    66e0:	00082503          	lw	a0,0(a6)
    66e4:	00862583          	lw	a1,8(a2)
    66e8:	00f989b3          	add	s3,s3,a5
    66ec:	00a6e6b3          	or	a3,a3,a0
    66f0:	00b42623          	sw	a1,12(s0)
    66f4:	00862583          	lw	a1,8(a2)
    66f8:	00d82023          	sw	a3,0(a6)
    66fc:	01472683          	lw	a3,20(a4)
    6700:	00c42423          	sw	a2,8(s0)
    6704:	0145a223          	sw	s4,4(a1)
    6708:	01462423          	sw	s4,8(a2)
    670c:	01342a23          	sw	s3,20(s0)
    6710:	00168793          	addi	a5,a3,1
    6714:	00f72a23          	sw	a5,20(a4)
    6718:	f15ff06f          	j	662c <vTaskPrioritySet+0xbc>

0000671c <vTaskSuspend>:
    671c:	fe010113          	addi	sp,sp,-32
    6720:	00812c23          	sw	s0,24(sp)
    6724:	00112e23          	sw	ra,28(sp)
    6728:	00912a23          	sw	s1,20(sp)
    672c:	01212823          	sw	s2,16(sp)
    6730:	01312623          	sw	s3,12(sp)
    6734:	00050413          	mv	s0,a0
    6738:	30047073          	csrci	mstatus,8
    673c:	0001b497          	auipc	s1,0x1b
    6740:	cd048493          	addi	s1,s1,-816 # 2140c <xSchedulerRunning>
    6744:	0004a783          	lw	a5,0(s1)
    6748:	0001b917          	auipc	s2,0x1b
    674c:	ce490913          	addi	s2,s2,-796 # 2142c <pxCurrentTCB>
    6750:	00078c63          	beqz	a5,6768 <vTaskSuspend+0x4c>
    6754:	00092703          	lw	a4,0(s2)
    6758:	00092783          	lw	a5,0(s2)
    675c:	03c72783          	lw	a5,60(a4)
    6760:	00178793          	addi	a5,a5,1
    6764:	02f72e23          	sw	a5,60(a4)
    6768:	12040e63          	beqz	s0,68a4 <vTaskSuspend+0x188>
    676c:	00440993          	addi	s3,s0,4
    6770:	00098513          	mv	a0,s3
    6774:	7a9010ef          	jal	ra,871c <uxListRemove>
    6778:	02051463          	bnez	a0,67a0 <vTaskSuspend+0x84>
    677c:	02c42683          	lw	a3,44(s0)
    6780:	0001b717          	auipc	a4,0x1b
    6784:	df870713          	addi	a4,a4,-520 # 21578 <xSuspendedTaskList>
    6788:	00269793          	slli	a5,a3,0x2
    678c:	00d787b3          	add	a5,a5,a3
    6790:	00279793          	slli	a5,a5,0x2
    6794:	00f707b3          	add	a5,a4,a5
    6798:	0147a783          	lw	a5,20(a5)
    679c:	06078463          	beqz	a5,6804 <vTaskSuspend+0xe8>
    67a0:	02842783          	lw	a5,40(s0)
    67a4:	00078663          	beqz	a5,67b0 <vTaskSuspend+0x94>
    67a8:	01840513          	addi	a0,s0,24
    67ac:	771010ef          	jal	ra,871c <uxListRemove>
    67b0:	00098593          	mv	a1,s3
    67b4:	0001b517          	auipc	a0,0x1b
    67b8:	dc450513          	addi	a0,a0,-572 # 21578 <xSuspendedTaskList>
    67bc:	6e1010ef          	jal	ra,869c <vListInsertEnd>
    67c0:	05044783          	lbu	a5,80(s0)
    67c4:	00100713          	li	a4,1
    67c8:	0ff7f793          	zext.b	a5,a5
    67cc:	00e79463          	bne	a5,a4,67d4 <vTaskSuspend+0xb8>
    67d0:	04040823          	sb	zero,80(s0)
    67d4:	f90ff0ef          	jal	ra,5f64 <vTaskExitCritical>
    67d8:	0004a783          	lw	a5,0(s1)
    67dc:	04079663          	bnez	a5,6828 <vTaskSuspend+0x10c>
    67e0:	00092783          	lw	a5,0(s2)
    67e4:	08878c63          	beq	a5,s0,687c <vTaskSuspend+0x160>
    67e8:	01c12083          	lw	ra,28(sp)
    67ec:	01812403          	lw	s0,24(sp)
    67f0:	01412483          	lw	s1,20(sp)
    67f4:	01012903          	lw	s2,16(sp)
    67f8:	00c12983          	lw	s3,12(sp)
    67fc:	02010113          	addi	sp,sp,32
    6800:	00008067          	ret
    6804:	0001b717          	auipc	a4,0x1b
    6808:	c0c70713          	addi	a4,a4,-1012 # 21410 <uxTopReadyPriority>
    680c:	00072603          	lw	a2,0(a4)
    6810:	00100793          	li	a5,1
    6814:	00d797b3          	sll	a5,a5,a3
    6818:	fff7c793          	not	a5,a5
    681c:	00c7f7b3          	and	a5,a5,a2
    6820:	00f72023          	sw	a5,0(a4)
    6824:	f7dff06f          	j	67a0 <vTaskSuspend+0x84>
    6828:	30047073          	csrci	mstatus,8
    682c:	0004a783          	lw	a5,0(s1)
    6830:	00078c63          	beqz	a5,6848 <vTaskSuspend+0x12c>
    6834:	00092703          	lw	a4,0(s2)
    6838:	00092783          	lw	a5,0(s2)
    683c:	03c72783          	lw	a5,60(a4)
    6840:	00178793          	addi	a5,a5,1
    6844:	02f72e23          	sw	a5,60(a4)
    6848:	0001b797          	auipc	a5,0x1b
    684c:	be078793          	addi	a5,a5,-1056 # 21428 <pxDelayedTaskList>
    6850:	0007a703          	lw	a4,0(a5)
    6854:	00072703          	lw	a4,0(a4)
    6858:	04070a63          	beqz	a4,68ac <vTaskSuspend+0x190>
    685c:	0007a783          	lw	a5,0(a5)
    6860:	00c7a783          	lw	a5,12(a5)
    6864:	0007a783          	lw	a5,0(a5)
    6868:	0001b717          	auipc	a4,0x1b
    686c:	b8f72823          	sw	a5,-1136(a4) # 213f8 <xNextTaskUnblockTime>
    6870:	ef4ff0ef          	jal	ra,5f64 <vTaskExitCritical>
    6874:	00092783          	lw	a5,0(s2)
    6878:	f68798e3          	bne	a5,s0,67e8 <vTaskSuspend+0xcc>
    687c:	0004a783          	lw	a5,0(s1)
    6880:	02079e63          	bnez	a5,68bc <vTaskSuspend+0x1a0>
    6884:	0001b717          	auipc	a4,0x1b
    6888:	cf472703          	lw	a4,-780(a4) # 21578 <xSuspendedTaskList>
    688c:	0001b797          	auipc	a5,0x1b
    6890:	b8c7a783          	lw	a5,-1140(a5) # 21418 <uxCurrentNumberOfTasks>
    6894:	04f71463          	bne	a4,a5,68dc <vTaskSuspend+0x1c0>
    6898:	0001b797          	auipc	a5,0x1b
    689c:	b807aa23          	sw	zero,-1132(a5) # 2142c <pxCurrentTCB>
    68a0:	f49ff06f          	j	67e8 <vTaskSuspend+0xcc>
    68a4:	00092403          	lw	s0,0(s2)
    68a8:	ec5ff06f          	j	676c <vTaskSuspend+0x50>
    68ac:	fff00793          	li	a5,-1
    68b0:	0001b717          	auipc	a4,0x1b
    68b4:	b4f72423          	sw	a5,-1208(a4) # 213f8 <xNextTaskUnblockTime>
    68b8:	fb9ff06f          	j	6870 <vTaskSuspend+0x154>
    68bc:	00000073          	ecall
    68c0:	01c12083          	lw	ra,28(sp)
    68c4:	01812403          	lw	s0,24(sp)
    68c8:	01412483          	lw	s1,20(sp)
    68cc:	01012903          	lw	s2,16(sp)
    68d0:	00c12983          	lw	s3,12(sp)
    68d4:	02010113          	addi	sp,sp,32
    68d8:	00008067          	ret
    68dc:	0001b797          	auipc	a5,0x1b
    68e0:	b187a783          	lw	a5,-1256(a5) # 213f4 <uxSchedulerSuspended>
    68e4:	00078a63          	beqz	a5,68f8 <vTaskSuspend+0x1dc>
    68e8:	00100793          	li	a5,1
    68ec:	0001b717          	auipc	a4,0x1b
    68f0:	b0f72c23          	sw	a5,-1256(a4) # 21404 <xYieldPending>
    68f4:	ef5ff06f          	j	67e8 <vTaskSuspend+0xcc>
    68f8:	01812403          	lw	s0,24(sp)
    68fc:	01c12083          	lw	ra,28(sp)
    6900:	01412483          	lw	s1,20(sp)
    6904:	01012903          	lw	s2,16(sp)
    6908:	00c12983          	lw	s3,12(sp)
    690c:	02010113          	addi	sp,sp,32
    6910:	cb4fe06f          	j	4dc4 <vTaskSwitchContext.part.0>

00006914 <vTaskResume>:
    6914:	fe010113          	addi	sp,sp,-32
    6918:	00912a23          	sw	s1,20(sp)
    691c:	0001b497          	auipc	s1,0x1b
    6920:	b1048493          	addi	s1,s1,-1264 # 2142c <pxCurrentTCB>
    6924:	0004a783          	lw	a5,0(s1)
    6928:	00112e23          	sw	ra,28(sp)
    692c:	00812c23          	sw	s0,24(sp)
    6930:	01212823          	sw	s2,16(sp)
    6934:	01312623          	sw	s3,12(sp)
    6938:	04a78463          	beq	a5,a0,6980 <vTaskResume+0x6c>
    693c:	00050413          	mv	s0,a0
    6940:	04050063          	beqz	a0,6980 <vTaskResume+0x6c>
    6944:	30047073          	csrci	mstatus,8
    6948:	0001b797          	auipc	a5,0x1b
    694c:	ac47a783          	lw	a5,-1340(a5) # 2140c <xSchedulerRunning>
    6950:	04079663          	bnez	a5,699c <vTaskResume+0x88>
    6954:	01442903          	lw	s2,20(s0)
    6958:	0001b797          	auipc	a5,0x1b
    695c:	c2078793          	addi	a5,a5,-992 # 21578 <xSuspendedTaskList>
    6960:	06f90063          	beq	s2,a5,69c0 <vTaskResume+0xac>
    6964:	01812403          	lw	s0,24(sp)
    6968:	01c12083          	lw	ra,28(sp)
    696c:	01412483          	lw	s1,20(sp)
    6970:	01012903          	lw	s2,16(sp)
    6974:	00c12983          	lw	s3,12(sp)
    6978:	02010113          	addi	sp,sp,32
    697c:	de8ff06f          	j	5f64 <vTaskExitCritical>
    6980:	01c12083          	lw	ra,28(sp)
    6984:	01812403          	lw	s0,24(sp)
    6988:	01412483          	lw	s1,20(sp)
    698c:	01012903          	lw	s2,16(sp)
    6990:	00c12983          	lw	s3,12(sp)
    6994:	02010113          	addi	sp,sp,32
    6998:	00008067          	ret
    699c:	0004a703          	lw	a4,0(s1)
    69a0:	0004a783          	lw	a5,0(s1)
    69a4:	01442903          	lw	s2,20(s0)
    69a8:	03c72783          	lw	a5,60(a4)
    69ac:	00178793          	addi	a5,a5,1
    69b0:	02f72e23          	sw	a5,60(a4)
    69b4:	0001b797          	auipc	a5,0x1b
    69b8:	bc478793          	addi	a5,a5,-1084 # 21578 <xSuspendedTaskList>
    69bc:	faf914e3          	bne	s2,a5,6964 <vTaskResume+0x50>
    69c0:	02842783          	lw	a5,40(s0)
    69c4:	0001b717          	auipc	a4,0x1b
    69c8:	d1c70713          	addi	a4,a4,-740 # 216e0 <xPendingReadyList>
    69cc:	f8e78ce3          	beq	a5,a4,6964 <vTaskResume+0x50>
    69d0:	f8079ae3          	bnez	a5,6964 <vTaskResume+0x50>
    69d4:	00440993          	addi	s3,s0,4
    69d8:	00098513          	mv	a0,s3
    69dc:	541010ef          	jal	ra,871c <uxListRemove>
    69e0:	02c42683          	lw	a3,44(s0)
    69e4:	0001b597          	auipc	a1,0x1b
    69e8:	a2c58593          	addi	a1,a1,-1492 # 21410 <uxTopReadyPriority>
    69ec:	0005a803          	lw	a6,0(a1)
    69f0:	00269793          	slli	a5,a3,0x2
    69f4:	00d787b3          	add	a5,a5,a3
    69f8:	00279793          	slli	a5,a5,0x2
    69fc:	00f90933          	add	s2,s2,a5
    6a00:	01892603          	lw	a2,24(s2)
    6a04:	00100713          	li	a4,1
    6a08:	00d71733          	sll	a4,a4,a3
    6a0c:	00862503          	lw	a0,8(a2)
    6a10:	01076733          	or	a4,a4,a6
    6a14:	00e5a023          	sw	a4,0(a1)
    6a18:	00a42623          	sw	a0,12(s0)
    6a1c:	00862583          	lw	a1,8(a2)
    6a20:	01492703          	lw	a4,20(s2)
    6a24:	00c42423          	sw	a2,8(s0)
    6a28:	0135a223          	sw	s3,4(a1)
    6a2c:	01362423          	sw	s3,8(a2)
    6a30:	0001b617          	auipc	a2,0x1b
    6a34:	b5c60613          	addi	a2,a2,-1188 # 2158c <pxReadyTasksLists>
    6a38:	00f607b3          	add	a5,a2,a5
    6a3c:	00f42a23          	sw	a5,20(s0)
    6a40:	00170793          	addi	a5,a4,1
    6a44:	00f92a23          	sw	a5,20(s2)
    6a48:	0004a783          	lw	a5,0(s1)
    6a4c:	02c7a783          	lw	a5,44(a5)
    6a50:	f0f6eae3          	bltu	a3,a5,6964 <vTaskResume+0x50>
    6a54:	00000073          	ecall
    6a58:	f0dff06f          	j	6964 <vTaskResume+0x50>

00006a5c <xTaskResumeAll>:
    6a5c:	fe010113          	addi	sp,sp,-32
    6a60:	00112e23          	sw	ra,28(sp)
    6a64:	00812c23          	sw	s0,24(sp)
    6a68:	00912a23          	sw	s1,20(sp)
    6a6c:	01212823          	sw	s2,16(sp)
    6a70:	01312623          	sw	s3,12(sp)
    6a74:	01412423          	sw	s4,8(sp)
    6a78:	30047073          	csrci	mstatus,8
    6a7c:	0001b797          	auipc	a5,0x1b
    6a80:	9907a783          	lw	a5,-1648(a5) # 2140c <xSchedulerRunning>
    6a84:	02078063          	beqz	a5,6aa4 <xTaskResumeAll+0x48>
    6a88:	0001be97          	auipc	t4,0x1b
    6a8c:	9a4e8e93          	addi	t4,t4,-1628 # 2142c <pxCurrentTCB>
    6a90:	000ea703          	lw	a4,0(t4)
    6a94:	000ea783          	lw	a5,0(t4)
    6a98:	03c72783          	lw	a5,60(a4)
    6a9c:	00178793          	addi	a5,a5,1
    6aa0:	02f72e23          	sw	a5,60(a4)
    6aa4:	0001b497          	auipc	s1,0x1b
    6aa8:	95048493          	addi	s1,s1,-1712 # 213f4 <uxSchedulerSuspended>
    6aac:	0004a783          	lw	a5,0(s1)
    6ab0:	fff78793          	addi	a5,a5,-1
    6ab4:	00f4a023          	sw	a5,0(s1)
    6ab8:	0004a783          	lw	a5,0(s1)
    6abc:	12079c63          	bnez	a5,6bf4 <xTaskResumeAll+0x198>
    6ac0:	0001b797          	auipc	a5,0x1b
    6ac4:	9587a783          	lw	a5,-1704(a5) # 21418 <uxCurrentNumberOfTasks>
    6ac8:	12078663          	beqz	a5,6bf4 <xTaskResumeAll+0x198>
    6acc:	0001b317          	auipc	t1,0x1b
    6ad0:	aac30313          	addi	t1,t1,-1364 # 21578 <xSuspendedTaskList>
    6ad4:	16832783          	lw	a5,360(t1)
    6ad8:	0001b417          	auipc	s0,0x1b
    6adc:	92c40413          	addi	s0,s0,-1748 # 21404 <xYieldPending>
    6ae0:	16078863          	beqz	a5,6c50 <xTaskResumeAll+0x1f4>
    6ae4:	0001be97          	auipc	t4,0x1b
    6ae8:	948e8e93          	addi	t4,t4,-1720 # 2142c <pxCurrentTCB>
    6aec:	0001be17          	auipc	t3,0x1b
    6af0:	924e0e13          	addi	t3,t3,-1756 # 21410 <uxTopReadyPriority>
    6af4:	0001bf97          	auipc	t6,0x1b
    6af8:	a98f8f93          	addi	t6,t6,-1384 # 2158c <pxReadyTasksLists>
    6afc:	0001b417          	auipc	s0,0x1b
    6b00:	90840413          	addi	s0,s0,-1784 # 21404 <xYieldPending>
    6b04:	00100f13          	li	t5,1
    6b08:	0ac0006f          	j	6bb4 <xTaskResumeAll+0x158>
    6b0c:	00072683          	lw	a3,0(a4)
    6b10:	0207a423          	sw	zero,40(a5)
    6b14:	fff68693          	addi	a3,a3,-1
    6b18:	00d72023          	sw	a3,0(a4)
    6b1c:	0147a583          	lw	a1,20(a5)
    6b20:	0087a683          	lw	a3,8(a5)
    6b24:	00c7a703          	lw	a4,12(a5)
    6b28:	0045a603          	lw	a2,4(a1)
    6b2c:	00478813          	addi	a6,a5,4
    6b30:	00e6a423          	sw	a4,8(a3)
    6b34:	00d72223          	sw	a3,4(a4)
    6b38:	0f060463          	beq	a2,a6,6c20 <xTaskResumeAll+0x1c4>
    6b3c:	02c7a683          	lw	a3,44(a5)
    6b40:	0005a883          	lw	a7,0(a1)
    6b44:	00269713          	slli	a4,a3,0x2
    6b48:	00d70733          	add	a4,a4,a3
    6b4c:	00271713          	slli	a4,a4,0x2
    6b50:	00e30533          	add	a0,t1,a4
    6b54:	01852603          	lw	a2,24(a0)
    6b58:	fff88893          	addi	a7,a7,-1
    6b5c:	0115a023          	sw	a7,0(a1)
    6b60:	00862883          	lw	a7,8(a2)
    6b64:	000e2283          	lw	t0,0(t3)
    6b68:	00df15b3          	sll	a1,t5,a3
    6b6c:	0117a623          	sw	a7,12(a5)
    6b70:	00862883          	lw	a7,8(a2)
    6b74:	0055e5b3          	or	a1,a1,t0
    6b78:	00be2023          	sw	a1,0(t3)
    6b7c:	01452583          	lw	a1,20(a0)
    6b80:	00c7a423          	sw	a2,8(a5)
    6b84:	0108a223          	sw	a6,4(a7)
    6b88:	01062423          	sw	a6,8(a2)
    6b8c:	00ef8733          	add	a4,t6,a4
    6b90:	00e7aa23          	sw	a4,20(a5)
    6b94:	00158793          	addi	a5,a1,1
    6b98:	00f52a23          	sw	a5,20(a0)
    6b9c:	000ea783          	lw	a5,0(t4)
    6ba0:	02c7a783          	lw	a5,44(a5)
    6ba4:	00f6e463          	bltu	a3,a5,6bac <xTaskResumeAll+0x150>
    6ba8:	01e42023          	sw	t5,0(s0)
    6bac:	16832783          	lw	a5,360(t1)
    6bb0:	06078c63          	beqz	a5,6c28 <xTaskResumeAll+0x1cc>
    6bb4:	17432783          	lw	a5,372(t1)
    6bb8:	00c7a783          	lw	a5,12(a5)
    6bbc:	0287a703          	lw	a4,40(a5)
    6bc0:	01c7a603          	lw	a2,28(a5)
    6bc4:	0207a683          	lw	a3,32(a5)
    6bc8:	00472503          	lw	a0,4(a4)
    6bcc:	01878593          	addi	a1,a5,24
    6bd0:	00d62423          	sw	a3,8(a2)
    6bd4:	00c6a223          	sw	a2,4(a3)
    6bd8:	f2b51ae3          	bne	a0,a1,6b0c <xTaskResumeAll+0xb0>
    6bdc:	00d72223          	sw	a3,4(a4)
    6be0:	f2dff06f          	j	6b0c <xTaskResumeAll+0xb0>
    6be4:	0001b797          	auipc	a5,0x1b
    6be8:	8207a223          	sw	zero,-2012(a5) # 21408 <xPendedTicks>
    6bec:	00042783          	lw	a5,0(s0)
    6bf0:	0a079463          	bnez	a5,6c98 <xTaskResumeAll+0x23c>
    6bf4:	00000413          	li	s0,0
    6bf8:	b6cff0ef          	jal	ra,5f64 <vTaskExitCritical>
    6bfc:	01c12083          	lw	ra,28(sp)
    6c00:	00040513          	mv	a0,s0
    6c04:	01812403          	lw	s0,24(sp)
    6c08:	01412483          	lw	s1,20(sp)
    6c0c:	01012903          	lw	s2,16(sp)
    6c10:	00c12983          	lw	s3,12(sp)
    6c14:	00812a03          	lw	s4,8(sp)
    6c18:	02010113          	addi	sp,sp,32
    6c1c:	00008067          	ret
    6c20:	00e5a223          	sw	a4,4(a1)
    6c24:	f19ff06f          	j	6b3c <xTaskResumeAll+0xe0>
    6c28:	0001b797          	auipc	a5,0x1b
    6c2c:	80078793          	addi	a5,a5,-2048 # 21428 <pxDelayedTaskList>
    6c30:	0007a703          	lw	a4,0(a5)
    6c34:	00072703          	lw	a4,0(a4)
    6c38:	06070663          	beqz	a4,6ca4 <xTaskResumeAll+0x248>
    6c3c:	0007a783          	lw	a5,0(a5)
    6c40:	00c7a783          	lw	a5,12(a5)
    6c44:	0007a783          	lw	a5,0(a5)
    6c48:	0001a717          	auipc	a4,0x1a
    6c4c:	7af72823          	sw	a5,1968(a4) # 213f8 <xNextTaskUnblockTime>
    6c50:	0001a997          	auipc	s3,0x1a
    6c54:	7b898993          	addi	s3,s3,1976 # 21408 <xPendedTicks>
    6c58:	0009a903          	lw	s2,0(s3)
    6c5c:	f80908e3          	beqz	s2,6bec <xTaskResumeAll+0x190>
    6c60:	00100a13          	li	s4,1
    6c64:	0180006f          	j	6c7c <xTaskResumeAll+0x220>
    6c68:	c7cfe0ef          	jal	ra,50e4 <xTaskIncrementTick.part.0>
    6c6c:	00050463          	beqz	a0,6c74 <xTaskResumeAll+0x218>
    6c70:	01442023          	sw	s4,0(s0)
    6c74:	fff90913          	addi	s2,s2,-1
    6c78:	f60906e3          	beqz	s2,6be4 <xTaskResumeAll+0x188>
    6c7c:	0004a783          	lw	a5,0(s1)
    6c80:	fe0784e3          	beqz	a5,6c68 <xTaskResumeAll+0x20c>
    6c84:	0009a783          	lw	a5,0(s3)
    6c88:	00178793          	addi	a5,a5,1
    6c8c:	00f9a023          	sw	a5,0(s3)
    6c90:	df8fa0ef          	jal	ra,1288 <vApplicationTickHook>
    6c94:	fe1ff06f          	j	6c74 <xTaskResumeAll+0x218>
    6c98:	00000073          	ecall
    6c9c:	00100413          	li	s0,1
    6ca0:	f59ff06f          	j	6bf8 <xTaskResumeAll+0x19c>
    6ca4:	fff00793          	li	a5,-1
    6ca8:	0001a717          	auipc	a4,0x1a
    6cac:	74f72823          	sw	a5,1872(a4) # 213f8 <xNextTaskUnblockTime>
    6cb0:	fa1ff06f          	j	6c50 <xTaskResumeAll+0x1f4>

00006cb4 <xTaskDelayUntil>:
    6cb4:	0001a717          	auipc	a4,0x1a
    6cb8:	74070713          	addi	a4,a4,1856 # 213f4 <uxSchedulerSuspended>
    6cbc:	00072783          	lw	a5,0(a4)
    6cc0:	ff010113          	addi	sp,sp,-16
    6cc4:	00112623          	sw	ra,12(sp)
    6cc8:	00812423          	sw	s0,8(sp)
    6ccc:	00178793          	addi	a5,a5,1
    6cd0:	00f72023          	sw	a5,0(a4)
    6cd4:	00052703          	lw	a4,0(a0)
    6cd8:	0001a697          	auipc	a3,0x1a
    6cdc:	73c6a683          	lw	a3,1852(a3) # 21414 <xTickCount>
    6ce0:	00b707b3          	add	a5,a4,a1
    6ce4:	00f52023          	sw	a5,0(a0)
    6ce8:	02e6f663          	bgeu	a3,a4,6d14 <xTaskDelayUntil+0x60>
    6cec:	02e7e663          	bltu	a5,a4,6d18 <xTaskDelayUntil+0x64>
    6cf0:	00000413          	li	s0,0
    6cf4:	d69ff0ef          	jal	ra,6a5c <xTaskResumeAll>
    6cf8:	00051463          	bnez	a0,6d00 <xTaskDelayUntil+0x4c>
    6cfc:	00000073          	ecall
    6d00:	00c12083          	lw	ra,12(sp)
    6d04:	00040513          	mv	a0,s0
    6d08:	00812403          	lw	s0,8(sp)
    6d0c:	01010113          	addi	sp,sp,16
    6d10:	00008067          	ret
    6d14:	00e7e463          	bltu	a5,a4,6d1c <xTaskDelayUntil+0x68>
    6d18:	fcf6fce3          	bgeu	a3,a5,6cf0 <xTaskDelayUntil+0x3c>
    6d1c:	00000593          	li	a1,0
    6d20:	40d78533          	sub	a0,a5,a3
    6d24:	f41fd0ef          	jal	ra,4c64 <prvAddCurrentTaskToDelayedList>
    6d28:	00100413          	li	s0,1
    6d2c:	fc9ff06f          	j	6cf4 <xTaskDelayUntil+0x40>

00006d30 <vTaskDelay>:
    6d30:	00051663          	bnez	a0,6d3c <vTaskDelay+0xc>
    6d34:	00000073          	ecall
    6d38:	00008067          	ret
    6d3c:	0001a717          	auipc	a4,0x1a
    6d40:	6b870713          	addi	a4,a4,1720 # 213f4 <uxSchedulerSuspended>
    6d44:	00072783          	lw	a5,0(a4)
    6d48:	ff010113          	addi	sp,sp,-16
    6d4c:	00112623          	sw	ra,12(sp)
    6d50:	00178793          	addi	a5,a5,1
    6d54:	00f72023          	sw	a5,0(a4)
    6d58:	00000593          	li	a1,0
    6d5c:	f09fd0ef          	jal	ra,4c64 <prvAddCurrentTaskToDelayedList>
    6d60:	cfdff0ef          	jal	ra,6a5c <xTaskResumeAll>
    6d64:	00051463          	bnez	a0,6d6c <vTaskDelay+0x3c>
    6d68:	00000073          	ecall
    6d6c:	00c12083          	lw	ra,12(sp)
    6d70:	01010113          	addi	sp,sp,16
    6d74:	00008067          	ret

00006d78 <xTaskCatchUpTicks>:
    6d78:	0001a717          	auipc	a4,0x1a
    6d7c:	67c70713          	addi	a4,a4,1660 # 213f4 <uxSchedulerSuspended>
    6d80:	00072783          	lw	a5,0(a4)
    6d84:	00178793          	addi	a5,a5,1
    6d88:	00f72023          	sw	a5,0(a4)
    6d8c:	0001a717          	auipc	a4,0x1a
    6d90:	67c70713          	addi	a4,a4,1660 # 21408 <xPendedTicks>
    6d94:	00072783          	lw	a5,0(a4)
    6d98:	00a78533          	add	a0,a5,a0
    6d9c:	00a72023          	sw	a0,0(a4)
    6da0:	cbdff06f          	j	6a5c <xTaskResumeAll>

00006da4 <xTaskCheckForTimeOut>:
    6da4:	ff010113          	addi	sp,sp,-16
    6da8:	00112623          	sw	ra,12(sp)
    6dac:	00812423          	sw	s0,8(sp)
    6db0:	00050793          	mv	a5,a0
    6db4:	30047073          	csrci	mstatus,8
    6db8:	0001a717          	auipc	a4,0x1a
    6dbc:	65472703          	lw	a4,1620(a4) # 2140c <xSchedulerRunning>
    6dc0:	02070063          	beqz	a4,6de0 <xTaskCheckForTimeOut+0x3c>
    6dc4:	0001a717          	auipc	a4,0x1a
    6dc8:	66870713          	addi	a4,a4,1640 # 2142c <pxCurrentTCB>
    6dcc:	00072683          	lw	a3,0(a4)
    6dd0:	00072703          	lw	a4,0(a4)
    6dd4:	03c6a703          	lw	a4,60(a3)
    6dd8:	00170713          	addi	a4,a4,1
    6ddc:	02e6ae23          	sw	a4,60(a3)
    6de0:	0001a697          	auipc	a3,0x1a
    6de4:	63468693          	addi	a3,a3,1588 # 21414 <xTickCount>
    6de8:	0005a703          	lw	a4,0(a1)
    6dec:	0006a603          	lw	a2,0(a3)
    6df0:	fff00513          	li	a0,-1
    6df4:	00000413          	li	s0,0
    6df8:	02a70463          	beq	a4,a0,6e20 <xTaskCheckForTimeOut+0x7c>
    6dfc:	0001a817          	auipc	a6,0x1a
    6e00:	60480813          	addi	a6,a6,1540 # 21400 <xNumOfOverflows>
    6e04:	00082883          	lw	a7,0(a6)
    6e08:	0007a303          	lw	t1,0(a5)
    6e0c:	0047a503          	lw	a0,4(a5)
    6e10:	03130463          	beq	t1,a7,6e38 <xTaskCheckForTimeOut+0x94>
    6e14:	02a66263          	bltu	a2,a0,6e38 <xTaskCheckForTimeOut+0x94>
    6e18:	0005a023          	sw	zero,0(a1)
    6e1c:	00100413          	li	s0,1
    6e20:	944ff0ef          	jal	ra,5f64 <vTaskExitCritical>
    6e24:	00c12083          	lw	ra,12(sp)
    6e28:	00040513          	mv	a0,s0
    6e2c:	00812403          	lw	s0,8(sp)
    6e30:	01010113          	addi	sp,sp,16
    6e34:	00008067          	ret
    6e38:	40a608b3          	sub	a7,a2,a0
    6e3c:	fce8fee3          	bgeu	a7,a4,6e18 <xTaskCheckForTimeOut+0x74>
    6e40:	00082803          	lw	a6,0(a6)
    6e44:	40c70733          	sub	a4,a4,a2
    6e48:	0006a683          	lw	a3,0(a3)
    6e4c:	00a70733          	add	a4,a4,a0
    6e50:	00e5a023          	sw	a4,0(a1)
    6e54:	0107a023          	sw	a6,0(a5)
    6e58:	00d7a223          	sw	a3,4(a5)
    6e5c:	908ff0ef          	jal	ra,5f64 <vTaskExitCritical>
    6e60:	00000413          	li	s0,0
    6e64:	00c12083          	lw	ra,12(sp)
    6e68:	00040513          	mv	a0,s0
    6e6c:	00812403          	lw	s0,8(sp)
    6e70:	01010113          	addi	sp,sp,16
    6e74:	00008067          	ret

00006e78 <uxTaskResetEventItemValue>:
    6e78:	0001a797          	auipc	a5,0x1a
    6e7c:	5b478793          	addi	a5,a5,1460 # 2142c <pxCurrentTCB>
    6e80:	0007a603          	lw	a2,0(a5)
    6e84:	0007a683          	lw	a3,0(a5)
    6e88:	0007a703          	lw	a4,0(a5)
    6e8c:	01000793          	li	a5,16
    6e90:	02c6a683          	lw	a3,44(a3)
    6e94:	01862503          	lw	a0,24(a2)
    6e98:	40d787b3          	sub	a5,a5,a3
    6e9c:	00f72c23          	sw	a5,24(a4)
    6ea0:	00008067          	ret

00006ea4 <pvTaskIncrementMutexHeldCount>:
    6ea4:	0001a797          	auipc	a5,0x1a
    6ea8:	58878793          	addi	a5,a5,1416 # 2142c <pxCurrentTCB>
    6eac:	0007a703          	lw	a4,0(a5)
    6eb0:	00070a63          	beqz	a4,6ec4 <pvTaskIncrementMutexHeldCount+0x20>
    6eb4:	0007a683          	lw	a3,0(a5)
    6eb8:	0446a703          	lw	a4,68(a3)
    6ebc:	00170713          	addi	a4,a4,1
    6ec0:	04e6a223          	sw	a4,68(a3)
    6ec4:	0007a503          	lw	a0,0(a5)
    6ec8:	00008067          	ret

00006ecc <ulTaskGenericNotifyTake>:
    6ecc:	fe010113          	addi	sp,sp,-32
    6ed0:	00912a23          	sw	s1,20(sp)
    6ed4:	01312623          	sw	s3,12(sp)
    6ed8:	00112e23          	sw	ra,28(sp)
    6edc:	00812c23          	sw	s0,24(sp)
    6ee0:	01212823          	sw	s2,16(sp)
    6ee4:	01412423          	sw	s4,8(sp)
    6ee8:	00050493          	mv	s1,a0
    6eec:	00058993          	mv	s3,a1
    6ef0:	30047073          	csrci	mstatus,8
    6ef4:	0001aa17          	auipc	s4,0x1a
    6ef8:	518a0a13          	addi	s4,s4,1304 # 2140c <xSchedulerRunning>
    6efc:	000a2783          	lw	a5,0(s4)
    6f00:	0001a417          	auipc	s0,0x1a
    6f04:	52c40413          	addi	s0,s0,1324 # 2142c <pxCurrentTCB>
    6f08:	00078c63          	beqz	a5,6f20 <ulTaskGenericNotifyTake+0x54>
    6f0c:	00042703          	lw	a4,0(s0)
    6f10:	00042783          	lw	a5,0(s0)
    6f14:	03c72783          	lw	a5,60(a4)
    6f18:	00178793          	addi	a5,a5,1
    6f1c:	02f72e23          	sw	a5,60(a4)
    6f20:	00042783          	lw	a5,0(s0)
    6f24:	01048913          	addi	s2,s1,16
    6f28:	00291713          	slli	a4,s2,0x2
    6f2c:	00e787b3          	add	a5,a5,a4
    6f30:	00c7a783          	lw	a5,12(a5)
    6f34:	00079c63          	bnez	a5,6f4c <ulTaskGenericNotifyTake+0x80>
    6f38:	00042783          	lw	a5,0(s0)
    6f3c:	00100713          	li	a4,1
    6f40:	009787b3          	add	a5,a5,s1
    6f44:	04e78823          	sb	a4,80(a5)
    6f48:	08061863          	bnez	a2,6fd8 <ulTaskGenericNotifyTake+0x10c>
    6f4c:	818ff0ef          	jal	ra,5f64 <vTaskExitCritical>
    6f50:	30047073          	csrci	mstatus,8
    6f54:	000a2783          	lw	a5,0(s4)
    6f58:	00078c63          	beqz	a5,6f70 <ulTaskGenericNotifyTake+0xa4>
    6f5c:	00042703          	lw	a4,0(s0)
    6f60:	00042783          	lw	a5,0(s0)
    6f64:	03c72783          	lw	a5,60(a4)
    6f68:	00178793          	addi	a5,a5,1
    6f6c:	02f72e23          	sw	a5,60(a4)
    6f70:	00042783          	lw	a5,0(s0)
    6f74:	00291913          	slli	s2,s2,0x2
    6f78:	012787b3          	add	a5,a5,s2
    6f7c:	00c7aa03          	lw	s4,12(a5)
    6f80:	000a0a63          	beqz	s4,6f94 <ulTaskGenericNotifyTake+0xc8>
    6f84:	00042783          	lw	a5,0(s0)
    6f88:	04098063          	beqz	s3,6fc8 <ulTaskGenericNotifyTake+0xfc>
    6f8c:	01278933          	add	s2,a5,s2
    6f90:	00092623          	sw	zero,12(s2)
    6f94:	00042783          	lw	a5,0(s0)
    6f98:	009784b3          	add	s1,a5,s1
    6f9c:	04048823          	sb	zero,80(s1)
    6fa0:	fc5fe0ef          	jal	ra,5f64 <vTaskExitCritical>
    6fa4:	01c12083          	lw	ra,28(sp)
    6fa8:	01812403          	lw	s0,24(sp)
    6fac:	01412483          	lw	s1,20(sp)
    6fb0:	01012903          	lw	s2,16(sp)
    6fb4:	00c12983          	lw	s3,12(sp)
    6fb8:	000a0513          	mv	a0,s4
    6fbc:	00812a03          	lw	s4,8(sp)
    6fc0:	02010113          	addi	sp,sp,32
    6fc4:	00008067          	ret
    6fc8:	fffa0713          	addi	a4,s4,-1
    6fcc:	01278933          	add	s2,a5,s2
    6fd0:	00e92623          	sw	a4,12(s2)
    6fd4:	fc1ff06f          	j	6f94 <ulTaskGenericNotifyTake+0xc8>
    6fd8:	00100593          	li	a1,1
    6fdc:	00060513          	mv	a0,a2
    6fe0:	c85fd0ef          	jal	ra,4c64 <prvAddCurrentTaskToDelayedList>
    6fe4:	00000073          	ecall
    6fe8:	f65ff06f          	j	6f4c <ulTaskGenericNotifyTake+0x80>

00006fec <xTaskGenericNotifyWait>:
    6fec:	fe010113          	addi	sp,sp,-32
    6ff0:	00812c23          	sw	s0,24(sp)
    6ff4:	01212823          	sw	s2,16(sp)
    6ff8:	01312623          	sw	s3,12(sp)
    6ffc:	00112e23          	sw	ra,28(sp)
    7000:	00912a23          	sw	s1,20(sp)
    7004:	01412423          	sw	s4,8(sp)
    7008:	00050413          	mv	s0,a0
    700c:	00060913          	mv	s2,a2
    7010:	00068993          	mv	s3,a3
    7014:	30047073          	csrci	mstatus,8
    7018:	0001aa17          	auipc	s4,0x1a
    701c:	3f4a0a13          	addi	s4,s4,1012 # 2140c <xSchedulerRunning>
    7020:	000a2783          	lw	a5,0(s4)
    7024:	0001a497          	auipc	s1,0x1a
    7028:	40848493          	addi	s1,s1,1032 # 2142c <pxCurrentTCB>
    702c:	00078c63          	beqz	a5,7044 <xTaskGenericNotifyWait+0x58>
    7030:	0004a683          	lw	a3,0(s1)
    7034:	0004a783          	lw	a5,0(s1)
    7038:	03c6a783          	lw	a5,60(a3)
    703c:	00178793          	addi	a5,a5,1
    7040:	02f6ae23          	sw	a5,60(a3)
    7044:	0004a783          	lw	a5,0(s1)
    7048:	00200693          	li	a3,2
    704c:	008787b3          	add	a5,a5,s0
    7050:	0507c783          	lbu	a5,80(a5)
    7054:	0ff7f793          	zext.b	a5,a5
    7058:	02d78a63          	beq	a5,a3,708c <xTaskGenericNotifyWait+0xa0>
    705c:	0004a683          	lw	a3,0(s1)
    7060:	00241793          	slli	a5,s0,0x2
    7064:	fff5c593          	not	a1,a1
    7068:	00f687b3          	add	a5,a3,a5
    706c:	04c7a683          	lw	a3,76(a5)
    7070:	00d5f5b3          	and	a1,a1,a3
    7074:	04b7a623          	sw	a1,76(a5)
    7078:	0004a783          	lw	a5,0(s1)
    707c:	00100693          	li	a3,1
    7080:	008787b3          	add	a5,a5,s0
    7084:	04d78823          	sb	a3,80(a5)
    7088:	0a071a63          	bnez	a4,713c <xTaskGenericNotifyWait+0x150>
    708c:	ed9fe0ef          	jal	ra,5f64 <vTaskExitCritical>
    7090:	30047073          	csrci	mstatus,8
    7094:	000a2783          	lw	a5,0(s4)
    7098:	00078c63          	beqz	a5,70b0 <xTaskGenericNotifyWait+0xc4>
    709c:	0004a703          	lw	a4,0(s1)
    70a0:	0004a783          	lw	a5,0(s1)
    70a4:	03c72783          	lw	a5,60(a4)
    70a8:	00178793          	addi	a5,a5,1
    70ac:	02f72e23          	sw	a5,60(a4)
    70b0:	00098e63          	beqz	s3,70cc <xTaskGenericNotifyWait+0xe0>
    70b4:	0004a783          	lw	a5,0(s1)
    70b8:	01040713          	addi	a4,s0,16
    70bc:	00271713          	slli	a4,a4,0x2
    70c0:	00e787b3          	add	a5,a5,a4
    70c4:	00c7a783          	lw	a5,12(a5)
    70c8:	00f9a023          	sw	a5,0(s3)
    70cc:	0004a783          	lw	a5,0(s1)
    70d0:	00200713          	li	a4,2
    70d4:	00000993          	li	s3,0
    70d8:	008787b3          	add	a5,a5,s0
    70dc:	0507c783          	lbu	a5,80(a5)
    70e0:	0ff7f793          	zext.b	a5,a5
    70e4:	02e79263          	bne	a5,a4,7108 <xTaskGenericNotifyWait+0x11c>
    70e8:	0004a703          	lw	a4,0(s1)
    70ec:	00241793          	slli	a5,s0,0x2
    70f0:	fff94913          	not	s2,s2
    70f4:	00f707b3          	add	a5,a4,a5
    70f8:	04c7a603          	lw	a2,76(a5)
    70fc:	00100993          	li	s3,1
    7100:	00c97933          	and	s2,s2,a2
    7104:	0527a623          	sw	s2,76(a5)
    7108:	0004a783          	lw	a5,0(s1)
    710c:	00878433          	add	s0,a5,s0
    7110:	04040823          	sb	zero,80(s0)
    7114:	e51fe0ef          	jal	ra,5f64 <vTaskExitCritical>
    7118:	01c12083          	lw	ra,28(sp)
    711c:	01812403          	lw	s0,24(sp)
    7120:	01412483          	lw	s1,20(sp)
    7124:	01012903          	lw	s2,16(sp)
    7128:	00812a03          	lw	s4,8(sp)
    712c:	00098513          	mv	a0,s3
    7130:	00c12983          	lw	s3,12(sp)
    7134:	02010113          	addi	sp,sp,32
    7138:	00008067          	ret
    713c:	00100593          	li	a1,1
    7140:	00070513          	mv	a0,a4
    7144:	b21fd0ef          	jal	ra,4c64 <prvAddCurrentTaskToDelayedList>
    7148:	00000073          	ecall
    714c:	f41ff06f          	j	708c <xTaskGenericNotifyWait+0xa0>

00007150 <xTaskGenericNotify>:
    7150:	ff010113          	addi	sp,sp,-16
    7154:	00112623          	sw	ra,12(sp)
    7158:	00812423          	sw	s0,8(sp)
    715c:	00050793          	mv	a5,a0
    7160:	30047073          	csrci	mstatus,8
    7164:	0001a517          	auipc	a0,0x1a
    7168:	2a852503          	lw	a0,680(a0) # 2140c <xSchedulerRunning>
    716c:	02050063          	beqz	a0,718c <xTaskGenericNotify+0x3c>
    7170:	0001a517          	auipc	a0,0x1a
    7174:	2bc50513          	addi	a0,a0,700 # 2142c <pxCurrentTCB>
    7178:	00052803          	lw	a6,0(a0)
    717c:	00052503          	lw	a0,0(a0)
    7180:	03c82503          	lw	a0,60(a6)
    7184:	00150513          	addi	a0,a0,1
    7188:	02a82e23          	sw	a0,60(a6)
    718c:	00070c63          	beqz	a4,71a4 <xTaskGenericNotify+0x54>
    7190:	01058513          	addi	a0,a1,16
    7194:	00251513          	slli	a0,a0,0x2
    7198:	00a78533          	add	a0,a5,a0
    719c:	00c52503          	lw	a0,12(a0)
    71a0:	00a72023          	sw	a0,0(a4)
    71a4:	00b78533          	add	a0,a5,a1
    71a8:	05054703          	lbu	a4,80(a0)
    71ac:	00200813          	li	a6,2
    71b0:	05050823          	sb	a6,80(a0)
    71b4:	00300513          	li	a0,3
    71b8:	0ff77713          	zext.b	a4,a4
    71bc:	04a68e63          	beq	a3,a0,7218 <xTaskGenericNotify+0xc8>
    71c0:	04d56463          	bltu	a0,a3,7208 <xTaskGenericNotify+0xb8>
    71c4:	00100513          	li	a0,1
    71c8:	10a68e63          	beq	a3,a0,72e4 <xTaskGenericNotify+0x194>
    71cc:	01069c63          	bne	a3,a6,71e4 <xTaskGenericNotify+0x94>
    71d0:	00259593          	slli	a1,a1,0x2
    71d4:	00b785b3          	add	a1,a5,a1
    71d8:	04c5a683          	lw	a3,76(a1)
    71dc:	00168693          	addi	a3,a3,1
    71e0:	04d5a623          	sw	a3,76(a1)
    71e4:	00100693          	li	a3,1
    71e8:	04d70463          	beq	a4,a3,7230 <xTaskGenericNotify+0xe0>
    71ec:	00100413          	li	s0,1
    71f0:	d75fe0ef          	jal	ra,5f64 <vTaskExitCritical>
    71f4:	00c12083          	lw	ra,12(sp)
    71f8:	00040513          	mv	a0,s0
    71fc:	00812403          	lw	s0,8(sp)
    7200:	01010113          	addi	sp,sp,16
    7204:	00008067          	ret
    7208:	00400513          	li	a0,4
    720c:	fca69ce3          	bne	a3,a0,71e4 <xTaskGenericNotify+0x94>
    7210:	00000413          	li	s0,0
    7214:	fd070ee3          	beq	a4,a6,71f0 <xTaskGenericNotify+0xa0>
    7218:	01058593          	addi	a1,a1,16
    721c:	00259593          	slli	a1,a1,0x2
    7220:	00b785b3          	add	a1,a5,a1
    7224:	00c5a623          	sw	a2,12(a1)
    7228:	00100693          	li	a3,1
    722c:	fcd710e3          	bne	a4,a3,71ec <xTaskGenericNotify+0x9c>
    7230:	0147a603          	lw	a2,20(a5)
    7234:	0087a683          	lw	a3,8(a5)
    7238:	00c7a703          	lw	a4,12(a5)
    723c:	00462583          	lw	a1,4(a2)
    7240:	00478813          	addi	a6,a5,4
    7244:	00e6a423          	sw	a4,8(a3)
    7248:	00d72223          	sw	a3,4(a4)
    724c:	0b058c63          	beq	a1,a6,7304 <xTaskGenericNotify+0x1b4>
    7250:	02c7a583          	lw	a1,44(a5)
    7254:	0001a697          	auipc	a3,0x1a
    7258:	32468693          	addi	a3,a3,804 # 21578 <xSuspendedTaskList>
    725c:	00062883          	lw	a7,0(a2)
    7260:	00259713          	slli	a4,a1,0x2
    7264:	00b70733          	add	a4,a4,a1
    7268:	00271713          	slli	a4,a4,0x2
    726c:	00e686b3          	add	a3,a3,a4
    7270:	0186a503          	lw	a0,24(a3)
    7274:	fff88893          	addi	a7,a7,-1
    7278:	01162023          	sw	a7,0(a2)
    727c:	00852603          	lw	a2,8(a0)
    7280:	0001a897          	auipc	a7,0x1a
    7284:	19088893          	addi	a7,a7,400 # 21410 <uxTopReadyPriority>
    7288:	0008ae03          	lw	t3,0(a7)
    728c:	00c7a623          	sw	a2,12(a5)
    7290:	00100613          	li	a2,1
    7294:	00b61633          	sll	a2,a2,a1
    7298:	00852303          	lw	t1,8(a0)
    729c:	01c66633          	or	a2,a2,t3
    72a0:	00c8a023          	sw	a2,0(a7)
    72a4:	0146a603          	lw	a2,20(a3)
    72a8:	00a7a423          	sw	a0,8(a5)
    72ac:	01032223          	sw	a6,4(t1)
    72b0:	01052423          	sw	a6,8(a0)
    72b4:	0001a517          	auipc	a0,0x1a
    72b8:	2d850513          	addi	a0,a0,728 # 2158c <pxReadyTasksLists>
    72bc:	00e50733          	add	a4,a0,a4
    72c0:	00e7aa23          	sw	a4,20(a5)
    72c4:	00160793          	addi	a5,a2,1
    72c8:	00f6aa23          	sw	a5,20(a3)
    72cc:	0001a797          	auipc	a5,0x1a
    72d0:	1607a783          	lw	a5,352(a5) # 2142c <pxCurrentTCB>
    72d4:	02c7a783          	lw	a5,44(a5)
    72d8:	f0b7fae3          	bgeu	a5,a1,71ec <xTaskGenericNotify+0x9c>
    72dc:	00000073          	ecall
    72e0:	f0dff06f          	j	71ec <xTaskGenericNotify+0x9c>
    72e4:	00259593          	slli	a1,a1,0x2
    72e8:	00b785b3          	add	a1,a5,a1
    72ec:	04c5a683          	lw	a3,76(a1)
    72f0:	00c6e633          	or	a2,a3,a2
    72f4:	04c5a623          	sw	a2,76(a1)
    72f8:	00100693          	li	a3,1
    72fc:	eed718e3          	bne	a4,a3,71ec <xTaskGenericNotify+0x9c>
    7300:	f31ff06f          	j	7230 <xTaskGenericNotify+0xe0>
    7304:	00e62223          	sw	a4,4(a2)
    7308:	f49ff06f          	j	7250 <xTaskGenericNotify+0x100>

0000730c <xTaskGenericNotifyFromISR>:
    730c:	00050813          	mv	a6,a0
    7310:	00070c63          	beqz	a4,7328 <xTaskGenericNotifyFromISR+0x1c>
    7314:	01058513          	addi	a0,a1,16
    7318:	00251513          	slli	a0,a0,0x2
    731c:	00a80533          	add	a0,a6,a0
    7320:	00c52503          	lw	a0,12(a0)
    7324:	00a72023          	sw	a0,0(a4)
    7328:	00b80533          	add	a0,a6,a1
    732c:	05054703          	lbu	a4,80(a0)
    7330:	00200893          	li	a7,2
    7334:	05150823          	sb	a7,80(a0)
    7338:	00300513          	li	a0,3
    733c:	0ff77713          	zext.b	a4,a4
    7340:	04a68463          	beq	a3,a0,7388 <xTaskGenericNotifyFromISR+0x7c>
    7344:	02d56a63          	bltu	a0,a3,7378 <xTaskGenericNotifyFromISR+0x6c>
    7348:	00100513          	li	a0,1
    734c:	0ca68a63          	beq	a3,a0,7420 <xTaskGenericNotifyFromISR+0x114>
    7350:	01169c63          	bne	a3,a7,7368 <xTaskGenericNotifyFromISR+0x5c>
    7354:	00259593          	slli	a1,a1,0x2
    7358:	00b805b3          	add	a1,a6,a1
    735c:	04c5a683          	lw	a3,76(a1)
    7360:	00168693          	addi	a3,a3,1
    7364:	04d5a623          	sw	a3,76(a1)
    7368:	00100693          	li	a3,1
    736c:	02d70a63          	beq	a4,a3,73a0 <xTaskGenericNotifyFromISR+0x94>
    7370:	00100513          	li	a0,1
    7374:	00008067          	ret
    7378:	00400513          	li	a0,4
    737c:	fea696e3          	bne	a3,a0,7368 <xTaskGenericNotifyFromISR+0x5c>
    7380:	00000513          	li	a0,0
    7384:	ff1708e3          	beq	a4,a7,7374 <xTaskGenericNotifyFromISR+0x68>
    7388:	01058593          	addi	a1,a1,16
    738c:	00259593          	slli	a1,a1,0x2
    7390:	00b805b3          	add	a1,a6,a1
    7394:	00c5a623          	sw	a2,12(a1)
    7398:	00100693          	li	a3,1
    739c:	fcd71ae3          	bne	a4,a3,7370 <xTaskGenericNotifyFromISR+0x64>
    73a0:	0001a697          	auipc	a3,0x1a
    73a4:	0546a683          	lw	a3,84(a3) # 213f4 <uxSchedulerSuspended>
    73a8:	02c82703          	lw	a4,44(a6)
    73ac:	08068a63          	beqz	a3,7440 <xTaskGenericNotifyFromISR+0x134>
    73b0:	0001a617          	auipc	a2,0x1a
    73b4:	1c860613          	addi	a2,a2,456 # 21578 <xSuspendedTaskList>
    73b8:	16c62683          	lw	a3,364(a2)
    73bc:	16862583          	lw	a1,360(a2)
    73c0:	01880513          	addi	a0,a6,24
    73c4:	0086a883          	lw	a7,8(a3)
    73c8:	00d82e23          	sw	a3,28(a6)
    73cc:	00158593          	addi	a1,a1,1
    73d0:	03182023          	sw	a7,32(a6)
    73d4:	0086a883          	lw	a7,8(a3)
    73d8:	16b62423          	sw	a1,360(a2)
    73dc:	00a8a223          	sw	a0,4(a7)
    73e0:	00a6a423          	sw	a0,8(a3)
    73e4:	0001a697          	auipc	a3,0x1a
    73e8:	2fc68693          	addi	a3,a3,764 # 216e0 <xPendingReadyList>
    73ec:	02d82423          	sw	a3,40(a6)
    73f0:	0001a697          	auipc	a3,0x1a
    73f4:	03c6a683          	lw	a3,60(a3) # 2142c <pxCurrentTCB>
    73f8:	02c6a683          	lw	a3,44(a3)
    73fc:	f6e6fae3          	bgeu	a3,a4,7370 <xTaskGenericNotifyFromISR+0x64>
    7400:	00078663          	beqz	a5,740c <xTaskGenericNotifyFromISR+0x100>
    7404:	00100713          	li	a4,1
    7408:	00e7a023          	sw	a4,0(a5)
    740c:	00100793          	li	a5,1
    7410:	0001a717          	auipc	a4,0x1a
    7414:	fef72a23          	sw	a5,-12(a4) # 21404 <xYieldPending>
    7418:	00100513          	li	a0,1
    741c:	f59ff06f          	j	7374 <xTaskGenericNotifyFromISR+0x68>
    7420:	00259593          	slli	a1,a1,0x2
    7424:	00b805b3          	add	a1,a6,a1
    7428:	04c5a683          	lw	a3,76(a1)
    742c:	00c6e633          	or	a2,a3,a2
    7430:	04c5a623          	sw	a2,76(a1)
    7434:	00100693          	li	a3,1
    7438:	f2d71ce3          	bne	a4,a3,7370 <xTaskGenericNotifyFromISR+0x64>
    743c:	f65ff06f          	j	73a0 <xTaskGenericNotifyFromISR+0x94>
    7440:	01482583          	lw	a1,20(a6)
    7444:	00882603          	lw	a2,8(a6)
    7448:	00c82683          	lw	a3,12(a6)
    744c:	0045a503          	lw	a0,4(a1)
    7450:	00480893          	addi	a7,a6,4
    7454:	00d62423          	sw	a3,8(a2)
    7458:	00c6a223          	sw	a2,4(a3)
    745c:	09150063          	beq	a0,a7,74dc <xTaskGenericNotifyFromISR+0x1d0>
    7460:	00271693          	slli	a3,a4,0x2
    7464:	00e686b3          	add	a3,a3,a4
    7468:	00269693          	slli	a3,a3,0x2
    746c:	0001a617          	auipc	a2,0x1a
    7470:	10c60613          	addi	a2,a2,268 # 21578 <xSuspendedTaskList>
    7474:	0005a303          	lw	t1,0(a1)
    7478:	00d60633          	add	a2,a2,a3
    747c:	01862503          	lw	a0,24(a2)
    7480:	fff30313          	addi	t1,t1,-1
    7484:	0065a023          	sw	t1,0(a1)
    7488:	00852583          	lw	a1,8(a0)
    748c:	0001a317          	auipc	t1,0x1a
    7490:	f8430313          	addi	t1,t1,-124 # 21410 <uxTopReadyPriority>
    7494:	00032e83          	lw	t4,0(t1)
    7498:	00b82623          	sw	a1,12(a6)
    749c:	00100593          	li	a1,1
    74a0:	00852e03          	lw	t3,8(a0)
    74a4:	00e595b3          	sll	a1,a1,a4
    74a8:	01d5e5b3          	or	a1,a1,t4
    74ac:	00a82423          	sw	a0,8(a6)
    74b0:	00b32023          	sw	a1,0(t1)
    74b4:	01462583          	lw	a1,20(a2)
    74b8:	011e2223          	sw	a7,4(t3)
    74bc:	01152423          	sw	a7,8(a0)
    74c0:	0001a517          	auipc	a0,0x1a
    74c4:	0cc50513          	addi	a0,a0,204 # 2158c <pxReadyTasksLists>
    74c8:	00d506b3          	add	a3,a0,a3
    74cc:	00d82a23          	sw	a3,20(a6)
    74d0:	00158693          	addi	a3,a1,1
    74d4:	00d62a23          	sw	a3,20(a2)
    74d8:	f19ff06f          	j	73f0 <xTaskGenericNotifyFromISR+0xe4>
    74dc:	00d5a223          	sw	a3,4(a1)
    74e0:	f81ff06f          	j	7460 <xTaskGenericNotifyFromISR+0x154>

000074e4 <vTaskGenericNotifyGiveFromISR>:
    74e4:	00b50733          	add	a4,a0,a1
    74e8:	00200693          	li	a3,2
    74ec:	00259593          	slli	a1,a1,0x2
    74f0:	05074783          	lbu	a5,80(a4)
    74f4:	00b505b3          	add	a1,a0,a1
    74f8:	04d70823          	sb	a3,80(a4)
    74fc:	04c5a703          	lw	a4,76(a1)
    7500:	0ff7f793          	zext.b	a5,a5
    7504:	00170713          	addi	a4,a4,1
    7508:	04e5a623          	sw	a4,76(a1)
    750c:	00100713          	li	a4,1
    7510:	00e78463          	beq	a5,a4,7518 <vTaskGenericNotifyGiveFromISR+0x34>
    7514:	00008067          	ret
    7518:	0001a717          	auipc	a4,0x1a
    751c:	edc72703          	lw	a4,-292(a4) # 213f4 <uxSchedulerSuspended>
    7520:	02c52783          	lw	a5,44(a0)
    7524:	06070863          	beqz	a4,7594 <vTaskGenericNotifyGiveFromISR+0xb0>
    7528:	0001a697          	auipc	a3,0x1a
    752c:	05068693          	addi	a3,a3,80 # 21578 <xSuspendedTaskList>
    7530:	16c6a703          	lw	a4,364(a3)
    7534:	1686a583          	lw	a1,360(a3)
    7538:	01850813          	addi	a6,a0,24
    753c:	00872883          	lw	a7,8(a4)
    7540:	00e52e23          	sw	a4,28(a0)
    7544:	00158593          	addi	a1,a1,1
    7548:	03152023          	sw	a7,32(a0)
    754c:	00872883          	lw	a7,8(a4)
    7550:	16b6a423          	sw	a1,360(a3)
    7554:	0108a223          	sw	a6,4(a7)
    7558:	01072423          	sw	a6,8(a4)
    755c:	0001a717          	auipc	a4,0x1a
    7560:	18470713          	addi	a4,a4,388 # 216e0 <xPendingReadyList>
    7564:	02e52423          	sw	a4,40(a0)
    7568:	0001a717          	auipc	a4,0x1a
    756c:	ec472703          	lw	a4,-316(a4) # 2142c <pxCurrentTCB>
    7570:	02c72703          	lw	a4,44(a4)
    7574:	faf770e3          	bgeu	a4,a5,7514 <vTaskGenericNotifyGiveFromISR+0x30>
    7578:	00060663          	beqz	a2,7584 <vTaskGenericNotifyGiveFromISR+0xa0>
    757c:	00100793          	li	a5,1
    7580:	00f62023          	sw	a5,0(a2)
    7584:	00100793          	li	a5,1
    7588:	0001a717          	auipc	a4,0x1a
    758c:	e6f72e23          	sw	a5,-388(a4) # 21404 <xYieldPending>
    7590:	00008067          	ret
    7594:	01452583          	lw	a1,20(a0)
    7598:	00852683          	lw	a3,8(a0)
    759c:	00c52703          	lw	a4,12(a0)
    75a0:	0045a803          	lw	a6,4(a1)
    75a4:	00450893          	addi	a7,a0,4
    75a8:	00e6a423          	sw	a4,8(a3)
    75ac:	00d72223          	sw	a3,4(a4)
    75b0:	09180063          	beq	a6,a7,7630 <vTaskGenericNotifyGiveFromISR+0x14c>
    75b4:	00279713          	slli	a4,a5,0x2
    75b8:	00f70733          	add	a4,a4,a5
    75bc:	00271713          	slli	a4,a4,0x2
    75c0:	0001a697          	auipc	a3,0x1a
    75c4:	fb868693          	addi	a3,a3,-72 # 21578 <xSuspendedTaskList>
    75c8:	0005a303          	lw	t1,0(a1)
    75cc:	00e686b3          	add	a3,a3,a4
    75d0:	0186a803          	lw	a6,24(a3)
    75d4:	fff30313          	addi	t1,t1,-1
    75d8:	0065a023          	sw	t1,0(a1)
    75dc:	00882583          	lw	a1,8(a6)
    75e0:	0001a317          	auipc	t1,0x1a
    75e4:	e3030313          	addi	t1,t1,-464 # 21410 <uxTopReadyPriority>
    75e8:	00032e83          	lw	t4,0(t1)
    75ec:	00b52623          	sw	a1,12(a0)
    75f0:	00100593          	li	a1,1
    75f4:	00882e03          	lw	t3,8(a6)
    75f8:	00f595b3          	sll	a1,a1,a5
    75fc:	01d5e5b3          	or	a1,a1,t4
    7600:	01052423          	sw	a6,8(a0)
    7604:	00b32023          	sw	a1,0(t1)
    7608:	0146a583          	lw	a1,20(a3)
    760c:	011e2223          	sw	a7,4(t3)
    7610:	01182423          	sw	a7,8(a6)
    7614:	0001a817          	auipc	a6,0x1a
    7618:	f7880813          	addi	a6,a6,-136 # 2158c <pxReadyTasksLists>
    761c:	00e80733          	add	a4,a6,a4
    7620:	00e52a23          	sw	a4,20(a0)
    7624:	00158713          	addi	a4,a1,1
    7628:	00e6aa23          	sw	a4,20(a3)
    762c:	f3dff06f          	j	7568 <vTaskGenericNotifyGiveFromISR+0x84>
    7630:	00e5a223          	sw	a4,4(a1)
    7634:	f81ff06f          	j	75b4 <vTaskGenericNotifyGiveFromISR+0xd0>

00007638 <xTaskGenericNotifyStateClear>:
    7638:	08050a63          	beqz	a0,76cc <xTaskGenericNotifyStateClear+0x94>
    763c:	30047073          	csrci	mstatus,8
    7640:	0001a717          	auipc	a4,0x1a
    7644:	dcc70713          	addi	a4,a4,-564 # 2140c <xSchedulerRunning>
    7648:	00072783          	lw	a5,0(a4)
    764c:	02078063          	beqz	a5,766c <xTaskGenericNotifyStateClear+0x34>
    7650:	0001a797          	auipc	a5,0x1a
    7654:	ddc78793          	addi	a5,a5,-548 # 2142c <pxCurrentTCB>
    7658:	0007a683          	lw	a3,0(a5)
    765c:	0007a783          	lw	a5,0(a5)
    7660:	03c6a783          	lw	a5,60(a3)
    7664:	00178793          	addi	a5,a5,1
    7668:	02f6ae23          	sw	a5,60(a3)
    766c:	00b505b3          	add	a1,a0,a1
    7670:	0505c783          	lbu	a5,80(a1)
    7674:	00200693          	li	a3,2
    7678:	00000513          	li	a0,0
    767c:	0ff7f793          	zext.b	a5,a5
    7680:	00d79663          	bne	a5,a3,768c <xTaskGenericNotifyStateClear+0x54>
    7684:	04058823          	sb	zero,80(a1)
    7688:	00100513          	li	a0,1
    768c:	00072783          	lw	a5,0(a4)
    7690:	02078c63          	beqz	a5,76c8 <xTaskGenericNotifyStateClear+0x90>
    7694:	0001a797          	auipc	a5,0x1a
    7698:	d9878793          	addi	a5,a5,-616 # 2142c <pxCurrentTCB>
    769c:	0007a703          	lw	a4,0(a5)
    76a0:	03c72703          	lw	a4,60(a4)
    76a4:	02070263          	beqz	a4,76c8 <xTaskGenericNotifyStateClear+0x90>
    76a8:	0007a703          	lw	a4,0(a5)
    76ac:	0007a683          	lw	a3,0(a5)
    76b0:	03c72783          	lw	a5,60(a4)
    76b4:	fff78793          	addi	a5,a5,-1
    76b8:	02f72e23          	sw	a5,60(a4)
    76bc:	03c6a783          	lw	a5,60(a3)
    76c0:	00079463          	bnez	a5,76c8 <xTaskGenericNotifyStateClear+0x90>
    76c4:	30046073          	csrsi	mstatus,8
    76c8:	00008067          	ret
    76cc:	0001a517          	auipc	a0,0x1a
    76d0:	d6052503          	lw	a0,-672(a0) # 2142c <pxCurrentTCB>
    76d4:	f69ff06f          	j	763c <xTaskGenericNotifyStateClear+0x4>

000076d8 <ulTaskGenericNotifyValueClear>:
    76d8:	08050863          	beqz	a0,7768 <ulTaskGenericNotifyValueClear+0x90>
    76dc:	30047073          	csrci	mstatus,8
    76e0:	0001a797          	auipc	a5,0x1a
    76e4:	d2c78793          	addi	a5,a5,-724 # 2140c <xSchedulerRunning>
    76e8:	0007a703          	lw	a4,0(a5)
    76ec:	02070063          	beqz	a4,770c <ulTaskGenericNotifyValueClear+0x34>
    76f0:	0001a717          	auipc	a4,0x1a
    76f4:	d3c70713          	addi	a4,a4,-708 # 2142c <pxCurrentTCB>
    76f8:	00072683          	lw	a3,0(a4)
    76fc:	00072703          	lw	a4,0(a4)
    7700:	03c6a703          	lw	a4,60(a3)
    7704:	00170713          	addi	a4,a4,1
    7708:	02e6ae23          	sw	a4,60(a3)
    770c:	00259593          	slli	a1,a1,0x2
    7710:	00b505b3          	add	a1,a0,a1
    7714:	04c5a503          	lw	a0,76(a1)
    7718:	04c5a703          	lw	a4,76(a1)
    771c:	fff64613          	not	a2,a2
    7720:	00e67633          	and	a2,a2,a4
    7724:	04c5a623          	sw	a2,76(a1)
    7728:	0007a783          	lw	a5,0(a5)
    772c:	02078c63          	beqz	a5,7764 <ulTaskGenericNotifyValueClear+0x8c>
    7730:	0001a797          	auipc	a5,0x1a
    7734:	cfc78793          	addi	a5,a5,-772 # 2142c <pxCurrentTCB>
    7738:	0007a703          	lw	a4,0(a5)
    773c:	03c72703          	lw	a4,60(a4)
    7740:	02070263          	beqz	a4,7764 <ulTaskGenericNotifyValueClear+0x8c>
    7744:	0007a703          	lw	a4,0(a5)
    7748:	0007a683          	lw	a3,0(a5)
    774c:	03c72783          	lw	a5,60(a4)
    7750:	fff78793          	addi	a5,a5,-1
    7754:	02f72e23          	sw	a5,60(a4)
    7758:	03c6a783          	lw	a5,60(a3)
    775c:	00079463          	bnez	a5,7764 <ulTaskGenericNotifyValueClear+0x8c>
    7760:	30046073          	csrsi	mstatus,8
    7764:	00008067          	ret
    7768:	0001a517          	auipc	a0,0x1a
    776c:	cc452503          	lw	a0,-828(a0) # 2142c <pxCurrentTCB>
    7770:	f6dff06f          	j	76dc <ulTaskGenericNotifyValueClear+0x4>

00007774 <xEventGroupCreateStatic>:
    7774:	ff010113          	addi	sp,sp,-16
    7778:	00812423          	sw	s0,8(sp)
    777c:	00112623          	sw	ra,12(sp)
    7780:	00050413          	mv	s0,a0
    7784:	00050c63          	beqz	a0,779c <xEventGroupCreateStatic+0x28>
    7788:	00052023          	sw	zero,0(a0)
    778c:	00450513          	addi	a0,a0,4
    7790:	6e5000ef          	jal	ra,8674 <vListInitialise>
    7794:	00100793          	li	a5,1
    7798:	00f40c23          	sb	a5,24(s0)
    779c:	00c12083          	lw	ra,12(sp)
    77a0:	00040513          	mv	a0,s0
    77a4:	00812403          	lw	s0,8(sp)
    77a8:	01010113          	addi	sp,sp,16
    77ac:	00008067          	ret

000077b0 <xEventGroupCreate>:
    77b0:	ff010113          	addi	sp,sp,-16
    77b4:	01c00513          	li	a0,28
    77b8:	00812423          	sw	s0,8(sp)
    77bc:	00112623          	sw	ra,12(sp)
    77c0:	428000ef          	jal	ra,7be8 <pvPortMalloc>
    77c4:	00050413          	mv	s0,a0
    77c8:	00050a63          	beqz	a0,77dc <xEventGroupCreate+0x2c>
    77cc:	00052023          	sw	zero,0(a0)
    77d0:	00450513          	addi	a0,a0,4
    77d4:	6a1000ef          	jal	ra,8674 <vListInitialise>
    77d8:	00040c23          	sb	zero,24(s0)
    77dc:	00c12083          	lw	ra,12(sp)
    77e0:	00040513          	mv	a0,s0
    77e4:	00812403          	lw	s0,8(sp)
    77e8:	01010113          	addi	sp,sp,16
    77ec:	00008067          	ret

000077f0 <xEventGroupWaitBits>:
    77f0:	fe010113          	addi	sp,sp,-32
    77f4:	01312623          	sw	s3,12(sp)
    77f8:	00050993          	mv	s3,a0
    77fc:	00812c23          	sw	s0,24(sp)
    7800:	00912a23          	sw	s1,20(sp)
    7804:	01212823          	sw	s2,16(sp)
    7808:	01412423          	sw	s4,8(sp)
    780c:	01512223          	sw	s5,4(sp)
    7810:	00058493          	mv	s1,a1
    7814:	00112e23          	sw	ra,28(sp)
    7818:	00068a13          	mv	s4,a3
    781c:	00060a93          	mv	s5,a2
    7820:	00070913          	mv	s2,a4
    7824:	d0dfd0ef          	jal	ra,5530 <vTaskSuspendAll>
    7828:	0009a403          	lw	s0,0(s3)
    782c:	009477b3          	and	a5,s0,s1
    7830:	020a1063          	bnez	s4,7850 <xEventGroupWaitBits+0x60>
    7834:	02078063          	beqz	a5,7854 <xEventGroupWaitBits+0x64>
    7838:	020a8063          	beqz	s5,7858 <xEventGroupWaitBits+0x68>
    783c:	fff4c493          	not	s1,s1
    7840:	0084f4b3          	and	s1,s1,s0
    7844:	0099a023          	sw	s1,0(s3)
    7848:	a14ff0ef          	jal	ra,6a5c <xTaskResumeAll>
    784c:	0100006f          	j	785c <xEventGroupWaitBits+0x6c>
    7850:	fef484e3          	beq	s1,a5,7838 <xEventGroupWaitBits+0x48>
    7854:	02091863          	bnez	s2,7884 <xEventGroupWaitBits+0x94>
    7858:	a04ff0ef          	jal	ra,6a5c <xTaskResumeAll>
    785c:	01c12083          	lw	ra,28(sp)
    7860:	00040513          	mv	a0,s0
    7864:	01812403          	lw	s0,24(sp)
    7868:	01412483          	lw	s1,20(sp)
    786c:	01012903          	lw	s2,16(sp)
    7870:	00c12983          	lw	s3,12(sp)
    7874:	00812a03          	lw	s4,8(sp)
    7878:	00412a83          	lw	s5,4(sp)
    787c:	02010113          	addi	sp,sp,32
    7880:	00008067          	ret
    7884:	015035b3          	snez	a1,s5
    7888:	01859593          	slli	a1,a1,0x18
    788c:	040a1063          	bnez	s4,78cc <xEventGroupWaitBits+0xdc>
    7890:	00090613          	mv	a2,s2
    7894:	0095e5b3          	or	a1,a1,s1
    7898:	00498513          	addi	a0,s3,4
    789c:	ed9fd0ef          	jal	ra,5774 <vTaskPlaceOnUnorderedEventList>
    78a0:	9bcff0ef          	jal	ra,6a5c <xTaskResumeAll>
    78a4:	00051463          	bnez	a0,78ac <xEventGroupWaitBits+0xbc>
    78a8:	00000073          	ecall
    78ac:	dccff0ef          	jal	ra,6e78 <uxTaskResetEventItemValue>
    78b0:	020007b7          	lui	a5,0x2000
    78b4:	00f577b3          	and	a5,a0,a5
    78b8:	00050413          	mv	s0,a0
    78bc:	00078e63          	beqz	a5,78d8 <xEventGroupWaitBits+0xe8>
    78c0:	00841413          	slli	s0,s0,0x8
    78c4:	00845413          	srli	s0,s0,0x8
    78c8:	f95ff06f          	j	785c <xEventGroupWaitBits+0x6c>
    78cc:	040007b7          	lui	a5,0x4000
    78d0:	00f5e5b3          	or	a1,a1,a5
    78d4:	fbdff06f          	j	7890 <xEventGroupWaitBits+0xa0>
    78d8:	e5cfe0ef          	jal	ra,5f34 <vTaskEnterCritical>
    78dc:	0009a403          	lw	s0,0(s3)
    78e0:	0084f7b3          	and	a5,s1,s0
    78e4:	020a1063          	bnez	s4,7904 <xEventGroupWaitBits+0x114>
    78e8:	00078a63          	beqz	a5,78fc <xEventGroupWaitBits+0x10c>
    78ec:	000a8863          	beqz	s5,78fc <xEventGroupWaitBits+0x10c>
    78f0:	fff4c493          	not	s1,s1
    78f4:	0084f4b3          	and	s1,s1,s0
    78f8:	0099a023          	sw	s1,0(s3)
    78fc:	e68fe0ef          	jal	ra,5f64 <vTaskExitCritical>
    7900:	fc1ff06f          	j	78c0 <xEventGroupWaitBits+0xd0>
    7904:	fef49ce3          	bne	s1,a5,78fc <xEventGroupWaitBits+0x10c>
    7908:	fe5ff06f          	j	78ec <xEventGroupWaitBits+0xfc>

0000790c <xEventGroupClearBits>:
    790c:	ff010113          	addi	sp,sp,-16
    7910:	00912223          	sw	s1,4(sp)
    7914:	00050493          	mv	s1,a0
    7918:	00112623          	sw	ra,12(sp)
    791c:	00812423          	sw	s0,8(sp)
    7920:	01212023          	sw	s2,0(sp)
    7924:	00058413          	mv	s0,a1
    7928:	e0cfe0ef          	jal	ra,5f34 <vTaskEnterCritical>
    792c:	0004a903          	lw	s2,0(s1)
    7930:	fff44413          	not	s0,s0
    7934:	01247433          	and	s0,s0,s2
    7938:	0084a023          	sw	s0,0(s1)
    793c:	e28fe0ef          	jal	ra,5f64 <vTaskExitCritical>
    7940:	00c12083          	lw	ra,12(sp)
    7944:	00812403          	lw	s0,8(sp)
    7948:	00412483          	lw	s1,4(sp)
    794c:	00090513          	mv	a0,s2
    7950:	00012903          	lw	s2,0(sp)
    7954:	01010113          	addi	sp,sp,16
    7958:	00008067          	ret

0000795c <xEventGroupGetBitsFromISR>:
    795c:	00052503          	lw	a0,0(a0)
    7960:	00008067          	ret

00007964 <xEventGroupSetBits>:
    7964:	fd010113          	addi	sp,sp,-48
    7968:	02812423          	sw	s0,40(sp)
    796c:	02912223          	sw	s1,36(sp)
    7970:	03212023          	sw	s2,32(sp)
    7974:	01312e23          	sw	s3,28(sp)
    7978:	00050913          	mv	s2,a0
    797c:	00058493          	mv	s1,a1
    7980:	02112623          	sw	ra,44(sp)
    7984:	01412c23          	sw	s4,24(sp)
    7988:	01512a23          	sw	s5,20(sp)
    798c:	01612823          	sw	s6,16(sp)
    7990:	01712623          	sw	s7,12(sp)
    7994:	b9dfd0ef          	jal	ra,5530 <vTaskSuspendAll>
    7998:	00092703          	lw	a4,0(s2)
    799c:	01092403          	lw	s0,16(s2)
    79a0:	00c90993          	addi	s3,s2,12
    79a4:	00e4e733          	or	a4,s1,a4
    79a8:	00e92023          	sw	a4,0(s2)
    79ac:	04898e63          	beq	s3,s0,7a08 <xEventGroupSetBits+0xa4>
    79b0:	010004b7          	lui	s1,0x1000
    79b4:	00000a13          	li	s4,0
    79b8:	fff48b93          	addi	s7,s1,-1 # ffffff <_stack+0xfbffff>
    79bc:	04000b37          	lui	s6,0x4000
    79c0:	02000ab7          	lui	s5,0x2000
    79c4:	00042783          	lw	a5,0(s0)
    79c8:	00040513          	mv	a0,s0
    79cc:	015765b3          	or	a1,a4,s5
    79d0:	0177f6b3          	and	a3,a5,s7
    79d4:	0167f833          	and	a6,a5,s6
    79d8:	00442403          	lw	s0,4(s0)
    79dc:	0097f7b3          	and	a5,a5,s1
    79e0:	00e6f633          	and	a2,a3,a4
    79e4:	04081e63          	bnez	a6,7a40 <xEventGroupSetBits+0xdc>
    79e8:	00060a63          	beqz	a2,79fc <xEventGroupSetBits+0x98>
    79ec:	00078463          	beqz	a5,79f4 <xEventGroupSetBits+0x90>
    79f0:	00da6a33          	or	s4,s4,a3
    79f4:	f4dfd0ef          	jal	ra,5940 <vTaskRemoveFromUnorderedEventList>
    79f8:	00092703          	lw	a4,0(s2)
    79fc:	fc8994e3          	bne	s3,s0,79c4 <xEventGroupSetBits+0x60>
    7a00:	fffa4a13          	not	s4,s4
    7a04:	01477733          	and	a4,a4,s4
    7a08:	00e92023          	sw	a4,0(s2)
    7a0c:	850ff0ef          	jal	ra,6a5c <xTaskResumeAll>
    7a10:	02c12083          	lw	ra,44(sp)
    7a14:	02812403          	lw	s0,40(sp)
    7a18:	00092503          	lw	a0,0(s2)
    7a1c:	02412483          	lw	s1,36(sp)
    7a20:	02012903          	lw	s2,32(sp)
    7a24:	01c12983          	lw	s3,28(sp)
    7a28:	01812a03          	lw	s4,24(sp)
    7a2c:	01412a83          	lw	s5,20(sp)
    7a30:	01012b03          	lw	s6,16(sp)
    7a34:	00c12b83          	lw	s7,12(sp)
    7a38:	03010113          	addi	sp,sp,48
    7a3c:	00008067          	ret
    7a40:	fac686e3          	beq	a3,a2,79ec <xEventGroupSetBits+0x88>
    7a44:	f88990e3          	bne	s3,s0,79c4 <xEventGroupSetBits+0x60>
    7a48:	fb9ff06f          	j	7a00 <xEventGroupSetBits+0x9c>

00007a4c <xEventGroupSync>:
    7a4c:	fe010113          	addi	sp,sp,-32
    7a50:	00912a23          	sw	s1,20(sp)
    7a54:	00050493          	mv	s1,a0
    7a58:	00112e23          	sw	ra,28(sp)
    7a5c:	00812c23          	sw	s0,24(sp)
    7a60:	01212823          	sw	s2,16(sp)
    7a64:	01312623          	sw	s3,12(sp)
    7a68:	00060913          	mv	s2,a2
    7a6c:	01412423          	sw	s4,8(sp)
    7a70:	00068993          	mv	s3,a3
    7a74:	00058a13          	mv	s4,a1
    7a78:	ab9fd0ef          	jal	ra,5530 <vTaskSuspendAll>
    7a7c:	0004a403          	lw	s0,0(s1)
    7a80:	000a0593          	mv	a1,s4
    7a84:	00048513          	mv	a0,s1
    7a88:	01446433          	or	s0,s0,s4
    7a8c:	ed9ff0ef          	jal	ra,7964 <xEventGroupSetBits>
    7a90:	012477b3          	and	a5,s0,s2
    7a94:	07278a63          	beq	a5,s2,7b08 <xEventGroupSync+0xbc>
    7a98:	00099863          	bnez	s3,7aa8 <xEventGroupSync+0x5c>
    7a9c:	0004a403          	lw	s0,0(s1)
    7aa0:	fbdfe0ef          	jal	ra,6a5c <xTaskResumeAll>
    7aa4:	0400006f          	j	7ae4 <xEventGroupSync+0x98>
    7aa8:	050005b7          	lui	a1,0x5000
    7aac:	00098613          	mv	a2,s3
    7ab0:	00b965b3          	or	a1,s2,a1
    7ab4:	00448513          	addi	a0,s1,4
    7ab8:	cbdfd0ef          	jal	ra,5774 <vTaskPlaceOnUnorderedEventList>
    7abc:	fa1fe0ef          	jal	ra,6a5c <xTaskResumeAll>
    7ac0:	00051463          	bnez	a0,7ac8 <xEventGroupSync+0x7c>
    7ac4:	00000073          	ecall
    7ac8:	bb0ff0ef          	jal	ra,6e78 <uxTaskResetEventItemValue>
    7acc:	020007b7          	lui	a5,0x2000
    7ad0:	00f577b3          	and	a5,a0,a5
    7ad4:	00050413          	mv	s0,a0
    7ad8:	04078463          	beqz	a5,7b20 <xEventGroupSync+0xd4>
    7adc:	00841413          	slli	s0,s0,0x8
    7ae0:	00845413          	srli	s0,s0,0x8
    7ae4:	01c12083          	lw	ra,28(sp)
    7ae8:	00040513          	mv	a0,s0
    7aec:	01812403          	lw	s0,24(sp)
    7af0:	01412483          	lw	s1,20(sp)
    7af4:	01012903          	lw	s2,16(sp)
    7af8:	00c12983          	lw	s3,12(sp)
    7afc:	00812a03          	lw	s4,8(sp)
    7b00:	02010113          	addi	sp,sp,32
    7b04:	00008067          	ret
    7b08:	0004a703          	lw	a4,0(s1)
    7b0c:	fff7c793          	not	a5,a5
    7b10:	00f777b3          	and	a5,a4,a5
    7b14:	00f4a023          	sw	a5,0(s1)
    7b18:	f45fe0ef          	jal	ra,6a5c <xTaskResumeAll>
    7b1c:	fc9ff06f          	j	7ae4 <xEventGroupSync+0x98>
    7b20:	c14fe0ef          	jal	ra,5f34 <vTaskEnterCritical>
    7b24:	0004a403          	lw	s0,0(s1)
    7b28:	008977b3          	and	a5,s2,s0
    7b2c:	01279863          	bne	a5,s2,7b3c <xEventGroupSync+0xf0>
    7b30:	fff94913          	not	s2,s2
    7b34:	00897933          	and	s2,s2,s0
    7b38:	0124a023          	sw	s2,0(s1)
    7b3c:	c28fe0ef          	jal	ra,5f64 <vTaskExitCritical>
    7b40:	f9dff06f          	j	7adc <xEventGroupSync+0x90>

00007b44 <vEventGroupDelete>:
    7b44:	ff010113          	addi	sp,sp,-16
    7b48:	00812423          	sw	s0,8(sp)
    7b4c:	00112623          	sw	ra,12(sp)
    7b50:	00050413          	mv	s0,a0
    7b54:	9ddfd0ef          	jal	ra,5530 <vTaskSuspendAll>
    7b58:	00442783          	lw	a5,4(s0)
    7b5c:	00078c63          	beqz	a5,7b74 <vEventGroupDelete+0x30>
    7b60:	01042503          	lw	a0,16(s0)
    7b64:	020005b7          	lui	a1,0x2000
    7b68:	dd9fd0ef          	jal	ra,5940 <vTaskRemoveFromUnorderedEventList>
    7b6c:	00442783          	lw	a5,4(s0)
    7b70:	fe0798e3          	bnez	a5,7b60 <vEventGroupDelete+0x1c>
    7b74:	01844783          	lbu	a5,24(s0)
    7b78:	00078a63          	beqz	a5,7b8c <vEventGroupDelete+0x48>
    7b7c:	00812403          	lw	s0,8(sp)
    7b80:	00c12083          	lw	ra,12(sp)
    7b84:	01010113          	addi	sp,sp,16
    7b88:	ed5fe06f          	j	6a5c <xTaskResumeAll>
    7b8c:	00040513          	mv	a0,s0
    7b90:	09c000ef          	jal	ra,7c2c <vPortFree>
    7b94:	00812403          	lw	s0,8(sp)
    7b98:	00c12083          	lw	ra,12(sp)
    7b9c:	01010113          	addi	sp,sp,16
    7ba0:	ebdfe06f          	j	6a5c <xTaskResumeAll>

00007ba4 <vEventGroupSetBitsCallback>:
    7ba4:	dc1ff06f          	j	7964 <xEventGroupSetBits>

00007ba8 <vEventGroupClearBitsCallback>:
    7ba8:	ff010113          	addi	sp,sp,-16
    7bac:	00812423          	sw	s0,8(sp)
    7bb0:	00912223          	sw	s1,4(sp)
    7bb4:	00112623          	sw	ra,12(sp)
    7bb8:	00050493          	mv	s1,a0
    7bbc:	00058413          	mv	s0,a1
    7bc0:	b74fe0ef          	jal	ra,5f34 <vTaskEnterCritical>
    7bc4:	0004a783          	lw	a5,0(s1)
    7bc8:	fff44593          	not	a1,s0
    7bcc:	00812403          	lw	s0,8(sp)
    7bd0:	00b7f5b3          	and	a1,a5,a1
    7bd4:	00c12083          	lw	ra,12(sp)
    7bd8:	00b4a023          	sw	a1,0(s1)
    7bdc:	00412483          	lw	s1,4(sp)
    7be0:	01010113          	addi	sp,sp,16
    7be4:	b80fe06f          	j	5f64 <vTaskExitCritical>

00007be8 <pvPortMalloc>:
    7be8:	ff010113          	addi	sp,sp,-16
    7bec:	00112623          	sw	ra,12(sp)
    7bf0:	00812423          	sw	s0,8(sp)
    7bf4:	00050413          	mv	s0,a0
    7bf8:	939fd0ef          	jal	ra,5530 <vTaskSuspendAll>
    7bfc:	00040513          	mv	a0,s0
    7c00:	36d000ef          	jal	ra,876c <malloc>
    7c04:	00050413          	mv	s0,a0
    7c08:	e55fe0ef          	jal	ra,6a5c <xTaskResumeAll>
    7c0c:	00040c63          	beqz	s0,7c24 <pvPortMalloc+0x3c>
    7c10:	00c12083          	lw	ra,12(sp)
    7c14:	00040513          	mv	a0,s0
    7c18:	00812403          	lw	s0,8(sp)
    7c1c:	01010113          	addi	sp,sp,16
    7c20:	00008067          	ret
    7c24:	e2cf90ef          	jal	ra,1250 <vApplicationMallocFailedHook>
    7c28:	fe9ff06f          	j	7c10 <pvPortMalloc+0x28>

00007c2c <vPortFree>:
    7c2c:	02050863          	beqz	a0,7c5c <vPortFree+0x30>
    7c30:	ff010113          	addi	sp,sp,-16
    7c34:	00112623          	sw	ra,12(sp)
    7c38:	00812423          	sw	s0,8(sp)
    7c3c:	00050413          	mv	s0,a0
    7c40:	8f1fd0ef          	jal	ra,5530 <vTaskSuspendAll>
    7c44:	00040513          	mv	a0,s0
    7c48:	335000ef          	jal	ra,877c <free>
    7c4c:	00812403          	lw	s0,8(sp)
    7c50:	00c12083          	lw	ra,12(sp)
    7c54:	01010113          	addi	sp,sp,16
    7c58:	e05fe06f          	j	6a5c <xTaskResumeAll>
    7c5c:	00008067          	ret
	...

00007d00 <freertos_risc_v_trap_handler>:
    7d00:	f8810113          	addi	sp,sp,-120
    7d04:	00112223          	sw	ra,4(sp)
    7d08:	00512423          	sw	t0,8(sp)
    7d0c:	00612623          	sw	t1,12(sp)
    7d10:	00712823          	sw	t2,16(sp)
    7d14:	00812a23          	sw	s0,20(sp)
    7d18:	00912c23          	sw	s1,24(sp)
    7d1c:	00a12e23          	sw	a0,28(sp)
    7d20:	02b12023          	sw	a1,32(sp)
    7d24:	02c12223          	sw	a2,36(sp)
    7d28:	02d12423          	sw	a3,40(sp)
    7d2c:	02e12623          	sw	a4,44(sp)
    7d30:	02f12823          	sw	a5,48(sp)
    7d34:	03012a23          	sw	a6,52(sp)
    7d38:	03112c23          	sw	a7,56(sp)
    7d3c:	03212e23          	sw	s2,60(sp)
    7d40:	05312023          	sw	s3,64(sp)
    7d44:	05412223          	sw	s4,68(sp)
    7d48:	05512423          	sw	s5,72(sp)
    7d4c:	05612623          	sw	s6,76(sp)
    7d50:	05712823          	sw	s7,80(sp)
    7d54:	05812a23          	sw	s8,84(sp)
    7d58:	05912c23          	sw	s9,88(sp)
    7d5c:	05a12e23          	sw	s10,92(sp)
    7d60:	07b12023          	sw	s11,96(sp)
    7d64:	07c12223          	sw	t3,100(sp)
    7d68:	07d12423          	sw	t4,104(sp)
    7d6c:	07e12623          	sw	t5,108(sp)
    7d70:	07f12823          	sw	t6,112(sp)
    7d74:	300022f3          	csrr	t0,mstatus
    7d78:	06512a23          	sw	t0,116(sp)
    7d7c:	00019297          	auipc	t0,0x19
    7d80:	6b02a283          	lw	t0,1712(t0) # 2142c <pxCurrentTCB>
    7d84:	0022a023          	sw	sp,0(t0)
    7d88:	34202573          	csrr	a0,mcause
    7d8c:	341025f3          	csrr	a1,mepc

00007d90 <test_if_asynchronous>:
    7d90:	01f55613          	srli	a2,a0,0x1f
    7d94:	08060663          	beqz	a2,7e20 <handle_synchronous>
    7d98:	00b12023          	sw	a1,0(sp)

00007d9c <handle_asynchronous>:
    7d9c:	00100293          	li	t0,1
    7da0:	01f29293          	slli	t0,t0,0x1f
    7da4:	00728313          	addi	t1,t0,7
    7da8:	06651063          	bne	a0,t1,7e08 <test_if_external_interrupt>
    7dac:	00019297          	auipc	t0,0x19
    7db0:	6842a283          	lw	t0,1668(t0) # 21430 <pullMachineTimerCompareRegister>
    7db4:	00018317          	auipc	t1,0x18
    7db8:	30832303          	lw	t1,776(t1) # 200bc <pullNextTime>
    7dbc:	fff00e93          	li	t4,-1
    7dc0:	00032383          	lw	t2,0(t1)
    7dc4:	00432e03          	lw	t3,4(t1)
    7dc8:	01d2a023          	sw	t4,0(t0)
    7dcc:	01c2a223          	sw	t3,4(t0)
    7dd0:	0072a023          	sw	t2,0(t0)
    7dd4:	00018297          	auipc	t0,0x18
    7dd8:	2d82a283          	lw	t0,728(t0) # 200ac <uxTimerIncrementsForOneTick>
    7ddc:	00728eb3          	add	t4,t0,t2
    7de0:	007ebf33          	sltu	t5,t4,t2
    7de4:	01ee0fb3          	add	t6,t3,t5
    7de8:	01d32023          	sw	t4,0(t1)
    7dec:	01f32223          	sw	t6,4(t1)
    7df0:	00018117          	auipc	sp,0x18
    7df4:	2c012103          	lw	sp,704(sp) # 200b0 <xISRStackTop>
    7df8:	f90fd0ef          	jal	ra,5588 <xTaskIncrementTick>
    7dfc:	04050e63          	beqz	a0,7e58 <processed_source>
    7e00:	91dfd0ef          	jal	ra,571c <vTaskSwitchContext>
    7e04:	0540006f          	j	7e58 <processed_source>

00007e08 <test_if_external_interrupt>:
    7e08:	00430313          	addi	t1,t1,4
    7e0c:	04651263          	bne	a0,t1,7e50 <as_yet_unhandled>
    7e10:	00018117          	auipc	sp,0x18
    7e14:	2a012103          	lw	sp,672(sp) # 200b0 <xISRStackTop>
    7e18:	9e8f80ef          	jal	ra,0 <_start>
    7e1c:	03c0006f          	j	7e58 <processed_source>

00007e20 <handle_synchronous>:
    7e20:	00458593          	addi	a1,a1,4 # 2000004 <_stack+0x1fc0004>
    7e24:	00b12023          	sw	a1,0(sp)

00007e28 <test_if_environment_call>:
    7e28:	00b00293          	li	t0,11
    7e2c:	00551a63          	bne	a0,t0,7e40 <is_exception>
    7e30:	00018117          	auipc	sp,0x18
    7e34:	28012103          	lw	sp,640(sp) # 200b0 <xISRStackTop>
    7e38:	8e5fd0ef          	jal	ra,571c <vTaskSwitchContext>
    7e3c:	01c0006f          	j	7e58 <processed_source>

00007e40 <is_exception>:
    7e40:	342022f3          	csrr	t0,mcause
    7e44:	34102373          	csrr	t1,mepc
    7e48:	300023f3          	csrr	t2,mstatus
    7e4c:	ff5ff06f          	j	7e40 <is_exception>

00007e50 <as_yet_unhandled>:
    7e50:	342022f3          	csrr	t0,mcause
    7e54:	ffdff06f          	j	7e50 <as_yet_unhandled>

00007e58 <processed_source>:
    7e58:	00019317          	auipc	t1,0x19
    7e5c:	5d432303          	lw	t1,1492(t1) # 2142c <pxCurrentTCB>
    7e60:	00032103          	lw	sp,0(t1)
    7e64:	00012283          	lw	t0,0(sp)
    7e68:	34129073          	csrw	mepc,t0
    7e6c:	07412283          	lw	t0,116(sp)
    7e70:	30029073          	csrw	mstatus,t0
    7e74:	00412083          	lw	ra,4(sp)
    7e78:	00812283          	lw	t0,8(sp)
    7e7c:	00c12303          	lw	t1,12(sp)
    7e80:	01012383          	lw	t2,16(sp)
    7e84:	01412403          	lw	s0,20(sp)
    7e88:	01812483          	lw	s1,24(sp)
    7e8c:	01c12503          	lw	a0,28(sp)
    7e90:	02012583          	lw	a1,32(sp)
    7e94:	02412603          	lw	a2,36(sp)
    7e98:	02812683          	lw	a3,40(sp)
    7e9c:	02c12703          	lw	a4,44(sp)
    7ea0:	03012783          	lw	a5,48(sp)
    7ea4:	03412803          	lw	a6,52(sp)
    7ea8:	03812883          	lw	a7,56(sp)
    7eac:	03c12903          	lw	s2,60(sp)
    7eb0:	04012983          	lw	s3,64(sp)
    7eb4:	04412a03          	lw	s4,68(sp)
    7eb8:	04812a83          	lw	s5,72(sp)
    7ebc:	04c12b03          	lw	s6,76(sp)
    7ec0:	05012b83          	lw	s7,80(sp)
    7ec4:	05412c03          	lw	s8,84(sp)
    7ec8:	05812c83          	lw	s9,88(sp)
    7ecc:	05c12d03          	lw	s10,92(sp)
    7ed0:	06012d83          	lw	s11,96(sp)
    7ed4:	06412e03          	lw	t3,100(sp)
    7ed8:	06812e83          	lw	t4,104(sp)
    7edc:	06c12f03          	lw	t5,108(sp)
    7ee0:	07012f83          	lw	t6,112(sp)
    7ee4:	07810113          	addi	sp,sp,120
    7ee8:	30200073          	mret
    7eec:	00000013          	nop
    7ef0:	00000013          	nop
    7ef4:	00000013          	nop
    7ef8:	00000013          	nop
    7efc:	00000013          	nop

00007f00 <xPortStartFirstTask>:
    7f00:	00000297          	auipc	t0,0x0
    7f04:	e0028293          	addi	t0,t0,-512 # 7d00 <freertos_risc_v_trap_handler>
    7f08:	30529073          	csrw	mtvec,t0
    7f0c:	00019117          	auipc	sp,0x19
    7f10:	52012103          	lw	sp,1312(sp) # 2142c <pxCurrentTCB>
    7f14:	00012103          	lw	sp,0(sp)
    7f18:	00012083          	lw	ra,0(sp)
    7f1c:	00c12303          	lw	t1,12(sp)
    7f20:	01012383          	lw	t2,16(sp)
    7f24:	01412403          	lw	s0,20(sp)
    7f28:	01812483          	lw	s1,24(sp)
    7f2c:	01c12503          	lw	a0,28(sp)
    7f30:	02012583          	lw	a1,32(sp)
    7f34:	02412603          	lw	a2,36(sp)
    7f38:	02812683          	lw	a3,40(sp)
    7f3c:	02c12703          	lw	a4,44(sp)
    7f40:	03012783          	lw	a5,48(sp)
    7f44:	03412803          	lw	a6,52(sp)
    7f48:	03812883          	lw	a7,56(sp)
    7f4c:	03c12903          	lw	s2,60(sp)
    7f50:	04012983          	lw	s3,64(sp)
    7f54:	04412a03          	lw	s4,68(sp)
    7f58:	04812a83          	lw	s5,72(sp)
    7f5c:	04c12b03          	lw	s6,76(sp)
    7f60:	05012b83          	lw	s7,80(sp)
    7f64:	05412c03          	lw	s8,84(sp)
    7f68:	05812c83          	lw	s9,88(sp)
    7f6c:	05c12d03          	lw	s10,92(sp)
    7f70:	06012d83          	lw	s11,96(sp)
    7f74:	06412e03          	lw	t3,100(sp)
    7f78:	06812e83          	lw	t4,104(sp)
    7f7c:	06c12f03          	lw	t5,108(sp)
    7f80:	07012f83          	lw	t6,112(sp)
    7f84:	07412283          	lw	t0,116(sp)
    7f88:	00828293          	addi	t0,t0,8
    7f8c:	30029073          	csrw	mstatus,t0
    7f90:	00812283          	lw	t0,8(sp)
    7f94:	07810113          	addi	sp,sp,120
    7f98:	00008067          	ret
    7f9c:	00000013          	nop
    7fa0:	00000013          	nop
    7fa4:	00000013          	nop
    7fa8:	00000013          	nop
    7fac:	00000013          	nop
    7fb0:	00000013          	nop
    7fb4:	00000013          	nop
    7fb8:	00000013          	nop
    7fbc:	00000013          	nop
    7fc0:	00000013          	nop
    7fc4:	00000013          	nop
    7fc8:	00000013          	nop
    7fcc:	00000013          	nop
    7fd0:	00000013          	nop
    7fd4:	00000013          	nop
    7fd8:	00000013          	nop
    7fdc:	00000013          	nop
    7fe0:	00000013          	nop
    7fe4:	00000013          	nop
    7fe8:	00000013          	nop
    7fec:	00000013          	nop
    7ff0:	00000013          	nop
    7ff4:	00000013          	nop
    7ff8:	00000013          	nop
    7ffc:	00000013          	nop

00008000 <pxPortInitialiseStack>:
    8000:	300022f3          	csrr	t0,mstatus
    8004:	ff72f293          	andi	t0,t0,-9
    8008:	18800313          	li	t1,392
    800c:	00431313          	slli	t1,t1,0x4
    8010:	0062e2b3          	or	t0,t0,t1
    8014:	ffc50513          	addi	a0,a0,-4
    8018:	00552023          	sw	t0,0(a0)
    801c:	fa850513          	addi	a0,a0,-88
    8020:	00c52023          	sw	a2,0(a0)
    8024:	fe850513          	addi	a0,a0,-24
    8028:	00052023          	sw	zero,0(a0)
    802c:	00000293          	li	t0,0

00008030 <chip_specific_stack_frame>:
    8030:	00028a63          	beqz	t0,8044 <chip_specific_stack_frame+0x14>
    8034:	ffc50513          	addi	a0,a0,-4
    8038:	00052023          	sw	zero,0(a0)
    803c:	fff28293          	addi	t0,t0,-1
    8040:	ff1ff06f          	j	8030 <chip_specific_stack_frame>
    8044:	ffc50513          	addi	a0,a0,-4
    8048:	00b52023          	sw	a1,0(a0)
    804c:	00008067          	ret
	...

00008084 <vPortSetupTimerInterrupt>:
    8084:	ff010113          	addi	sp,sp,-16
    8088:	f14027f3          	csrr	a5,mhartid
    808c:	00f12623          	sw	a5,12(sp)
    8090:	00c12583          	lw	a1,12(sp)
    8094:	120007b7          	lui	a5,0x12000
    8098:	00178793          	addi	a5,a5,1 # 12000001 <_stack+0x11fc0001>
    809c:	00f585b3          	add	a1,a1,a5
    80a0:	00359593          	slli	a1,a1,0x3
    80a4:	00019797          	auipc	a5,0x19
    80a8:	38b7a623          	sw	a1,908(a5) # 21430 <pullMachineTimerCompareRegister>
    80ac:	900007b7          	lui	a5,0x90000
    80b0:	0047a683          	lw	a3,4(a5) # 90000004 <_stack+0x8ffc0004>
    80b4:	0007a603          	lw	a2,0(a5)
    80b8:	0047a703          	lw	a4,4(a5)
    80bc:	fed71ae3          	bne	a4,a3,80b0 <vPortSetupTimerInterrupt+0x2c>
    80c0:	000026b7          	lui	a3,0x2
    80c4:	71068693          	addi	a3,a3,1808 # 2710 <_ftoa+0x110>
    80c8:	000057b7          	lui	a5,0x5
    80cc:	00d606b3          	add	a3,a2,a3
    80d0:	e2078793          	addi	a5,a5,-480 # 4e20 <vTaskSwitchContext.part.0+0x5c>
    80d4:	00c6b533          	sltu	a0,a3,a2
    80d8:	00f607b3          	add	a5,a2,a5
    80dc:	00d5a023          	sw	a3,0(a1)
    80e0:	00e508b3          	add	a7,a0,a4
    80e4:	00c7b633          	sltu	a2,a5,a2
    80e8:	0115a223          	sw	a7,4(a1)
    80ec:	00019697          	auipc	a3,0x19
    80f0:	34c68693          	addi	a3,a3,844 # 21438 <ullNextTime>
    80f4:	00e60733          	add	a4,a2,a4
    80f8:	00f6a023          	sw	a5,0(a3)
    80fc:	00e6a223          	sw	a4,4(a3)
    8100:	01010113          	addi	sp,sp,16
    8104:	00008067          	ret

00008108 <xPortStartScheduler>:
    8108:	ff010113          	addi	sp,sp,-16
    810c:	00112623          	sw	ra,12(sp)
    8110:	f75ff0ef          	jal	ra,8084 <vPortSetupTimerInterrupt>
    8114:	000017b7          	lui	a5,0x1
    8118:	88078793          	addi	a5,a5,-1920 # 880 <mutex_test+0x2f0>
    811c:	3047a073          	csrs	mie,a5
    8120:	de1ff0ef          	jal	ra,7f00 <xPortStartFirstTask>
    8124:	00c12083          	lw	ra,12(sp)
    8128:	00000513          	li	a0,0
    812c:	01010113          	addi	sp,sp,16
    8130:	00008067          	ret

00008134 <vPortEndScheduler>:
    8134:	0000006f          	j	8134 <vPortEndScheduler>

00008138 <vApplicationGetIdleTaskMemory>:
    8138:	00019797          	auipc	a5,0x19
    813c:	5e478793          	addi	a5,a5,1508 # 2171c <xIdleTaskTCB.1>
    8140:	00f52023          	sw	a5,0(a0)
    8144:	00019797          	auipc	a5,0x19
    8148:	63078793          	addi	a5,a5,1584 # 21774 <uxIdleTaskStack.0>
    814c:	00f5a023          	sw	a5,0(a1)
    8150:	40000793          	li	a5,1024
    8154:	00f62023          	sw	a5,0(a2)
    8158:	00008067          	ret

0000815c <xCoRoutineCreate>:
    815c:	fe010113          	addi	sp,sp,-32
    8160:	01412423          	sw	s4,8(sp)
    8164:	00050a13          	mv	s4,a0
    8168:	03800513          	li	a0,56
    816c:	00912a23          	sw	s1,20(sp)
    8170:	01212823          	sw	s2,16(sp)
    8174:	00112e23          	sw	ra,28(sp)
    8178:	00812c23          	sw	s0,24(sp)
    817c:	01312623          	sw	s3,12(sp)
    8180:	01512223          	sw	s5,4(sp)
    8184:	00058493          	mv	s1,a1
    8188:	00060913          	mv	s2,a2
    818c:	a5dff0ef          	jal	ra,7be8 <pvPortMalloc>
    8190:	0c050063          	beqz	a0,8250 <xCoRoutineCreate+0xf4>
    8194:	00019797          	auipc	a5,0x19
    8198:	2bc78793          	addi	a5,a5,700 # 21450 <pxCurrentCoRoutine>
    819c:	0007a703          	lw	a4,0(a5)
    81a0:	00050413          	mv	s0,a0
    81a4:	0a070a63          	beqz	a4,8258 <xCoRoutineCreate+0xfc>
    81a8:	0a049063          	bnez	s1,8248 <xCoRoutineCreate+0xec>
    81ac:	00440993          	addi	s3,s0,4
    81b0:	00098513          	mv	a0,s3
    81b4:	02942623          	sw	s1,44(s0)
    81b8:	02041a23          	sh	zero,52(s0)
    81bc:	03242823          	sw	s2,48(s0)
    81c0:	01442023          	sw	s4,0(s0)
    81c4:	4d0000ef          	jal	ra,8694 <vListInitialiseItem>
    81c8:	01840513          	addi	a0,s0,24
    81cc:	4c8000ef          	jal	ra,8694 <vListInitialiseItem>
    81d0:	00019717          	auipc	a4,0x19
    81d4:	27c70713          	addi	a4,a4,636 # 2144c <uxTopCoRoutineReadyPriority>
    81d8:	00200793          	li	a5,2
    81dc:	02c42503          	lw	a0,44(s0)
    81e0:	00072683          	lw	a3,0(a4)
    81e4:	409784b3          	sub	s1,a5,s1
    81e8:	00842823          	sw	s0,16(s0)
    81ec:	02842223          	sw	s0,36(s0)
    81f0:	00942c23          	sw	s1,24(s0)
    81f4:	04a6e663          	bltu	a3,a0,8240 <xCoRoutineCreate+0xe4>
    81f8:	00251793          	slli	a5,a0,0x2
    81fc:	00a787b3          	add	a5,a5,a0
    8200:	00279793          	slli	a5,a5,0x2
    8204:	0001a517          	auipc	a0,0x1a
    8208:	57050513          	addi	a0,a0,1392 # 22774 <pxReadyCoRoutineLists>
    820c:	00f50533          	add	a0,a0,a5
    8210:	00098593          	mv	a1,s3
    8214:	488000ef          	jal	ra,869c <vListInsertEnd>
    8218:	00100513          	li	a0,1
    821c:	01c12083          	lw	ra,28(sp)
    8220:	01812403          	lw	s0,24(sp)
    8224:	01412483          	lw	s1,20(sp)
    8228:	01012903          	lw	s2,16(sp)
    822c:	00c12983          	lw	s3,12(sp)
    8230:	00812a03          	lw	s4,8(sp)
    8234:	00412a83          	lw	s5,4(sp)
    8238:	02010113          	addi	sp,sp,32
    823c:	00008067          	ret
    8240:	00a72023          	sw	a0,0(a4)
    8244:	fb5ff06f          	j	81f8 <xCoRoutineCreate+0x9c>
    8248:	00100493          	li	s1,1
    824c:	f61ff06f          	j	81ac <xCoRoutineCreate+0x50>
    8250:	fff00513          	li	a0,-1
    8254:	fc9ff06f          	j	821c <xCoRoutineCreate+0xc0>
    8258:	0001a517          	auipc	a0,0x1a
    825c:	51c50513          	addi	a0,a0,1308 # 22774 <pxReadyCoRoutineLists>
    8260:	0087a023          	sw	s0,0(a5)
    8264:	410000ef          	jal	ra,8674 <vListInitialise>
    8268:	0001a517          	auipc	a0,0x1a
    826c:	52050513          	addi	a0,a0,1312 # 22788 <pxReadyCoRoutineLists+0x14>
    8270:	404000ef          	jal	ra,8674 <vListInitialise>
    8274:	0001aa97          	auipc	s5,0x1a
    8278:	528a8a93          	addi	s5,s5,1320 # 2279c <xDelayedCoRoutineList1>
    827c:	000a8513          	mv	a0,s5
    8280:	3f4000ef          	jal	ra,8674 <vListInitialise>
    8284:	0001a997          	auipc	s3,0x1a
    8288:	52c98993          	addi	s3,s3,1324 # 227b0 <xDelayedCoRoutineList2>
    828c:	00098513          	mv	a0,s3
    8290:	3e4000ef          	jal	ra,8674 <vListInitialise>
    8294:	0001a517          	auipc	a0,0x1a
    8298:	53050513          	addi	a0,a0,1328 # 227c4 <xPendingReadyCoRoutineList>
    829c:	3d8000ef          	jal	ra,8674 <vListInitialise>
    82a0:	00019797          	auipc	a5,0x19
    82a4:	1b57ac23          	sw	s5,440(a5) # 21458 <pxDelayedCoRoutineList>
    82a8:	00019797          	auipc	a5,0x19
    82ac:	1b37a623          	sw	s3,428(a5) # 21454 <pxOverflowDelayedCoRoutineList>
    82b0:	ee048ee3          	beqz	s1,81ac <xCoRoutineCreate+0x50>
    82b4:	f95ff06f          	j	8248 <xCoRoutineCreate+0xec>

000082b8 <vCoRoutineAddToDelayedList>:
    82b8:	fe010113          	addi	sp,sp,-32
    82bc:	01212823          	sw	s2,16(sp)
    82c0:	00019917          	auipc	s2,0x19
    82c4:	19090913          	addi	s2,s2,400 # 21450 <pxCurrentCoRoutine>
    82c8:	00092703          	lw	a4,0(s2)
    82cc:	01312623          	sw	s3,12(sp)
    82d0:	00019997          	auipc	s3,0x19
    82d4:	17898993          	addi	s3,s3,376 # 21448 <xCoRoutineTickCount>
    82d8:	0009a783          	lw	a5,0(s3)
    82dc:	00812c23          	sw	s0,24(sp)
    82e0:	00050413          	mv	s0,a0
    82e4:	00470513          	addi	a0,a4,4
    82e8:	00f40433          	add	s0,s0,a5
    82ec:	00912a23          	sw	s1,20(sp)
    82f0:	00112e23          	sw	ra,28(sp)
    82f4:	00058493          	mv	s1,a1
    82f8:	424000ef          	jal	ra,871c <uxListRemove>
    82fc:	00092583          	lw	a1,0(s2)
    8300:	0009a783          	lw	a5,0(s3)
    8304:	0085a223          	sw	s0,4(a1)
    8308:	00458593          	addi	a1,a1,4
    830c:	02f47e63          	bgeu	s0,a5,8348 <vCoRoutineAddToDelayedList+0x90>
    8310:	00019517          	auipc	a0,0x19
    8314:	14452503          	lw	a0,324(a0) # 21454 <pxOverflowDelayedCoRoutineList>
    8318:	3b4000ef          	jal	ra,86cc <vListInsert>
    831c:	02048e63          	beqz	s1,8358 <vCoRoutineAddToDelayedList+0xa0>
    8320:	00092583          	lw	a1,0(s2)
    8324:	01812403          	lw	s0,24(sp)
    8328:	01c12083          	lw	ra,28(sp)
    832c:	01012903          	lw	s2,16(sp)
    8330:	00c12983          	lw	s3,12(sp)
    8334:	00048513          	mv	a0,s1
    8338:	01412483          	lw	s1,20(sp)
    833c:	01858593          	addi	a1,a1,24
    8340:	02010113          	addi	sp,sp,32
    8344:	3880006f          	j	86cc <vListInsert>
    8348:	00019517          	auipc	a0,0x19
    834c:	11052503          	lw	a0,272(a0) # 21458 <pxDelayedCoRoutineList>
    8350:	37c000ef          	jal	ra,86cc <vListInsert>
    8354:	fc0496e3          	bnez	s1,8320 <vCoRoutineAddToDelayedList+0x68>
    8358:	01c12083          	lw	ra,28(sp)
    835c:	01812403          	lw	s0,24(sp)
    8360:	01412483          	lw	s1,20(sp)
    8364:	01012903          	lw	s2,16(sp)
    8368:	00c12983          	lw	s3,12(sp)
    836c:	02010113          	addi	sp,sp,32
    8370:	00008067          	ret

00008374 <vCoRoutineSchedule>:
    8374:	fd010113          	addi	sp,sp,-48
    8378:	01312e23          	sw	s3,28(sp)
    837c:	00019997          	auipc	s3,0x19
    8380:	0dc98993          	addi	s3,s3,220 # 21458 <pxDelayedCoRoutineList>
    8384:	0009a783          	lw	a5,0(s3)
    8388:	02112623          	sw	ra,44(sp)
    838c:	02812423          	sw	s0,40(sp)
    8390:	02912223          	sw	s1,36(sp)
    8394:	03212023          	sw	s2,32(sp)
    8398:	01412c23          	sw	s4,24(sp)
    839c:	01512a23          	sw	s5,20(sp)
    83a0:	01612823          	sw	s6,16(sp)
    83a4:	01712623          	sw	s7,12(sp)
    83a8:	01812423          	sw	s8,8(sp)
    83ac:	20078863          	beqz	a5,85bc <vCoRoutineSchedule+0x248>
    83b0:	0001a917          	auipc	s2,0x1a
    83b4:	3c490913          	addi	s2,s2,964 # 22774 <pxReadyCoRoutineLists>
    83b8:	05092783          	lw	a5,80(s2)
    83bc:	00019497          	auipc	s1,0x19
    83c0:	09048493          	addi	s1,s1,144 # 2144c <uxTopCoRoutineReadyPriority>
    83c4:	04078c63          	beqz	a5,841c <vCoRoutineSchedule+0xa8>
    83c8:	30047073          	csrci	mstatus,8
    83cc:	05c92783          	lw	a5,92(s2)
    83d0:	00c7a403          	lw	s0,12(a5)
    83d4:	01840513          	addi	a0,s0,24
    83d8:	344000ef          	jal	ra,871c <uxListRemove>
    83dc:	30046073          	csrsi	mstatus,8
    83e0:	00440a13          	addi	s4,s0,4
    83e4:	000a0513          	mv	a0,s4
    83e8:	334000ef          	jal	ra,871c <uxListRemove>
    83ec:	02c42783          	lw	a5,44(s0)
    83f0:	0004a703          	lw	a4,0(s1)
    83f4:	000a0593          	mv	a1,s4
    83f8:	00279513          	slli	a0,a5,0x2
    83fc:	00f50533          	add	a0,a0,a5
    8400:	00251513          	slli	a0,a0,0x2
    8404:	00a90533          	add	a0,s2,a0
    8408:	00f77463          	bgeu	a4,a5,8410 <vCoRoutineSchedule+0x9c>
    840c:	00f4a023          	sw	a5,0(s1)
    8410:	28c000ef          	jal	ra,869c <vListInsertEnd>
    8414:	05092783          	lw	a5,80(s2)
    8418:	fa0798e3          	bnez	a5,83c8 <vCoRoutineSchedule+0x54>
    841c:	92cfd0ef          	jal	ra,5548 <xTaskGetTickCount>
    8420:	00019b97          	auipc	s7,0x19
    8424:	024b8b93          	addi	s7,s7,36 # 21444 <xLastTickCount>
    8428:	000ba683          	lw	a3,0(s7)
    842c:	00019a97          	auipc	s5,0x19
    8430:	014a8a93          	addi	s5,s5,20 # 21440 <xPassedTicks>
    8434:	40d506b3          	sub	a3,a0,a3
    8438:	00daa023          	sw	a3,0(s5)
    843c:	1c068663          	beqz	a3,8608 <vCoRoutineSchedule+0x294>
    8440:	00019a17          	auipc	s4,0x19
    8444:	008a0a13          	addi	s4,s4,8 # 21448 <xCoRoutineTickCount>
    8448:	000a2703          	lw	a4,0(s4)
    844c:	00019b17          	auipc	s6,0x19
    8450:	008b0b13          	addi	s6,s6,8 # 21454 <pxOverflowDelayedCoRoutineList>
    8454:	00170713          	addi	a4,a4,1
    8458:	fff68693          	addi	a3,a3,-1
    845c:	00ea2023          	sw	a4,0(s4)
    8460:	00daa023          	sw	a3,0(s5)
    8464:	0009a783          	lw	a5,0(s3)
    8468:	00071a63          	bnez	a4,847c <vCoRoutineSchedule+0x108>
    846c:	000b2603          	lw	a2,0(s6)
    8470:	00fb2023          	sw	a5,0(s6)
    8474:	00c9a023          	sw	a2,0(s3)
    8478:	00060793          	mv	a5,a2
    847c:	0007a603          	lw	a2,0(a5)
    8480:	06061263          	bnez	a2,84e4 <vCoRoutineSchedule+0x170>
    8484:	0740006f          	j	84f8 <vCoRoutineSchedule+0x184>
    8488:	30047073          	csrci	mstatus,8
    848c:	00440c13          	addi	s8,s0,4
    8490:	000c0513          	mv	a0,s8
    8494:	288000ef          	jal	ra,871c <uxListRemove>
    8498:	02842783          	lw	a5,40(s0)
    849c:	01840513          	addi	a0,s0,24
    84a0:	00078463          	beqz	a5,84a8 <vCoRoutineSchedule+0x134>
    84a4:	278000ef          	jal	ra,871c <uxListRemove>
    84a8:	30046073          	csrsi	mstatus,8
    84ac:	02c42783          	lw	a5,44(s0)
    84b0:	0004a703          	lw	a4,0(s1)
    84b4:	000c0593          	mv	a1,s8
    84b8:	00279513          	slli	a0,a5,0x2
    84bc:	00f50533          	add	a0,a0,a5
    84c0:	00251513          	slli	a0,a0,0x2
    84c4:	00a90533          	add	a0,s2,a0
    84c8:	00f77463          	bgeu	a4,a5,84d0 <vCoRoutineSchedule+0x15c>
    84cc:	00f4a023          	sw	a5,0(s1)
    84d0:	1cc000ef          	jal	ra,869c <vListInsertEnd>
    84d4:	0009a783          	lw	a5,0(s3)
    84d8:	0007a703          	lw	a4,0(a5)
    84dc:	10070863          	beqz	a4,85ec <vCoRoutineSchedule+0x278>
    84e0:	000a2703          	lw	a4,0(s4)
    84e4:	00c7a783          	lw	a5,12(a5)
    84e8:	00c7a403          	lw	s0,12(a5)
    84ec:	00442783          	lw	a5,4(s0)
    84f0:	f8f77ce3          	bgeu	a4,a5,8488 <vCoRoutineSchedule+0x114>
    84f4:	000aa683          	lw	a3,0(s5)
    84f8:	f4069ee3          	bnez	a3,8454 <vCoRoutineSchedule+0xe0>
    84fc:	0004a683          	lw	a3,0(s1)
    8500:	00eba023          	sw	a4,0(s7)
    8504:	00269713          	slli	a4,a3,0x2
    8508:	00d707b3          	add	a5,a4,a3
    850c:	00279793          	slli	a5,a5,0x2
    8510:	00f907b3          	add	a5,s2,a5
    8514:	0007a783          	lw	a5,0(a5)
    8518:	02079863          	bnez	a5,8548 <vCoRoutineSchedule+0x1d4>
    851c:	00000613          	li	a2,0
    8520:	08068863          	beqz	a3,85b0 <vCoRoutineSchedule+0x23c>
    8524:	fff68693          	addi	a3,a3,-1
    8528:	00269713          	slli	a4,a3,0x2
    852c:	00d707b3          	add	a5,a4,a3
    8530:	00279793          	slli	a5,a5,0x2
    8534:	00f907b3          	add	a5,s2,a5
    8538:	0007a783          	lw	a5,0(a5)
    853c:	00100613          	li	a2,1
    8540:	fe0780e3          	beqz	a5,8520 <vCoRoutineSchedule+0x1ac>
    8544:	00d4a023          	sw	a3,0(s1)
    8548:	00d707b3          	add	a5,a4,a3
    854c:	00279793          	slli	a5,a5,0x2
    8550:	00f90733          	add	a4,s2,a5
    8554:	00472683          	lw	a3,4(a4)
    8558:	00878793          	addi	a5,a5,8
    855c:	00f90933          	add	s2,s2,a5
    8560:	0046a783          	lw	a5,4(a3)
    8564:	00f72223          	sw	a5,4(a4)
    8568:	09278a63          	beq	a5,s2,85fc <vCoRoutineSchedule+0x288>
    856c:	00c7a503          	lw	a0,12(a5)
    8570:	02812403          	lw	s0,40(sp)
    8574:	02c12083          	lw	ra,44(sp)
    8578:	00052783          	lw	a5,0(a0)
    857c:	02412483          	lw	s1,36(sp)
    8580:	02012903          	lw	s2,32(sp)
    8584:	01c12983          	lw	s3,28(sp)
    8588:	01812a03          	lw	s4,24(sp)
    858c:	01412a83          	lw	s5,20(sp)
    8590:	01012b03          	lw	s6,16(sp)
    8594:	00c12b83          	lw	s7,12(sp)
    8598:	00812c03          	lw	s8,8(sp)
    859c:	03052583          	lw	a1,48(a0)
    85a0:	00019717          	auipc	a4,0x19
    85a4:	eaa72823          	sw	a0,-336(a4) # 21450 <pxCurrentCoRoutine>
    85a8:	03010113          	addi	sp,sp,48
    85ac:	00078067          	jr	a5
    85b0:	00060663          	beqz	a2,85bc <vCoRoutineSchedule+0x248>
    85b4:	00019797          	auipc	a5,0x19
    85b8:	e807ac23          	sw	zero,-360(a5) # 2144c <uxTopCoRoutineReadyPriority>
    85bc:	02c12083          	lw	ra,44(sp)
    85c0:	02812403          	lw	s0,40(sp)
    85c4:	02412483          	lw	s1,36(sp)
    85c8:	02012903          	lw	s2,32(sp)
    85cc:	01c12983          	lw	s3,28(sp)
    85d0:	01812a03          	lw	s4,24(sp)
    85d4:	01412a83          	lw	s5,20(sp)
    85d8:	01012b03          	lw	s6,16(sp)
    85dc:	00c12b83          	lw	s7,12(sp)
    85e0:	00812c03          	lw	s8,8(sp)
    85e4:	03010113          	addi	sp,sp,48
    85e8:	00008067          	ret
    85ec:	000aa683          	lw	a3,0(s5)
    85f0:	000a2703          	lw	a4,0(s4)
    85f4:	e60690e3          	bnez	a3,8454 <vCoRoutineSchedule+0xe0>
    85f8:	f05ff06f          	j	84fc <vCoRoutineSchedule+0x188>
    85fc:	0047a783          	lw	a5,4(a5)
    8600:	00f72223          	sw	a5,4(a4)
    8604:	f69ff06f          	j	856c <vCoRoutineSchedule+0x1f8>
    8608:	00019717          	auipc	a4,0x19
    860c:	e4072703          	lw	a4,-448(a4) # 21448 <xCoRoutineTickCount>
    8610:	eedff06f          	j	84fc <vCoRoutineSchedule+0x188>

00008614 <xCoRoutineRemoveFromEventList>:
    8614:	00c52783          	lw	a5,12(a0)
    8618:	ff010113          	addi	sp,sp,-16
    861c:	00812423          	sw	s0,8(sp)
    8620:	00c7a403          	lw	s0,12(a5)
    8624:	00912223          	sw	s1,4(sp)
    8628:	00112623          	sw	ra,12(sp)
    862c:	01840493          	addi	s1,s0,24
    8630:	00048513          	mv	a0,s1
    8634:	0e8000ef          	jal	ra,871c <uxListRemove>
    8638:	00048593          	mv	a1,s1
    863c:	0001a517          	auipc	a0,0x1a
    8640:	18850513          	addi	a0,a0,392 # 227c4 <xPendingReadyCoRoutineList>
    8644:	058000ef          	jal	ra,869c <vListInsertEnd>
    8648:	00019797          	auipc	a5,0x19
    864c:	e087a783          	lw	a5,-504(a5) # 21450 <pxCurrentCoRoutine>
    8650:	02c42503          	lw	a0,44(s0)
    8654:	02c7a783          	lw	a5,44(a5)
    8658:	00c12083          	lw	ra,12(sp)
    865c:	00812403          	lw	s0,8(sp)
    8660:	00f53533          	sltu	a0,a0,a5
    8664:	00412483          	lw	s1,4(sp)
    8668:	00154513          	xori	a0,a0,1
    866c:	01010113          	addi	sp,sp,16
    8670:	00008067          	ret

00008674 <vListInitialise>:
    8674:	00850793          	addi	a5,a0,8
    8678:	fff00713          	li	a4,-1
    867c:	00f52223          	sw	a5,4(a0)
    8680:	00e52423          	sw	a4,8(a0)
    8684:	00f52623          	sw	a5,12(a0)
    8688:	00f52823          	sw	a5,16(a0)
    868c:	00052023          	sw	zero,0(a0)
    8690:	00008067          	ret

00008694 <vListInitialiseItem>:
    8694:	00052823          	sw	zero,16(a0)
    8698:	00008067          	ret

0000869c <vListInsertEnd>:
    869c:	00452783          	lw	a5,4(a0)
    86a0:	00052703          	lw	a4,0(a0)
    86a4:	0087a683          	lw	a3,8(a5)
    86a8:	00f5a223          	sw	a5,4(a1)
    86ac:	00170713          	addi	a4,a4,1
    86b0:	00d5a423          	sw	a3,8(a1)
    86b4:	0087a683          	lw	a3,8(a5)
    86b8:	00b6a223          	sw	a1,4(a3)
    86bc:	00b7a423          	sw	a1,8(a5)
    86c0:	00a5a823          	sw	a0,16(a1)
    86c4:	00e52023          	sw	a4,0(a0)
    86c8:	00008067          	ret

000086cc <vListInsert>:
    86cc:	0005a603          	lw	a2,0(a1)
    86d0:	fff00713          	li	a4,-1
    86d4:	00850793          	addi	a5,a0,8
    86d8:	02e60c63          	beq	a2,a4,8710 <vListInsert+0x44>
    86dc:	00078693          	mv	a3,a5
    86e0:	0047a783          	lw	a5,4(a5)
    86e4:	0007a703          	lw	a4,0(a5)
    86e8:	fee67ae3          	bgeu	a2,a4,86dc <vListInsert+0x10>
    86ec:	00f5a223          	sw	a5,4(a1)
    86f0:	00b7a423          	sw	a1,8(a5)
    86f4:	00052783          	lw	a5,0(a0)
    86f8:	00d5a423          	sw	a3,8(a1)
    86fc:	00b6a223          	sw	a1,4(a3)
    8700:	00a5a823          	sw	a0,16(a1)
    8704:	00178793          	addi	a5,a5,1
    8708:	00f52023          	sw	a5,0(a0)
    870c:	00008067          	ret
    8710:	01052683          	lw	a3,16(a0)
    8714:	0046a783          	lw	a5,4(a3)
    8718:	fd5ff06f          	j	86ec <vListInsert+0x20>

0000871c <uxListRemove>:
    871c:	01052783          	lw	a5,16(a0)
    8720:	00452683          	lw	a3,4(a0)
    8724:	00852703          	lw	a4,8(a0)
    8728:	0047a603          	lw	a2,4(a5)
    872c:	00e6a423          	sw	a4,8(a3)
    8730:	00d72223          	sw	a3,4(a4)
    8734:	00a60e63          	beq	a2,a0,8750 <uxListRemove+0x34>
    8738:	0007a703          	lw	a4,0(a5)
    873c:	00052823          	sw	zero,16(a0)
    8740:	fff70713          	addi	a4,a4,-1
    8744:	00e7a023          	sw	a4,0(a5)
    8748:	0007a503          	lw	a0,0(a5)
    874c:	00008067          	ret
    8750:	00e7a223          	sw	a4,4(a5)
    8754:	0007a703          	lw	a4,0(a5)
    8758:	00052823          	sw	zero,16(a0)
    875c:	fff70713          	addi	a4,a4,-1
    8760:	00e7a023          	sw	a4,0(a5)
    8764:	0007a503          	lw	a0,0(a5)
    8768:	00008067          	ret

0000876c <malloc>:
    876c:	000207b7          	lui	a5,0x20
    8770:	00050593          	mv	a1,a0
    8774:	0c87a503          	lw	a0,200(a5) # 200c8 <_impure_ptr>
    8778:	0140006f          	j	878c <_malloc_r>

0000877c <free>:
    877c:	000207b7          	lui	a5,0x20
    8780:	00050593          	mv	a1,a0
    8784:	0c87a503          	lw	a0,200(a5) # 200c8 <_impure_ptr>
    8788:	3690006f          	j	92f0 <_free_r>

0000878c <_malloc_r>:
    878c:	fd010113          	addi	sp,sp,-48
    8790:	01312e23          	sw	s3,28(sp)
    8794:	02112623          	sw	ra,44(sp)
    8798:	02812423          	sw	s0,40(sp)
    879c:	02912223          	sw	s1,36(sp)
    87a0:	03212023          	sw	s2,32(sp)
    87a4:	01412c23          	sw	s4,24(sp)
    87a8:	01512a23          	sw	s5,20(sp)
    87ac:	01612823          	sw	s6,16(sp)
    87b0:	01712623          	sw	s7,12(sp)
    87b4:	01812423          	sw	s8,8(sp)
    87b8:	01912223          	sw	s9,4(sp)
    87bc:	00b58793          	addi	a5,a1,11
    87c0:	01600713          	li	a4,22
    87c4:	00050993          	mv	s3,a0
    87c8:	06f76663          	bltu	a4,a5,8834 <_malloc_r+0xa8>
    87cc:	01000793          	li	a5,16
    87d0:	1eb7e663          	bltu	a5,a1,89bc <_malloc_r+0x230>
    87d4:	175000ef          	jal	ra,9148 <__malloc_lock>
    87d8:	01000493          	li	s1,16
    87dc:	01800793          	li	a5,24
    87e0:	00200613          	li	a2,2
    87e4:	00021937          	lui	s2,0x21
    87e8:	b9890913          	addi	s2,s2,-1128 # 20b98 <__malloc_av_>
    87ec:	00f907b3          	add	a5,s2,a5
    87f0:	0047a403          	lw	s0,4(a5)
    87f4:	ff878713          	addi	a4,a5,-8
    87f8:	20e40a63          	beq	s0,a4,8a0c <_malloc_r+0x280>
    87fc:	00442783          	lw	a5,4(s0)
    8800:	00c42683          	lw	a3,12(s0)
    8804:	00842603          	lw	a2,8(s0)
    8808:	ffc7f793          	andi	a5,a5,-4
    880c:	00f407b3          	add	a5,s0,a5
    8810:	0047a703          	lw	a4,4(a5)
    8814:	00d62623          	sw	a3,12(a2)
    8818:	00c6a423          	sw	a2,8(a3)
    881c:	00176713          	ori	a4,a4,1
    8820:	00098513          	mv	a0,s3
    8824:	00e7a223          	sw	a4,4(a5)
    8828:	125000ef          	jal	ra,914c <__malloc_unlock>
    882c:	00840513          	addi	a0,s0,8
    8830:	1980006f          	j	89c8 <_malloc_r+0x23c>
    8834:	ff87f493          	andi	s1,a5,-8
    8838:	1807c263          	bltz	a5,89bc <_malloc_r+0x230>
    883c:	18b4e063          	bltu	s1,a1,89bc <_malloc_r+0x230>
    8840:	109000ef          	jal	ra,9148 <__malloc_lock>
    8844:	1f700793          	li	a5,503
    8848:	4697f663          	bgeu	a5,s1,8cb4 <_malloc_r+0x528>
    884c:	0094d793          	srli	a5,s1,0x9
    8850:	1a078663          	beqz	a5,89fc <_malloc_r+0x270>
    8854:	00400713          	li	a4,4
    8858:	3cf76c63          	bltu	a4,a5,8c30 <_malloc_r+0x4a4>
    885c:	0064d793          	srli	a5,s1,0x6
    8860:	03978613          	addi	a2,a5,57
    8864:	03878513          	addi	a0,a5,56
    8868:	00361693          	slli	a3,a2,0x3
    886c:	00021937          	lui	s2,0x21
    8870:	b9890913          	addi	s2,s2,-1128 # 20b98 <__malloc_av_>
    8874:	00d906b3          	add	a3,s2,a3
    8878:	0046a403          	lw	s0,4(a3)
    887c:	ff868693          	addi	a3,a3,-8
    8880:	02868663          	beq	a3,s0,88ac <_malloc_r+0x120>
    8884:	00f00593          	li	a1,15
    8888:	0100006f          	j	8898 <_malloc_r+0x10c>
    888c:	32075c63          	bgez	a4,8bc4 <_malloc_r+0x438>
    8890:	00c42403          	lw	s0,12(s0)
    8894:	00868c63          	beq	a3,s0,88ac <_malloc_r+0x120>
    8898:	00442783          	lw	a5,4(s0)
    889c:	ffc7f793          	andi	a5,a5,-4
    88a0:	40978733          	sub	a4,a5,s1
    88a4:	fee5d4e3          	bge	a1,a4,888c <_malloc_r+0x100>
    88a8:	00050613          	mv	a2,a0
    88ac:	01092403          	lw	s0,16(s2)
    88b0:	00890893          	addi	a7,s2,8
    88b4:	17140863          	beq	s0,a7,8a24 <_malloc_r+0x298>
    88b8:	00442503          	lw	a0,4(s0)
    88bc:	00f00693          	li	a3,15
    88c0:	ffc57513          	andi	a0,a0,-4
    88c4:	409507b3          	sub	a5,a0,s1
    88c8:	40f6cc63          	blt	a3,a5,8ce0 <_malloc_r+0x554>
    88cc:	01192a23          	sw	a7,20(s2)
    88d0:	01192823          	sw	a7,16(s2)
    88d4:	3e07d663          	bgez	a5,8cc0 <_malloc_r+0x534>
    88d8:	1ff00793          	li	a5,511
    88dc:	2ea7ea63          	bltu	a5,a0,8bd0 <_malloc_r+0x444>
    88e0:	ff857793          	andi	a5,a0,-8
    88e4:	00878793          	addi	a5,a5,8
    88e8:	00492583          	lw	a1,4(s2)
    88ec:	00f907b3          	add	a5,s2,a5
    88f0:	0007a683          	lw	a3,0(a5)
    88f4:	00555513          	srli	a0,a0,0x5
    88f8:	00100713          	li	a4,1
    88fc:	00a71733          	sll	a4,a4,a0
    8900:	00b76733          	or	a4,a4,a1
    8904:	ff878593          	addi	a1,a5,-8
    8908:	00b42623          	sw	a1,12(s0)
    890c:	00d42423          	sw	a3,8(s0)
    8910:	00e92223          	sw	a4,4(s2)
    8914:	0087a023          	sw	s0,0(a5)
    8918:	0086a623          	sw	s0,12(a3)
    891c:	40265793          	srai	a5,a2,0x2
    8920:	00100593          	li	a1,1
    8924:	00f595b3          	sll	a1,a1,a5
    8928:	10b76863          	bltu	a4,a1,8a38 <_malloc_r+0x2ac>
    892c:	00e5f7b3          	and	a5,a1,a4
    8930:	02079463          	bnez	a5,8958 <_malloc_r+0x1cc>
    8934:	00159593          	slli	a1,a1,0x1
    8938:	ffc67613          	andi	a2,a2,-4
    893c:	00e5f7b3          	and	a5,a1,a4
    8940:	00460613          	addi	a2,a2,4
    8944:	00079a63          	bnez	a5,8958 <_malloc_r+0x1cc>
    8948:	00159593          	slli	a1,a1,0x1
    894c:	00e5f7b3          	and	a5,a1,a4
    8950:	00460613          	addi	a2,a2,4
    8954:	fe078ae3          	beqz	a5,8948 <_malloc_r+0x1bc>
    8958:	00f00813          	li	a6,15
    895c:	00361313          	slli	t1,a2,0x3
    8960:	00690333          	add	t1,s2,t1
    8964:	00030513          	mv	a0,t1
    8968:	00c52783          	lw	a5,12(a0)
    896c:	00060e13          	mv	t3,a2
    8970:	2ef50263          	beq	a0,a5,8c54 <_malloc_r+0x4c8>
    8974:	0047a703          	lw	a4,4(a5)
    8978:	00078413          	mv	s0,a5
    897c:	00c7a783          	lw	a5,12(a5)
    8980:	ffc77713          	andi	a4,a4,-4
    8984:	409706b3          	sub	a3,a4,s1
    8988:	2ed84263          	blt	a6,a3,8c6c <_malloc_r+0x4e0>
    898c:	fe06c2e3          	bltz	a3,8970 <_malloc_r+0x1e4>
    8990:	00e40733          	add	a4,s0,a4
    8994:	00472683          	lw	a3,4(a4)
    8998:	00842603          	lw	a2,8(s0)
    899c:	00098513          	mv	a0,s3
    89a0:	0016e693          	ori	a3,a3,1
    89a4:	00d72223          	sw	a3,4(a4)
    89a8:	00f62623          	sw	a5,12(a2)
    89ac:	00c7a423          	sw	a2,8(a5)
    89b0:	79c000ef          	jal	ra,914c <__malloc_unlock>
    89b4:	00840513          	addi	a0,s0,8
    89b8:	0100006f          	j	89c8 <_malloc_r+0x23c>
    89bc:	00c00793          	li	a5,12
    89c0:	00f9a023          	sw	a5,0(s3)
    89c4:	00000513          	li	a0,0
    89c8:	02c12083          	lw	ra,44(sp)
    89cc:	02812403          	lw	s0,40(sp)
    89d0:	02412483          	lw	s1,36(sp)
    89d4:	02012903          	lw	s2,32(sp)
    89d8:	01c12983          	lw	s3,28(sp)
    89dc:	01812a03          	lw	s4,24(sp)
    89e0:	01412a83          	lw	s5,20(sp)
    89e4:	01012b03          	lw	s6,16(sp)
    89e8:	00c12b83          	lw	s7,12(sp)
    89ec:	00812c03          	lw	s8,8(sp)
    89f0:	00412c83          	lw	s9,4(sp)
    89f4:	03010113          	addi	sp,sp,48
    89f8:	00008067          	ret
    89fc:	20000693          	li	a3,512
    8a00:	04000613          	li	a2,64
    8a04:	03f00513          	li	a0,63
    8a08:	e65ff06f          	j	886c <_malloc_r+0xe0>
    8a0c:	00c7a403          	lw	s0,12(a5)
    8a10:	00260613          	addi	a2,a2,2
    8a14:	de8794e3          	bne	a5,s0,87fc <_malloc_r+0x70>
    8a18:	01092403          	lw	s0,16(s2)
    8a1c:	00890893          	addi	a7,s2,8
    8a20:	e9141ce3          	bne	s0,a7,88b8 <_malloc_r+0x12c>
    8a24:	00492703          	lw	a4,4(s2)
    8a28:	40265793          	srai	a5,a2,0x2
    8a2c:	00100593          	li	a1,1
    8a30:	00f595b3          	sll	a1,a1,a5
    8a34:	eeb77ce3          	bgeu	a4,a1,892c <_malloc_r+0x1a0>
    8a38:	00892403          	lw	s0,8(s2)
    8a3c:	00442a83          	lw	s5,4(s0)
    8a40:	ffcafb13          	andi	s6,s5,-4
    8a44:	009b6863          	bltu	s6,s1,8a54 <_malloc_r+0x2c8>
    8a48:	409b07b3          	sub	a5,s6,s1
    8a4c:	00f00713          	li	a4,15
    8a50:	14f74663          	blt	a4,a5,8b9c <_malloc_r+0x410>
    8a54:	000217b7          	lui	a5,0x21
    8a58:	00020cb7          	lui	s9,0x20
    8a5c:	4647aa83          	lw	s5,1124(a5) # 21464 <__malloc_top_pad>
    8a60:	0c0ca703          	lw	a4,192(s9) # 200c0 <__malloc_sbrk_base>
    8a64:	fff00793          	li	a5,-1
    8a68:	01640a33          	add	s4,s0,s6
    8a6c:	01548ab3          	add	s5,s1,s5
    8a70:	34f70a63          	beq	a4,a5,8dc4 <_malloc_r+0x638>
    8a74:	000017b7          	lui	a5,0x1
    8a78:	00f78793          	addi	a5,a5,15 # 100f <msgq_test+0x153>
    8a7c:	00fa8ab3          	add	s5,s5,a5
    8a80:	fffff7b7          	lui	a5,0xfffff
    8a84:	00fafab3          	and	s5,s5,a5
    8a88:	000a8593          	mv	a1,s5
    8a8c:	00098513          	mv	a0,s3
    8a90:	6c0000ef          	jal	ra,9150 <_sbrk_r>
    8a94:	fff00793          	li	a5,-1
    8a98:	00050b93          	mv	s7,a0
    8a9c:	28f50c63          	beq	a0,a5,8d34 <_malloc_r+0x5a8>
    8aa0:	29456863          	bltu	a0,s4,8d30 <_malloc_r+0x5a4>
    8aa4:	00022c37          	lui	s8,0x22
    8aa8:	7d8c0c13          	addi	s8,s8,2008 # 227d8 <__malloc_current_mallinfo>
    8aac:	000c2583          	lw	a1,0(s8)
    8ab0:	00ba85b3          	add	a1,s5,a1
    8ab4:	00bc2023          	sw	a1,0(s8)
    8ab8:	00058793          	mv	a5,a1
    8abc:	3aaa0463          	beq	s4,a0,8e64 <_malloc_r+0x6d8>
    8ac0:	0c0ca683          	lw	a3,192(s9)
    8ac4:	fff00713          	li	a4,-1
    8ac8:	3ae68c63          	beq	a3,a4,8e80 <_malloc_r+0x6f4>
    8acc:	414b8a33          	sub	s4,s7,s4
    8ad0:	00fa07b3          	add	a5,s4,a5
    8ad4:	00fc2023          	sw	a5,0(s8)
    8ad8:	007bfc93          	andi	s9,s7,7
    8adc:	300c8663          	beqz	s9,8de8 <_malloc_r+0x65c>
    8ae0:	000017b7          	lui	a5,0x1
    8ae4:	419b8bb3          	sub	s7,s7,s9
    8ae8:	00878593          	addi	a1,a5,8 # 1008 <msgq_test+0x14c>
    8aec:	008b8b93          	addi	s7,s7,8
    8af0:	419585b3          	sub	a1,a1,s9
    8af4:	015b8ab3          	add	s5,s7,s5
    8af8:	fff78793          	addi	a5,a5,-1
    8afc:	415585b3          	sub	a1,a1,s5
    8b00:	00f5fa33          	and	s4,a1,a5
    8b04:	000a0593          	mv	a1,s4
    8b08:	00098513          	mv	a0,s3
    8b0c:	644000ef          	jal	ra,9150 <_sbrk_r>
    8b10:	fff00793          	li	a5,-1
    8b14:	3cf50063          	beq	a0,a5,8ed4 <_malloc_r+0x748>
    8b18:	41750533          	sub	a0,a0,s7
    8b1c:	01450ab3          	add	s5,a0,s4
    8b20:	000c2583          	lw	a1,0(s8)
    8b24:	01792423          	sw	s7,8(s2)
    8b28:	001aea93          	ori	s5,s5,1
    8b2c:	00ba05b3          	add	a1,s4,a1
    8b30:	00bc2023          	sw	a1,0(s8)
    8b34:	015ba223          	sw	s5,4(s7)
    8b38:	35240863          	beq	s0,s2,8e88 <_malloc_r+0x6fc>
    8b3c:	00f00693          	li	a3,15
    8b40:	3566f863          	bgeu	a3,s6,8e90 <_malloc_r+0x704>
    8b44:	00442703          	lw	a4,4(s0)
    8b48:	ff4b0793          	addi	a5,s6,-12
    8b4c:	ff87f793          	andi	a5,a5,-8
    8b50:	00177713          	andi	a4,a4,1
    8b54:	00f76733          	or	a4,a4,a5
    8b58:	00e42223          	sw	a4,4(s0)
    8b5c:	00500613          	li	a2,5
    8b60:	00f40733          	add	a4,s0,a5
    8b64:	00c72223          	sw	a2,4(a4)
    8b68:	00c72423          	sw	a2,8(a4)
    8b6c:	36f6ee63          	bltu	a3,a5,8ee8 <_malloc_r+0x75c>
    8b70:	004baa83          	lw	s5,4(s7)
    8b74:	000b8413          	mv	s0,s7
    8b78:	000217b7          	lui	a5,0x21
    8b7c:	4607a703          	lw	a4,1120(a5) # 21460 <__malloc_max_sbrked_mem>
    8b80:	00b77463          	bgeu	a4,a1,8b88 <_malloc_r+0x3fc>
    8b84:	46b7a023          	sw	a1,1120(a5)
    8b88:	000217b7          	lui	a5,0x21
    8b8c:	45c7a703          	lw	a4,1116(a5) # 2145c <__malloc_max_total_mem>
    8b90:	1ab77663          	bgeu	a4,a1,8d3c <_malloc_r+0x5b0>
    8b94:	44b7ae23          	sw	a1,1116(a5)
    8b98:	1a40006f          	j	8d3c <_malloc_r+0x5b0>
    8b9c:	0014e713          	ori	a4,s1,1
    8ba0:	00e42223          	sw	a4,4(s0)
    8ba4:	009404b3          	add	s1,s0,s1
    8ba8:	00992423          	sw	s1,8(s2)
    8bac:	0017e793          	ori	a5,a5,1
    8bb0:	00098513          	mv	a0,s3
    8bb4:	00f4a223          	sw	a5,4(s1)
    8bb8:	594000ef          	jal	ra,914c <__malloc_unlock>
    8bbc:	00840513          	addi	a0,s0,8
    8bc0:	e09ff06f          	j	89c8 <_malloc_r+0x23c>
    8bc4:	00c42683          	lw	a3,12(s0)
    8bc8:	00842603          	lw	a2,8(s0)
    8bcc:	c41ff06f          	j	880c <_malloc_r+0x80>
    8bd0:	00955793          	srli	a5,a0,0x9
    8bd4:	00400713          	li	a4,4
    8bd8:	14f77263          	bgeu	a4,a5,8d1c <_malloc_r+0x590>
    8bdc:	01400713          	li	a4,20
    8be0:	22f76a63          	bltu	a4,a5,8e14 <_malloc_r+0x688>
    8be4:	05c78693          	addi	a3,a5,92
    8be8:	05b78593          	addi	a1,a5,91
    8bec:	00369693          	slli	a3,a3,0x3
    8bf0:	00d906b3          	add	a3,s2,a3
    8bf4:	0006a783          	lw	a5,0(a3)
    8bf8:	ff868693          	addi	a3,a3,-8
    8bfc:	1cf68863          	beq	a3,a5,8dcc <_malloc_r+0x640>
    8c00:	0047a703          	lw	a4,4(a5)
    8c04:	ffc77713          	andi	a4,a4,-4
    8c08:	00e57663          	bgeu	a0,a4,8c14 <_malloc_r+0x488>
    8c0c:	0087a783          	lw	a5,8(a5)
    8c10:	fef698e3          	bne	a3,a5,8c00 <_malloc_r+0x474>
    8c14:	00c7a683          	lw	a3,12(a5)
    8c18:	00492703          	lw	a4,4(s2)
    8c1c:	00d42623          	sw	a3,12(s0)
    8c20:	00f42423          	sw	a5,8(s0)
    8c24:	0086a423          	sw	s0,8(a3)
    8c28:	0087a623          	sw	s0,12(a5)
    8c2c:	cf1ff06f          	j	891c <_malloc_r+0x190>
    8c30:	01400713          	li	a4,20
    8c34:	12f77663          	bgeu	a4,a5,8d60 <_malloc_r+0x5d4>
    8c38:	05400713          	li	a4,84
    8c3c:	1ef76a63          	bltu	a4,a5,8e30 <_malloc_r+0x6a4>
    8c40:	00c4d793          	srli	a5,s1,0xc
    8c44:	06f78613          	addi	a2,a5,111
    8c48:	06e78513          	addi	a0,a5,110
    8c4c:	00361693          	slli	a3,a2,0x3
    8c50:	c1dff06f          	j	886c <_malloc_r+0xe0>
    8c54:	001e0e13          	addi	t3,t3,1
    8c58:	003e7793          	andi	a5,t3,3
    8c5c:	00850513          	addi	a0,a0,8
    8c60:	10078e63          	beqz	a5,8d7c <_malloc_r+0x5f0>
    8c64:	00c52783          	lw	a5,12(a0)
    8c68:	d09ff06f          	j	8970 <_malloc_r+0x1e4>
    8c6c:	00842603          	lw	a2,8(s0)
    8c70:	0014e593          	ori	a1,s1,1
    8c74:	00b42223          	sw	a1,4(s0)
    8c78:	00f62623          	sw	a5,12(a2)
    8c7c:	00c7a423          	sw	a2,8(a5)
    8c80:	009404b3          	add	s1,s0,s1
    8c84:	00992a23          	sw	s1,20(s2)
    8c88:	00992823          	sw	s1,16(s2)
    8c8c:	0016e793          	ori	a5,a3,1
    8c90:	0114a623          	sw	a7,12(s1)
    8c94:	0114a423          	sw	a7,8(s1)
    8c98:	00f4a223          	sw	a5,4(s1)
    8c9c:	00e40733          	add	a4,s0,a4
    8ca0:	00098513          	mv	a0,s3
    8ca4:	00d72023          	sw	a3,0(a4)
    8ca8:	4a4000ef          	jal	ra,914c <__malloc_unlock>
    8cac:	00840513          	addi	a0,s0,8
    8cb0:	d19ff06f          	j	89c8 <_malloc_r+0x23c>
    8cb4:	0034d613          	srli	a2,s1,0x3
    8cb8:	00848793          	addi	a5,s1,8
    8cbc:	b29ff06f          	j	87e4 <_malloc_r+0x58>
    8cc0:	00a40733          	add	a4,s0,a0
    8cc4:	00472783          	lw	a5,4(a4)
    8cc8:	00098513          	mv	a0,s3
    8ccc:	0017e793          	ori	a5,a5,1
    8cd0:	00f72223          	sw	a5,4(a4)
    8cd4:	478000ef          	jal	ra,914c <__malloc_unlock>
    8cd8:	00840513          	addi	a0,s0,8
    8cdc:	cedff06f          	j	89c8 <_malloc_r+0x23c>
    8ce0:	0014e713          	ori	a4,s1,1
    8ce4:	00e42223          	sw	a4,4(s0)
    8ce8:	009404b3          	add	s1,s0,s1
    8cec:	00992a23          	sw	s1,20(s2)
    8cf0:	00992823          	sw	s1,16(s2)
    8cf4:	0017e713          	ori	a4,a5,1
    8cf8:	0114a623          	sw	a7,12(s1)
    8cfc:	0114a423          	sw	a7,8(s1)
    8d00:	00e4a223          	sw	a4,4(s1)
    8d04:	00a40533          	add	a0,s0,a0
    8d08:	00f52023          	sw	a5,0(a0)
    8d0c:	00098513          	mv	a0,s3
    8d10:	43c000ef          	jal	ra,914c <__malloc_unlock>
    8d14:	00840513          	addi	a0,s0,8
    8d18:	cb1ff06f          	j	89c8 <_malloc_r+0x23c>
    8d1c:	00655793          	srli	a5,a0,0x6
    8d20:	03978693          	addi	a3,a5,57
    8d24:	03878593          	addi	a1,a5,56
    8d28:	00369693          	slli	a3,a3,0x3
    8d2c:	ec5ff06f          	j	8bf0 <_malloc_r+0x464>
    8d30:	11240e63          	beq	s0,s2,8e4c <_malloc_r+0x6c0>
    8d34:	00892403          	lw	s0,8(s2)
    8d38:	00442a83          	lw	s5,4(s0)
    8d3c:	ffcafa93          	andi	s5,s5,-4
    8d40:	409a87b3          	sub	a5,s5,s1
    8d44:	009ae663          	bltu	s5,s1,8d50 <_malloc_r+0x5c4>
    8d48:	00f00713          	li	a4,15
    8d4c:	e4f748e3          	blt	a4,a5,8b9c <_malloc_r+0x410>
    8d50:	00098513          	mv	a0,s3
    8d54:	3f8000ef          	jal	ra,914c <__malloc_unlock>
    8d58:	00000513          	li	a0,0
    8d5c:	c6dff06f          	j	89c8 <_malloc_r+0x23c>
    8d60:	05c78613          	addi	a2,a5,92
    8d64:	05b78513          	addi	a0,a5,91
    8d68:	00361693          	slli	a3,a2,0x3
    8d6c:	b01ff06f          	j	886c <_malloc_r+0xe0>
    8d70:	00832783          	lw	a5,8(t1)
    8d74:	fff60613          	addi	a2,a2,-1
    8d78:	1c679263          	bne	a5,t1,8f3c <_malloc_r+0x7b0>
    8d7c:	00367793          	andi	a5,a2,3
    8d80:	ff830313          	addi	t1,t1,-8
    8d84:	fe0796e3          	bnez	a5,8d70 <_malloc_r+0x5e4>
    8d88:	00492703          	lw	a4,4(s2)
    8d8c:	fff5c793          	not	a5,a1
    8d90:	00e7f7b3          	and	a5,a5,a4
    8d94:	00f92223          	sw	a5,4(s2)
    8d98:	00159593          	slli	a1,a1,0x1
    8d9c:	c8b7eee3          	bltu	a5,a1,8a38 <_malloc_r+0x2ac>
    8da0:	c8058ce3          	beqz	a1,8a38 <_malloc_r+0x2ac>
    8da4:	00f5f733          	and	a4,a1,a5
    8da8:	00071a63          	bnez	a4,8dbc <_malloc_r+0x630>
    8dac:	00159593          	slli	a1,a1,0x1
    8db0:	00f5f733          	and	a4,a1,a5
    8db4:	004e0e13          	addi	t3,t3,4
    8db8:	fe070ae3          	beqz	a4,8dac <_malloc_r+0x620>
    8dbc:	000e0613          	mv	a2,t3
    8dc0:	b9dff06f          	j	895c <_malloc_r+0x1d0>
    8dc4:	010a8a93          	addi	s5,s5,16
    8dc8:	cc1ff06f          	j	8a88 <_malloc_r+0x2fc>
    8dcc:	00492503          	lw	a0,4(s2)
    8dd0:	4025d593          	srai	a1,a1,0x2
    8dd4:	00100713          	li	a4,1
    8dd8:	00b71733          	sll	a4,a4,a1
    8ddc:	00a76733          	or	a4,a4,a0
    8de0:	00e92223          	sw	a4,4(s2)
    8de4:	e39ff06f          	j	8c1c <_malloc_r+0x490>
    8de8:	015b85b3          	add	a1,s7,s5
    8dec:	40b005b3          	neg	a1,a1
    8df0:	01459593          	slli	a1,a1,0x14
    8df4:	0145da13          	srli	s4,a1,0x14
    8df8:	000a0593          	mv	a1,s4
    8dfc:	00098513          	mv	a0,s3
    8e00:	350000ef          	jal	ra,9150 <_sbrk_r>
    8e04:	fff00793          	li	a5,-1
    8e08:	d0f518e3          	bne	a0,a5,8b18 <_malloc_r+0x38c>
    8e0c:	00000a13          	li	s4,0
    8e10:	d11ff06f          	j	8b20 <_malloc_r+0x394>
    8e14:	05400713          	li	a4,84
    8e18:	08f76263          	bltu	a4,a5,8e9c <_malloc_r+0x710>
    8e1c:	00c55793          	srli	a5,a0,0xc
    8e20:	06f78693          	addi	a3,a5,111
    8e24:	06e78593          	addi	a1,a5,110
    8e28:	00369693          	slli	a3,a3,0x3
    8e2c:	dc5ff06f          	j	8bf0 <_malloc_r+0x464>
    8e30:	15400713          	li	a4,340
    8e34:	08f76263          	bltu	a4,a5,8eb8 <_malloc_r+0x72c>
    8e38:	00f4d793          	srli	a5,s1,0xf
    8e3c:	07878613          	addi	a2,a5,120
    8e40:	07778513          	addi	a0,a5,119
    8e44:	00361693          	slli	a3,a2,0x3
    8e48:	a25ff06f          	j	886c <_malloc_r+0xe0>
    8e4c:	00022c37          	lui	s8,0x22
    8e50:	7d8c0c13          	addi	s8,s8,2008 # 227d8 <__malloc_current_mallinfo>
    8e54:	000c2783          	lw	a5,0(s8)
    8e58:	00fa87b3          	add	a5,s5,a5
    8e5c:	00fc2023          	sw	a5,0(s8)
    8e60:	c61ff06f          	j	8ac0 <_malloc_r+0x334>
    8e64:	014a1713          	slli	a4,s4,0x14
    8e68:	c4071ce3          	bnez	a4,8ac0 <_malloc_r+0x334>
    8e6c:	00892403          	lw	s0,8(s2)
    8e70:	015b0ab3          	add	s5,s6,s5
    8e74:	001aea93          	ori	s5,s5,1
    8e78:	01542223          	sw	s5,4(s0)
    8e7c:	cfdff06f          	j	8b78 <_malloc_r+0x3ec>
    8e80:	0d7ca023          	sw	s7,192(s9)
    8e84:	c55ff06f          	j	8ad8 <_malloc_r+0x34c>
    8e88:	000b8413          	mv	s0,s7
    8e8c:	cedff06f          	j	8b78 <_malloc_r+0x3ec>
    8e90:	00100793          	li	a5,1
    8e94:	00fba223          	sw	a5,4(s7)
    8e98:	eb9ff06f          	j	8d50 <_malloc_r+0x5c4>
    8e9c:	15400713          	li	a4,340
    8ea0:	06f76263          	bltu	a4,a5,8f04 <_malloc_r+0x778>
    8ea4:	00f55793          	srli	a5,a0,0xf
    8ea8:	07878693          	addi	a3,a5,120
    8eac:	07778593          	addi	a1,a5,119
    8eb0:	00369693          	slli	a3,a3,0x3
    8eb4:	d3dff06f          	j	8bf0 <_malloc_r+0x464>
    8eb8:	55400713          	li	a4,1364
    8ebc:	06f76263          	bltu	a4,a5,8f20 <_malloc_r+0x794>
    8ec0:	0124d793          	srli	a5,s1,0x12
    8ec4:	07d78613          	addi	a2,a5,125
    8ec8:	07c78513          	addi	a0,a5,124
    8ecc:	00361693          	slli	a3,a2,0x3
    8ed0:	99dff06f          	j	886c <_malloc_r+0xe0>
    8ed4:	ff8c8c93          	addi	s9,s9,-8
    8ed8:	019a8ab3          	add	s5,s5,s9
    8edc:	417a8ab3          	sub	s5,s5,s7
    8ee0:	00000a13          	li	s4,0
    8ee4:	c3dff06f          	j	8b20 <_malloc_r+0x394>
    8ee8:	00840593          	addi	a1,s0,8
    8eec:	00098513          	mv	a0,s3
    8ef0:	400000ef          	jal	ra,92f0 <_free_r>
    8ef4:	00892403          	lw	s0,8(s2)
    8ef8:	000c2583          	lw	a1,0(s8)
    8efc:	00442a83          	lw	s5,4(s0)
    8f00:	c79ff06f          	j	8b78 <_malloc_r+0x3ec>
    8f04:	55400713          	li	a4,1364
    8f08:	02f76463          	bltu	a4,a5,8f30 <_malloc_r+0x7a4>
    8f0c:	01255793          	srli	a5,a0,0x12
    8f10:	07d78693          	addi	a3,a5,125
    8f14:	07c78593          	addi	a1,a5,124
    8f18:	00369693          	slli	a3,a3,0x3
    8f1c:	cd5ff06f          	j	8bf0 <_malloc_r+0x464>
    8f20:	3f800693          	li	a3,1016
    8f24:	07f00613          	li	a2,127
    8f28:	07e00513          	li	a0,126
    8f2c:	941ff06f          	j	886c <_malloc_r+0xe0>
    8f30:	3f800693          	li	a3,1016
    8f34:	07e00593          	li	a1,126
    8f38:	cb9ff06f          	j	8bf0 <_malloc_r+0x464>
    8f3c:	00492783          	lw	a5,4(s2)
    8f40:	e59ff06f          	j	8d98 <_malloc_r+0x60c>

00008f44 <memcpy>:
    8f44:	00a5c7b3          	xor	a5,a1,a0
    8f48:	0037f793          	andi	a5,a5,3
    8f4c:	00c508b3          	add	a7,a0,a2
    8f50:	06079663          	bnez	a5,8fbc <memcpy+0x78>
    8f54:	00300793          	li	a5,3
    8f58:	06c7f263          	bgeu	a5,a2,8fbc <memcpy+0x78>
    8f5c:	00357793          	andi	a5,a0,3
    8f60:	00050713          	mv	a4,a0
    8f64:	0c079a63          	bnez	a5,9038 <memcpy+0xf4>
    8f68:	ffc8f613          	andi	a2,a7,-4
    8f6c:	40e606b3          	sub	a3,a2,a4
    8f70:	02000793          	li	a5,32
    8f74:	02000293          	li	t0,32
    8f78:	06d7c263          	blt	a5,a3,8fdc <memcpy+0x98>
    8f7c:	00058693          	mv	a3,a1
    8f80:	00070793          	mv	a5,a4
    8f84:	02c77863          	bgeu	a4,a2,8fb4 <memcpy+0x70>
    8f88:	0006a803          	lw	a6,0(a3)
    8f8c:	00478793          	addi	a5,a5,4
    8f90:	00468693          	addi	a3,a3,4
    8f94:	ff07ae23          	sw	a6,-4(a5)
    8f98:	fec7e8e3          	bltu	a5,a2,8f88 <memcpy+0x44>
    8f9c:	fff60793          	addi	a5,a2,-1
    8fa0:	40e787b3          	sub	a5,a5,a4
    8fa4:	ffc7f793          	andi	a5,a5,-4
    8fa8:	00478793          	addi	a5,a5,4
    8fac:	00f70733          	add	a4,a4,a5
    8fb0:	00f585b3          	add	a1,a1,a5
    8fb4:	01176863          	bltu	a4,a7,8fc4 <memcpy+0x80>
    8fb8:	00008067          	ret
    8fbc:	00050713          	mv	a4,a0
    8fc0:	ff157ce3          	bgeu	a0,a7,8fb8 <memcpy+0x74>
    8fc4:	0005c783          	lbu	a5,0(a1)
    8fc8:	00170713          	addi	a4,a4,1
    8fcc:	00158593          	addi	a1,a1,1
    8fd0:	fef70fa3          	sb	a5,-1(a4)
    8fd4:	ff1768e3          	bltu	a4,a7,8fc4 <memcpy+0x80>
    8fd8:	00008067          	ret
    8fdc:	0045a683          	lw	a3,4(a1)
    8fe0:	01c5a783          	lw	a5,28(a1)
    8fe4:	0005af83          	lw	t6,0(a1)
    8fe8:	0085af03          	lw	t5,8(a1)
    8fec:	00c5ae83          	lw	t4,12(a1)
    8ff0:	0105ae03          	lw	t3,16(a1)
    8ff4:	0145a303          	lw	t1,20(a1)
    8ff8:	0185a803          	lw	a6,24(a1)
    8ffc:	00d72223          	sw	a3,4(a4)
    9000:	0205a683          	lw	a3,32(a1)
    9004:	01f72023          	sw	t6,0(a4)
    9008:	01e72423          	sw	t5,8(a4)
    900c:	01d72623          	sw	t4,12(a4)
    9010:	01c72823          	sw	t3,16(a4)
    9014:	00672a23          	sw	t1,20(a4)
    9018:	01072c23          	sw	a6,24(a4)
    901c:	00f72e23          	sw	a5,28(a4)
    9020:	02470713          	addi	a4,a4,36
    9024:	40e607b3          	sub	a5,a2,a4
    9028:	fed72e23          	sw	a3,-4(a4)
    902c:	02458593          	addi	a1,a1,36
    9030:	faf2c6e3          	blt	t0,a5,8fdc <memcpy+0x98>
    9034:	f49ff06f          	j	8f7c <memcpy+0x38>
    9038:	0005c683          	lbu	a3,0(a1)
    903c:	00170713          	addi	a4,a4,1
    9040:	00377793          	andi	a5,a4,3
    9044:	fed70fa3          	sb	a3,-1(a4)
    9048:	00158593          	addi	a1,a1,1
    904c:	f0078ee3          	beqz	a5,8f68 <memcpy+0x24>
    9050:	0005c683          	lbu	a3,0(a1)
    9054:	00170713          	addi	a4,a4,1
    9058:	00377793          	andi	a5,a4,3
    905c:	fed70fa3          	sb	a3,-1(a4)
    9060:	00158593          	addi	a1,a1,1
    9064:	fc079ae3          	bnez	a5,9038 <memcpy+0xf4>
    9068:	f01ff06f          	j	8f68 <memcpy+0x24>

0000906c <memset>:
    906c:	00f00313          	li	t1,15
    9070:	00050713          	mv	a4,a0
    9074:	02c37e63          	bgeu	t1,a2,90b0 <memset+0x44>
    9078:	00f77793          	andi	a5,a4,15
    907c:	0a079063          	bnez	a5,911c <memset+0xb0>
    9080:	08059263          	bnez	a1,9104 <memset+0x98>
    9084:	ff067693          	andi	a3,a2,-16
    9088:	00f67613          	andi	a2,a2,15
    908c:	00e686b3          	add	a3,a3,a4
    9090:	00b72023          	sw	a1,0(a4)
    9094:	00b72223          	sw	a1,4(a4)
    9098:	00b72423          	sw	a1,8(a4)
    909c:	00b72623          	sw	a1,12(a4)
    90a0:	01070713          	addi	a4,a4,16
    90a4:	fed766e3          	bltu	a4,a3,9090 <memset+0x24>
    90a8:	00061463          	bnez	a2,90b0 <memset+0x44>
    90ac:	00008067          	ret
    90b0:	40c306b3          	sub	a3,t1,a2
    90b4:	00269693          	slli	a3,a3,0x2
    90b8:	00000297          	auipc	t0,0x0
    90bc:	005686b3          	add	a3,a3,t0
    90c0:	00c68067          	jr	12(a3)
    90c4:	00b70723          	sb	a1,14(a4)
    90c8:	00b706a3          	sb	a1,13(a4)
    90cc:	00b70623          	sb	a1,12(a4)
    90d0:	00b705a3          	sb	a1,11(a4)
    90d4:	00b70523          	sb	a1,10(a4)
    90d8:	00b704a3          	sb	a1,9(a4)
    90dc:	00b70423          	sb	a1,8(a4)
    90e0:	00b703a3          	sb	a1,7(a4)
    90e4:	00b70323          	sb	a1,6(a4)
    90e8:	00b702a3          	sb	a1,5(a4)
    90ec:	00b70223          	sb	a1,4(a4)
    90f0:	00b701a3          	sb	a1,3(a4)
    90f4:	00b70123          	sb	a1,2(a4)
    90f8:	00b700a3          	sb	a1,1(a4)
    90fc:	00b70023          	sb	a1,0(a4)
    9100:	00008067          	ret
    9104:	0ff5f593          	zext.b	a1,a1
    9108:	00859693          	slli	a3,a1,0x8
    910c:	00d5e5b3          	or	a1,a1,a3
    9110:	01059693          	slli	a3,a1,0x10
    9114:	00d5e5b3          	or	a1,a1,a3
    9118:	f6dff06f          	j	9084 <memset+0x18>
    911c:	00279693          	slli	a3,a5,0x2
    9120:	00000297          	auipc	t0,0x0
    9124:	005686b3          	add	a3,a3,t0
    9128:	00008293          	mv	t0,ra
    912c:	fa0680e7          	jalr	-96(a3)
    9130:	00028093          	mv	ra,t0
    9134:	ff078793          	addi	a5,a5,-16
    9138:	40f70733          	sub	a4,a4,a5
    913c:	00f60633          	add	a2,a2,a5
    9140:	f6c378e3          	bgeu	t1,a2,90b0 <memset+0x44>
    9144:	f3dff06f          	j	9080 <memset+0x14>

00009148 <__malloc_lock>:
    9148:	00008067          	ret

0000914c <__malloc_unlock>:
    914c:	00008067          	ret

00009150 <_sbrk_r>:
    9150:	ff010113          	addi	sp,sp,-16
    9154:	00812423          	sw	s0,8(sp)
    9158:	00912223          	sw	s1,4(sp)
    915c:	00050413          	mv	s0,a0
    9160:	000214b7          	lui	s1,0x21
    9164:	00058513          	mv	a0,a1
    9168:	00112623          	sw	ra,12(sp)
    916c:	4604a423          	sw	zero,1128(s1) # 21468 <errno>
    9170:	fbcf80ef          	jal	ra,192c <_sbrk>
    9174:	fff00793          	li	a5,-1
    9178:	00f50c63          	beq	a0,a5,9190 <_sbrk_r+0x40>
    917c:	00c12083          	lw	ra,12(sp)
    9180:	00812403          	lw	s0,8(sp)
    9184:	00412483          	lw	s1,4(sp)
    9188:	01010113          	addi	sp,sp,16
    918c:	00008067          	ret
    9190:	4684a783          	lw	a5,1128(s1)
    9194:	fe0784e3          	beqz	a5,917c <_sbrk_r+0x2c>
    9198:	00c12083          	lw	ra,12(sp)
    919c:	00f42023          	sw	a5,0(s0)
    91a0:	00812403          	lw	s0,8(sp)
    91a4:	00412483          	lw	s1,4(sp)
    91a8:	01010113          	addi	sp,sp,16
    91ac:	00008067          	ret

000091b0 <_malloc_trim_r>:
    91b0:	fe010113          	addi	sp,sp,-32
    91b4:	01312623          	sw	s3,12(sp)
    91b8:	000219b7          	lui	s3,0x21
    91bc:	00812c23          	sw	s0,24(sp)
    91c0:	00912a23          	sw	s1,20(sp)
    91c4:	01212823          	sw	s2,16(sp)
    91c8:	01412423          	sw	s4,8(sp)
    91cc:	00112e23          	sw	ra,28(sp)
    91d0:	00058a13          	mv	s4,a1
    91d4:	00050913          	mv	s2,a0
    91d8:	b9898993          	addi	s3,s3,-1128 # 20b98 <__malloc_av_>
    91dc:	f6dff0ef          	jal	ra,9148 <__malloc_lock>
    91e0:	0089a703          	lw	a4,8(s3)
    91e4:	000017b7          	lui	a5,0x1
    91e8:	fef78413          	addi	s0,a5,-17 # fef <msgq_test+0x133>
    91ec:	00472483          	lw	s1,4(a4)
    91f0:	41440433          	sub	s0,s0,s4
    91f4:	ffc4f493          	andi	s1,s1,-4
    91f8:	00940433          	add	s0,s0,s1
    91fc:	00c45413          	srli	s0,s0,0xc
    9200:	fff40413          	addi	s0,s0,-1
    9204:	00c41413          	slli	s0,s0,0xc
    9208:	00f44e63          	blt	s0,a5,9224 <_malloc_trim_r+0x74>
    920c:	00000593          	li	a1,0
    9210:	00090513          	mv	a0,s2
    9214:	f3dff0ef          	jal	ra,9150 <_sbrk_r>
    9218:	0089a783          	lw	a5,8(s3)
    921c:	009787b3          	add	a5,a5,s1
    9220:	02f50863          	beq	a0,a5,9250 <_malloc_trim_r+0xa0>
    9224:	00090513          	mv	a0,s2
    9228:	f25ff0ef          	jal	ra,914c <__malloc_unlock>
    922c:	01c12083          	lw	ra,28(sp)
    9230:	01812403          	lw	s0,24(sp)
    9234:	01412483          	lw	s1,20(sp)
    9238:	01012903          	lw	s2,16(sp)
    923c:	00c12983          	lw	s3,12(sp)
    9240:	00812a03          	lw	s4,8(sp)
    9244:	00000513          	li	a0,0
    9248:	02010113          	addi	sp,sp,32
    924c:	00008067          	ret
    9250:	408005b3          	neg	a1,s0
    9254:	00090513          	mv	a0,s2
    9258:	ef9ff0ef          	jal	ra,9150 <_sbrk_r>
    925c:	fff00793          	li	a5,-1
    9260:	04f50a63          	beq	a0,a5,92b4 <_malloc_trim_r+0x104>
    9264:	000227b7          	lui	a5,0x22
    9268:	7d878793          	addi	a5,a5,2008 # 227d8 <__malloc_current_mallinfo>
    926c:	0007a703          	lw	a4,0(a5)
    9270:	0089a683          	lw	a3,8(s3)
    9274:	408484b3          	sub	s1,s1,s0
    9278:	0014e493          	ori	s1,s1,1
    927c:	40870433          	sub	s0,a4,s0
    9280:	00090513          	mv	a0,s2
    9284:	0096a223          	sw	s1,4(a3)
    9288:	0087a023          	sw	s0,0(a5)
    928c:	ec1ff0ef          	jal	ra,914c <__malloc_unlock>
    9290:	01c12083          	lw	ra,28(sp)
    9294:	01812403          	lw	s0,24(sp)
    9298:	01412483          	lw	s1,20(sp)
    929c:	01012903          	lw	s2,16(sp)
    92a0:	00c12983          	lw	s3,12(sp)
    92a4:	00812a03          	lw	s4,8(sp)
    92a8:	00100513          	li	a0,1
    92ac:	02010113          	addi	sp,sp,32
    92b0:	00008067          	ret
    92b4:	00000593          	li	a1,0
    92b8:	00090513          	mv	a0,s2
    92bc:	e95ff0ef          	jal	ra,9150 <_sbrk_r>
    92c0:	0089a703          	lw	a4,8(s3)
    92c4:	00f00693          	li	a3,15
    92c8:	40e507b3          	sub	a5,a0,a4
    92cc:	f4f6dce3          	bge	a3,a5,9224 <_malloc_trim_r+0x74>
    92d0:	000206b7          	lui	a3,0x20
    92d4:	0c06a683          	lw	a3,192(a3) # 200c0 <__malloc_sbrk_base>
    92d8:	0017e793          	ori	a5,a5,1
    92dc:	00f72223          	sw	a5,4(a4)
    92e0:	40d50533          	sub	a0,a0,a3
    92e4:	000226b7          	lui	a3,0x22
    92e8:	7ca6ac23          	sw	a0,2008(a3) # 227d8 <__malloc_current_mallinfo>
    92ec:	f39ff06f          	j	9224 <_malloc_trim_r+0x74>

000092f0 <_free_r>:
    92f0:	12058a63          	beqz	a1,9424 <_free_r+0x134>
    92f4:	ff010113          	addi	sp,sp,-16
    92f8:	00812423          	sw	s0,8(sp)
    92fc:	00912223          	sw	s1,4(sp)
    9300:	00058413          	mv	s0,a1
    9304:	00050493          	mv	s1,a0
    9308:	00112623          	sw	ra,12(sp)
    930c:	e3dff0ef          	jal	ra,9148 <__malloc_lock>
    9310:	ffc42803          	lw	a6,-4(s0)
    9314:	ff840713          	addi	a4,s0,-8
    9318:	000215b7          	lui	a1,0x21
    931c:	ffe87793          	andi	a5,a6,-2
    9320:	00f70633          	add	a2,a4,a5
    9324:	b9858593          	addi	a1,a1,-1128 # 20b98 <__malloc_av_>
    9328:	00462683          	lw	a3,4(a2)
    932c:	0085a503          	lw	a0,8(a1)
    9330:	ffc6f693          	andi	a3,a3,-4
    9334:	1ac50a63          	beq	a0,a2,94e8 <_free_r+0x1f8>
    9338:	00d62223          	sw	a3,4(a2)
    933c:	00187813          	andi	a6,a6,1
    9340:	00d60533          	add	a0,a2,a3
    9344:	0a081063          	bnez	a6,93e4 <_free_r+0xf4>
    9348:	ff842303          	lw	t1,-8(s0)
    934c:	00452803          	lw	a6,4(a0)
    9350:	00021537          	lui	a0,0x21
    9354:	40670733          	sub	a4,a4,t1
    9358:	00872883          	lw	a7,8(a4)
    935c:	ba050513          	addi	a0,a0,-1120 # 20ba0 <__malloc_av_+0x8>
    9360:	006787b3          	add	a5,a5,t1
    9364:	00187813          	andi	a6,a6,1
    9368:	14a88063          	beq	a7,a0,94a8 <_free_r+0x1b8>
    936c:	00c72303          	lw	t1,12(a4)
    9370:	0068a623          	sw	t1,12(a7)
    9374:	01132423          	sw	a7,8(t1)
    9378:	1e080463          	beqz	a6,9560 <_free_r+0x270>
    937c:	0017e693          	ori	a3,a5,1
    9380:	00d72223          	sw	a3,4(a4)
    9384:	00f62023          	sw	a5,0(a2)
    9388:	1ff00693          	li	a3,511
    938c:	0af6e863          	bltu	a3,a5,943c <_free_r+0x14c>
    9390:	ff87f693          	andi	a3,a5,-8
    9394:	00868693          	addi	a3,a3,8
    9398:	0045a503          	lw	a0,4(a1)
    939c:	00d586b3          	add	a3,a1,a3
    93a0:	0006a603          	lw	a2,0(a3)
    93a4:	0057d813          	srli	a6,a5,0x5
    93a8:	00100793          	li	a5,1
    93ac:	010797b3          	sll	a5,a5,a6
    93b0:	00a7e7b3          	or	a5,a5,a0
    93b4:	ff868513          	addi	a0,a3,-8
    93b8:	00a72623          	sw	a0,12(a4)
    93bc:	00c72423          	sw	a2,8(a4)
    93c0:	00f5a223          	sw	a5,4(a1)
    93c4:	00e6a023          	sw	a4,0(a3)
    93c8:	00e62623          	sw	a4,12(a2)
    93cc:	00812403          	lw	s0,8(sp)
    93d0:	00c12083          	lw	ra,12(sp)
    93d4:	00048513          	mv	a0,s1
    93d8:	00412483          	lw	s1,4(sp)
    93dc:	01010113          	addi	sp,sp,16
    93e0:	d6dff06f          	j	914c <__malloc_unlock>
    93e4:	00452503          	lw	a0,4(a0)
    93e8:	00157513          	andi	a0,a0,1
    93ec:	02051e63          	bnez	a0,9428 <_free_r+0x138>
    93f0:	00021537          	lui	a0,0x21
    93f4:	00d787b3          	add	a5,a5,a3
    93f8:	ba050513          	addi	a0,a0,-1120 # 20ba0 <__malloc_av_+0x8>
    93fc:	00862683          	lw	a3,8(a2)
    9400:	0017e893          	ori	a7,a5,1
    9404:	00f70833          	add	a6,a4,a5
    9408:	16a68863          	beq	a3,a0,9578 <_free_r+0x288>
    940c:	00c62603          	lw	a2,12(a2)
    9410:	00c6a623          	sw	a2,12(a3)
    9414:	00d62423          	sw	a3,8(a2)
    9418:	01172223          	sw	a7,4(a4)
    941c:	00f82023          	sw	a5,0(a6)
    9420:	f69ff06f          	j	9388 <_free_r+0x98>
    9424:	00008067          	ret
    9428:	0017e693          	ori	a3,a5,1
    942c:	fed42e23          	sw	a3,-4(s0)
    9430:	00f62023          	sw	a5,0(a2)
    9434:	1ff00693          	li	a3,511
    9438:	f4f6fce3          	bgeu	a3,a5,9390 <_free_r+0xa0>
    943c:	0097d693          	srli	a3,a5,0x9
    9440:	00400613          	li	a2,4
    9444:	0ed66c63          	bltu	a2,a3,953c <_free_r+0x24c>
    9448:	0067d693          	srli	a3,a5,0x6
    944c:	03968813          	addi	a6,a3,57
    9450:	03868613          	addi	a2,a3,56
    9454:	00381813          	slli	a6,a6,0x3
    9458:	01058833          	add	a6,a1,a6
    945c:	00082683          	lw	a3,0(a6)
    9460:	ff880813          	addi	a6,a6,-8
    9464:	12d80863          	beq	a6,a3,9594 <_free_r+0x2a4>
    9468:	0046a603          	lw	a2,4(a3)
    946c:	ffc67613          	andi	a2,a2,-4
    9470:	00c7f663          	bgeu	a5,a2,947c <_free_r+0x18c>
    9474:	0086a683          	lw	a3,8(a3)
    9478:	fed818e3          	bne	a6,a3,9468 <_free_r+0x178>
    947c:	00c6a803          	lw	a6,12(a3)
    9480:	01072623          	sw	a6,12(a4)
    9484:	00d72423          	sw	a3,8(a4)
    9488:	00812403          	lw	s0,8(sp)
    948c:	00c12083          	lw	ra,12(sp)
    9490:	00e82423          	sw	a4,8(a6)
    9494:	00048513          	mv	a0,s1
    9498:	00412483          	lw	s1,4(sp)
    949c:	00e6a623          	sw	a4,12(a3)
    94a0:	01010113          	addi	sp,sp,16
    94a4:	ca9ff06f          	j	914c <__malloc_unlock>
    94a8:	14081663          	bnez	a6,95f4 <_free_r+0x304>
    94ac:	00c62583          	lw	a1,12(a2)
    94b0:	00862603          	lw	a2,8(a2)
    94b4:	00f687b3          	add	a5,a3,a5
    94b8:	00812403          	lw	s0,8(sp)
    94bc:	00b62623          	sw	a1,12(a2)
    94c0:	00c5a423          	sw	a2,8(a1)
    94c4:	0017e693          	ori	a3,a5,1
    94c8:	00c12083          	lw	ra,12(sp)
    94cc:	00d72223          	sw	a3,4(a4)
    94d0:	00048513          	mv	a0,s1
    94d4:	00f70733          	add	a4,a4,a5
    94d8:	00412483          	lw	s1,4(sp)
    94dc:	00f72023          	sw	a5,0(a4)
    94e0:	01010113          	addi	sp,sp,16
    94e4:	c69ff06f          	j	914c <__malloc_unlock>
    94e8:	00187813          	andi	a6,a6,1
    94ec:	00d787b3          	add	a5,a5,a3
    94f0:	02081063          	bnez	a6,9510 <_free_r+0x220>
    94f4:	ff842503          	lw	a0,-8(s0)
    94f8:	40a70733          	sub	a4,a4,a0
    94fc:	00c72683          	lw	a3,12(a4)
    9500:	00872603          	lw	a2,8(a4)
    9504:	00a787b3          	add	a5,a5,a0
    9508:	00d62623          	sw	a3,12(a2)
    950c:	00c6a423          	sw	a2,8(a3)
    9510:	000206b7          	lui	a3,0x20
    9514:	0017e613          	ori	a2,a5,1
    9518:	0c46a683          	lw	a3,196(a3) # 200c4 <__malloc_trim_threshold>
    951c:	00c72223          	sw	a2,4(a4)
    9520:	00e5a423          	sw	a4,8(a1)
    9524:	ead7e4e3          	bltu	a5,a3,93cc <_free_r+0xdc>
    9528:	000217b7          	lui	a5,0x21
    952c:	4647a583          	lw	a1,1124(a5) # 21464 <__malloc_top_pad>
    9530:	00048513          	mv	a0,s1
    9534:	c7dff0ef          	jal	ra,91b0 <_malloc_trim_r>
    9538:	e95ff06f          	j	93cc <_free_r+0xdc>
    953c:	01400613          	li	a2,20
    9540:	02d67463          	bgeu	a2,a3,9568 <_free_r+0x278>
    9544:	05400613          	li	a2,84
    9548:	06d66463          	bltu	a2,a3,95b0 <_free_r+0x2c0>
    954c:	00c7d693          	srli	a3,a5,0xc
    9550:	06f68813          	addi	a6,a3,111
    9554:	06e68613          	addi	a2,a3,110
    9558:	00381813          	slli	a6,a6,0x3
    955c:	efdff06f          	j	9458 <_free_r+0x168>
    9560:	00d787b3          	add	a5,a5,a3
    9564:	e99ff06f          	j	93fc <_free_r+0x10c>
    9568:	05c68813          	addi	a6,a3,92
    956c:	05b68613          	addi	a2,a3,91
    9570:	00381813          	slli	a6,a6,0x3
    9574:	ee5ff06f          	j	9458 <_free_r+0x168>
    9578:	00e5aa23          	sw	a4,20(a1)
    957c:	00e5a823          	sw	a4,16(a1)
    9580:	00a72623          	sw	a0,12(a4)
    9584:	00a72423          	sw	a0,8(a4)
    9588:	01172223          	sw	a7,4(a4)
    958c:	00f82023          	sw	a5,0(a6)
    9590:	e3dff06f          	j	93cc <_free_r+0xdc>
    9594:	0045a503          	lw	a0,4(a1)
    9598:	40265613          	srai	a2,a2,0x2
    959c:	00100793          	li	a5,1
    95a0:	00c79633          	sll	a2,a5,a2
    95a4:	00a66633          	or	a2,a2,a0
    95a8:	00c5a223          	sw	a2,4(a1)
    95ac:	ed5ff06f          	j	9480 <_free_r+0x190>
    95b0:	15400613          	li	a2,340
    95b4:	00d66c63          	bltu	a2,a3,95cc <_free_r+0x2dc>
    95b8:	00f7d693          	srli	a3,a5,0xf
    95bc:	07868813          	addi	a6,a3,120
    95c0:	07768613          	addi	a2,a3,119
    95c4:	00381813          	slli	a6,a6,0x3
    95c8:	e91ff06f          	j	9458 <_free_r+0x168>
    95cc:	55400613          	li	a2,1364
    95d0:	00d66c63          	bltu	a2,a3,95e8 <_free_r+0x2f8>
    95d4:	0127d693          	srli	a3,a5,0x12
    95d8:	07d68813          	addi	a6,a3,125
    95dc:	07c68613          	addi	a2,a3,124
    95e0:	00381813          	slli	a6,a6,0x3
    95e4:	e75ff06f          	j	9458 <_free_r+0x168>
    95e8:	3f800813          	li	a6,1016
    95ec:	07e00613          	li	a2,126
    95f0:	e69ff06f          	j	9458 <_free_r+0x168>
    95f4:	0017e693          	ori	a3,a5,1
    95f8:	00d72223          	sw	a3,4(a4)
    95fc:	00f62023          	sw	a5,0(a2)
    9600:	dcdff06f          	j	93cc <_free_r+0xdc>

00009604 <cleanup_glue>:
    9604:	fe010113          	addi	sp,sp,-32
    9608:	01212823          	sw	s2,16(sp)
    960c:	0005a903          	lw	s2,0(a1)
    9610:	00812c23          	sw	s0,24(sp)
    9614:	00912a23          	sw	s1,20(sp)
    9618:	00112e23          	sw	ra,28(sp)
    961c:	01312623          	sw	s3,12(sp)
    9620:	01412423          	sw	s4,8(sp)
    9624:	00058413          	mv	s0,a1
    9628:	00050493          	mv	s1,a0
    962c:	04090263          	beqz	s2,9670 <cleanup_glue+0x6c>
    9630:	00092983          	lw	s3,0(s2)
    9634:	02098863          	beqz	s3,9664 <cleanup_glue+0x60>
    9638:	0009aa03          	lw	s4,0(s3)
    963c:	000a0e63          	beqz	s4,9658 <cleanup_glue+0x54>
    9640:	000a2583          	lw	a1,0(s4)
    9644:	00058463          	beqz	a1,964c <cleanup_glue+0x48>
    9648:	fbdff0ef          	jal	ra,9604 <cleanup_glue>
    964c:	000a0593          	mv	a1,s4
    9650:	00048513          	mv	a0,s1
    9654:	c9dff0ef          	jal	ra,92f0 <_free_r>
    9658:	00098593          	mv	a1,s3
    965c:	00048513          	mv	a0,s1
    9660:	c91ff0ef          	jal	ra,92f0 <_free_r>
    9664:	00090593          	mv	a1,s2
    9668:	00048513          	mv	a0,s1
    966c:	c85ff0ef          	jal	ra,92f0 <_free_r>
    9670:	00040593          	mv	a1,s0
    9674:	01812403          	lw	s0,24(sp)
    9678:	01c12083          	lw	ra,28(sp)
    967c:	01012903          	lw	s2,16(sp)
    9680:	00c12983          	lw	s3,12(sp)
    9684:	00812a03          	lw	s4,8(sp)
    9688:	00048513          	mv	a0,s1
    968c:	01412483          	lw	s1,20(sp)
    9690:	02010113          	addi	sp,sp,32
    9694:	c5dff06f          	j	92f0 <_free_r>

00009698 <_reclaim_reent>:
    9698:	000207b7          	lui	a5,0x20
    969c:	0c87a783          	lw	a5,200(a5) # 200c8 <_impure_ptr>
    96a0:	10a78a63          	beq	a5,a0,97b4 <_reclaim_reent+0x11c>
    96a4:	04c52583          	lw	a1,76(a0)
    96a8:	fe010113          	addi	sp,sp,-32
    96ac:	00912a23          	sw	s1,20(sp)
    96b0:	00112e23          	sw	ra,28(sp)
    96b4:	00812c23          	sw	s0,24(sp)
    96b8:	01212823          	sw	s2,16(sp)
    96bc:	01312623          	sw	s3,12(sp)
    96c0:	00050493          	mv	s1,a0
    96c4:	04058063          	beqz	a1,9704 <_reclaim_reent+0x6c>
    96c8:	00000913          	li	s2,0
    96cc:	08000993          	li	s3,128
    96d0:	012587b3          	add	a5,a1,s2
    96d4:	0007a403          	lw	s0,0(a5)
    96d8:	00040e63          	beqz	s0,96f4 <_reclaim_reent+0x5c>
    96dc:	00040593          	mv	a1,s0
    96e0:	00042403          	lw	s0,0(s0)
    96e4:	00048513          	mv	a0,s1
    96e8:	c09ff0ef          	jal	ra,92f0 <_free_r>
    96ec:	fe0418e3          	bnez	s0,96dc <_reclaim_reent+0x44>
    96f0:	04c4a583          	lw	a1,76(s1)
    96f4:	00490913          	addi	s2,s2,4
    96f8:	fd391ce3          	bne	s2,s3,96d0 <_reclaim_reent+0x38>
    96fc:	00048513          	mv	a0,s1
    9700:	bf1ff0ef          	jal	ra,92f0 <_free_r>
    9704:	0404a583          	lw	a1,64(s1)
    9708:	00058663          	beqz	a1,9714 <_reclaim_reent+0x7c>
    970c:	00048513          	mv	a0,s1
    9710:	be1ff0ef          	jal	ra,92f0 <_free_r>
    9714:	1484a403          	lw	s0,328(s1)
    9718:	02040063          	beqz	s0,9738 <_reclaim_reent+0xa0>
    971c:	14c48913          	addi	s2,s1,332
    9720:	01240c63          	beq	s0,s2,9738 <_reclaim_reent+0xa0>
    9724:	00040593          	mv	a1,s0
    9728:	00042403          	lw	s0,0(s0)
    972c:	00048513          	mv	a0,s1
    9730:	bc1ff0ef          	jal	ra,92f0 <_free_r>
    9734:	fe8918e3          	bne	s2,s0,9724 <_reclaim_reent+0x8c>
    9738:	0544a583          	lw	a1,84(s1)
    973c:	00058663          	beqz	a1,9748 <_reclaim_reent+0xb0>
    9740:	00048513          	mv	a0,s1
    9744:	badff0ef          	jal	ra,92f0 <_free_r>
    9748:	0384a783          	lw	a5,56(s1)
    974c:	04078663          	beqz	a5,9798 <_reclaim_reent+0x100>
    9750:	03c4a783          	lw	a5,60(s1)
    9754:	00048513          	mv	a0,s1
    9758:	000780e7          	jalr	a5
    975c:	2e04a403          	lw	s0,736(s1)
    9760:	02040c63          	beqz	s0,9798 <_reclaim_reent+0x100>
    9764:	00042583          	lw	a1,0(s0)
    9768:	00058663          	beqz	a1,9774 <_reclaim_reent+0xdc>
    976c:	00048513          	mv	a0,s1
    9770:	e95ff0ef          	jal	ra,9604 <cleanup_glue>
    9774:	00040593          	mv	a1,s0
    9778:	01812403          	lw	s0,24(sp)
    977c:	01c12083          	lw	ra,28(sp)
    9780:	01012903          	lw	s2,16(sp)
    9784:	00c12983          	lw	s3,12(sp)
    9788:	00048513          	mv	a0,s1
    978c:	01412483          	lw	s1,20(sp)
    9790:	02010113          	addi	sp,sp,32
    9794:	b5dff06f          	j	92f0 <_free_r>
    9798:	01c12083          	lw	ra,28(sp)
    979c:	01812403          	lw	s0,24(sp)
    97a0:	01412483          	lw	s1,20(sp)
    97a4:	01012903          	lw	s2,16(sp)
    97a8:	00c12983          	lw	s3,12(sp)
    97ac:	02010113          	addi	sp,sp,32
    97b0:	00008067          	ret
    97b4:	00008067          	ret

000097b8 <__clzsi2>:
    97b8:	000107b7          	lui	a5,0x10
    97bc:	02f57a63          	bgeu	a0,a5,97f0 <__clzsi2+0x38>
    97c0:	0ff00793          	li	a5,255
    97c4:	00a7b7b3          	sltu	a5,a5,a0
    97c8:	00379793          	slli	a5,a5,0x3
    97cc:	00021737          	lui	a4,0x21
    97d0:	02000693          	li	a3,32
    97d4:	40f686b3          	sub	a3,a3,a5
    97d8:	00f55533          	srl	a0,a0,a5
    97dc:	a9870793          	addi	a5,a4,-1384 # 20a98 <__clz_tab>
    97e0:	00a78533          	add	a0,a5,a0
    97e4:	00054503          	lbu	a0,0(a0)
    97e8:	40a68533          	sub	a0,a3,a0
    97ec:	00008067          	ret
    97f0:	01000737          	lui	a4,0x1000
    97f4:	01000793          	li	a5,16
    97f8:	fce56ae3          	bltu	a0,a4,97cc <__clzsi2+0x14>
    97fc:	01800793          	li	a5,24
    9800:	fcdff06f          	j	97cc <__clzsi2+0x14>

00009804 <__udivdi3>:
    9804:	00050893          	mv	a7,a0
    9808:	00058793          	mv	a5,a1
    980c:	00060813          	mv	a6,a2
    9810:	00068513          	mv	a0,a3
    9814:	00088313          	mv	t1,a7
    9818:	28069463          	bnez	a3,9aa0 <__udivdi3+0x29c>
    981c:	000216b7          	lui	a3,0x21
    9820:	a9868693          	addi	a3,a3,-1384 # 20a98 <__clz_tab>
    9824:	0ec5f663          	bgeu	a1,a2,9910 <__udivdi3+0x10c>
    9828:	00010737          	lui	a4,0x10
    982c:	0ce67863          	bgeu	a2,a4,98fc <__udivdi3+0xf8>
    9830:	0ff00713          	li	a4,255
    9834:	00c73733          	sltu	a4,a4,a2
    9838:	00371713          	slli	a4,a4,0x3
    983c:	00e65533          	srl	a0,a2,a4
    9840:	00a686b3          	add	a3,a3,a0
    9844:	0006c683          	lbu	a3,0(a3)
    9848:	02000513          	li	a0,32
    984c:	00e68733          	add	a4,a3,a4
    9850:	40e506b3          	sub	a3,a0,a4
    9854:	00e50c63          	beq	a0,a4,986c <__udivdi3+0x68>
    9858:	00d795b3          	sll	a1,a5,a3
    985c:	00e8d733          	srl	a4,a7,a4
    9860:	00d61833          	sll	a6,a2,a3
    9864:	00b765b3          	or	a1,a4,a1
    9868:	00d89333          	sll	t1,a7,a3
    986c:	01085893          	srli	a7,a6,0x10
    9870:	0315d6b3          	divu	a3,a1,a7
    9874:	01081613          	slli	a2,a6,0x10
    9878:	01065613          	srli	a2,a2,0x10
    987c:	01035793          	srli	a5,t1,0x10
    9880:	0315f733          	remu	a4,a1,a7
    9884:	00068513          	mv	a0,a3
    9888:	02d605b3          	mul	a1,a2,a3
    988c:	01071713          	slli	a4,a4,0x10
    9890:	00f767b3          	or	a5,a4,a5
    9894:	00b7fe63          	bgeu	a5,a1,98b0 <__udivdi3+0xac>
    9898:	010787b3          	add	a5,a5,a6
    989c:	fff68513          	addi	a0,a3,-1
    98a0:	0107e863          	bltu	a5,a6,98b0 <__udivdi3+0xac>
    98a4:	00b7f663          	bgeu	a5,a1,98b0 <__udivdi3+0xac>
    98a8:	ffe68513          	addi	a0,a3,-2
    98ac:	010787b3          	add	a5,a5,a6
    98b0:	40b787b3          	sub	a5,a5,a1
    98b4:	0317f733          	remu	a4,a5,a7
    98b8:	01031313          	slli	t1,t1,0x10
    98bc:	01035313          	srli	t1,t1,0x10
    98c0:	0317d7b3          	divu	a5,a5,a7
    98c4:	01071713          	slli	a4,a4,0x10
    98c8:	00676333          	or	t1,a4,t1
    98cc:	02f606b3          	mul	a3,a2,a5
    98d0:	00078613          	mv	a2,a5
    98d4:	00d37c63          	bgeu	t1,a3,98ec <__udivdi3+0xe8>
    98d8:	00680333          	add	t1,a6,t1
    98dc:	fff78613          	addi	a2,a5,-1 # ffff <_text_end+0x3edf>
    98e0:	01036663          	bltu	t1,a6,98ec <__udivdi3+0xe8>
    98e4:	00d37463          	bgeu	t1,a3,98ec <__udivdi3+0xe8>
    98e8:	ffe78613          	addi	a2,a5,-2
    98ec:	01051513          	slli	a0,a0,0x10
    98f0:	00c56533          	or	a0,a0,a2
    98f4:	00000593          	li	a1,0
    98f8:	0e40006f          	j	99dc <__udivdi3+0x1d8>
    98fc:	01000537          	lui	a0,0x1000
    9900:	01000713          	li	a4,16
    9904:	f2a66ce3          	bltu	a2,a0,983c <__udivdi3+0x38>
    9908:	01800713          	li	a4,24
    990c:	f31ff06f          	j	983c <__udivdi3+0x38>
    9910:	00061663          	bnez	a2,991c <__udivdi3+0x118>
    9914:	00100713          	li	a4,1
    9918:	02c75833          	divu	a6,a4,a2
    991c:	00010737          	lui	a4,0x10
    9920:	0ce87063          	bgeu	a6,a4,99e0 <__udivdi3+0x1dc>
    9924:	0ff00713          	li	a4,255
    9928:	01077463          	bgeu	a4,a6,9930 <__udivdi3+0x12c>
    992c:	00800513          	li	a0,8
    9930:	00a85733          	srl	a4,a6,a0
    9934:	00e686b3          	add	a3,a3,a4
    9938:	0006c703          	lbu	a4,0(a3)
    993c:	02000613          	li	a2,32
    9940:	00a70733          	add	a4,a4,a0
    9944:	40e606b3          	sub	a3,a2,a4
    9948:	0ae61663          	bne	a2,a4,99f4 <__udivdi3+0x1f0>
    994c:	410787b3          	sub	a5,a5,a6
    9950:	00100593          	li	a1,1
    9954:	01085893          	srli	a7,a6,0x10
    9958:	01081613          	slli	a2,a6,0x10
    995c:	01065613          	srli	a2,a2,0x10
    9960:	01035713          	srli	a4,t1,0x10
    9964:	0317f6b3          	remu	a3,a5,a7
    9968:	0317d7b3          	divu	a5,a5,a7
    996c:	01069693          	slli	a3,a3,0x10
    9970:	00e6e733          	or	a4,a3,a4
    9974:	02f60e33          	mul	t3,a2,a5
    9978:	00078513          	mv	a0,a5
    997c:	01c77e63          	bgeu	a4,t3,9998 <__udivdi3+0x194>
    9980:	01070733          	add	a4,a4,a6
    9984:	fff78513          	addi	a0,a5,-1
    9988:	01076863          	bltu	a4,a6,9998 <__udivdi3+0x194>
    998c:	01c77663          	bgeu	a4,t3,9998 <__udivdi3+0x194>
    9990:	ffe78513          	addi	a0,a5,-2
    9994:	01070733          	add	a4,a4,a6
    9998:	41c70733          	sub	a4,a4,t3
    999c:	031777b3          	remu	a5,a4,a7
    99a0:	01031313          	slli	t1,t1,0x10
    99a4:	01035313          	srli	t1,t1,0x10
    99a8:	03175733          	divu	a4,a4,a7
    99ac:	01079793          	slli	a5,a5,0x10
    99b0:	0067e333          	or	t1,a5,t1
    99b4:	02e606b3          	mul	a3,a2,a4
    99b8:	00070613          	mv	a2,a4
    99bc:	00d37c63          	bgeu	t1,a3,99d4 <__udivdi3+0x1d0>
    99c0:	00680333          	add	t1,a6,t1
    99c4:	fff70613          	addi	a2,a4,-1 # ffff <_text_end+0x3edf>
    99c8:	01036663          	bltu	t1,a6,99d4 <__udivdi3+0x1d0>
    99cc:	00d37463          	bgeu	t1,a3,99d4 <__udivdi3+0x1d0>
    99d0:	ffe70613          	addi	a2,a4,-2
    99d4:	01051513          	slli	a0,a0,0x10
    99d8:	00c56533          	or	a0,a0,a2
    99dc:	00008067          	ret
    99e0:	01000737          	lui	a4,0x1000
    99e4:	01000513          	li	a0,16
    99e8:	f4e864e3          	bltu	a6,a4,9930 <__udivdi3+0x12c>
    99ec:	01800513          	li	a0,24
    99f0:	f41ff06f          	j	9930 <__udivdi3+0x12c>
    99f4:	00d81833          	sll	a6,a6,a3
    99f8:	00e7d533          	srl	a0,a5,a4
    99fc:	00d89333          	sll	t1,a7,a3
    9a00:	00d797b3          	sll	a5,a5,a3
    9a04:	00e8d733          	srl	a4,a7,a4
    9a08:	01085893          	srli	a7,a6,0x10
    9a0c:	00f76633          	or	a2,a4,a5
    9a10:	03157733          	remu	a4,a0,a7
    9a14:	01081793          	slli	a5,a6,0x10
    9a18:	0107d793          	srli	a5,a5,0x10
    9a1c:	01065593          	srli	a1,a2,0x10
    9a20:	03155533          	divu	a0,a0,a7
    9a24:	01071713          	slli	a4,a4,0x10
    9a28:	00b76733          	or	a4,a4,a1
    9a2c:	02a786b3          	mul	a3,a5,a0
    9a30:	00050593          	mv	a1,a0
    9a34:	00d77e63          	bgeu	a4,a3,9a50 <__udivdi3+0x24c>
    9a38:	01070733          	add	a4,a4,a6
    9a3c:	fff50593          	addi	a1,a0,-1 # ffffff <_stack+0xfbffff>
    9a40:	01076863          	bltu	a4,a6,9a50 <__udivdi3+0x24c>
    9a44:	00d77663          	bgeu	a4,a3,9a50 <__udivdi3+0x24c>
    9a48:	ffe50593          	addi	a1,a0,-2
    9a4c:	01070733          	add	a4,a4,a6
    9a50:	40d706b3          	sub	a3,a4,a3
    9a54:	0316f733          	remu	a4,a3,a7
    9a58:	01061613          	slli	a2,a2,0x10
    9a5c:	01065613          	srli	a2,a2,0x10
    9a60:	0316d6b3          	divu	a3,a3,a7
    9a64:	01071713          	slli	a4,a4,0x10
    9a68:	02d78533          	mul	a0,a5,a3
    9a6c:	00c767b3          	or	a5,a4,a2
    9a70:	00068713          	mv	a4,a3
    9a74:	00a7fe63          	bgeu	a5,a0,9a90 <__udivdi3+0x28c>
    9a78:	010787b3          	add	a5,a5,a6
    9a7c:	fff68713          	addi	a4,a3,-1
    9a80:	0107e863          	bltu	a5,a6,9a90 <__udivdi3+0x28c>
    9a84:	00a7f663          	bgeu	a5,a0,9a90 <__udivdi3+0x28c>
    9a88:	ffe68713          	addi	a4,a3,-2
    9a8c:	010787b3          	add	a5,a5,a6
    9a90:	01059593          	slli	a1,a1,0x10
    9a94:	40a787b3          	sub	a5,a5,a0
    9a98:	00e5e5b3          	or	a1,a1,a4
    9a9c:	eb9ff06f          	j	9954 <__udivdi3+0x150>
    9aa0:	18d5e663          	bltu	a1,a3,9c2c <__udivdi3+0x428>
    9aa4:	00010737          	lui	a4,0x10
    9aa8:	04e6f463          	bgeu	a3,a4,9af0 <__udivdi3+0x2ec>
    9aac:	0ff00713          	li	a4,255
    9ab0:	00d735b3          	sltu	a1,a4,a3
    9ab4:	00359593          	slli	a1,a1,0x3
    9ab8:	00021737          	lui	a4,0x21
    9abc:	00b6d533          	srl	a0,a3,a1
    9ac0:	a9870713          	addi	a4,a4,-1384 # 20a98 <__clz_tab>
    9ac4:	00a70733          	add	a4,a4,a0
    9ac8:	00074703          	lbu	a4,0(a4)
    9acc:	02000513          	li	a0,32
    9ad0:	00b70733          	add	a4,a4,a1
    9ad4:	40e505b3          	sub	a1,a0,a4
    9ad8:	02e51663          	bne	a0,a4,9b04 <__udivdi3+0x300>
    9adc:	00100513          	li	a0,1
    9ae0:	eef6eee3          	bltu	a3,a5,99dc <__udivdi3+0x1d8>
    9ae4:	00c8b533          	sltu	a0,a7,a2
    9ae8:	00154513          	xori	a0,a0,1
    9aec:	ef1ff06f          	j	99dc <__udivdi3+0x1d8>
    9af0:	01000737          	lui	a4,0x1000
    9af4:	01000593          	li	a1,16
    9af8:	fce6e0e3          	bltu	a3,a4,9ab8 <__udivdi3+0x2b4>
    9afc:	01800593          	li	a1,24
    9b00:	fb9ff06f          	j	9ab8 <__udivdi3+0x2b4>
    9b04:	00e65833          	srl	a6,a2,a4
    9b08:	00b696b3          	sll	a3,a3,a1
    9b0c:	00d86833          	or	a6,a6,a3
    9b10:	00e7de33          	srl	t3,a5,a4
    9b14:	01085e93          	srli	t4,a6,0x10
    9b18:	03de76b3          	remu	a3,t3,t4
    9b1c:	00b797b3          	sll	a5,a5,a1
    9b20:	00e8d733          	srl	a4,a7,a4
    9b24:	00b61333          	sll	t1,a2,a1
    9b28:	00f76633          	or	a2,a4,a5
    9b2c:	01081793          	slli	a5,a6,0x10
    9b30:	0107d793          	srli	a5,a5,0x10
    9b34:	01065713          	srli	a4,a2,0x10
    9b38:	03de5e33          	divu	t3,t3,t4
    9b3c:	01069693          	slli	a3,a3,0x10
    9b40:	00e6e733          	or	a4,a3,a4
    9b44:	03c78f33          	mul	t5,a5,t3
    9b48:	000e0513          	mv	a0,t3
    9b4c:	01e77e63          	bgeu	a4,t5,9b68 <__udivdi3+0x364>
    9b50:	01070733          	add	a4,a4,a6
    9b54:	fffe0513          	addi	a0,t3,-1
    9b58:	01076863          	bltu	a4,a6,9b68 <__udivdi3+0x364>
    9b5c:	01e77663          	bgeu	a4,t5,9b68 <__udivdi3+0x364>
    9b60:	ffee0513          	addi	a0,t3,-2
    9b64:	01070733          	add	a4,a4,a6
    9b68:	41e70733          	sub	a4,a4,t5
    9b6c:	03d776b3          	remu	a3,a4,t4
    9b70:	03d75733          	divu	a4,a4,t4
    9b74:	01069693          	slli	a3,a3,0x10
    9b78:	02e78e33          	mul	t3,a5,a4
    9b7c:	01061793          	slli	a5,a2,0x10
    9b80:	0107d793          	srli	a5,a5,0x10
    9b84:	00f6e7b3          	or	a5,a3,a5
    9b88:	00070613          	mv	a2,a4
    9b8c:	01c7fe63          	bgeu	a5,t3,9ba8 <__udivdi3+0x3a4>
    9b90:	010787b3          	add	a5,a5,a6
    9b94:	fff70613          	addi	a2,a4,-1 # ffffff <_stack+0xfbffff>
    9b98:	0107e863          	bltu	a5,a6,9ba8 <__udivdi3+0x3a4>
    9b9c:	01c7f663          	bgeu	a5,t3,9ba8 <__udivdi3+0x3a4>
    9ba0:	ffe70613          	addi	a2,a4,-2
    9ba4:	010787b3          	add	a5,a5,a6
    9ba8:	01051513          	slli	a0,a0,0x10
    9bac:	00010eb7          	lui	t4,0x10
    9bb0:	00c56533          	or	a0,a0,a2
    9bb4:	fffe8693          	addi	a3,t4,-1 # ffff <_text_end+0x3edf>
    9bb8:	00d57833          	and	a6,a0,a3
    9bbc:	01055613          	srli	a2,a0,0x10
    9bc0:	00d376b3          	and	a3,t1,a3
    9bc4:	01035313          	srli	t1,t1,0x10
    9bc8:	41c787b3          	sub	a5,a5,t3
    9bcc:	02d80e33          	mul	t3,a6,a3
    9bd0:	02d606b3          	mul	a3,a2,a3
    9bd4:	010e5713          	srli	a4,t3,0x10
    9bd8:	02680833          	mul	a6,a6,t1
    9bdc:	00d80833          	add	a6,a6,a3
    9be0:	01070733          	add	a4,a4,a6
    9be4:	02660633          	mul	a2,a2,t1
    9be8:	00d77463          	bgeu	a4,a3,9bf0 <__udivdi3+0x3ec>
    9bec:	01d60633          	add	a2,a2,t4
    9bf0:	01075693          	srli	a3,a4,0x10
    9bf4:	00c68633          	add	a2,a3,a2
    9bf8:	02c7e663          	bltu	a5,a2,9c24 <__udivdi3+0x420>
    9bfc:	cec79ce3          	bne	a5,a2,98f4 <__udivdi3+0xf0>
    9c00:	000107b7          	lui	a5,0x10
    9c04:	fff78793          	addi	a5,a5,-1 # ffff <_text_end+0x3edf>
    9c08:	00f77733          	and	a4,a4,a5
    9c0c:	01071713          	slli	a4,a4,0x10
    9c10:	00fe7e33          	and	t3,t3,a5
    9c14:	00b898b3          	sll	a7,a7,a1
    9c18:	01c70733          	add	a4,a4,t3
    9c1c:	00000593          	li	a1,0
    9c20:	dae8fee3          	bgeu	a7,a4,99dc <__udivdi3+0x1d8>
    9c24:	fff50513          	addi	a0,a0,-1
    9c28:	ccdff06f          	j	98f4 <__udivdi3+0xf0>
    9c2c:	00000593          	li	a1,0
    9c30:	00000513          	li	a0,0
    9c34:	da9ff06f          	j	99dc <__udivdi3+0x1d8>

00009c38 <__umoddi3>:
    9c38:	00050e93          	mv	t4,a0
    9c3c:	00058313          	mv	t1,a1
    9c40:	00060813          	mv	a6,a2
    9c44:	00068793          	mv	a5,a3
    9c48:	22069a63          	bnez	a3,9e7c <__umoddi3+0x244>
    9c4c:	00021737          	lui	a4,0x21
    9c50:	a9870713          	addi	a4,a4,-1384 # 20a98 <__clz_tab>
    9c54:	0cc5fc63          	bgeu	a1,a2,9d2c <__umoddi3+0xf4>
    9c58:	000106b7          	lui	a3,0x10
    9c5c:	0ad67e63          	bgeu	a2,a3,9d18 <__umoddi3+0xe0>
    9c60:	0ff00693          	li	a3,255
    9c64:	00c6f463          	bgeu	a3,a2,9c6c <__umoddi3+0x34>
    9c68:	00800793          	li	a5,8
    9c6c:	00f656b3          	srl	a3,a2,a5
    9c70:	00d70733          	add	a4,a4,a3
    9c74:	00074703          	lbu	a4,0(a4)
    9c78:	00f707b3          	add	a5,a4,a5
    9c7c:	02000713          	li	a4,32
    9c80:	40f708b3          	sub	a7,a4,a5
    9c84:	00f70c63          	beq	a4,a5,9c9c <__umoddi3+0x64>
    9c88:	011315b3          	sll	a1,t1,a7
    9c8c:	00fed7b3          	srl	a5,t4,a5
    9c90:	01161833          	sll	a6,a2,a7
    9c94:	00b7e5b3          	or	a1,a5,a1
    9c98:	011e9533          	sll	a0,t4,a7
    9c9c:	01085693          	srli	a3,a6,0x10
    9ca0:	02d5f7b3          	remu	a5,a1,a3
    9ca4:	01081613          	slli	a2,a6,0x10
    9ca8:	01065613          	srli	a2,a2,0x10
    9cac:	01055713          	srli	a4,a0,0x10
    9cb0:	02d5d5b3          	divu	a1,a1,a3
    9cb4:	01079793          	slli	a5,a5,0x10
    9cb8:	00e7e733          	or	a4,a5,a4
    9cbc:	02b605b3          	mul	a1,a2,a1
    9cc0:	00b77a63          	bgeu	a4,a1,9cd4 <__umoddi3+0x9c>
    9cc4:	01070733          	add	a4,a4,a6
    9cc8:	01076663          	bltu	a4,a6,9cd4 <__umoddi3+0x9c>
    9ccc:	00b77463          	bgeu	a4,a1,9cd4 <__umoddi3+0x9c>
    9cd0:	01070733          	add	a4,a4,a6
    9cd4:	40b70733          	sub	a4,a4,a1
    9cd8:	02d777b3          	remu	a5,a4,a3
    9cdc:	01051513          	slli	a0,a0,0x10
    9ce0:	01055513          	srli	a0,a0,0x10
    9ce4:	02d75733          	divu	a4,a4,a3
    9ce8:	01079793          	slli	a5,a5,0x10
    9cec:	00a7e533          	or	a0,a5,a0
    9cf0:	02e60733          	mul	a4,a2,a4
    9cf4:	00e57a63          	bgeu	a0,a4,9d08 <__umoddi3+0xd0>
    9cf8:	01050533          	add	a0,a0,a6
    9cfc:	01056663          	bltu	a0,a6,9d08 <__umoddi3+0xd0>
    9d00:	00e57463          	bgeu	a0,a4,9d08 <__umoddi3+0xd0>
    9d04:	01050533          	add	a0,a0,a6
    9d08:	40e50533          	sub	a0,a0,a4
    9d0c:	01155533          	srl	a0,a0,a7
    9d10:	00000593          	li	a1,0
    9d14:	00008067          	ret
    9d18:	010006b7          	lui	a3,0x1000
    9d1c:	01000793          	li	a5,16
    9d20:	f4d666e3          	bltu	a2,a3,9c6c <__umoddi3+0x34>
    9d24:	01800793          	li	a5,24
    9d28:	f45ff06f          	j	9c6c <__umoddi3+0x34>
    9d2c:	00061663          	bnez	a2,9d38 <__umoddi3+0x100>
    9d30:	00100693          	li	a3,1
    9d34:	02c6d833          	divu	a6,a3,a2
    9d38:	000106b7          	lui	a3,0x10
    9d3c:	12d87663          	bgeu	a6,a3,9e68 <__umoddi3+0x230>
    9d40:	0ff00693          	li	a3,255
    9d44:	0106f463          	bgeu	a3,a6,9d4c <__umoddi3+0x114>
    9d48:	00800793          	li	a5,8
    9d4c:	00f856b3          	srl	a3,a6,a5
    9d50:	00d70733          	add	a4,a4,a3
    9d54:	00074603          	lbu	a2,0(a4)
    9d58:	410305b3          	sub	a1,t1,a6
    9d5c:	00f60633          	add	a2,a2,a5
    9d60:	02000793          	li	a5,32
    9d64:	40c788b3          	sub	a7,a5,a2
    9d68:	08c78663          	beq	a5,a2,9df4 <__umoddi3+0x1bc>
    9d6c:	01181833          	sll	a6,a6,a7
    9d70:	00c357b3          	srl	a5,t1,a2
    9d74:	011315b3          	sll	a1,t1,a7
    9d78:	01085313          	srli	t1,a6,0x10
    9d7c:	00ced633          	srl	a2,t4,a2
    9d80:	00b66633          	or	a2,a2,a1
    9d84:	01081593          	slli	a1,a6,0x10
    9d88:	0105d593          	srli	a1,a1,0x10
    9d8c:	011e9533          	sll	a0,t4,a7
    9d90:	0267d6b3          	divu	a3,a5,t1
    9d94:	0267f733          	remu	a4,a5,t1
    9d98:	01065793          	srli	a5,a2,0x10
    9d9c:	02d586b3          	mul	a3,a1,a3
    9da0:	01071713          	slli	a4,a4,0x10
    9da4:	00f76733          	or	a4,a4,a5
    9da8:	00d77a63          	bgeu	a4,a3,9dbc <__umoddi3+0x184>
    9dac:	01070733          	add	a4,a4,a6
    9db0:	01076663          	bltu	a4,a6,9dbc <__umoddi3+0x184>
    9db4:	00d77463          	bgeu	a4,a3,9dbc <__umoddi3+0x184>
    9db8:	01070733          	add	a4,a4,a6
    9dbc:	40d706b3          	sub	a3,a4,a3
    9dc0:	0266f733          	remu	a4,a3,t1
    9dc4:	01061613          	slli	a2,a2,0x10
    9dc8:	01065613          	srli	a2,a2,0x10
    9dcc:	0266d6b3          	divu	a3,a3,t1
    9dd0:	01071713          	slli	a4,a4,0x10
    9dd4:	02d586b3          	mul	a3,a1,a3
    9dd8:	00c765b3          	or	a1,a4,a2
    9ddc:	00d5fa63          	bgeu	a1,a3,9df0 <__umoddi3+0x1b8>
    9de0:	010585b3          	add	a1,a1,a6
    9de4:	0105e663          	bltu	a1,a6,9df0 <__umoddi3+0x1b8>
    9de8:	00d5f463          	bgeu	a1,a3,9df0 <__umoddi3+0x1b8>
    9dec:	010585b3          	add	a1,a1,a6
    9df0:	40d585b3          	sub	a1,a1,a3
    9df4:	01085693          	srli	a3,a6,0x10
    9df8:	02d5f733          	remu	a4,a1,a3
    9dfc:	01081793          	slli	a5,a6,0x10
    9e00:	0107d793          	srli	a5,a5,0x10
    9e04:	01055613          	srli	a2,a0,0x10
    9e08:	02d5d5b3          	divu	a1,a1,a3
    9e0c:	01071713          	slli	a4,a4,0x10
    9e10:	00c76733          	or	a4,a4,a2
    9e14:	02b785b3          	mul	a1,a5,a1
    9e18:	00b77a63          	bgeu	a4,a1,9e2c <__umoddi3+0x1f4>
    9e1c:	01070733          	add	a4,a4,a6
    9e20:	01076663          	bltu	a4,a6,9e2c <__umoddi3+0x1f4>
    9e24:	00b77463          	bgeu	a4,a1,9e2c <__umoddi3+0x1f4>
    9e28:	01070733          	add	a4,a4,a6
    9e2c:	40b705b3          	sub	a1,a4,a1
    9e30:	02d5f733          	remu	a4,a1,a3
    9e34:	01051513          	slli	a0,a0,0x10
    9e38:	01055513          	srli	a0,a0,0x10
    9e3c:	02d5d5b3          	divu	a1,a1,a3
    9e40:	02b785b3          	mul	a1,a5,a1
    9e44:	01071793          	slli	a5,a4,0x10
    9e48:	00a7e533          	or	a0,a5,a0
    9e4c:	00b57a63          	bgeu	a0,a1,9e60 <__umoddi3+0x228>
    9e50:	01050533          	add	a0,a0,a6
    9e54:	01056663          	bltu	a0,a6,9e60 <__umoddi3+0x228>
    9e58:	00b57463          	bgeu	a0,a1,9e60 <__umoddi3+0x228>
    9e5c:	01050533          	add	a0,a0,a6
    9e60:	40b50533          	sub	a0,a0,a1
    9e64:	ea9ff06f          	j	9d0c <__umoddi3+0xd4>
    9e68:	010006b7          	lui	a3,0x1000
    9e6c:	01000793          	li	a5,16
    9e70:	ecd86ee3          	bltu	a6,a3,9d4c <__umoddi3+0x114>
    9e74:	01800793          	li	a5,24
    9e78:	ed5ff06f          	j	9d4c <__umoddi3+0x114>
    9e7c:	e8d5ece3          	bltu	a1,a3,9d14 <__umoddi3+0xdc>
    9e80:	000107b7          	lui	a5,0x10
    9e84:	04f6f863          	bgeu	a3,a5,9ed4 <__umoddi3+0x29c>
    9e88:	0ff00893          	li	a7,255
    9e8c:	00d8b7b3          	sltu	a5,a7,a3
    9e90:	00379793          	slli	a5,a5,0x3
    9e94:	00021737          	lui	a4,0x21
    9e98:	00f6d833          	srl	a6,a3,a5
    9e9c:	a9870713          	addi	a4,a4,-1384 # 20a98 <__clz_tab>
    9ea0:	01070733          	add	a4,a4,a6
    9ea4:	00074883          	lbu	a7,0(a4)
    9ea8:	00f888b3          	add	a7,a7,a5
    9eac:	02000793          	li	a5,32
    9eb0:	41178833          	sub	a6,a5,a7
    9eb4:	03179a63          	bne	a5,a7,9ee8 <__umoddi3+0x2b0>
    9eb8:	0066e463          	bltu	a3,t1,9ec0 <__umoddi3+0x288>
    9ebc:	e4ceece3          	bltu	t4,a2,9d14 <__umoddi3+0xdc>
    9ec0:	40ce8533          	sub	a0,t4,a2
    9ec4:	40d305b3          	sub	a1,t1,a3
    9ec8:	00aebeb3          	sltu	t4,t4,a0
    9ecc:	41d585b3          	sub	a1,a1,t4
    9ed0:	e45ff06f          	j	9d14 <__umoddi3+0xdc>
    9ed4:	01000737          	lui	a4,0x1000
    9ed8:	01000793          	li	a5,16
    9edc:	fae6ece3          	bltu	a3,a4,9e94 <__umoddi3+0x25c>
    9ee0:	01800793          	li	a5,24
    9ee4:	fb1ff06f          	j	9e94 <__umoddi3+0x25c>
    9ee8:	011657b3          	srl	a5,a2,a7
    9eec:	010696b3          	sll	a3,a3,a6
    9ef0:	00d7ee33          	or	t3,a5,a3
    9ef4:	01135f33          	srl	t5,t1,a7
    9ef8:	011ed7b3          	srl	a5,t4,a7
    9efc:	010e9533          	sll	a0,t4,a6
    9f00:	010e5e93          	srli	t4,t3,0x10
    9f04:	010315b3          	sll	a1,t1,a6
    9f08:	03df5333          	divu	t1,t5,t4
    9f0c:	00b7e7b3          	or	a5,a5,a1
    9f10:	010e1593          	slli	a1,t3,0x10
    9f14:	0105d593          	srli	a1,a1,0x10
    9f18:	0107d713          	srli	a4,a5,0x10
    9f1c:	01061633          	sll	a2,a2,a6
    9f20:	03df76b3          	remu	a3,t5,t4
    9f24:	02658f33          	mul	t5,a1,t1
    9f28:	01069693          	slli	a3,a3,0x10
    9f2c:	00e6e733          	or	a4,a3,a4
    9f30:	00030693          	mv	a3,t1
    9f34:	01e77e63          	bgeu	a4,t5,9f50 <__umoddi3+0x318>
    9f38:	01c70733          	add	a4,a4,t3
    9f3c:	fff30693          	addi	a3,t1,-1
    9f40:	01c76863          	bltu	a4,t3,9f50 <__umoddi3+0x318>
    9f44:	01e77663          	bgeu	a4,t5,9f50 <__umoddi3+0x318>
    9f48:	ffe30693          	addi	a3,t1,-2
    9f4c:	01c70733          	add	a4,a4,t3
    9f50:	41e70733          	sub	a4,a4,t5
    9f54:	03d77333          	remu	t1,a4,t4
    9f58:	01079793          	slli	a5,a5,0x10
    9f5c:	0107d793          	srli	a5,a5,0x10
    9f60:	03d75733          	divu	a4,a4,t4
    9f64:	01031313          	slli	t1,t1,0x10
    9f68:	00f36333          	or	t1,t1,a5
    9f6c:	02e585b3          	mul	a1,a1,a4
    9f70:	00070793          	mv	a5,a4
    9f74:	00b37e63          	bgeu	t1,a1,9f90 <__umoddi3+0x358>
    9f78:	01c30333          	add	t1,t1,t3
    9f7c:	fff70793          	addi	a5,a4,-1 # ffffff <_stack+0xfbffff>
    9f80:	01c36863          	bltu	t1,t3,9f90 <__umoddi3+0x358>
    9f84:	00b37663          	bgeu	t1,a1,9f90 <__umoddi3+0x358>
    9f88:	ffe70793          	addi	a5,a4,-2
    9f8c:	01c30333          	add	t1,t1,t3
    9f90:	01069693          	slli	a3,a3,0x10
    9f94:	00010f37          	lui	t5,0x10
    9f98:	00f6e6b3          	or	a3,a3,a5
    9f9c:	40b305b3          	sub	a1,t1,a1
    9fa0:	ffff0313          	addi	t1,t5,-1 # ffff <_text_end+0x3edf>
    9fa4:	0066feb3          	and	t4,a3,t1
    9fa8:	01065713          	srli	a4,a2,0x10
    9fac:	0106d693          	srli	a3,a3,0x10
    9fb0:	00667333          	and	t1,a2,t1
    9fb4:	026e87b3          	mul	a5,t4,t1
    9fb8:	02668333          	mul	t1,a3,t1
    9fbc:	02ee8eb3          	mul	t4,t4,a4
    9fc0:	02e686b3          	mul	a3,a3,a4
    9fc4:	006e8eb3          	add	t4,t4,t1
    9fc8:	0107d713          	srli	a4,a5,0x10
    9fcc:	01d70733          	add	a4,a4,t4
    9fd0:	00677463          	bgeu	a4,t1,9fd8 <__umoddi3+0x3a0>
    9fd4:	01e686b3          	add	a3,a3,t5
    9fd8:	01075313          	srli	t1,a4,0x10
    9fdc:	00d306b3          	add	a3,t1,a3
    9fe0:	00010337          	lui	t1,0x10
    9fe4:	fff30313          	addi	t1,t1,-1 # ffff <_text_end+0x3edf>
    9fe8:	00677733          	and	a4,a4,t1
    9fec:	01071713          	slli	a4,a4,0x10
    9ff0:	0067f7b3          	and	a5,a5,t1
    9ff4:	00f707b3          	add	a5,a4,a5
    9ff8:	00d5e663          	bltu	a1,a3,a004 <__umoddi3+0x3cc>
    9ffc:	00d59e63          	bne	a1,a3,a018 <__umoddi3+0x3e0>
    a000:	00f57c63          	bgeu	a0,a5,a018 <__umoddi3+0x3e0>
    a004:	40c78633          	sub	a2,a5,a2
    a008:	00c7b7b3          	sltu	a5,a5,a2
    a00c:	01c787b3          	add	a5,a5,t3
    a010:	40f686b3          	sub	a3,a3,a5
    a014:	00060793          	mv	a5,a2
    a018:	40f507b3          	sub	a5,a0,a5
    a01c:	00f53533          	sltu	a0,a0,a5
    a020:	40d585b3          	sub	a1,a1,a3
    a024:	40a585b3          	sub	a1,a1,a0
    a028:	011598b3          	sll	a7,a1,a7
    a02c:	0107d533          	srl	a0,a5,a6
    a030:	00a8e533          	or	a0,a7,a0
    a034:	0105d5b3          	srl	a1,a1,a6
    a038:	cddff06f          	j	9d14 <__umoddi3+0xdc>

0000a03c <__adddf3>:
    a03c:	00100837          	lui	a6,0x100
    a040:	fff80813          	addi	a6,a6,-1 # fffff <_stack+0xbffff>
    a044:	fe010113          	addi	sp,sp,-32
    a048:	00b877b3          	and	a5,a6,a1
    a04c:	0145d713          	srli	a4,a1,0x14
    a050:	00d87833          	and	a6,a6,a3
    a054:	0146d313          	srli	t1,a3,0x14
    a058:	00812c23          	sw	s0,24(sp)
    a05c:	00379793          	slli	a5,a5,0x3
    a060:	7ff77413          	andi	s0,a4,2047
    a064:	01d55713          	srli	a4,a0,0x1d
    a068:	00381813          	slli	a6,a6,0x3
    a06c:	00912a23          	sw	s1,20(sp)
    a070:	00f767b3          	or	a5,a4,a5
    a074:	01f5d493          	srli	s1,a1,0x1f
    a078:	01d65713          	srli	a4,a2,0x1d
    a07c:	7ff37313          	andi	t1,t1,2047
    a080:	00112e23          	sw	ra,28(sp)
    a084:	01212823          	sw	s2,16(sp)
    a088:	01312623          	sw	s3,12(sp)
    a08c:	01f6d693          	srli	a3,a3,0x1f
    a090:	01076733          	or	a4,a4,a6
    a094:	00351593          	slli	a1,a0,0x3
    a098:	00361613          	slli	a2,a2,0x3
    a09c:	40640833          	sub	a6,s0,t1
    a0a0:	2cd49863          	bne	s1,a3,a370 <__adddf3+0x334>
    a0a4:	13005063          	blez	a6,a1c4 <__adddf3+0x188>
    a0a8:	04031063          	bnez	t1,a0e8 <__adddf3+0xac>
    a0ac:	00c766b3          	or	a3,a4,a2
    a0b0:	70068c63          	beqz	a3,a7c8 <__adddf3+0x78c>
    a0b4:	fff80513          	addi	a0,a6,-1
    a0b8:	02051063          	bnez	a0,a0d8 <__adddf3+0x9c>
    a0bc:	00c58633          	add	a2,a1,a2
    a0c0:	00b63533          	sltu	a0,a2,a1
    a0c4:	00e787b3          	add	a5,a5,a4
    a0c8:	00a787b3          	add	a5,a5,a0
    a0cc:	00060593          	mv	a1,a2
    a0d0:	00100413          	li	s0,1
    a0d4:	0700006f          	j	a144 <__adddf3+0x108>
    a0d8:	7ff00693          	li	a3,2047
    a0dc:	02d81063          	bne	a6,a3,a0fc <__adddf3+0xc0>
    a0e0:	7ff00413          	li	s0,2047
    a0e4:	2140006f          	j	a2f8 <__adddf3+0x2bc>
    a0e8:	7ff00693          	li	a3,2047
    a0ec:	20d40663          	beq	s0,a3,a2f8 <__adddf3+0x2bc>
    a0f0:	008006b7          	lui	a3,0x800
    a0f4:	00d76733          	or	a4,a4,a3
    a0f8:	00080513          	mv	a0,a6
    a0fc:	03800693          	li	a3,56
    a100:	0aa6cc63          	blt	a3,a0,a1b8 <__adddf3+0x17c>
    a104:	01f00693          	li	a3,31
    a108:	06a6ce63          	blt	a3,a0,a184 <__adddf3+0x148>
    a10c:	02000813          	li	a6,32
    a110:	40a80833          	sub	a6,a6,a0
    a114:	010716b3          	sll	a3,a4,a6
    a118:	00a658b3          	srl	a7,a2,a0
    a11c:	01061633          	sll	a2,a2,a6
    a120:	0116e6b3          	or	a3,a3,a7
    a124:	00c03633          	snez	a2,a2
    a128:	00c6e633          	or	a2,a3,a2
    a12c:	00a75733          	srl	a4,a4,a0
    a130:	00b60633          	add	a2,a2,a1
    a134:	00b63533          	sltu	a0,a2,a1
    a138:	00f70733          	add	a4,a4,a5
    a13c:	00a707b3          	add	a5,a4,a0
    a140:	00060593          	mv	a1,a2
    a144:	00800737          	lui	a4,0x800
    a148:	00e7f733          	and	a4,a5,a4
    a14c:	1a070663          	beqz	a4,a2f8 <__adddf3+0x2bc>
    a150:	00140413          	addi	s0,s0,1
    a154:	7ff00713          	li	a4,2047
    a158:	5ce40a63          	beq	s0,a4,a72c <__adddf3+0x6f0>
    a15c:	ff800737          	lui	a4,0xff800
    a160:	fff70713          	addi	a4,a4,-1 # ff7fffff <_stack+0xff7bffff>
    a164:	00e7f7b3          	and	a5,a5,a4
    a168:	0015f513          	andi	a0,a1,1
    a16c:	0015d713          	srli	a4,a1,0x1
    a170:	00a76533          	or	a0,a4,a0
    a174:	01f79593          	slli	a1,a5,0x1f
    a178:	00a5e5b3          	or	a1,a1,a0
    a17c:	0017d793          	srli	a5,a5,0x1
    a180:	1780006f          	j	a2f8 <__adddf3+0x2bc>
    a184:	fe050693          	addi	a3,a0,-32
    a188:	02000893          	li	a7,32
    a18c:	00d756b3          	srl	a3,a4,a3
    a190:	00000813          	li	a6,0
    a194:	01150863          	beq	a0,a7,a1a4 <__adddf3+0x168>
    a198:	04000813          	li	a6,64
    a19c:	40a80533          	sub	a0,a6,a0
    a1a0:	00a71833          	sll	a6,a4,a0
    a1a4:	00c86633          	or	a2,a6,a2
    a1a8:	00c03633          	snez	a2,a2
    a1ac:	00c6e633          	or	a2,a3,a2
    a1b0:	00000713          	li	a4,0
    a1b4:	f7dff06f          	j	a130 <__adddf3+0xf4>
    a1b8:	00c76633          	or	a2,a4,a2
    a1bc:	00c03633          	snez	a2,a2
    a1c0:	ff1ff06f          	j	a1b0 <__adddf3+0x174>
    a1c4:	0e080263          	beqz	a6,a2a8 <__adddf3+0x26c>
    a1c8:	40830533          	sub	a0,t1,s0
    a1cc:	02041e63          	bnez	s0,a208 <__adddf3+0x1cc>
    a1d0:	00b7e6b3          	or	a3,a5,a1
    a1d4:	52068c63          	beqz	a3,a70c <__adddf3+0x6d0>
    a1d8:	fff50693          	addi	a3,a0,-1
    a1dc:	00069c63          	bnez	a3,a1f4 <__adddf3+0x1b8>
    a1e0:	00c585b3          	add	a1,a1,a2
    a1e4:	00e787b3          	add	a5,a5,a4
    a1e8:	00c5b633          	sltu	a2,a1,a2
    a1ec:	00c787b3          	add	a5,a5,a2
    a1f0:	ee1ff06f          	j	a0d0 <__adddf3+0x94>
    a1f4:	7ff00813          	li	a6,2047
    a1f8:	03051263          	bne	a0,a6,a21c <__adddf3+0x1e0>
    a1fc:	00070793          	mv	a5,a4
    a200:	00060593          	mv	a1,a2
    a204:	eddff06f          	j	a0e0 <__adddf3+0xa4>
    a208:	7ff00693          	li	a3,2047
    a20c:	fed308e3          	beq	t1,a3,a1fc <__adddf3+0x1c0>
    a210:	008006b7          	lui	a3,0x800
    a214:	00d7e7b3          	or	a5,a5,a3
    a218:	00050693          	mv	a3,a0
    a21c:	03800513          	li	a0,56
    a220:	06d54e63          	blt	a0,a3,a29c <__adddf3+0x260>
    a224:	01f00513          	li	a0,31
    a228:	04d54063          	blt	a0,a3,a268 <__adddf3+0x22c>
    a22c:	02000813          	li	a6,32
    a230:	40d80833          	sub	a6,a6,a3
    a234:	01079533          	sll	a0,a5,a6
    a238:	00d5d8b3          	srl	a7,a1,a3
    a23c:	010595b3          	sll	a1,a1,a6
    a240:	01156533          	or	a0,a0,a7
    a244:	00b035b3          	snez	a1,a1
    a248:	00b56533          	or	a0,a0,a1
    a24c:	00d7d7b3          	srl	a5,a5,a3
    a250:	00c505b3          	add	a1,a0,a2
    a254:	00e787b3          	add	a5,a5,a4
    a258:	00c5b633          	sltu	a2,a1,a2
    a25c:	00c787b3          	add	a5,a5,a2
    a260:	00030413          	mv	s0,t1
    a264:	ee1ff06f          	j	a144 <__adddf3+0x108>
    a268:	fe068513          	addi	a0,a3,-32 # 7fffe0 <_stack+0x7bffe0>
    a26c:	02000893          	li	a7,32
    a270:	00a7d833          	srl	a6,a5,a0
    a274:	00000513          	li	a0,0
    a278:	01168863          	beq	a3,a7,a288 <__adddf3+0x24c>
    a27c:	04000513          	li	a0,64
    a280:	40d50533          	sub	a0,a0,a3
    a284:	00a79533          	sll	a0,a5,a0
    a288:	00b56533          	or	a0,a0,a1
    a28c:	00a03533          	snez	a0,a0
    a290:	00a86533          	or	a0,a6,a0
    a294:	00000793          	li	a5,0
    a298:	fb9ff06f          	j	a250 <__adddf3+0x214>
    a29c:	00b7e533          	or	a0,a5,a1
    a2a0:	00a03533          	snez	a0,a0
    a2a4:	ff1ff06f          	j	a294 <__adddf3+0x258>
    a2a8:	00140693          	addi	a3,s0,1
    a2ac:	7fe6f513          	andi	a0,a3,2046
    a2b0:	08051863          	bnez	a0,a340 <__adddf3+0x304>
    a2b4:	00b7e6b3          	or	a3,a5,a1
    a2b8:	06041463          	bnez	s0,a320 <__adddf3+0x2e4>
    a2bc:	46068063          	beqz	a3,a71c <__adddf3+0x6e0>
    a2c0:	00c766b3          	or	a3,a4,a2
    a2c4:	02068a63          	beqz	a3,a2f8 <__adddf3+0x2bc>
    a2c8:	00c58633          	add	a2,a1,a2
    a2cc:	00e787b3          	add	a5,a5,a4
    a2d0:	00b63533          	sltu	a0,a2,a1
    a2d4:	00a787b3          	add	a5,a5,a0
    a2d8:	00800737          	lui	a4,0x800
    a2dc:	00e7f733          	and	a4,a5,a4
    a2e0:	00060593          	mv	a1,a2
    a2e4:	00070a63          	beqz	a4,a2f8 <__adddf3+0x2bc>
    a2e8:	ff800737          	lui	a4,0xff800
    a2ec:	fff70713          	addi	a4,a4,-1 # ff7fffff <_stack+0xff7bffff>
    a2f0:	00e7f7b3          	and	a5,a5,a4
    a2f4:	00100413          	li	s0,1
    a2f8:	0075f713          	andi	a4,a1,7
    a2fc:	42070c63          	beqz	a4,a734 <__adddf3+0x6f8>
    a300:	00f5f713          	andi	a4,a1,15
    a304:	00400693          	li	a3,4
    a308:	42d70663          	beq	a4,a3,a734 <__adddf3+0x6f8>
    a30c:	00458713          	addi	a4,a1,4
    a310:	00b73533          	sltu	a0,a4,a1
    a314:	00a787b3          	add	a5,a5,a0
    a318:	00070593          	mv	a1,a4
    a31c:	4180006f          	j	a734 <__adddf3+0x6f8>
    a320:	ec068ee3          	beqz	a3,a1fc <__adddf3+0x1c0>
    a324:	00c76633          	or	a2,a4,a2
    a328:	da060ce3          	beqz	a2,a0e0 <__adddf3+0xa4>
    a32c:	00000493          	li	s1,0
    a330:	004007b7          	lui	a5,0x400
    a334:	00000593          	li	a1,0
    a338:	7ff00413          	li	s0,2047
    a33c:	3f80006f          	j	a734 <__adddf3+0x6f8>
    a340:	7ff00513          	li	a0,2047
    a344:	3ea68263          	beq	a3,a0,a728 <__adddf3+0x6ec>
    a348:	00c58633          	add	a2,a1,a2
    a34c:	00b63533          	sltu	a0,a2,a1
    a350:	00e787b3          	add	a5,a5,a4
    a354:	00a787b3          	add	a5,a5,a0
    a358:	01f79513          	slli	a0,a5,0x1f
    a35c:	00165613          	srli	a2,a2,0x1
    a360:	00c565b3          	or	a1,a0,a2
    a364:	0017d793          	srli	a5,a5,0x1
    a368:	00068413          	mv	s0,a3
    a36c:	f8dff06f          	j	a2f8 <__adddf3+0x2bc>
    a370:	0f005c63          	blez	a6,a468 <__adddf3+0x42c>
    a374:	08031e63          	bnez	t1,a410 <__adddf3+0x3d4>
    a378:	00c766b3          	or	a3,a4,a2
    a37c:	44068663          	beqz	a3,a7c8 <__adddf3+0x78c>
    a380:	fff80513          	addi	a0,a6,-1
    a384:	02051063          	bnez	a0,a3a4 <__adddf3+0x368>
    a388:	40c58633          	sub	a2,a1,a2
    a38c:	00c5b533          	sltu	a0,a1,a2
    a390:	40e787b3          	sub	a5,a5,a4
    a394:	40a787b3          	sub	a5,a5,a0
    a398:	00060593          	mv	a1,a2
    a39c:	00100413          	li	s0,1
    a3a0:	0540006f          	j	a3f4 <__adddf3+0x3b8>
    a3a4:	7ff00693          	li	a3,2047
    a3a8:	d2d80ce3          	beq	a6,a3,a0e0 <__adddf3+0xa4>
    a3ac:	03800693          	li	a3,56
    a3b0:	0aa6c663          	blt	a3,a0,a45c <__adddf3+0x420>
    a3b4:	01f00693          	li	a3,31
    a3b8:	06a6c863          	blt	a3,a0,a428 <__adddf3+0x3ec>
    a3bc:	02000813          	li	a6,32
    a3c0:	40a80833          	sub	a6,a6,a0
    a3c4:	010716b3          	sll	a3,a4,a6
    a3c8:	00a658b3          	srl	a7,a2,a0
    a3cc:	01061633          	sll	a2,a2,a6
    a3d0:	0116e6b3          	or	a3,a3,a7
    a3d4:	00c03633          	snez	a2,a2
    a3d8:	00c6e633          	or	a2,a3,a2
    a3dc:	00a75733          	srl	a4,a4,a0
    a3e0:	40c58633          	sub	a2,a1,a2
    a3e4:	00c5b533          	sltu	a0,a1,a2
    a3e8:	40e78733          	sub	a4,a5,a4
    a3ec:	40a707b3          	sub	a5,a4,a0
    a3f0:	00060593          	mv	a1,a2
    a3f4:	00800937          	lui	s2,0x800
    a3f8:	0127f733          	and	a4,a5,s2
    a3fc:	ee070ee3          	beqz	a4,a2f8 <__adddf3+0x2bc>
    a400:	fff90913          	addi	s2,s2,-1 # 7fffff <_stack+0x7bffff>
    a404:	0127f933          	and	s2,a5,s2
    a408:	00058993          	mv	s3,a1
    a40c:	2140006f          	j	a620 <__adddf3+0x5e4>
    a410:	7ff00693          	li	a3,2047
    a414:	eed402e3          	beq	s0,a3,a2f8 <__adddf3+0x2bc>
    a418:	008006b7          	lui	a3,0x800
    a41c:	00d76733          	or	a4,a4,a3
    a420:	00080513          	mv	a0,a6
    a424:	f89ff06f          	j	a3ac <__adddf3+0x370>
    a428:	fe050693          	addi	a3,a0,-32
    a42c:	02000893          	li	a7,32
    a430:	00d756b3          	srl	a3,a4,a3
    a434:	00000813          	li	a6,0
    a438:	01150863          	beq	a0,a7,a448 <__adddf3+0x40c>
    a43c:	04000813          	li	a6,64
    a440:	40a80533          	sub	a0,a6,a0
    a444:	00a71833          	sll	a6,a4,a0
    a448:	00c86633          	or	a2,a6,a2
    a44c:	00c03633          	snez	a2,a2
    a450:	00c6e633          	or	a2,a3,a2
    a454:	00000713          	li	a4,0
    a458:	f89ff06f          	j	a3e0 <__adddf3+0x3a4>
    a45c:	00c76633          	or	a2,a4,a2
    a460:	00c03633          	snez	a2,a2
    a464:	ff1ff06f          	j	a454 <__adddf3+0x418>
    a468:	0e080863          	beqz	a6,a558 <__adddf3+0x51c>
    a46c:	40830533          	sub	a0,t1,s0
    a470:	04041263          	bnez	s0,a4b4 <__adddf3+0x478>
    a474:	00b7e833          	or	a6,a5,a1
    a478:	34080c63          	beqz	a6,a7d0 <__adddf3+0x794>
    a47c:	fff50813          	addi	a6,a0,-1
    a480:	00081e63          	bnez	a6,a49c <__adddf3+0x460>
    a484:	40b605b3          	sub	a1,a2,a1
    a488:	40f707b3          	sub	a5,a4,a5
    a48c:	00b63633          	sltu	a2,a2,a1
    a490:	40c787b3          	sub	a5,a5,a2
    a494:	00068493          	mv	s1,a3
    a498:	f05ff06f          	j	a39c <__adddf3+0x360>
    a49c:	7ff00893          	li	a7,2047
    a4a0:	03151463          	bne	a0,a7,a4c8 <__adddf3+0x48c>
    a4a4:	00070793          	mv	a5,a4
    a4a8:	00060593          	mv	a1,a2
    a4ac:	7ff00413          	li	s0,2047
    a4b0:	0d00006f          	j	a580 <__adddf3+0x544>
    a4b4:	7ff00813          	li	a6,2047
    a4b8:	ff0306e3          	beq	t1,a6,a4a4 <__adddf3+0x468>
    a4bc:	00800837          	lui	a6,0x800
    a4c0:	0107e7b3          	or	a5,a5,a6
    a4c4:	00050813          	mv	a6,a0
    a4c8:	03800513          	li	a0,56
    a4cc:	09054063          	blt	a0,a6,a54c <__adddf3+0x510>
    a4d0:	01f00513          	li	a0,31
    a4d4:	05054263          	blt	a0,a6,a518 <__adddf3+0x4dc>
    a4d8:	02000893          	li	a7,32
    a4dc:	410888b3          	sub	a7,a7,a6
    a4e0:	01179533          	sll	a0,a5,a7
    a4e4:	0105de33          	srl	t3,a1,a6
    a4e8:	011595b3          	sll	a1,a1,a7
    a4ec:	01c56533          	or	a0,a0,t3
    a4f0:	00b035b3          	snez	a1,a1
    a4f4:	00b56533          	or	a0,a0,a1
    a4f8:	0107d7b3          	srl	a5,a5,a6
    a4fc:	40a605b3          	sub	a1,a2,a0
    a500:	40f707b3          	sub	a5,a4,a5
    a504:	00b63633          	sltu	a2,a2,a1
    a508:	40c787b3          	sub	a5,a5,a2
    a50c:	00030413          	mv	s0,t1
    a510:	00068493          	mv	s1,a3
    a514:	ee1ff06f          	j	a3f4 <__adddf3+0x3b8>
    a518:	fe080513          	addi	a0,a6,-32 # 7fffe0 <_stack+0x7bffe0>
    a51c:	02000e13          	li	t3,32
    a520:	00a7d8b3          	srl	a7,a5,a0
    a524:	00000513          	li	a0,0
    a528:	01c80863          	beq	a6,t3,a538 <__adddf3+0x4fc>
    a52c:	04000513          	li	a0,64
    a530:	41050533          	sub	a0,a0,a6
    a534:	00a79533          	sll	a0,a5,a0
    a538:	00b56533          	or	a0,a0,a1
    a53c:	00a03533          	snez	a0,a0
    a540:	00a8e533          	or	a0,a7,a0
    a544:	00000793          	li	a5,0
    a548:	fb5ff06f          	j	a4fc <__adddf3+0x4c0>
    a54c:	00b7e533          	or	a0,a5,a1
    a550:	00a03533          	snez	a0,a0
    a554:	ff1ff06f          	j	a544 <__adddf3+0x508>
    a558:	00140513          	addi	a0,s0,1
    a55c:	7fe57513          	andi	a0,a0,2046
    a560:	08051863          	bnez	a0,a5f0 <__adddf3+0x5b4>
    a564:	00b7e833          	or	a6,a5,a1
    a568:	00c76533          	or	a0,a4,a2
    a56c:	06041263          	bnez	s0,a5d0 <__adddf3+0x594>
    a570:	00081c63          	bnez	a6,a588 <__adddf3+0x54c>
    a574:	26050663          	beqz	a0,a7e0 <__adddf3+0x7a4>
    a578:	00070793          	mv	a5,a4
    a57c:	00060593          	mv	a1,a2
    a580:	00068493          	mv	s1,a3
    a584:	d75ff06f          	j	a2f8 <__adddf3+0x2bc>
    a588:	d60508e3          	beqz	a0,a2f8 <__adddf3+0x2bc>
    a58c:	40c58833          	sub	a6,a1,a2
    a590:	0105b8b3          	sltu	a7,a1,a6
    a594:	40e78533          	sub	a0,a5,a4
    a598:	41150533          	sub	a0,a0,a7
    a59c:	008008b7          	lui	a7,0x800
    a5a0:	011578b3          	and	a7,a0,a7
    a5a4:	00088c63          	beqz	a7,a5bc <__adddf3+0x580>
    a5a8:	40b605b3          	sub	a1,a2,a1
    a5ac:	40f707b3          	sub	a5,a4,a5
    a5b0:	00b63633          	sltu	a2,a2,a1
    a5b4:	40c787b3          	sub	a5,a5,a2
    a5b8:	fc9ff06f          	j	a580 <__adddf3+0x544>
    a5bc:	00a865b3          	or	a1,a6,a0
    a5c0:	22058863          	beqz	a1,a7f0 <__adddf3+0x7b4>
    a5c4:	00050793          	mv	a5,a0
    a5c8:	00080593          	mv	a1,a6
    a5cc:	d2dff06f          	j	a2f8 <__adddf3+0x2bc>
    a5d0:	00081c63          	bnez	a6,a5e8 <__adddf3+0x5ac>
    a5d4:	22050263          	beqz	a0,a7f8 <__adddf3+0x7bc>
    a5d8:	00070793          	mv	a5,a4
    a5dc:	00060593          	mv	a1,a2
    a5e0:	00068493          	mv	s1,a3
    a5e4:	afdff06f          	j	a0e0 <__adddf3+0xa4>
    a5e8:	ae050ce3          	beqz	a0,a0e0 <__adddf3+0xa4>
    a5ec:	d41ff06f          	j	a32c <__adddf3+0x2f0>
    a5f0:	40c589b3          	sub	s3,a1,a2
    a5f4:	0135b533          	sltu	a0,a1,s3
    a5f8:	40e78933          	sub	s2,a5,a4
    a5fc:	40a90933          	sub	s2,s2,a0
    a600:	00800537          	lui	a0,0x800
    a604:	00a97533          	and	a0,s2,a0
    a608:	08050463          	beqz	a0,a690 <__adddf3+0x654>
    a60c:	40b609b3          	sub	s3,a2,a1
    a610:	40f707b3          	sub	a5,a4,a5
    a614:	01363633          	sltu	a2,a2,s3
    a618:	40c78933          	sub	s2,a5,a2
    a61c:	00068493          	mv	s1,a3
    a620:	08090263          	beqz	s2,a6a4 <__adddf3+0x668>
    a624:	00090513          	mv	a0,s2
    a628:	990ff0ef          	jal	ra,97b8 <__clzsi2>
    a62c:	ff850713          	addi	a4,a0,-8 # 7ffff8 <_stack+0x7bfff8>
    a630:	01f00793          	li	a5,31
    a634:	08e7c063          	blt	a5,a4,a6b4 <__adddf3+0x678>
    a638:	02000793          	li	a5,32
    a63c:	40e787b3          	sub	a5,a5,a4
    a640:	00e91933          	sll	s2,s2,a4
    a644:	00f9d7b3          	srl	a5,s3,a5
    a648:	0127e7b3          	or	a5,a5,s2
    a64c:	00e995b3          	sll	a1,s3,a4
    a650:	0a874463          	blt	a4,s0,a6f8 <__adddf3+0x6bc>
    a654:	40870733          	sub	a4,a4,s0
    a658:	00170693          	addi	a3,a4,1
    a65c:	01f00613          	li	a2,31
    a660:	06d64263          	blt	a2,a3,a6c4 <__adddf3+0x688>
    a664:	02000713          	li	a4,32
    a668:	40d70733          	sub	a4,a4,a3
    a66c:	00e79633          	sll	a2,a5,a4
    a670:	00d5d533          	srl	a0,a1,a3
    a674:	00e595b3          	sll	a1,a1,a4
    a678:	00a66633          	or	a2,a2,a0
    a67c:	00b035b3          	snez	a1,a1
    a680:	00b665b3          	or	a1,a2,a1
    a684:	00d7d7b3          	srl	a5,a5,a3
    a688:	00000413          	li	s0,0
    a68c:	c6dff06f          	j	a2f8 <__adddf3+0x2bc>
    a690:	0129e5b3          	or	a1,s3,s2
    a694:	f80596e3          	bnez	a1,a620 <__adddf3+0x5e4>
    a698:	00000793          	li	a5,0
    a69c:	00000413          	li	s0,0
    a6a0:	1480006f          	j	a7e8 <__adddf3+0x7ac>
    a6a4:	00098513          	mv	a0,s3
    a6a8:	910ff0ef          	jal	ra,97b8 <__clzsi2>
    a6ac:	02050513          	addi	a0,a0,32
    a6b0:	f7dff06f          	j	a62c <__adddf3+0x5f0>
    a6b4:	fd850793          	addi	a5,a0,-40
    a6b8:	00f997b3          	sll	a5,s3,a5
    a6bc:	00000593          	li	a1,0
    a6c0:	f91ff06f          	j	a650 <__adddf3+0x614>
    a6c4:	fe170713          	addi	a4,a4,-31
    a6c8:	02000613          	li	a2,32
    a6cc:	00e7d733          	srl	a4,a5,a4
    a6d0:	00000513          	li	a0,0
    a6d4:	00c68863          	beq	a3,a2,a6e4 <__adddf3+0x6a8>
    a6d8:	04000513          	li	a0,64
    a6dc:	40d50533          	sub	a0,a0,a3
    a6e0:	00a79533          	sll	a0,a5,a0
    a6e4:	00a5e533          	or	a0,a1,a0
    a6e8:	00a03533          	snez	a0,a0
    a6ec:	00a765b3          	or	a1,a4,a0
    a6f0:	00000793          	li	a5,0
    a6f4:	f95ff06f          	j	a688 <__adddf3+0x64c>
    a6f8:	40e40433          	sub	s0,s0,a4
    a6fc:	ff800737          	lui	a4,0xff800
    a700:	fff70713          	addi	a4,a4,-1 # ff7fffff <_stack+0xff7bffff>
    a704:	00e7f7b3          	and	a5,a5,a4
    a708:	bf1ff06f          	j	a2f8 <__adddf3+0x2bc>
    a70c:	00070793          	mv	a5,a4
    a710:	00060593          	mv	a1,a2
    a714:	00050413          	mv	s0,a0
    a718:	be1ff06f          	j	a2f8 <__adddf3+0x2bc>
    a71c:	00070793          	mv	a5,a4
    a720:	00060593          	mv	a1,a2
    a724:	bd5ff06f          	j	a2f8 <__adddf3+0x2bc>
    a728:	7ff00413          	li	s0,2047
    a72c:	00000793          	li	a5,0
    a730:	00000593          	li	a1,0
    a734:	00800737          	lui	a4,0x800
    a738:	00e7f733          	and	a4,a5,a4
    a73c:	00070e63          	beqz	a4,a758 <__adddf3+0x71c>
    a740:	00140413          	addi	s0,s0,1
    a744:	7ff00713          	li	a4,2047
    a748:	0ce40063          	beq	s0,a4,a808 <__adddf3+0x7cc>
    a74c:	ff800737          	lui	a4,0xff800
    a750:	fff70713          	addi	a4,a4,-1 # ff7fffff <_stack+0xff7bffff>
    a754:	00e7f7b3          	and	a5,a5,a4
    a758:	01d79713          	slli	a4,a5,0x1d
    a75c:	0035d513          	srli	a0,a1,0x3
    a760:	00a76533          	or	a0,a4,a0
    a764:	7ff00713          	li	a4,2047
    a768:	0037d793          	srli	a5,a5,0x3
    a76c:	00e41e63          	bne	s0,a4,a788 <__adddf3+0x74c>
    a770:	00f56533          	or	a0,a0,a5
    a774:	00000793          	li	a5,0
    a778:	00050863          	beqz	a0,a788 <__adddf3+0x74c>
    a77c:	000807b7          	lui	a5,0x80
    a780:	00000513          	li	a0,0
    a784:	00000493          	li	s1,0
    a788:	01441713          	slli	a4,s0,0x14
    a78c:	7ff006b7          	lui	a3,0x7ff00
    a790:	00c79793          	slli	a5,a5,0xc
    a794:	01c12083          	lw	ra,28(sp)
    a798:	01812403          	lw	s0,24(sp)
    a79c:	00d77733          	and	a4,a4,a3
    a7a0:	00c7d793          	srli	a5,a5,0xc
    a7a4:	01f49493          	slli	s1,s1,0x1f
    a7a8:	00f767b3          	or	a5,a4,a5
    a7ac:	0097e733          	or	a4,a5,s1
    a7b0:	01012903          	lw	s2,16(sp)
    a7b4:	01412483          	lw	s1,20(sp)
    a7b8:	00c12983          	lw	s3,12(sp)
    a7bc:	00070593          	mv	a1,a4
    a7c0:	02010113          	addi	sp,sp,32
    a7c4:	00008067          	ret
    a7c8:	00080413          	mv	s0,a6
    a7cc:	b2dff06f          	j	a2f8 <__adddf3+0x2bc>
    a7d0:	00070793          	mv	a5,a4
    a7d4:	00060593          	mv	a1,a2
    a7d8:	00050413          	mv	s0,a0
    a7dc:	da5ff06f          	j	a580 <__adddf3+0x544>
    a7e0:	00000793          	li	a5,0
    a7e4:	00000593          	li	a1,0
    a7e8:	00000493          	li	s1,0
    a7ec:	f49ff06f          	j	a734 <__adddf3+0x6f8>
    a7f0:	00000793          	li	a5,0
    a7f4:	ff5ff06f          	j	a7e8 <__adddf3+0x7ac>
    a7f8:	00000593          	li	a1,0
    a7fc:	00000493          	li	s1,0
    a800:	004007b7          	lui	a5,0x400
    a804:	b35ff06f          	j	a338 <__adddf3+0x2fc>
    a808:	00000793          	li	a5,0
    a80c:	00000593          	li	a1,0
    a810:	f49ff06f          	j	a758 <__adddf3+0x71c>

0000a814 <__divdf3>:
    a814:	fd010113          	addi	sp,sp,-48
    a818:	03212023          	sw	s2,32(sp)
    a81c:	0145d913          	srli	s2,a1,0x14
    a820:	02912223          	sw	s1,36(sp)
    a824:	01312e23          	sw	s3,28(sp)
    a828:	01412c23          	sw	s4,24(sp)
    a82c:	01612823          	sw	s6,16(sp)
    a830:	01812423          	sw	s8,8(sp)
    a834:	00c59493          	slli	s1,a1,0xc
    a838:	02112623          	sw	ra,44(sp)
    a83c:	02812423          	sw	s0,40(sp)
    a840:	01512a23          	sw	s5,20(sp)
    a844:	01712623          	sw	s7,12(sp)
    a848:	7ff97913          	andi	s2,s2,2047
    a84c:	00050a13          	mv	s4,a0
    a850:	00060b13          	mv	s6,a2
    a854:	00068c13          	mv	s8,a3
    a858:	00c4d493          	srli	s1,s1,0xc
    a85c:	01f5d993          	srli	s3,a1,0x1f
    a860:	0a090063          	beqz	s2,a900 <__divdf3+0xec>
    a864:	7ff00793          	li	a5,2047
    a868:	0ef90e63          	beq	s2,a5,a964 <__divdf3+0x150>
    a86c:	01d55a93          	srli	s5,a0,0x1d
    a870:	00349493          	slli	s1,s1,0x3
    a874:	009ae4b3          	or	s1,s5,s1
    a878:	00800ab7          	lui	s5,0x800
    a87c:	0154eab3          	or	s5,s1,s5
    a880:	00351413          	slli	s0,a0,0x3
    a884:	c0190913          	addi	s2,s2,-1023
    a888:	00000b93          	li	s7,0
    a88c:	00cc1513          	slli	a0,s8,0xc
    a890:	00c55493          	srli	s1,a0,0xc
    a894:	014c5513          	srli	a0,s8,0x14
    a898:	7ff57593          	andi	a1,a0,2047
    a89c:	01fc5c13          	srli	s8,s8,0x1f
    a8a0:	10058063          	beqz	a1,a9a0 <__divdf3+0x18c>
    a8a4:	7ff00793          	li	a5,2047
    a8a8:	16f58263          	beq	a1,a5,aa0c <__divdf3+0x1f8>
    a8ac:	00349513          	slli	a0,s1,0x3
    a8b0:	01db5793          	srli	a5,s6,0x1d
    a8b4:	00a7e533          	or	a0,a5,a0
    a8b8:	008004b7          	lui	s1,0x800
    a8bc:	009564b3          	or	s1,a0,s1
    a8c0:	003b1f93          	slli	t6,s6,0x3
    a8c4:	c0158513          	addi	a0,a1,-1023
    a8c8:	00000793          	li	a5,0
    a8cc:	002b9713          	slli	a4,s7,0x2
    a8d0:	00f76733          	or	a4,a4,a5
    a8d4:	fff70713          	addi	a4,a4,-1
    a8d8:	00e00613          	li	a2,14
    a8dc:	0189c6b3          	xor	a3,s3,s8
    a8e0:	40a905b3          	sub	a1,s2,a0
    a8e4:	16e66063          	bltu	a2,a4,aa44 <__divdf3+0x230>
    a8e8:	00021637          	lui	a2,0x21
    a8ec:	00271713          	slli	a4,a4,0x2
    a8f0:	a2060613          	addi	a2,a2,-1504 # 20a20 <pow10.0+0x58>
    a8f4:	00c70733          	add	a4,a4,a2
    a8f8:	00072703          	lw	a4,0(a4)
    a8fc:	00070067          	jr	a4
    a900:	00a4eab3          	or	s5,s1,a0
    a904:	060a8e63          	beqz	s5,a980 <__divdf3+0x16c>
    a908:	04048063          	beqz	s1,a948 <__divdf3+0x134>
    a90c:	00048513          	mv	a0,s1
    a910:	ea9fe0ef          	jal	ra,97b8 <__clzsi2>
    a914:	ff550793          	addi	a5,a0,-11
    a918:	01c00713          	li	a4,28
    a91c:	02f74c63          	blt	a4,a5,a954 <__divdf3+0x140>
    a920:	01d00a93          	li	s5,29
    a924:	ff850413          	addi	s0,a0,-8
    a928:	40fa8ab3          	sub	s5,s5,a5
    a92c:	008494b3          	sll	s1,s1,s0
    a930:	015a5ab3          	srl	s5,s4,s5
    a934:	009aeab3          	or	s5,s5,s1
    a938:	008a1433          	sll	s0,s4,s0
    a93c:	c0d00593          	li	a1,-1011
    a940:	40a58933          	sub	s2,a1,a0
    a944:	f45ff06f          	j	a888 <__divdf3+0x74>
    a948:	e71fe0ef          	jal	ra,97b8 <__clzsi2>
    a94c:	02050513          	addi	a0,a0,32
    a950:	fc5ff06f          	j	a914 <__divdf3+0x100>
    a954:	fd850493          	addi	s1,a0,-40
    a958:	009a1ab3          	sll	s5,s4,s1
    a95c:	00000413          	li	s0,0
    a960:	fddff06f          	j	a93c <__divdf3+0x128>
    a964:	00a4eab3          	or	s5,s1,a0
    a968:	020a8463          	beqz	s5,a990 <__divdf3+0x17c>
    a96c:	00050413          	mv	s0,a0
    a970:	00048a93          	mv	s5,s1
    a974:	7ff00913          	li	s2,2047
    a978:	00300b93          	li	s7,3
    a97c:	f11ff06f          	j	a88c <__divdf3+0x78>
    a980:	00000413          	li	s0,0
    a984:	00000913          	li	s2,0
    a988:	00100b93          	li	s7,1
    a98c:	f01ff06f          	j	a88c <__divdf3+0x78>
    a990:	00000413          	li	s0,0
    a994:	7ff00913          	li	s2,2047
    a998:	00200b93          	li	s7,2
    a99c:	ef1ff06f          	j	a88c <__divdf3+0x78>
    a9a0:	0164efb3          	or	t6,s1,s6
    a9a4:	080f8063          	beqz	t6,aa24 <__divdf3+0x210>
    a9a8:	04048263          	beqz	s1,a9ec <__divdf3+0x1d8>
    a9ac:	00048513          	mv	a0,s1
    a9b0:	e09fe0ef          	jal	ra,97b8 <__clzsi2>
    a9b4:	00050593          	mv	a1,a0
    a9b8:	ff558793          	addi	a5,a1,-11
    a9bc:	01c00713          	li	a4,28
    a9c0:	02f74e63          	blt	a4,a5,a9fc <__divdf3+0x1e8>
    a9c4:	01d00693          	li	a3,29
    a9c8:	ff858f93          	addi	t6,a1,-8
    a9cc:	40f686b3          	sub	a3,a3,a5
    a9d0:	01f49533          	sll	a0,s1,t6
    a9d4:	00db56b3          	srl	a3,s6,a3
    a9d8:	00a6e4b3          	or	s1,a3,a0
    a9dc:	01fb1fb3          	sll	t6,s6,t6
    a9e0:	c0d00693          	li	a3,-1011
    a9e4:	40b68533          	sub	a0,a3,a1
    a9e8:	ee1ff06f          	j	a8c8 <__divdf3+0xb4>
    a9ec:	000b0513          	mv	a0,s6
    a9f0:	dc9fe0ef          	jal	ra,97b8 <__clzsi2>
    a9f4:	02050593          	addi	a1,a0,32
    a9f8:	fc1ff06f          	j	a9b8 <__divdf3+0x1a4>
    a9fc:	fd858513          	addi	a0,a1,-40
    aa00:	00ab14b3          	sll	s1,s6,a0
    aa04:	00000f93          	li	t6,0
    aa08:	fd9ff06f          	j	a9e0 <__divdf3+0x1cc>
    aa0c:	0164efb3          	or	t6,s1,s6
    aa10:	020f8263          	beqz	t6,aa34 <__divdf3+0x220>
    aa14:	000b0f93          	mv	t6,s6
    aa18:	7ff00513          	li	a0,2047
    aa1c:	00300793          	li	a5,3
    aa20:	eadff06f          	j	a8cc <__divdf3+0xb8>
    aa24:	00000493          	li	s1,0
    aa28:	00000513          	li	a0,0
    aa2c:	00100793          	li	a5,1
    aa30:	e9dff06f          	j	a8cc <__divdf3+0xb8>
    aa34:	00000493          	li	s1,0
    aa38:	7ff00513          	li	a0,2047
    aa3c:	00200793          	li	a5,2
    aa40:	e8dff06f          	j	a8cc <__divdf3+0xb8>
    aa44:	0154e663          	bltu	s1,s5,aa50 <__divdf3+0x23c>
    aa48:	349a9e63          	bne	s5,s1,ada4 <__divdf3+0x590>
    aa4c:	35f46c63          	bltu	s0,t6,ada4 <__divdf3+0x590>
    aa50:	01fa9613          	slli	a2,s5,0x1f
    aa54:	00145713          	srli	a4,s0,0x1
    aa58:	01f41793          	slli	a5,s0,0x1f
    aa5c:	001ada93          	srli	s5,s5,0x1
    aa60:	00e66433          	or	s0,a2,a4
    aa64:	00849513          	slli	a0,s1,0x8
    aa68:	018fd893          	srli	a7,t6,0x18
    aa6c:	00a8e8b3          	or	a7,a7,a0
    aa70:	01055513          	srli	a0,a0,0x10
    aa74:	02aade33          	divu	t3,s5,a0
    aa78:	01089e93          	slli	t4,a7,0x10
    aa7c:	010ede93          	srli	t4,t4,0x10
    aa80:	01045713          	srli	a4,s0,0x10
    aa84:	008f9313          	slli	t1,t6,0x8
    aa88:	02aafab3          	remu	s5,s5,a0
    aa8c:	000e0613          	mv	a2,t3
    aa90:	03ce8833          	mul	a6,t4,t3
    aa94:	010a9a93          	slli	s5,s5,0x10
    aa98:	01576733          	or	a4,a4,s5
    aa9c:	01077e63          	bgeu	a4,a6,aab8 <__divdf3+0x2a4>
    aaa0:	01170733          	add	a4,a4,a7
    aaa4:	fffe0613          	addi	a2,t3,-1
    aaa8:	01176863          	bltu	a4,a7,aab8 <__divdf3+0x2a4>
    aaac:	01077663          	bgeu	a4,a6,aab8 <__divdf3+0x2a4>
    aab0:	ffee0613          	addi	a2,t3,-2
    aab4:	01170733          	add	a4,a4,a7
    aab8:	41070733          	sub	a4,a4,a6
    aabc:	02a75e33          	divu	t3,a4,a0
    aac0:	01041413          	slli	s0,s0,0x10
    aac4:	01045413          	srli	s0,s0,0x10
    aac8:	02a77733          	remu	a4,a4,a0
    aacc:	000e0293          	mv	t0,t3
    aad0:	03ce8833          	mul	a6,t4,t3
    aad4:	01071713          	slli	a4,a4,0x10
    aad8:	00e46733          	or	a4,s0,a4
    aadc:	01077e63          	bgeu	a4,a6,aaf8 <__divdf3+0x2e4>
    aae0:	01170733          	add	a4,a4,a7
    aae4:	fffe0293          	addi	t0,t3,-1
    aae8:	01176863          	bltu	a4,a7,aaf8 <__divdf3+0x2e4>
    aaec:	01077663          	bgeu	a4,a6,aaf8 <__divdf3+0x2e4>
    aaf0:	ffee0293          	addi	t0,t3,-2
    aaf4:	01170733          	add	a4,a4,a7
    aaf8:	41070433          	sub	s0,a4,a6
    aafc:	01061613          	slli	a2,a2,0x10
    ab00:	00010837          	lui	a6,0x10
    ab04:	005662b3          	or	t0,a2,t0
    ab08:	fff80e13          	addi	t3,a6,-1 # ffff <_text_end+0x3edf>
    ab0c:	0102d613          	srli	a2,t0,0x10
    ab10:	01c2f733          	and	a4,t0,t3
    ab14:	01035f13          	srli	t5,t1,0x10
    ab18:	01c37e33          	and	t3,t1,t3
    ab1c:	02ee03b3          	mul	t2,t3,a4
    ab20:	03c604b3          	mul	s1,a2,t3
    ab24:	02ef0733          	mul	a4,t5,a4
    ab28:	03e60fb3          	mul	t6,a2,t5
    ab2c:	00970633          	add	a2,a4,s1
    ab30:	0103d713          	srli	a4,t2,0x10
    ab34:	00c70733          	add	a4,a4,a2
    ab38:	00977463          	bgeu	a4,s1,ab40 <__divdf3+0x32c>
    ab3c:	010f8fb3          	add	t6,t6,a6
    ab40:	01075613          	srli	a2,a4,0x10
    ab44:	01f60633          	add	a2,a2,t6
    ab48:	00010fb7          	lui	t6,0x10
    ab4c:	ffff8f93          	addi	t6,t6,-1 # ffff <_text_end+0x3edf>
    ab50:	01f77833          	and	a6,a4,t6
    ab54:	01081813          	slli	a6,a6,0x10
    ab58:	01f3f3b3          	and	t2,t2,t6
    ab5c:	00780833          	add	a6,a6,t2
    ab60:	00c46863          	bltu	s0,a2,ab70 <__divdf3+0x35c>
    ab64:	00028493          	mv	s1,t0
    ab68:	04c41463          	bne	s0,a2,abb0 <__divdf3+0x39c>
    ab6c:	0507f263          	bgeu	a5,a6,abb0 <__divdf3+0x39c>
    ab70:	006787b3          	add	a5,a5,t1
    ab74:	0067b733          	sltu	a4,a5,t1
    ab78:	01170733          	add	a4,a4,a7
    ab7c:	00e40433          	add	s0,s0,a4
    ab80:	fff28493          	addi	s1,t0,-1 # 911f <memset+0xb3>
    ab84:	0088e663          	bltu	a7,s0,ab90 <__divdf3+0x37c>
    ab88:	02889463          	bne	a7,s0,abb0 <__divdf3+0x39c>
    ab8c:	0267e263          	bltu	a5,t1,abb0 <__divdf3+0x39c>
    ab90:	00c46663          	bltu	s0,a2,ab9c <__divdf3+0x388>
    ab94:	00861e63          	bne	a2,s0,abb0 <__divdf3+0x39c>
    ab98:	0107fc63          	bgeu	a5,a6,abb0 <__divdf3+0x39c>
    ab9c:	006787b3          	add	a5,a5,t1
    aba0:	0067b733          	sltu	a4,a5,t1
    aba4:	01170733          	add	a4,a4,a7
    aba8:	ffe28493          	addi	s1,t0,-2
    abac:	00e40433          	add	s0,s0,a4
    abb0:	41078833          	sub	a6,a5,a6
    abb4:	40c40433          	sub	s0,s0,a2
    abb8:	0107b7b3          	sltu	a5,a5,a6
    abbc:	40f40433          	sub	s0,s0,a5
    abc0:	fff00f93          	li	t6,-1
    abc4:	12888463          	beq	a7,s0,acec <__divdf3+0x4d8>
    abc8:	02a45fb3          	divu	t6,s0,a0
    abcc:	01085713          	srli	a4,a6,0x10
    abd0:	02a47433          	remu	s0,s0,a0
    abd4:	000f8613          	mv	a2,t6
    abd8:	03fe87b3          	mul	a5,t4,t6
    abdc:	01041413          	slli	s0,s0,0x10
    abe0:	00876433          	or	s0,a4,s0
    abe4:	00f47e63          	bgeu	s0,a5,ac00 <__divdf3+0x3ec>
    abe8:	01140433          	add	s0,s0,a7
    abec:	ffff8613          	addi	a2,t6,-1
    abf0:	01146863          	bltu	s0,a7,ac00 <__divdf3+0x3ec>
    abf4:	00f47663          	bgeu	s0,a5,ac00 <__divdf3+0x3ec>
    abf8:	ffef8613          	addi	a2,t6,-2
    abfc:	01140433          	add	s0,s0,a7
    ac00:	40f40433          	sub	s0,s0,a5
    ac04:	02a45733          	divu	a4,s0,a0
    ac08:	01081813          	slli	a6,a6,0x10
    ac0c:	01085813          	srli	a6,a6,0x10
    ac10:	02a47433          	remu	s0,s0,a0
    ac14:	00070793          	mv	a5,a4
    ac18:	02ee8eb3          	mul	t4,t4,a4
    ac1c:	01041413          	slli	s0,s0,0x10
    ac20:	00886433          	or	s0,a6,s0
    ac24:	01d47e63          	bgeu	s0,t4,ac40 <__divdf3+0x42c>
    ac28:	01140433          	add	s0,s0,a7
    ac2c:	fff70793          	addi	a5,a4,-1
    ac30:	01146863          	bltu	s0,a7,ac40 <__divdf3+0x42c>
    ac34:	01d47663          	bgeu	s0,t4,ac40 <__divdf3+0x42c>
    ac38:	ffe70793          	addi	a5,a4,-2
    ac3c:	01140433          	add	s0,s0,a7
    ac40:	01061613          	slli	a2,a2,0x10
    ac44:	00f66633          	or	a2,a2,a5
    ac48:	01061793          	slli	a5,a2,0x10
    ac4c:	0107d793          	srli	a5,a5,0x10
    ac50:	01065713          	srli	a4,a2,0x10
    ac54:	02ef0833          	mul	a6,t5,a4
    ac58:	41d40433          	sub	s0,s0,t4
    ac5c:	02ff0f33          	mul	t5,t5,a5
    ac60:	03c78eb3          	mul	t4,a5,t3
    ac64:	03c70e33          	mul	t3,a4,t3
    ac68:	010ed793          	srli	a5,t4,0x10
    ac6c:	01cf0f33          	add	t5,t5,t3
    ac70:	01e787b3          	add	a5,a5,t5
    ac74:	01c7f663          	bgeu	a5,t3,ac80 <__divdf3+0x46c>
    ac78:	00010737          	lui	a4,0x10
    ac7c:	00e80833          	add	a6,a6,a4
    ac80:	0107d713          	srli	a4,a5,0x10
    ac84:	01070733          	add	a4,a4,a6
    ac88:	00010837          	lui	a6,0x10
    ac8c:	fff80813          	addi	a6,a6,-1 # ffff <_text_end+0x3edf>
    ac90:	0107f533          	and	a0,a5,a6
    ac94:	01051513          	slli	a0,a0,0x10
    ac98:	010efeb3          	and	t4,t4,a6
    ac9c:	01d50533          	add	a0,a0,t4
    aca0:	00e46863          	bltu	s0,a4,acb0 <__divdf3+0x49c>
    aca4:	24e41463          	bne	s0,a4,aeec <__divdf3+0x6d8>
    aca8:	00060f93          	mv	t6,a2
    acac:	04050063          	beqz	a0,acec <__divdf3+0x4d8>
    acb0:	00888433          	add	s0,a7,s0
    acb4:	fff60f93          	addi	t6,a2,-1
    acb8:	03146463          	bltu	s0,a7,ace0 <__divdf3+0x4cc>
    acbc:	00e46663          	bltu	s0,a4,acc8 <__divdf3+0x4b4>
    acc0:	22e41463          	bne	s0,a4,aee8 <__divdf3+0x6d4>
    acc4:	02a37063          	bgeu	t1,a0,ace4 <__divdf3+0x4d0>
    acc8:	00131793          	slli	a5,t1,0x1
    accc:	0067b333          	sltu	t1,a5,t1
    acd0:	011308b3          	add	a7,t1,a7
    acd4:	ffe60f93          	addi	t6,a2,-2
    acd8:	01140433          	add	s0,s0,a7
    acdc:	00078313          	mv	t1,a5
    ace0:	00e41463          	bne	s0,a4,ace8 <__divdf3+0x4d4>
    ace4:	00650463          	beq	a0,t1,acec <__divdf3+0x4d8>
    ace8:	001fef93          	ori	t6,t6,1
    acec:	3ff58793          	addi	a5,a1,1023
    acf0:	10f05a63          	blez	a5,ae04 <__divdf3+0x5f0>
    acf4:	007ff713          	andi	a4,t6,7
    acf8:	02070063          	beqz	a4,ad18 <__divdf3+0x504>
    acfc:	00fff713          	andi	a4,t6,15
    ad00:	00400613          	li	a2,4
    ad04:	00c70a63          	beq	a4,a2,ad18 <__divdf3+0x504>
    ad08:	004f8613          	addi	a2,t6,4
    ad0c:	01f63fb3          	sltu	t6,a2,t6
    ad10:	01f484b3          	add	s1,s1,t6
    ad14:	00060f93          	mv	t6,a2
    ad18:	01000737          	lui	a4,0x1000
    ad1c:	00e4f733          	and	a4,s1,a4
    ad20:	00070a63          	beqz	a4,ad34 <__divdf3+0x520>
    ad24:	ff0007b7          	lui	a5,0xff000
    ad28:	fff78793          	addi	a5,a5,-1 # feffffff <_stack+0xfefbffff>
    ad2c:	00f4f4b3          	and	s1,s1,a5
    ad30:	40058793          	addi	a5,a1,1024
    ad34:	7fe00713          	li	a4,2046
    ad38:	0af74063          	blt	a4,a5,add8 <__divdf3+0x5c4>
    ad3c:	003fdf93          	srli	t6,t6,0x3
    ad40:	01d49713          	slli	a4,s1,0x1d
    ad44:	01f76733          	or	a4,a4,t6
    ad48:	0034d513          	srli	a0,s1,0x3
    ad4c:	01479793          	slli	a5,a5,0x14
    ad50:	7ff00637          	lui	a2,0x7ff00
    ad54:	00c51513          	slli	a0,a0,0xc
    ad58:	02c12083          	lw	ra,44(sp)
    ad5c:	02812403          	lw	s0,40(sp)
    ad60:	00c7f7b3          	and	a5,a5,a2
    ad64:	00c55513          	srli	a0,a0,0xc
    ad68:	00a7e533          	or	a0,a5,a0
    ad6c:	01f69693          	slli	a3,a3,0x1f
    ad70:	00d567b3          	or	a5,a0,a3
    ad74:	02412483          	lw	s1,36(sp)
    ad78:	02012903          	lw	s2,32(sp)
    ad7c:	01c12983          	lw	s3,28(sp)
    ad80:	01812a03          	lw	s4,24(sp)
    ad84:	01412a83          	lw	s5,20(sp)
    ad88:	01012b03          	lw	s6,16(sp)
    ad8c:	00c12b83          	lw	s7,12(sp)
    ad90:	00812c03          	lw	s8,8(sp)
    ad94:	00070513          	mv	a0,a4
    ad98:	00078593          	mv	a1,a5
    ad9c:	03010113          	addi	sp,sp,48
    ada0:	00008067          	ret
    ada4:	fff58593          	addi	a1,a1,-1
    ada8:	00000793          	li	a5,0
    adac:	cb9ff06f          	j	aa64 <__divdf3+0x250>
    adb0:	00098693          	mv	a3,s3
    adb4:	000a8493          	mv	s1,s5
    adb8:	00040f93          	mv	t6,s0
    adbc:	000b8793          	mv	a5,s7
    adc0:	00300713          	li	a4,3
    adc4:	0ee78a63          	beq	a5,a4,aeb8 <__divdf3+0x6a4>
    adc8:	00100713          	li	a4,1
    adcc:	10e78063          	beq	a5,a4,aecc <__divdf3+0x6b8>
    add0:	00200713          	li	a4,2
    add4:	f0e79ce3          	bne	a5,a4,acec <__divdf3+0x4d8>
    add8:	00000513          	li	a0,0
    addc:	00000713          	li	a4,0
    ade0:	7ff00793          	li	a5,2047
    ade4:	f69ff06f          	j	ad4c <__divdf3+0x538>
    ade8:	000c0693          	mv	a3,s8
    adec:	fd5ff06f          	j	adc0 <__divdf3+0x5ac>
    adf0:	000804b7          	lui	s1,0x80
    adf4:	00000f93          	li	t6,0
    adf8:	00000693          	li	a3,0
    adfc:	00300793          	li	a5,3
    ae00:	fc1ff06f          	j	adc0 <__divdf3+0x5ac>
    ae04:	00100513          	li	a0,1
    ae08:	40f50533          	sub	a0,a0,a5
    ae0c:	03800713          	li	a4,56
    ae10:	0aa74e63          	blt	a4,a0,aecc <__divdf3+0x6b8>
    ae14:	01f00713          	li	a4,31
    ae18:	06a74663          	blt	a4,a0,ae84 <__divdf3+0x670>
    ae1c:	41e58593          	addi	a1,a1,1054
    ae20:	00b497b3          	sll	a5,s1,a1
    ae24:	00afd733          	srl	a4,t6,a0
    ae28:	00bf95b3          	sll	a1,t6,a1
    ae2c:	00e7e7b3          	or	a5,a5,a4
    ae30:	00b035b3          	snez	a1,a1
    ae34:	00b7e7b3          	or	a5,a5,a1
    ae38:	00a4d533          	srl	a0,s1,a0
    ae3c:	0077f713          	andi	a4,a5,7
    ae40:	02070063          	beqz	a4,ae60 <__divdf3+0x64c>
    ae44:	00f7f713          	andi	a4,a5,15
    ae48:	00400613          	li	a2,4
    ae4c:	00c70a63          	beq	a4,a2,ae60 <__divdf3+0x64c>
    ae50:	00478713          	addi	a4,a5,4
    ae54:	00f737b3          	sltu	a5,a4,a5
    ae58:	00f50533          	add	a0,a0,a5
    ae5c:	00070793          	mv	a5,a4
    ae60:	00800737          	lui	a4,0x800
    ae64:	00e57733          	and	a4,a0,a4
    ae68:	06071863          	bnez	a4,aed8 <__divdf3+0x6c4>
    ae6c:	01d51713          	slli	a4,a0,0x1d
    ae70:	0037d793          	srli	a5,a5,0x3
    ae74:	00f76733          	or	a4,a4,a5
    ae78:	00355513          	srli	a0,a0,0x3
    ae7c:	00000793          	li	a5,0
    ae80:	ecdff06f          	j	ad4c <__divdf3+0x538>
    ae84:	fe100713          	li	a4,-31
    ae88:	40f707b3          	sub	a5,a4,a5
    ae8c:	02000613          	li	a2,32
    ae90:	00f4d7b3          	srl	a5,s1,a5
    ae94:	00000713          	li	a4,0
    ae98:	00c50663          	beq	a0,a2,aea4 <__divdf3+0x690>
    ae9c:	43e58713          	addi	a4,a1,1086
    aea0:	00e49733          	sll	a4,s1,a4
    aea4:	01f76733          	or	a4,a4,t6
    aea8:	00e03733          	snez	a4,a4
    aeac:	00e7e7b3          	or	a5,a5,a4
    aeb0:	00000513          	li	a0,0
    aeb4:	f89ff06f          	j	ae3c <__divdf3+0x628>
    aeb8:	00080537          	lui	a0,0x80
    aebc:	00000713          	li	a4,0
    aec0:	7ff00793          	li	a5,2047
    aec4:	00000693          	li	a3,0
    aec8:	e85ff06f          	j	ad4c <__divdf3+0x538>
    aecc:	00000513          	li	a0,0
    aed0:	00000713          	li	a4,0
    aed4:	fa9ff06f          	j	ae7c <__divdf3+0x668>
    aed8:	00000513          	li	a0,0
    aedc:	00000713          	li	a4,0
    aee0:	00100793          	li	a5,1
    aee4:	e69ff06f          	j	ad4c <__divdf3+0x538>
    aee8:	000f8613          	mv	a2,t6
    aeec:	00060f93          	mv	t6,a2
    aef0:	df9ff06f          	j	ace8 <__divdf3+0x4d4>

0000aef4 <__eqdf2>:
    aef4:	0145d713          	srli	a4,a1,0x14
    aef8:	001007b7          	lui	a5,0x100
    aefc:	fff78793          	addi	a5,a5,-1 # fffff <_stack+0xbffff>
    af00:	0146d813          	srli	a6,a3,0x14
    af04:	00050313          	mv	t1,a0
    af08:	00050e93          	mv	t4,a0
    af0c:	7ff77713          	andi	a4,a4,2047
    af10:	7ff00513          	li	a0,2047
    af14:	00b7f8b3          	and	a7,a5,a1
    af18:	00060f13          	mv	t5,a2
    af1c:	00d7f7b3          	and	a5,a5,a3
    af20:	01f5d593          	srli	a1,a1,0x1f
    af24:	7ff87813          	andi	a6,a6,2047
    af28:	01f6d693          	srli	a3,a3,0x1f
    af2c:	00a71c63          	bne	a4,a0,af44 <__eqdf2+0x50>
    af30:	0068ee33          	or	t3,a7,t1
    af34:	00100513          	li	a0,1
    af38:	000e1463          	bnez	t3,af40 <__eqdf2+0x4c>
    af3c:	00e80663          	beq	a6,a4,af48 <__eqdf2+0x54>
    af40:	00008067          	ret
    af44:	00a81863          	bne	a6,a0,af54 <__eqdf2+0x60>
    af48:	00c7e633          	or	a2,a5,a2
    af4c:	00100513          	li	a0,1
    af50:	fe0618e3          	bnez	a2,af40 <__eqdf2+0x4c>
    af54:	00100513          	li	a0,1
    af58:	ff0714e3          	bne	a4,a6,af40 <__eqdf2+0x4c>
    af5c:	fef892e3          	bne	a7,a5,af40 <__eqdf2+0x4c>
    af60:	ffee90e3          	bne	t4,t5,af40 <__eqdf2+0x4c>
    af64:	00d58a63          	beq	a1,a3,af78 <__eqdf2+0x84>
    af68:	fc071ce3          	bnez	a4,af40 <__eqdf2+0x4c>
    af6c:	0068e533          	or	a0,a7,t1
    af70:	00a03533          	snez	a0,a0
    af74:	00008067          	ret
    af78:	00000513          	li	a0,0
    af7c:	00008067          	ret

0000af80 <__gedf2>:
    af80:	00100737          	lui	a4,0x100
    af84:	fff70713          	addi	a4,a4,-1 # fffff <_stack+0xbffff>
    af88:	0145d813          	srli	a6,a1,0x14
    af8c:	00b778b3          	and	a7,a4,a1
    af90:	00050793          	mv	a5,a0
    af94:	00050313          	mv	t1,a0
    af98:	7ff87813          	andi	a6,a6,2047
    af9c:	01f5d513          	srli	a0,a1,0x1f
    afa0:	7ff00e93          	li	t4,2047
    afa4:	0146d593          	srli	a1,a3,0x14
    afa8:	00d77733          	and	a4,a4,a3
    afac:	00060e13          	mv	t3,a2
    afb0:	7ff5f593          	andi	a1,a1,2047
    afb4:	01f6d693          	srli	a3,a3,0x1f
    afb8:	01d81a63          	bne	a6,t4,afcc <__gedf2+0x4c>
    afbc:	00f8eeb3          	or	t4,a7,a5
    afc0:	080e8a63          	beqz	t4,b054 <__gedf2+0xd4>
    afc4:	ffe00513          	li	a0,-2
    afc8:	00008067          	ret
    afcc:	01d59663          	bne	a1,t4,afd8 <__gedf2+0x58>
    afd0:	00c76eb3          	or	t4,a4,a2
    afd4:	fe0e98e3          	bnez	t4,afc4 <__gedf2+0x44>
    afd8:	08081063          	bnez	a6,b058 <__gedf2+0xd8>
    afdc:	00f8e7b3          	or	a5,a7,a5
    afe0:	0017b793          	seqz	a5,a5
    afe4:	00059663          	bnez	a1,aff0 <__gedf2+0x70>
    afe8:	00c76633          	or	a2,a4,a2
    afec:	04060c63          	beqz	a2,b044 <__gedf2+0xc4>
    aff0:	00079c63          	bnez	a5,b008 <__gedf2+0x88>
    aff4:	00d51463          	bne	a0,a3,affc <__gedf2+0x7c>
    aff8:	0305d063          	bge	a1,a6,b018 <__gedf2+0x98>
    affc:	04050063          	beqz	a0,b03c <__gedf2+0xbc>
    b000:	fff00513          	li	a0,-1
    b004:	00008067          	ret
    b008:	fff00513          	li	a0,-1
    b00c:	00068a63          	beqz	a3,b020 <__gedf2+0xa0>
    b010:	00068513          	mv	a0,a3
    b014:	00008067          	ret
    b018:	00b85663          	bge	a6,a1,b024 <__gedf2+0xa4>
    b01c:	fe0502e3          	beqz	a0,b000 <__gedf2+0x80>
    b020:	00008067          	ret
    b024:	fd176ce3          	bltu	a4,a7,affc <__gedf2+0x7c>
    b028:	02e89263          	bne	a7,a4,b04c <__gedf2+0xcc>
    b02c:	fc6e68e3          	bltu	t3,t1,affc <__gedf2+0x7c>
    b030:	ffc366e3          	bltu	t1,t3,b01c <__gedf2+0x9c>
    b034:	00000513          	li	a0,0
    b038:	00008067          	ret
    b03c:	00100513          	li	a0,1
    b040:	00008067          	ret
    b044:	fe0798e3          	bnez	a5,b034 <__gedf2+0xb4>
    b048:	fb5ff06f          	j	affc <__gedf2+0x7c>
    b04c:	fce8e8e3          	bltu	a7,a4,b01c <__gedf2+0x9c>
    b050:	fe5ff06f          	j	b034 <__gedf2+0xb4>
    b054:	f7058ee3          	beq	a1,a6,afd0 <__gedf2+0x50>
    b058:	f8059ee3          	bnez	a1,aff4 <__gedf2+0x74>
    b05c:	00000793          	li	a5,0
    b060:	f89ff06f          	j	afe8 <__gedf2+0x68>

0000b064 <__ledf2>:
    b064:	00100737          	lui	a4,0x100
    b068:	fff70713          	addi	a4,a4,-1 # fffff <_stack+0xbffff>
    b06c:	0145d813          	srli	a6,a1,0x14
    b070:	00b778b3          	and	a7,a4,a1
    b074:	00050793          	mv	a5,a0
    b078:	00050313          	mv	t1,a0
    b07c:	7ff87813          	andi	a6,a6,2047
    b080:	01f5d513          	srli	a0,a1,0x1f
    b084:	7ff00e93          	li	t4,2047
    b088:	0146d593          	srli	a1,a3,0x14
    b08c:	00d77733          	and	a4,a4,a3
    b090:	00060e13          	mv	t3,a2
    b094:	7ff5f593          	andi	a1,a1,2047
    b098:	01f6d693          	srli	a3,a3,0x1f
    b09c:	01d81a63          	bne	a6,t4,b0b0 <__ledf2+0x4c>
    b0a0:	00f8eeb3          	or	t4,a7,a5
    b0a4:	080e8a63          	beqz	t4,b138 <__ledf2+0xd4>
    b0a8:	00200513          	li	a0,2
    b0ac:	00008067          	ret
    b0b0:	01d59663          	bne	a1,t4,b0bc <__ledf2+0x58>
    b0b4:	00c76eb3          	or	t4,a4,a2
    b0b8:	fe0e98e3          	bnez	t4,b0a8 <__ledf2+0x44>
    b0bc:	08081063          	bnez	a6,b13c <__ledf2+0xd8>
    b0c0:	00f8e7b3          	or	a5,a7,a5
    b0c4:	0017b793          	seqz	a5,a5
    b0c8:	00059663          	bnez	a1,b0d4 <__ledf2+0x70>
    b0cc:	00c76633          	or	a2,a4,a2
    b0d0:	04060c63          	beqz	a2,b128 <__ledf2+0xc4>
    b0d4:	00079c63          	bnez	a5,b0ec <__ledf2+0x88>
    b0d8:	00d51463          	bne	a0,a3,b0e0 <__ledf2+0x7c>
    b0dc:	0305d063          	bge	a1,a6,b0fc <__ledf2+0x98>
    b0e0:	04050063          	beqz	a0,b120 <__ledf2+0xbc>
    b0e4:	fff00513          	li	a0,-1
    b0e8:	00008067          	ret
    b0ec:	fff00513          	li	a0,-1
    b0f0:	00068a63          	beqz	a3,b104 <__ledf2+0xa0>
    b0f4:	00068513          	mv	a0,a3
    b0f8:	00008067          	ret
    b0fc:	00b85663          	bge	a6,a1,b108 <__ledf2+0xa4>
    b100:	fe0502e3          	beqz	a0,b0e4 <__ledf2+0x80>
    b104:	00008067          	ret
    b108:	fd176ce3          	bltu	a4,a7,b0e0 <__ledf2+0x7c>
    b10c:	02e89263          	bne	a7,a4,b130 <__ledf2+0xcc>
    b110:	fc6e68e3          	bltu	t3,t1,b0e0 <__ledf2+0x7c>
    b114:	ffc366e3          	bltu	t1,t3,b100 <__ledf2+0x9c>
    b118:	00000513          	li	a0,0
    b11c:	00008067          	ret
    b120:	00100513          	li	a0,1
    b124:	00008067          	ret
    b128:	fe0798e3          	bnez	a5,b118 <__ledf2+0xb4>
    b12c:	fb5ff06f          	j	b0e0 <__ledf2+0x7c>
    b130:	fce8e8e3          	bltu	a7,a4,b100 <__ledf2+0x9c>
    b134:	fe5ff06f          	j	b118 <__ledf2+0xb4>
    b138:	f7058ee3          	beq	a1,a6,b0b4 <__ledf2+0x50>
    b13c:	f8059ee3          	bnez	a1,b0d8 <__ledf2+0x74>
    b140:	00000793          	li	a5,0
    b144:	f89ff06f          	j	b0cc <__ledf2+0x68>

0000b148 <__muldf3>:
    b148:	fd010113          	addi	sp,sp,-48
    b14c:	01312e23          	sw	s3,28(sp)
    b150:	0145d993          	srli	s3,a1,0x14
    b154:	02812423          	sw	s0,40(sp)
    b158:	02912223          	sw	s1,36(sp)
    b15c:	01412c23          	sw	s4,24(sp)
    b160:	01512a23          	sw	s5,20(sp)
    b164:	01712623          	sw	s7,12(sp)
    b168:	00c59493          	slli	s1,a1,0xc
    b16c:	02112623          	sw	ra,44(sp)
    b170:	03212023          	sw	s2,32(sp)
    b174:	01612823          	sw	s6,16(sp)
    b178:	7ff9f993          	andi	s3,s3,2047
    b17c:	00050413          	mv	s0,a0
    b180:	00060b93          	mv	s7,a2
    b184:	00068a93          	mv	s5,a3
    b188:	00c4d493          	srli	s1,s1,0xc
    b18c:	01f5da13          	srli	s4,a1,0x1f
    b190:	0a098263          	beqz	s3,b234 <__muldf3+0xec>
    b194:	7ff00793          	li	a5,2047
    b198:	10f98063          	beq	s3,a5,b298 <__muldf3+0x150>
    b19c:	01d55793          	srli	a5,a0,0x1d
    b1a0:	00349493          	slli	s1,s1,0x3
    b1a4:	0097e4b3          	or	s1,a5,s1
    b1a8:	008007b7          	lui	a5,0x800
    b1ac:	00f4e4b3          	or	s1,s1,a5
    b1b0:	00351913          	slli	s2,a0,0x3
    b1b4:	c0198993          	addi	s3,s3,-1023
    b1b8:	00000b13          	li	s6,0
    b1bc:	014ad513          	srli	a0,s5,0x14
    b1c0:	00ca9413          	slli	s0,s5,0xc
    b1c4:	7ff57513          	andi	a0,a0,2047
    b1c8:	00c45413          	srli	s0,s0,0xc
    b1cc:	01fada93          	srli	s5,s5,0x1f
    b1d0:	10050063          	beqz	a0,b2d0 <__muldf3+0x188>
    b1d4:	7ff00793          	li	a5,2047
    b1d8:	16f50063          	beq	a0,a5,b338 <__muldf3+0x1f0>
    b1dc:	01dbd793          	srli	a5,s7,0x1d
    b1e0:	00341413          	slli	s0,s0,0x3
    b1e4:	0087e433          	or	s0,a5,s0
    b1e8:	008007b7          	lui	a5,0x800
    b1ec:	00f46433          	or	s0,s0,a5
    b1f0:	c0150513          	addi	a0,a0,-1023 # 7fc01 <_stack+0x3fc01>
    b1f4:	003b9793          	slli	a5,s7,0x3
    b1f8:	00000713          	li	a4,0
    b1fc:	002b1693          	slli	a3,s6,0x2
    b200:	00e6e6b3          	or	a3,a3,a4
    b204:	00a98533          	add	a0,s3,a0
    b208:	fff68693          	addi	a3,a3,-1 # 7fefffff <_stack+0x7febffff>
    b20c:	00e00813          	li	a6,14
    b210:	015a4633          	xor	a2,s4,s5
    b214:	00150593          	addi	a1,a0,1
    b218:	14d86c63          	bltu	a6,a3,b370 <__muldf3+0x228>
    b21c:	00021537          	lui	a0,0x21
    b220:	00269693          	slli	a3,a3,0x2
    b224:	a5c50513          	addi	a0,a0,-1444 # 20a5c <pow10.0+0x94>
    b228:	00a686b3          	add	a3,a3,a0
    b22c:	0006a683          	lw	a3,0(a3)
    b230:	00068067          	jr	a3
    b234:	00a4e933          	or	s2,s1,a0
    b238:	06090c63          	beqz	s2,b2b0 <__muldf3+0x168>
    b23c:	04048063          	beqz	s1,b27c <__muldf3+0x134>
    b240:	00048513          	mv	a0,s1
    b244:	d74fe0ef          	jal	ra,97b8 <__clzsi2>
    b248:	ff550713          	addi	a4,a0,-11
    b24c:	01c00793          	li	a5,28
    b250:	02e7cc63          	blt	a5,a4,b288 <__muldf3+0x140>
    b254:	01d00793          	li	a5,29
    b258:	ff850913          	addi	s2,a0,-8
    b25c:	40e787b3          	sub	a5,a5,a4
    b260:	012494b3          	sll	s1,s1,s2
    b264:	00f457b3          	srl	a5,s0,a5
    b268:	0097e4b3          	or	s1,a5,s1
    b26c:	01241933          	sll	s2,s0,s2
    b270:	c0d00993          	li	s3,-1011
    b274:	40a989b3          	sub	s3,s3,a0
    b278:	f41ff06f          	j	b1b8 <__muldf3+0x70>
    b27c:	d3cfe0ef          	jal	ra,97b8 <__clzsi2>
    b280:	02050513          	addi	a0,a0,32
    b284:	fc5ff06f          	j	b248 <__muldf3+0x100>
    b288:	fd850493          	addi	s1,a0,-40
    b28c:	009414b3          	sll	s1,s0,s1
    b290:	00000913          	li	s2,0
    b294:	fddff06f          	j	b270 <__muldf3+0x128>
    b298:	00a4e933          	or	s2,s1,a0
    b29c:	02090263          	beqz	s2,b2c0 <__muldf3+0x178>
    b2a0:	00050913          	mv	s2,a0
    b2a4:	7ff00993          	li	s3,2047
    b2a8:	00300b13          	li	s6,3
    b2ac:	f11ff06f          	j	b1bc <__muldf3+0x74>
    b2b0:	00000493          	li	s1,0
    b2b4:	00000993          	li	s3,0
    b2b8:	00100b13          	li	s6,1
    b2bc:	f01ff06f          	j	b1bc <__muldf3+0x74>
    b2c0:	00000493          	li	s1,0
    b2c4:	7ff00993          	li	s3,2047
    b2c8:	00200b13          	li	s6,2
    b2cc:	ef1ff06f          	j	b1bc <__muldf3+0x74>
    b2d0:	017467b3          	or	a5,s0,s7
    b2d4:	06078e63          	beqz	a5,b350 <__muldf3+0x208>
    b2d8:	04040063          	beqz	s0,b318 <__muldf3+0x1d0>
    b2dc:	00040513          	mv	a0,s0
    b2e0:	cd8fe0ef          	jal	ra,97b8 <__clzsi2>
    b2e4:	ff550693          	addi	a3,a0,-11
    b2e8:	01c00793          	li	a5,28
    b2ec:	02d7ce63          	blt	a5,a3,b328 <__muldf3+0x1e0>
    b2f0:	01d00713          	li	a4,29
    b2f4:	ff850793          	addi	a5,a0,-8
    b2f8:	40d70733          	sub	a4,a4,a3
    b2fc:	00f41433          	sll	s0,s0,a5
    b300:	00ebd733          	srl	a4,s7,a4
    b304:	00876433          	or	s0,a4,s0
    b308:	00fb97b3          	sll	a5,s7,a5
    b30c:	c0d00713          	li	a4,-1011
    b310:	40a70533          	sub	a0,a4,a0
    b314:	ee5ff06f          	j	b1f8 <__muldf3+0xb0>
    b318:	000b8513          	mv	a0,s7
    b31c:	c9cfe0ef          	jal	ra,97b8 <__clzsi2>
    b320:	02050513          	addi	a0,a0,32
    b324:	fc1ff06f          	j	b2e4 <__muldf3+0x19c>
    b328:	fd850413          	addi	s0,a0,-40
    b32c:	008b9433          	sll	s0,s7,s0
    b330:	00000793          	li	a5,0
    b334:	fd9ff06f          	j	b30c <__muldf3+0x1c4>
    b338:	017467b3          	or	a5,s0,s7
    b33c:	02078263          	beqz	a5,b360 <__muldf3+0x218>
    b340:	000b8793          	mv	a5,s7
    b344:	7ff00513          	li	a0,2047
    b348:	00300713          	li	a4,3
    b34c:	eb1ff06f          	j	b1fc <__muldf3+0xb4>
    b350:	00000413          	li	s0,0
    b354:	00000513          	li	a0,0
    b358:	00100713          	li	a4,1
    b35c:	ea1ff06f          	j	b1fc <__muldf3+0xb4>
    b360:	00000413          	li	s0,0
    b364:	7ff00513          	li	a0,2047
    b368:	00200713          	li	a4,2
    b36c:	e91ff06f          	j	b1fc <__muldf3+0xb4>
    b370:	00010f37          	lui	t5,0x10
    b374:	ffff0e93          	addi	t4,t5,-1 # ffff <_text_end+0x3edf>
    b378:	01095713          	srli	a4,s2,0x10
    b37c:	0107d893          	srli	a7,a5,0x10
    b380:	01d97933          	and	s2,s2,t4
    b384:	01d7f7b3          	and	a5,a5,t4
    b388:	03288833          	mul	a6,a7,s2
    b38c:	02f906b3          	mul	a3,s2,a5
    b390:	02f70fb3          	mul	t6,a4,a5
    b394:	01f80333          	add	t1,a6,t6
    b398:	0106d813          	srli	a6,a3,0x10
    b39c:	00680833          	add	a6,a6,t1
    b3a0:	03170e33          	mul	t3,a4,a7
    b3a4:	01f87463          	bgeu	a6,t6,b3ac <__muldf3+0x264>
    b3a8:	01ee0e33          	add	t3,t3,t5
    b3ac:	01085393          	srli	t2,a6,0x10
    b3b0:	01d87833          	and	a6,a6,t4
    b3b4:	01d6f6b3          	and	a3,a3,t4
    b3b8:	01045f13          	srli	t5,s0,0x10
    b3bc:	01d472b3          	and	t0,s0,t4
    b3c0:	01081813          	slli	a6,a6,0x10
    b3c4:	00d80833          	add	a6,a6,a3
    b3c8:	02570eb3          	mul	t4,a4,t0
    b3cc:	025906b3          	mul	a3,s2,t0
    b3d0:	032f0933          	mul	s2,t5,s2
    b3d4:	01d90333          	add	t1,s2,t4
    b3d8:	0106d913          	srli	s2,a3,0x10
    b3dc:	00690933          	add	s2,s2,t1
    b3e0:	03e70733          	mul	a4,a4,t5
    b3e4:	01d97663          	bgeu	s2,t4,b3f0 <__muldf3+0x2a8>
    b3e8:	00010337          	lui	t1,0x10
    b3ec:	00670733          	add	a4,a4,t1
    b3f0:	01095e93          	srli	t4,s2,0x10
    b3f4:	000109b7          	lui	s3,0x10
    b3f8:	00ee8eb3          	add	t4,t4,a4
    b3fc:	fff98713          	addi	a4,s3,-1 # ffff <_text_end+0x3edf>
    b400:	00e97933          	and	s2,s2,a4
    b404:	00e6f6b3          	and	a3,a3,a4
    b408:	0104d413          	srli	s0,s1,0x10
    b40c:	01091913          	slli	s2,s2,0x10
    b410:	00e4f4b3          	and	s1,s1,a4
    b414:	02978733          	mul	a4,a5,s1
    b418:	00d90933          	add	s2,s2,a3
    b41c:	012383b3          	add	t2,t2,s2
    b420:	02f40333          	mul	t1,s0,a5
    b424:	029886b3          	mul	a3,a7,s1
    b428:	028887b3          	mul	a5,a7,s0
    b42c:	006688b3          	add	a7,a3,t1
    b430:	01075693          	srli	a3,a4,0x10
    b434:	011686b3          	add	a3,a3,a7
    b438:	0066f463          	bgeu	a3,t1,b440 <__muldf3+0x2f8>
    b43c:	013787b3          	add	a5,a5,s3
    b440:	0106d893          	srli	a7,a3,0x10
    b444:	000109b7          	lui	s3,0x10
    b448:	00f88fb3          	add	t6,a7,a5
    b44c:	fff98793          	addi	a5,s3,-1 # ffff <_text_end+0x3edf>
    b450:	029288b3          	mul	a7,t0,s1
    b454:	00f6f6b3          	and	a3,a3,a5
    b458:	00f77733          	and	a4,a4,a5
    b45c:	01069693          	slli	a3,a3,0x10
    b460:	00e686b3          	add	a3,a3,a4
    b464:	025407b3          	mul	a5,s0,t0
    b468:	029f04b3          	mul	s1,t5,s1
    b46c:	028f0333          	mul	t1,t5,s0
    b470:	00f484b3          	add	s1,s1,a5
    b474:	0108d413          	srli	s0,a7,0x10
    b478:	009404b3          	add	s1,s0,s1
    b47c:	00f4f463          	bgeu	s1,a5,b484 <__muldf3+0x33c>
    b480:	01330333          	add	t1,t1,s3
    b484:	000107b7          	lui	a5,0x10
    b488:	fff78793          	addi	a5,a5,-1 # ffff <_text_end+0x3edf>
    b48c:	00f4f733          	and	a4,s1,a5
    b490:	00f8f8b3          	and	a7,a7,a5
    b494:	01071713          	slli	a4,a4,0x10
    b498:	007e0e33          	add	t3,t3,t2
    b49c:	01170733          	add	a4,a4,a7
    b4a0:	012e3933          	sltu	s2,t3,s2
    b4a4:	01d70733          	add	a4,a4,t4
    b4a8:	01270433          	add	s0,a4,s2
    b4ac:	00de0e33          	add	t3,t3,a3
    b4b0:	00de36b3          	sltu	a3,t3,a3
    b4b4:	01f408b3          	add	a7,s0,t6
    b4b8:	00d88f33          	add	t5,a7,a3
    b4bc:	01d73733          	sltu	a4,a4,t4
    b4c0:	01243433          	sltu	s0,s0,s2
    b4c4:	00876433          	or	s0,a4,s0
    b4c8:	0104d493          	srli	s1,s1,0x10
    b4cc:	01f8b8b3          	sltu	a7,a7,t6
    b4d0:	00df36b3          	sltu	a3,t5,a3
    b4d4:	00940433          	add	s0,s0,s1
    b4d8:	00d8e6b3          	or	a3,a7,a3
    b4dc:	00d40433          	add	s0,s0,a3
    b4e0:	00640433          	add	s0,s0,t1
    b4e4:	017f5793          	srli	a5,t5,0x17
    b4e8:	00941413          	slli	s0,s0,0x9
    b4ec:	00f46433          	or	s0,s0,a5
    b4f0:	009e1793          	slli	a5,t3,0x9
    b4f4:	0107e7b3          	or	a5,a5,a6
    b4f8:	00f037b3          	snez	a5,a5
    b4fc:	017e5e13          	srli	t3,t3,0x17
    b500:	009f1713          	slli	a4,t5,0x9
    b504:	01c7e7b3          	or	a5,a5,t3
    b508:	00e7e7b3          	or	a5,a5,a4
    b50c:	01000737          	lui	a4,0x1000
    b510:	00e47733          	and	a4,s0,a4
    b514:	10070663          	beqz	a4,b620 <__muldf3+0x4d8>
    b518:	0017d713          	srli	a4,a5,0x1
    b51c:	0017f793          	andi	a5,a5,1
    b520:	00f767b3          	or	a5,a4,a5
    b524:	01f41713          	slli	a4,s0,0x1f
    b528:	00e7e7b3          	or	a5,a5,a4
    b52c:	00145413          	srli	s0,s0,0x1
    b530:	3ff58693          	addi	a3,a1,1023
    b534:	0ed05a63          	blez	a3,b628 <__muldf3+0x4e0>
    b538:	0077f713          	andi	a4,a5,7
    b53c:	02070063          	beqz	a4,b55c <__muldf3+0x414>
    b540:	00f7f713          	andi	a4,a5,15
    b544:	00400513          	li	a0,4
    b548:	00a70a63          	beq	a4,a0,b55c <__muldf3+0x414>
    b54c:	00478713          	addi	a4,a5,4
    b550:	00f737b3          	sltu	a5,a4,a5
    b554:	00f40433          	add	s0,s0,a5
    b558:	00070793          	mv	a5,a4
    b55c:	01000737          	lui	a4,0x1000
    b560:	00e47733          	and	a4,s0,a4
    b564:	00070a63          	beqz	a4,b578 <__muldf3+0x430>
    b568:	ff000737          	lui	a4,0xff000
    b56c:	fff70713          	addi	a4,a4,-1 # feffffff <_stack+0xfefbffff>
    b570:	00e47433          	and	s0,s0,a4
    b574:	40058693          	addi	a3,a1,1024
    b578:	7fe00713          	li	a4,2046
    b57c:	16d74a63          	blt	a4,a3,b6f0 <__muldf3+0x5a8>
    b580:	0037d713          	srli	a4,a5,0x3
    b584:	01d41793          	slli	a5,s0,0x1d
    b588:	00e7e7b3          	or	a5,a5,a4
    b58c:	00345413          	srli	s0,s0,0x3
    b590:	01469713          	slli	a4,a3,0x14
    b594:	00c41413          	slli	s0,s0,0xc
    b598:	7ff006b7          	lui	a3,0x7ff00
    b59c:	00d77733          	and	a4,a4,a3
    b5a0:	00c45413          	srli	s0,s0,0xc
    b5a4:	00876433          	or	s0,a4,s0
    b5a8:	01f61613          	slli	a2,a2,0x1f
    b5ac:	02c12083          	lw	ra,44(sp)
    b5b0:	00c46733          	or	a4,s0,a2
    b5b4:	02812403          	lw	s0,40(sp)
    b5b8:	02412483          	lw	s1,36(sp)
    b5bc:	02012903          	lw	s2,32(sp)
    b5c0:	01c12983          	lw	s3,28(sp)
    b5c4:	01812a03          	lw	s4,24(sp)
    b5c8:	01412a83          	lw	s5,20(sp)
    b5cc:	01012b03          	lw	s6,16(sp)
    b5d0:	00c12b83          	lw	s7,12(sp)
    b5d4:	00078513          	mv	a0,a5
    b5d8:	00070593          	mv	a1,a4
    b5dc:	03010113          	addi	sp,sp,48
    b5e0:	00008067          	ret
    b5e4:	000a0613          	mv	a2,s4
    b5e8:	00048413          	mv	s0,s1
    b5ec:	00090793          	mv	a5,s2
    b5f0:	000b0713          	mv	a4,s6
    b5f4:	00200693          	li	a3,2
    b5f8:	0ed70c63          	beq	a4,a3,b6f0 <__muldf3+0x5a8>
    b5fc:	00300693          	li	a3,3
    b600:	0cd70e63          	beq	a4,a3,b6dc <__muldf3+0x594>
    b604:	00100693          	li	a3,1
    b608:	f2d714e3          	bne	a4,a3,b530 <__muldf3+0x3e8>
    b60c:	00000413          	li	s0,0
    b610:	00000793          	li	a5,0
    b614:	08c0006f          	j	b6a0 <__muldf3+0x558>
    b618:	000a8613          	mv	a2,s5
    b61c:	fd9ff06f          	j	b5f4 <__muldf3+0x4ac>
    b620:	00050593          	mv	a1,a0
    b624:	f0dff06f          	j	b530 <__muldf3+0x3e8>
    b628:	00100513          	li	a0,1
    b62c:	40d50533          	sub	a0,a0,a3
    b630:	03800713          	li	a4,56
    b634:	fca74ce3          	blt	a4,a0,b60c <__muldf3+0x4c4>
    b638:	01f00713          	li	a4,31
    b63c:	06a74663          	blt	a4,a0,b6a8 <__muldf3+0x560>
    b640:	41e58593          	addi	a1,a1,1054
    b644:	00b41733          	sll	a4,s0,a1
    b648:	00a7d6b3          	srl	a3,a5,a0
    b64c:	00b797b3          	sll	a5,a5,a1
    b650:	00d76733          	or	a4,a4,a3
    b654:	00f037b3          	snez	a5,a5
    b658:	00f767b3          	or	a5,a4,a5
    b65c:	00a45433          	srl	s0,s0,a0
    b660:	0077f713          	andi	a4,a5,7
    b664:	02070063          	beqz	a4,b684 <__muldf3+0x53c>
    b668:	00f7f713          	andi	a4,a5,15
    b66c:	00400693          	li	a3,4
    b670:	00d70a63          	beq	a4,a3,b684 <__muldf3+0x53c>
    b674:	00478713          	addi	a4,a5,4
    b678:	00f737b3          	sltu	a5,a4,a5
    b67c:	00f40433          	add	s0,s0,a5
    b680:	00070793          	mv	a5,a4
    b684:	00800737          	lui	a4,0x800
    b688:	00e47733          	and	a4,s0,a4
    b68c:	06071a63          	bnez	a4,b700 <__muldf3+0x5b8>
    b690:	01d41713          	slli	a4,s0,0x1d
    b694:	0037d793          	srli	a5,a5,0x3
    b698:	00f767b3          	or	a5,a4,a5
    b69c:	00345413          	srli	s0,s0,0x3
    b6a0:	00000693          	li	a3,0
    b6a4:	eedff06f          	j	b590 <__muldf3+0x448>
    b6a8:	fe100713          	li	a4,-31
    b6ac:	40d70733          	sub	a4,a4,a3
    b6b0:	02000813          	li	a6,32
    b6b4:	00e45733          	srl	a4,s0,a4
    b6b8:	00000693          	li	a3,0
    b6bc:	01050663          	beq	a0,a6,b6c8 <__muldf3+0x580>
    b6c0:	43e58593          	addi	a1,a1,1086
    b6c4:	00b416b3          	sll	a3,s0,a1
    b6c8:	00f6e7b3          	or	a5,a3,a5
    b6cc:	00f037b3          	snez	a5,a5
    b6d0:	00f767b3          	or	a5,a4,a5
    b6d4:	00000413          	li	s0,0
    b6d8:	f89ff06f          	j	b660 <__muldf3+0x518>
    b6dc:	00080437          	lui	s0,0x80
    b6e0:	00000793          	li	a5,0
    b6e4:	7ff00693          	li	a3,2047
    b6e8:	00000613          	li	a2,0
    b6ec:	ea5ff06f          	j	b590 <__muldf3+0x448>
    b6f0:	00000413          	li	s0,0
    b6f4:	00000793          	li	a5,0
    b6f8:	7ff00693          	li	a3,2047
    b6fc:	e95ff06f          	j	b590 <__muldf3+0x448>
    b700:	00000413          	li	s0,0
    b704:	00000793          	li	a5,0
    b708:	00100693          	li	a3,1
    b70c:	e85ff06f          	j	b590 <__muldf3+0x448>

0000b710 <__subdf3>:
    b710:	00100837          	lui	a6,0x100
    b714:	fff80813          	addi	a6,a6,-1 # fffff <_stack+0xbffff>
    b718:	fe010113          	addi	sp,sp,-32
    b71c:	00b877b3          	and	a5,a6,a1
    b720:	0145d713          	srli	a4,a1,0x14
    b724:	00d87833          	and	a6,a6,a3
    b728:	0146d313          	srli	t1,a3,0x14
    b72c:	00812c23          	sw	s0,24(sp)
    b730:	00379793          	slli	a5,a5,0x3
    b734:	7ff77413          	andi	s0,a4,2047
    b738:	01d55713          	srli	a4,a0,0x1d
    b73c:	00912a23          	sw	s1,20(sp)
    b740:	00f767b3          	or	a5,a4,a5
    b744:	01f5d493          	srli	s1,a1,0x1f
    b748:	01d65713          	srli	a4,a2,0x1d
    b74c:	00351593          	slli	a1,a0,0x3
    b750:	00381813          	slli	a6,a6,0x3
    b754:	00112e23          	sw	ra,28(sp)
    b758:	01212823          	sw	s2,16(sp)
    b75c:	01312623          	sw	s3,12(sp)
    b760:	7ff37313          	andi	t1,t1,2047
    b764:	7ff00513          	li	a0,2047
    b768:	01f6d693          	srli	a3,a3,0x1f
    b76c:	01076733          	or	a4,a4,a6
    b770:	00361613          	slli	a2,a2,0x3
    b774:	00a31663          	bne	t1,a0,b780 <__subdf3+0x70>
    b778:	00c76533          	or	a0,a4,a2
    b77c:	00051463          	bnez	a0,b784 <__subdf3+0x74>
    b780:	0016c693          	xori	a3,a3,1
    b784:	40640833          	sub	a6,s0,t1
    b788:	2c969863          	bne	a3,s1,ba58 <__subdf3+0x348>
    b78c:	13005063          	blez	a6,b8ac <__subdf3+0x19c>
    b790:	04031063          	bnez	t1,b7d0 <__subdf3+0xc0>
    b794:	00c766b3          	or	a3,a4,a2
    b798:	70068c63          	beqz	a3,beb0 <__subdf3+0x7a0>
    b79c:	fff80513          	addi	a0,a6,-1
    b7a0:	02051063          	bnez	a0,b7c0 <__subdf3+0xb0>
    b7a4:	00c58633          	add	a2,a1,a2
    b7a8:	00b63533          	sltu	a0,a2,a1
    b7ac:	00e787b3          	add	a5,a5,a4
    b7b0:	00a787b3          	add	a5,a5,a0
    b7b4:	00060593          	mv	a1,a2
    b7b8:	00100413          	li	s0,1
    b7bc:	0700006f          	j	b82c <__subdf3+0x11c>
    b7c0:	7ff00693          	li	a3,2047
    b7c4:	02d81063          	bne	a6,a3,b7e4 <__subdf3+0xd4>
    b7c8:	7ff00413          	li	s0,2047
    b7cc:	2140006f          	j	b9e0 <__subdf3+0x2d0>
    b7d0:	7ff00693          	li	a3,2047
    b7d4:	20d40663          	beq	s0,a3,b9e0 <__subdf3+0x2d0>
    b7d8:	008006b7          	lui	a3,0x800
    b7dc:	00d76733          	or	a4,a4,a3
    b7e0:	00080513          	mv	a0,a6
    b7e4:	03800693          	li	a3,56
    b7e8:	0aa6cc63          	blt	a3,a0,b8a0 <__subdf3+0x190>
    b7ec:	01f00693          	li	a3,31
    b7f0:	06a6ce63          	blt	a3,a0,b86c <__subdf3+0x15c>
    b7f4:	02000813          	li	a6,32
    b7f8:	40a80833          	sub	a6,a6,a0
    b7fc:	010716b3          	sll	a3,a4,a6
    b800:	00a658b3          	srl	a7,a2,a0
    b804:	01061633          	sll	a2,a2,a6
    b808:	0116e6b3          	or	a3,a3,a7
    b80c:	00c03633          	snez	a2,a2
    b810:	00c6e633          	or	a2,a3,a2
    b814:	00a75733          	srl	a4,a4,a0
    b818:	00b60633          	add	a2,a2,a1
    b81c:	00b63533          	sltu	a0,a2,a1
    b820:	00f70733          	add	a4,a4,a5
    b824:	00a707b3          	add	a5,a4,a0
    b828:	00060593          	mv	a1,a2
    b82c:	00800737          	lui	a4,0x800
    b830:	00e7f733          	and	a4,a5,a4
    b834:	1a070663          	beqz	a4,b9e0 <__subdf3+0x2d0>
    b838:	00140413          	addi	s0,s0,1 # 80001 <_stack+0x40001>
    b83c:	7ff00713          	li	a4,2047
    b840:	5ce40a63          	beq	s0,a4,be14 <__subdf3+0x704>
    b844:	ff800737          	lui	a4,0xff800
    b848:	fff70713          	addi	a4,a4,-1 # ff7fffff <_stack+0xff7bffff>
    b84c:	00e7f7b3          	and	a5,a5,a4
    b850:	0015f513          	andi	a0,a1,1
    b854:	0015d713          	srli	a4,a1,0x1
    b858:	00a76533          	or	a0,a4,a0
    b85c:	01f79593          	slli	a1,a5,0x1f
    b860:	00a5e5b3          	or	a1,a1,a0
    b864:	0017d793          	srli	a5,a5,0x1
    b868:	1780006f          	j	b9e0 <__subdf3+0x2d0>
    b86c:	fe050693          	addi	a3,a0,-32
    b870:	02000893          	li	a7,32
    b874:	00d756b3          	srl	a3,a4,a3
    b878:	00000813          	li	a6,0
    b87c:	01150863          	beq	a0,a7,b88c <__subdf3+0x17c>
    b880:	04000813          	li	a6,64
    b884:	40a80533          	sub	a0,a6,a0
    b888:	00a71833          	sll	a6,a4,a0
    b88c:	00c86633          	or	a2,a6,a2
    b890:	00c03633          	snez	a2,a2
    b894:	00c6e633          	or	a2,a3,a2
    b898:	00000713          	li	a4,0
    b89c:	f7dff06f          	j	b818 <__subdf3+0x108>
    b8a0:	00c76633          	or	a2,a4,a2
    b8a4:	00c03633          	snez	a2,a2
    b8a8:	ff1ff06f          	j	b898 <__subdf3+0x188>
    b8ac:	0e080263          	beqz	a6,b990 <__subdf3+0x280>
    b8b0:	40830533          	sub	a0,t1,s0
    b8b4:	02041e63          	bnez	s0,b8f0 <__subdf3+0x1e0>
    b8b8:	00b7e6b3          	or	a3,a5,a1
    b8bc:	52068c63          	beqz	a3,bdf4 <__subdf3+0x6e4>
    b8c0:	fff50693          	addi	a3,a0,-1
    b8c4:	00069c63          	bnez	a3,b8dc <__subdf3+0x1cc>
    b8c8:	00c585b3          	add	a1,a1,a2
    b8cc:	00e787b3          	add	a5,a5,a4
    b8d0:	00c5b633          	sltu	a2,a1,a2
    b8d4:	00c787b3          	add	a5,a5,a2
    b8d8:	ee1ff06f          	j	b7b8 <__subdf3+0xa8>
    b8dc:	7ff00813          	li	a6,2047
    b8e0:	03051263          	bne	a0,a6,b904 <__subdf3+0x1f4>
    b8e4:	00070793          	mv	a5,a4
    b8e8:	00060593          	mv	a1,a2
    b8ec:	eddff06f          	j	b7c8 <__subdf3+0xb8>
    b8f0:	7ff00693          	li	a3,2047
    b8f4:	fed308e3          	beq	t1,a3,b8e4 <__subdf3+0x1d4>
    b8f8:	008006b7          	lui	a3,0x800
    b8fc:	00d7e7b3          	or	a5,a5,a3
    b900:	00050693          	mv	a3,a0
    b904:	03800513          	li	a0,56
    b908:	06d54e63          	blt	a0,a3,b984 <__subdf3+0x274>
    b90c:	01f00513          	li	a0,31
    b910:	04d54063          	blt	a0,a3,b950 <__subdf3+0x240>
    b914:	02000813          	li	a6,32
    b918:	40d80833          	sub	a6,a6,a3
    b91c:	01079533          	sll	a0,a5,a6
    b920:	00d5d8b3          	srl	a7,a1,a3
    b924:	010595b3          	sll	a1,a1,a6
    b928:	01156533          	or	a0,a0,a7
    b92c:	00b035b3          	snez	a1,a1
    b930:	00b56533          	or	a0,a0,a1
    b934:	00d7d7b3          	srl	a5,a5,a3
    b938:	00c505b3          	add	a1,a0,a2
    b93c:	00e787b3          	add	a5,a5,a4
    b940:	00c5b633          	sltu	a2,a1,a2
    b944:	00c787b3          	add	a5,a5,a2
    b948:	00030413          	mv	s0,t1
    b94c:	ee1ff06f          	j	b82c <__subdf3+0x11c>
    b950:	fe068513          	addi	a0,a3,-32 # 7fffe0 <_stack+0x7bffe0>
    b954:	02000893          	li	a7,32
    b958:	00a7d833          	srl	a6,a5,a0
    b95c:	00000513          	li	a0,0
    b960:	01168863          	beq	a3,a7,b970 <__subdf3+0x260>
    b964:	04000513          	li	a0,64
    b968:	40d50533          	sub	a0,a0,a3
    b96c:	00a79533          	sll	a0,a5,a0
    b970:	00b56533          	or	a0,a0,a1
    b974:	00a03533          	snez	a0,a0
    b978:	00a86533          	or	a0,a6,a0
    b97c:	00000793          	li	a5,0
    b980:	fb9ff06f          	j	b938 <__subdf3+0x228>
    b984:	00b7e533          	or	a0,a5,a1
    b988:	00a03533          	snez	a0,a0
    b98c:	ff1ff06f          	j	b97c <__subdf3+0x26c>
    b990:	00140693          	addi	a3,s0,1
    b994:	7fe6f513          	andi	a0,a3,2046
    b998:	08051863          	bnez	a0,ba28 <__subdf3+0x318>
    b99c:	00b7e6b3          	or	a3,a5,a1
    b9a0:	06041463          	bnez	s0,ba08 <__subdf3+0x2f8>
    b9a4:	46068063          	beqz	a3,be04 <__subdf3+0x6f4>
    b9a8:	00c766b3          	or	a3,a4,a2
    b9ac:	02068a63          	beqz	a3,b9e0 <__subdf3+0x2d0>
    b9b0:	00c58633          	add	a2,a1,a2
    b9b4:	00e787b3          	add	a5,a5,a4
    b9b8:	00b63533          	sltu	a0,a2,a1
    b9bc:	00a787b3          	add	a5,a5,a0
    b9c0:	00800737          	lui	a4,0x800
    b9c4:	00e7f733          	and	a4,a5,a4
    b9c8:	00060593          	mv	a1,a2
    b9cc:	00070a63          	beqz	a4,b9e0 <__subdf3+0x2d0>
    b9d0:	ff800737          	lui	a4,0xff800
    b9d4:	fff70713          	addi	a4,a4,-1 # ff7fffff <_stack+0xff7bffff>
    b9d8:	00e7f7b3          	and	a5,a5,a4
    b9dc:	00100413          	li	s0,1
    b9e0:	0075f713          	andi	a4,a1,7
    b9e4:	42070c63          	beqz	a4,be1c <__subdf3+0x70c>
    b9e8:	00f5f713          	andi	a4,a1,15
    b9ec:	00400693          	li	a3,4
    b9f0:	42d70663          	beq	a4,a3,be1c <__subdf3+0x70c>
    b9f4:	00458713          	addi	a4,a1,4
    b9f8:	00b73533          	sltu	a0,a4,a1
    b9fc:	00a787b3          	add	a5,a5,a0
    ba00:	00070593          	mv	a1,a4
    ba04:	4180006f          	j	be1c <__subdf3+0x70c>
    ba08:	ec068ee3          	beqz	a3,b8e4 <__subdf3+0x1d4>
    ba0c:	00c76633          	or	a2,a4,a2
    ba10:	da060ce3          	beqz	a2,b7c8 <__subdf3+0xb8>
    ba14:	00000493          	li	s1,0
    ba18:	004007b7          	lui	a5,0x400
    ba1c:	00000593          	li	a1,0
    ba20:	7ff00413          	li	s0,2047
    ba24:	3f80006f          	j	be1c <__subdf3+0x70c>
    ba28:	7ff00513          	li	a0,2047
    ba2c:	3ea68263          	beq	a3,a0,be10 <__subdf3+0x700>
    ba30:	00c58633          	add	a2,a1,a2
    ba34:	00b63533          	sltu	a0,a2,a1
    ba38:	00e787b3          	add	a5,a5,a4
    ba3c:	00a787b3          	add	a5,a5,a0
    ba40:	01f79513          	slli	a0,a5,0x1f
    ba44:	00165613          	srli	a2,a2,0x1
    ba48:	00c565b3          	or	a1,a0,a2
    ba4c:	0017d793          	srli	a5,a5,0x1
    ba50:	00068413          	mv	s0,a3
    ba54:	f8dff06f          	j	b9e0 <__subdf3+0x2d0>
    ba58:	0f005c63          	blez	a6,bb50 <__subdf3+0x440>
    ba5c:	08031e63          	bnez	t1,baf8 <__subdf3+0x3e8>
    ba60:	00c766b3          	or	a3,a4,a2
    ba64:	44068663          	beqz	a3,beb0 <__subdf3+0x7a0>
    ba68:	fff80513          	addi	a0,a6,-1
    ba6c:	02051063          	bnez	a0,ba8c <__subdf3+0x37c>
    ba70:	40c58633          	sub	a2,a1,a2
    ba74:	00c5b533          	sltu	a0,a1,a2
    ba78:	40e787b3          	sub	a5,a5,a4
    ba7c:	40a787b3          	sub	a5,a5,a0
    ba80:	00060593          	mv	a1,a2
    ba84:	00100413          	li	s0,1
    ba88:	0540006f          	j	badc <__subdf3+0x3cc>
    ba8c:	7ff00693          	li	a3,2047
    ba90:	d2d80ce3          	beq	a6,a3,b7c8 <__subdf3+0xb8>
    ba94:	03800693          	li	a3,56
    ba98:	0aa6c663          	blt	a3,a0,bb44 <__subdf3+0x434>
    ba9c:	01f00693          	li	a3,31
    baa0:	06a6c863          	blt	a3,a0,bb10 <__subdf3+0x400>
    baa4:	02000813          	li	a6,32
    baa8:	40a80833          	sub	a6,a6,a0
    baac:	010716b3          	sll	a3,a4,a6
    bab0:	00a658b3          	srl	a7,a2,a0
    bab4:	01061633          	sll	a2,a2,a6
    bab8:	0116e6b3          	or	a3,a3,a7
    babc:	00c03633          	snez	a2,a2
    bac0:	00c6e633          	or	a2,a3,a2
    bac4:	00a75733          	srl	a4,a4,a0
    bac8:	40c58633          	sub	a2,a1,a2
    bacc:	00c5b533          	sltu	a0,a1,a2
    bad0:	40e78733          	sub	a4,a5,a4
    bad4:	40a707b3          	sub	a5,a4,a0
    bad8:	00060593          	mv	a1,a2
    badc:	00800937          	lui	s2,0x800
    bae0:	0127f733          	and	a4,a5,s2
    bae4:	ee070ee3          	beqz	a4,b9e0 <__subdf3+0x2d0>
    bae8:	fff90913          	addi	s2,s2,-1 # 7fffff <_stack+0x7bffff>
    baec:	0127f933          	and	s2,a5,s2
    baf0:	00058993          	mv	s3,a1
    baf4:	2140006f          	j	bd08 <__subdf3+0x5f8>
    baf8:	7ff00693          	li	a3,2047
    bafc:	eed402e3          	beq	s0,a3,b9e0 <__subdf3+0x2d0>
    bb00:	008006b7          	lui	a3,0x800
    bb04:	00d76733          	or	a4,a4,a3
    bb08:	00080513          	mv	a0,a6
    bb0c:	f89ff06f          	j	ba94 <__subdf3+0x384>
    bb10:	fe050693          	addi	a3,a0,-32
    bb14:	02000893          	li	a7,32
    bb18:	00d756b3          	srl	a3,a4,a3
    bb1c:	00000813          	li	a6,0
    bb20:	01150863          	beq	a0,a7,bb30 <__subdf3+0x420>
    bb24:	04000813          	li	a6,64
    bb28:	40a80533          	sub	a0,a6,a0
    bb2c:	00a71833          	sll	a6,a4,a0
    bb30:	00c86633          	or	a2,a6,a2
    bb34:	00c03633          	snez	a2,a2
    bb38:	00c6e633          	or	a2,a3,a2
    bb3c:	00000713          	li	a4,0
    bb40:	f89ff06f          	j	bac8 <__subdf3+0x3b8>
    bb44:	00c76633          	or	a2,a4,a2
    bb48:	00c03633          	snez	a2,a2
    bb4c:	ff1ff06f          	j	bb3c <__subdf3+0x42c>
    bb50:	0e080863          	beqz	a6,bc40 <__subdf3+0x530>
    bb54:	40830533          	sub	a0,t1,s0
    bb58:	04041263          	bnez	s0,bb9c <__subdf3+0x48c>
    bb5c:	00b7e833          	or	a6,a5,a1
    bb60:	34080c63          	beqz	a6,beb8 <__subdf3+0x7a8>
    bb64:	fff50813          	addi	a6,a0,-1
    bb68:	00081e63          	bnez	a6,bb84 <__subdf3+0x474>
    bb6c:	40b605b3          	sub	a1,a2,a1
    bb70:	40f707b3          	sub	a5,a4,a5
    bb74:	00b63633          	sltu	a2,a2,a1
    bb78:	40c787b3          	sub	a5,a5,a2
    bb7c:	00068493          	mv	s1,a3
    bb80:	f05ff06f          	j	ba84 <__subdf3+0x374>
    bb84:	7ff00893          	li	a7,2047
    bb88:	03151463          	bne	a0,a7,bbb0 <__subdf3+0x4a0>
    bb8c:	00070793          	mv	a5,a4
    bb90:	00060593          	mv	a1,a2
    bb94:	7ff00413          	li	s0,2047
    bb98:	0d00006f          	j	bc68 <__subdf3+0x558>
    bb9c:	7ff00813          	li	a6,2047
    bba0:	ff0306e3          	beq	t1,a6,bb8c <__subdf3+0x47c>
    bba4:	00800837          	lui	a6,0x800
    bba8:	0107e7b3          	or	a5,a5,a6
    bbac:	00050813          	mv	a6,a0
    bbb0:	03800513          	li	a0,56
    bbb4:	09054063          	blt	a0,a6,bc34 <__subdf3+0x524>
    bbb8:	01f00513          	li	a0,31
    bbbc:	05054263          	blt	a0,a6,bc00 <__subdf3+0x4f0>
    bbc0:	02000893          	li	a7,32
    bbc4:	410888b3          	sub	a7,a7,a6
    bbc8:	01179533          	sll	a0,a5,a7
    bbcc:	0105de33          	srl	t3,a1,a6
    bbd0:	011595b3          	sll	a1,a1,a7
    bbd4:	01c56533          	or	a0,a0,t3
    bbd8:	00b035b3          	snez	a1,a1
    bbdc:	00b56533          	or	a0,a0,a1
    bbe0:	0107d7b3          	srl	a5,a5,a6
    bbe4:	40a605b3          	sub	a1,a2,a0
    bbe8:	40f707b3          	sub	a5,a4,a5
    bbec:	00b63633          	sltu	a2,a2,a1
    bbf0:	40c787b3          	sub	a5,a5,a2
    bbf4:	00030413          	mv	s0,t1
    bbf8:	00068493          	mv	s1,a3
    bbfc:	ee1ff06f          	j	badc <__subdf3+0x3cc>
    bc00:	fe080513          	addi	a0,a6,-32 # 7fffe0 <_stack+0x7bffe0>
    bc04:	02000e13          	li	t3,32
    bc08:	00a7d8b3          	srl	a7,a5,a0
    bc0c:	00000513          	li	a0,0
    bc10:	01c80863          	beq	a6,t3,bc20 <__subdf3+0x510>
    bc14:	04000513          	li	a0,64
    bc18:	41050533          	sub	a0,a0,a6
    bc1c:	00a79533          	sll	a0,a5,a0
    bc20:	00b56533          	or	a0,a0,a1
    bc24:	00a03533          	snez	a0,a0
    bc28:	00a8e533          	or	a0,a7,a0
    bc2c:	00000793          	li	a5,0
    bc30:	fb5ff06f          	j	bbe4 <__subdf3+0x4d4>
    bc34:	00b7e533          	or	a0,a5,a1
    bc38:	00a03533          	snez	a0,a0
    bc3c:	ff1ff06f          	j	bc2c <__subdf3+0x51c>
    bc40:	00140513          	addi	a0,s0,1
    bc44:	7fe57513          	andi	a0,a0,2046
    bc48:	08051863          	bnez	a0,bcd8 <__subdf3+0x5c8>
    bc4c:	00b7e833          	or	a6,a5,a1
    bc50:	00c76533          	or	a0,a4,a2
    bc54:	06041263          	bnez	s0,bcb8 <__subdf3+0x5a8>
    bc58:	00081c63          	bnez	a6,bc70 <__subdf3+0x560>
    bc5c:	26050663          	beqz	a0,bec8 <__subdf3+0x7b8>
    bc60:	00070793          	mv	a5,a4
    bc64:	00060593          	mv	a1,a2
    bc68:	00068493          	mv	s1,a3
    bc6c:	d75ff06f          	j	b9e0 <__subdf3+0x2d0>
    bc70:	d60508e3          	beqz	a0,b9e0 <__subdf3+0x2d0>
    bc74:	40c58833          	sub	a6,a1,a2
    bc78:	0105b8b3          	sltu	a7,a1,a6
    bc7c:	40e78533          	sub	a0,a5,a4
    bc80:	41150533          	sub	a0,a0,a7
    bc84:	008008b7          	lui	a7,0x800
    bc88:	011578b3          	and	a7,a0,a7
    bc8c:	00088c63          	beqz	a7,bca4 <__subdf3+0x594>
    bc90:	40b605b3          	sub	a1,a2,a1
    bc94:	40f707b3          	sub	a5,a4,a5
    bc98:	00b63633          	sltu	a2,a2,a1
    bc9c:	40c787b3          	sub	a5,a5,a2
    bca0:	fc9ff06f          	j	bc68 <__subdf3+0x558>
    bca4:	00a865b3          	or	a1,a6,a0
    bca8:	22058863          	beqz	a1,bed8 <__subdf3+0x7c8>
    bcac:	00050793          	mv	a5,a0
    bcb0:	00080593          	mv	a1,a6
    bcb4:	d2dff06f          	j	b9e0 <__subdf3+0x2d0>
    bcb8:	00081c63          	bnez	a6,bcd0 <__subdf3+0x5c0>
    bcbc:	22050263          	beqz	a0,bee0 <__subdf3+0x7d0>
    bcc0:	00070793          	mv	a5,a4
    bcc4:	00060593          	mv	a1,a2
    bcc8:	00068493          	mv	s1,a3
    bccc:	afdff06f          	j	b7c8 <__subdf3+0xb8>
    bcd0:	ae050ce3          	beqz	a0,b7c8 <__subdf3+0xb8>
    bcd4:	d41ff06f          	j	ba14 <__subdf3+0x304>
    bcd8:	40c589b3          	sub	s3,a1,a2
    bcdc:	0135b533          	sltu	a0,a1,s3
    bce0:	40e78933          	sub	s2,a5,a4
    bce4:	40a90933          	sub	s2,s2,a0
    bce8:	00800537          	lui	a0,0x800
    bcec:	00a97533          	and	a0,s2,a0
    bcf0:	08050463          	beqz	a0,bd78 <__subdf3+0x668>
    bcf4:	40b609b3          	sub	s3,a2,a1
    bcf8:	40f707b3          	sub	a5,a4,a5
    bcfc:	01363633          	sltu	a2,a2,s3
    bd00:	40c78933          	sub	s2,a5,a2
    bd04:	00068493          	mv	s1,a3
    bd08:	08090263          	beqz	s2,bd8c <__subdf3+0x67c>
    bd0c:	00090513          	mv	a0,s2
    bd10:	aa9fd0ef          	jal	ra,97b8 <__clzsi2>
    bd14:	ff850713          	addi	a4,a0,-8 # 7ffff8 <_stack+0x7bfff8>
    bd18:	01f00793          	li	a5,31
    bd1c:	08e7c063          	blt	a5,a4,bd9c <__subdf3+0x68c>
    bd20:	02000793          	li	a5,32
    bd24:	40e787b3          	sub	a5,a5,a4
    bd28:	00e91933          	sll	s2,s2,a4
    bd2c:	00f9d7b3          	srl	a5,s3,a5
    bd30:	0127e7b3          	or	a5,a5,s2
    bd34:	00e995b3          	sll	a1,s3,a4
    bd38:	0a874463          	blt	a4,s0,bde0 <__subdf3+0x6d0>
    bd3c:	40870733          	sub	a4,a4,s0
    bd40:	00170693          	addi	a3,a4,1
    bd44:	01f00613          	li	a2,31
    bd48:	06d64263          	blt	a2,a3,bdac <__subdf3+0x69c>
    bd4c:	02000713          	li	a4,32
    bd50:	40d70733          	sub	a4,a4,a3
    bd54:	00e79633          	sll	a2,a5,a4
    bd58:	00d5d533          	srl	a0,a1,a3
    bd5c:	00e595b3          	sll	a1,a1,a4
    bd60:	00a66633          	or	a2,a2,a0
    bd64:	00b035b3          	snez	a1,a1
    bd68:	00b665b3          	or	a1,a2,a1
    bd6c:	00d7d7b3          	srl	a5,a5,a3
    bd70:	00000413          	li	s0,0
    bd74:	c6dff06f          	j	b9e0 <__subdf3+0x2d0>
    bd78:	0129e5b3          	or	a1,s3,s2
    bd7c:	f80596e3          	bnez	a1,bd08 <__subdf3+0x5f8>
    bd80:	00000793          	li	a5,0
    bd84:	00000413          	li	s0,0
    bd88:	1480006f          	j	bed0 <__subdf3+0x7c0>
    bd8c:	00098513          	mv	a0,s3
    bd90:	a29fd0ef          	jal	ra,97b8 <__clzsi2>
    bd94:	02050513          	addi	a0,a0,32
    bd98:	f7dff06f          	j	bd14 <__subdf3+0x604>
    bd9c:	fd850793          	addi	a5,a0,-40
    bda0:	00f997b3          	sll	a5,s3,a5
    bda4:	00000593          	li	a1,0
    bda8:	f91ff06f          	j	bd38 <__subdf3+0x628>
    bdac:	fe170713          	addi	a4,a4,-31
    bdb0:	02000613          	li	a2,32
    bdb4:	00e7d733          	srl	a4,a5,a4
    bdb8:	00000513          	li	a0,0
    bdbc:	00c68863          	beq	a3,a2,bdcc <__subdf3+0x6bc>
    bdc0:	04000513          	li	a0,64
    bdc4:	40d50533          	sub	a0,a0,a3
    bdc8:	00a79533          	sll	a0,a5,a0
    bdcc:	00a5e533          	or	a0,a1,a0
    bdd0:	00a03533          	snez	a0,a0
    bdd4:	00a765b3          	or	a1,a4,a0
    bdd8:	00000793          	li	a5,0
    bddc:	f95ff06f          	j	bd70 <__subdf3+0x660>
    bde0:	40e40433          	sub	s0,s0,a4
    bde4:	ff800737          	lui	a4,0xff800
    bde8:	fff70713          	addi	a4,a4,-1 # ff7fffff <_stack+0xff7bffff>
    bdec:	00e7f7b3          	and	a5,a5,a4
    bdf0:	bf1ff06f          	j	b9e0 <__subdf3+0x2d0>
    bdf4:	00070793          	mv	a5,a4
    bdf8:	00060593          	mv	a1,a2
    bdfc:	00050413          	mv	s0,a0
    be00:	be1ff06f          	j	b9e0 <__subdf3+0x2d0>
    be04:	00070793          	mv	a5,a4
    be08:	00060593          	mv	a1,a2
    be0c:	bd5ff06f          	j	b9e0 <__subdf3+0x2d0>
    be10:	7ff00413          	li	s0,2047
    be14:	00000793          	li	a5,0
    be18:	00000593          	li	a1,0
    be1c:	00800737          	lui	a4,0x800
    be20:	00e7f733          	and	a4,a5,a4
    be24:	00070e63          	beqz	a4,be40 <__subdf3+0x730>
    be28:	00140413          	addi	s0,s0,1
    be2c:	7ff00713          	li	a4,2047
    be30:	0ce40063          	beq	s0,a4,bef0 <__subdf3+0x7e0>
    be34:	ff800737          	lui	a4,0xff800
    be38:	fff70713          	addi	a4,a4,-1 # ff7fffff <_stack+0xff7bffff>
    be3c:	00e7f7b3          	and	a5,a5,a4
    be40:	01d79713          	slli	a4,a5,0x1d
    be44:	0035d513          	srli	a0,a1,0x3
    be48:	00a76533          	or	a0,a4,a0
    be4c:	7ff00713          	li	a4,2047
    be50:	0037d793          	srli	a5,a5,0x3
    be54:	00e41e63          	bne	s0,a4,be70 <__subdf3+0x760>
    be58:	00f56533          	or	a0,a0,a5
    be5c:	00000793          	li	a5,0
    be60:	00050863          	beqz	a0,be70 <__subdf3+0x760>
    be64:	000807b7          	lui	a5,0x80
    be68:	00000513          	li	a0,0
    be6c:	00000493          	li	s1,0
    be70:	01441713          	slli	a4,s0,0x14
    be74:	7ff006b7          	lui	a3,0x7ff00
    be78:	00c79793          	slli	a5,a5,0xc
    be7c:	01c12083          	lw	ra,28(sp)
    be80:	01812403          	lw	s0,24(sp)
    be84:	00d77733          	and	a4,a4,a3
    be88:	00c7d793          	srli	a5,a5,0xc
    be8c:	01f49493          	slli	s1,s1,0x1f
    be90:	00f767b3          	or	a5,a4,a5
    be94:	0097e733          	or	a4,a5,s1
    be98:	01012903          	lw	s2,16(sp)
    be9c:	01412483          	lw	s1,20(sp)
    bea0:	00c12983          	lw	s3,12(sp)
    bea4:	00070593          	mv	a1,a4
    bea8:	02010113          	addi	sp,sp,32
    beac:	00008067          	ret
    beb0:	00080413          	mv	s0,a6
    beb4:	b2dff06f          	j	b9e0 <__subdf3+0x2d0>
    beb8:	00070793          	mv	a5,a4
    bebc:	00060593          	mv	a1,a2
    bec0:	00050413          	mv	s0,a0
    bec4:	da5ff06f          	j	bc68 <__subdf3+0x558>
    bec8:	00000793          	li	a5,0
    becc:	00000593          	li	a1,0
    bed0:	00000493          	li	s1,0
    bed4:	f49ff06f          	j	be1c <__subdf3+0x70c>
    bed8:	00000793          	li	a5,0
    bedc:	ff5ff06f          	j	bed0 <__subdf3+0x7c0>
    bee0:	00000593          	li	a1,0
    bee4:	00000493          	li	s1,0
    bee8:	004007b7          	lui	a5,0x400
    beec:	b35ff06f          	j	ba20 <__subdf3+0x310>
    bef0:	00000793          	li	a5,0
    bef4:	00000593          	li	a1,0
    bef8:	f49ff06f          	j	be40 <__subdf3+0x730>

0000befc <__fixdfsi>:
    befc:	0145d713          	srli	a4,a1,0x14
    bf00:	001006b7          	lui	a3,0x100
    bf04:	fff68793          	addi	a5,a3,-1 # fffff <_stack+0xbffff>
    bf08:	7ff77713          	andi	a4,a4,2047
    bf0c:	3fe00613          	li	a2,1022
    bf10:	00b7f7b3          	and	a5,a5,a1
    bf14:	01f5d593          	srli	a1,a1,0x1f
    bf18:	04e65e63          	bge	a2,a4,bf74 <__fixdfsi+0x78>
    bf1c:	41d00613          	li	a2,1053
    bf20:	00e65a63          	bge	a2,a4,bf34 <__fixdfsi+0x38>
    bf24:	80000537          	lui	a0,0x80000
    bf28:	fff54513          	not	a0,a0
    bf2c:	00a58533          	add	a0,a1,a0
    bf30:	00008067          	ret
    bf34:	00d7e7b3          	or	a5,a5,a3
    bf38:	43300693          	li	a3,1075
    bf3c:	40e686b3          	sub	a3,a3,a4
    bf40:	01f00613          	li	a2,31
    bf44:	02d64063          	blt	a2,a3,bf64 <__fixdfsi+0x68>
    bf48:	bed70713          	addi	a4,a4,-1043
    bf4c:	00e797b3          	sll	a5,a5,a4
    bf50:	00d55533          	srl	a0,a0,a3
    bf54:	00a7e533          	or	a0,a5,a0
    bf58:	02058063          	beqz	a1,bf78 <__fixdfsi+0x7c>
    bf5c:	40a00533          	neg	a0,a0
    bf60:	00008067          	ret
    bf64:	41300513          	li	a0,1043
    bf68:	40e50533          	sub	a0,a0,a4
    bf6c:	00a7d533          	srl	a0,a5,a0
    bf70:	fe9ff06f          	j	bf58 <__fixdfsi+0x5c>
    bf74:	00000513          	li	a0,0
    bf78:	00008067          	ret

0000bf7c <__fixunsdfsi>:
    bf7c:	0145d713          	srli	a4,a1,0x14
    bf80:	00100837          	lui	a6,0x100
    bf84:	fff80793          	addi	a5,a6,-1 # fffff <_stack+0xbffff>
    bf88:	7ff77713          	andi	a4,a4,2047
    bf8c:	3fe00613          	li	a2,1022
    bf90:	00b7f7b3          	and	a5,a5,a1
    bf94:	00050693          	mv	a3,a0
    bf98:	01f5d593          	srli	a1,a1,0x1f
    bf9c:	04e65a63          	bge	a2,a4,bff0 <__fixunsdfsi+0x74>
    bfa0:	41f00613          	li	a2,1055
    bfa4:	40b60633          	sub	a2,a2,a1
    bfa8:	fff58513          	addi	a0,a1,-1
    bfac:	04c75463          	bge	a4,a2,bff4 <__fixunsdfsi+0x78>
    bfb0:	00000513          	li	a0,0
    bfb4:	04059063          	bnez	a1,bff4 <__fixunsdfsi+0x78>
    bfb8:	43300513          	li	a0,1075
    bfbc:	40e50533          	sub	a0,a0,a4
    bfc0:	01f00613          	li	a2,31
    bfc4:	0107e7b3          	or	a5,a5,a6
    bfc8:	00a64c63          	blt	a2,a0,bfe0 <__fixunsdfsi+0x64>
    bfcc:	bed70713          	addi	a4,a4,-1043
    bfd0:	00e797b3          	sll	a5,a5,a4
    bfd4:	00a6d533          	srl	a0,a3,a0
    bfd8:	00a7e533          	or	a0,a5,a0
    bfdc:	00008067          	ret
    bfe0:	41300513          	li	a0,1043
    bfe4:	40e50533          	sub	a0,a0,a4
    bfe8:	00a7d533          	srl	a0,a5,a0
    bfec:	00008067          	ret
    bff0:	00000513          	li	a0,0
    bff4:	00008067          	ret

0000bff8 <__floatsidf>:
    bff8:	ff010113          	addi	sp,sp,-16
    bffc:	00112623          	sw	ra,12(sp)
    c000:	00812423          	sw	s0,8(sp)
    c004:	00912223          	sw	s1,4(sp)
    c008:	08050663          	beqz	a0,c094 <__floatsidf+0x9c>
    c00c:	41f55793          	srai	a5,a0,0x1f
    c010:	00a7c433          	xor	s0,a5,a0
    c014:	40f40433          	sub	s0,s0,a5
    c018:	01f55493          	srli	s1,a0,0x1f
    c01c:	00040513          	mv	a0,s0
    c020:	f98fd0ef          	jal	ra,97b8 <__clzsi2>
    c024:	41e00713          	li	a4,1054
    c028:	00a00793          	li	a5,10
    c02c:	40a70733          	sub	a4,a4,a0
    c030:	04a7c863          	blt	a5,a0,c080 <__floatsidf+0x88>
    c034:	00b00793          	li	a5,11
    c038:	40a787b3          	sub	a5,a5,a0
    c03c:	01550513          	addi	a0,a0,21 # 80000015 <_stack+0x7ffc0015>
    c040:	00f457b3          	srl	a5,s0,a5
    c044:	00a41433          	sll	s0,s0,a0
    c048:	00048513          	mv	a0,s1
    c04c:	00c79793          	slli	a5,a5,0xc
    c050:	01471713          	slli	a4,a4,0x14
    c054:	00c7d793          	srli	a5,a5,0xc
    c058:	01f51513          	slli	a0,a0,0x1f
    c05c:	00f767b3          	or	a5,a4,a5
    c060:	00c12083          	lw	ra,12(sp)
    c064:	00a7e733          	or	a4,a5,a0
    c068:	00040513          	mv	a0,s0
    c06c:	00812403          	lw	s0,8(sp)
    c070:	00412483          	lw	s1,4(sp)
    c074:	00070593          	mv	a1,a4
    c078:	01010113          	addi	sp,sp,16
    c07c:	00008067          	ret
    c080:	ff550513          	addi	a0,a0,-11
    c084:	00a417b3          	sll	a5,s0,a0
    c088:	00048513          	mv	a0,s1
    c08c:	00000413          	li	s0,0
    c090:	fbdff06f          	j	c04c <__floatsidf+0x54>
    c094:	00000713          	li	a4,0
    c098:	00000793          	li	a5,0
    c09c:	ff1ff06f          	j	c08c <__floatsidf+0x94>

0000c0a0 <__floatunsidf>:
    c0a0:	ff010113          	addi	sp,sp,-16
    c0a4:	00812423          	sw	s0,8(sp)
    c0a8:	00112623          	sw	ra,12(sp)
    c0ac:	00050413          	mv	s0,a0
    c0b0:	06050263          	beqz	a0,c114 <__floatunsidf+0x74>
    c0b4:	f04fd0ef          	jal	ra,97b8 <__clzsi2>
    c0b8:	41e00713          	li	a4,1054
    c0bc:	00a00793          	li	a5,10
    c0c0:	40a70733          	sub	a4,a4,a0
    c0c4:	04a7c063          	blt	a5,a0,c104 <__floatunsidf+0x64>
    c0c8:	00b00793          	li	a5,11
    c0cc:	40a787b3          	sub	a5,a5,a0
    c0d0:	01550513          	addi	a0,a0,21
    c0d4:	00f457b3          	srl	a5,s0,a5
    c0d8:	00a41433          	sll	s0,s0,a0
    c0dc:	00c12083          	lw	ra,12(sp)
    c0e0:	00040513          	mv	a0,s0
    c0e4:	00c79793          	slli	a5,a5,0xc
    c0e8:	00812403          	lw	s0,8(sp)
    c0ec:	01471713          	slli	a4,a4,0x14
    c0f0:	00c7d793          	srli	a5,a5,0xc
    c0f4:	00f766b3          	or	a3,a4,a5
    c0f8:	00068593          	mv	a1,a3
    c0fc:	01010113          	addi	sp,sp,16
    c100:	00008067          	ret
    c104:	ff550793          	addi	a5,a0,-11
    c108:	00f417b3          	sll	a5,s0,a5
    c10c:	00000413          	li	s0,0
    c110:	fcdff06f          	j	c0dc <__floatunsidf+0x3c>
    c114:	00000793          	li	a5,0
    c118:	00000713          	li	a4,0
    c11c:	fc1ff06f          	j	c0dc <__floatunsidf+0x3c>
