
even_odd.elf:     file format elf32-littleriscv


Disassembly of section .text:

00000000 <_start>:
       0:	00013297          	auipc	t0,0x13
       4:	79028293          	addi	t0,t0,1936 # 13790 <trap_handler>
       8:	30529073          	csrw	mtvec,t0
       c:	3050e073          	csrsi	mtvec,1
      10:	00022297          	auipc	t0,0x22
      14:	89c28293          	addi	t0,t0,-1892 # 218ac <_PathLocale>
      18:	00022317          	auipc	t1,0x22
      1c:	8d430313          	addi	t1,t1,-1836 # 218ec <_bss_end>

00000020 <_bss_clear>:
      20:	0002a023          	sw	zero,0(t0)
      24:	00428293          	addi	t0,t0,4
      28:	fe62ece3          	bltu	t0,t1,20 <_bss_clear>
      2c:	00040117          	auipc	sp,0x40
      30:	fd410113          	addi	sp,sp,-44 # 40000 <_stack>
      34:	008000ef          	jal	ra,3c <main>
      38:	2651306f          	j	13a9c <exit>

0000003c <main>:
      3c:	fe010113          	addi	sp,sp,-32
      40:	00112e23          	sw	ra,28(sp)
      44:	00812c23          	sw	s0,24(sp)
      48:	02010413          	addi	s0,sp,32
      4c:	00200793          	li	a5,2
      50:	fef42623          	sw	a5,-20(s0)
      54:	000207b7          	lui	a5,0x20
      58:	03c78513          	addi	a0,a5,60 # 2003c <__malloc_trim_threshold+0x4>
      5c:	1a8000ef          	jal	ra,204 <puts>
      60:	fec42783          	lw	a5,-20(s0)
      64:	0017f793          	andi	a5,a5,1
      68:	00079c63          	bnez	a5,80 <main+0x44>
      6c:	fec42583          	lw	a1,-20(s0)
      70:	000207b7          	lui	a5,0x20
      74:	05478513          	addi	a0,a5,84 # 20054 <__malloc_trim_threshold+0x1c>
      78:	070000ef          	jal	ra,e8 <printf>
      7c:	0140006f          	j	90 <main+0x54>
      80:	fec42583          	lw	a1,-20(s0)
      84:	000207b7          	lui	a5,0x20
      88:	06878513          	addi	a0,a5,104 # 20068 <__malloc_trim_threshold+0x30>
      8c:	05c000ef          	jal	ra,e8 <printf>
      90:	00000793          	li	a5,0
      94:	00078513          	mv	a0,a5
      98:	01c12083          	lw	ra,28(sp)
      9c:	01812403          	lw	s0,24(sp)
      a0:	02010113          	addi	sp,sp,32
      a4:	00008067          	ret

000000a8 <_printf_r>:
      a8:	fc010113          	addi	sp,sp,-64
      ac:	02c12423          	sw	a2,40(sp)
      b0:	02d12623          	sw	a3,44(sp)
      b4:	02e12823          	sw	a4,48(sp)
      b8:	02f12a23          	sw	a5,52(sp)
      bc:	03012c23          	sw	a6,56(sp)
      c0:	03112e23          	sw	a7,60(sp)
      c4:	00058613          	mv	a2,a1
      c8:	00852583          	lw	a1,8(a0)
      cc:	02810693          	addi	a3,sp,40
      d0:	00112e23          	sw	ra,28(sp)
      d4:	00d12623          	sw	a3,12(sp)
      d8:	1c8000ef          	jal	ra,2a0 <_vfprintf_r>
      dc:	01c12083          	lw	ra,28(sp)
      e0:	04010113          	addi	sp,sp,64
      e4:	00008067          	ret

000000e8 <printf>:
      e8:	00020337          	lui	t1,0x20
      ec:	03032303          	lw	t1,48(t1) # 20030 <_impure_ptr>
      f0:	fc010113          	addi	sp,sp,-64
      f4:	02c12423          	sw	a2,40(sp)
      f8:	02d12623          	sw	a3,44(sp)
      fc:	02b12223          	sw	a1,36(sp)
     100:	02e12823          	sw	a4,48(sp)
     104:	02f12a23          	sw	a5,52(sp)
     108:	03012c23          	sw	a6,56(sp)
     10c:	03112e23          	sw	a7,60(sp)
     110:	00832583          	lw	a1,8(t1)
     114:	02410693          	addi	a3,sp,36
     118:	00050613          	mv	a2,a0
     11c:	00030513          	mv	a0,t1
     120:	00112e23          	sw	ra,28(sp)
     124:	00d12623          	sw	a3,12(sp)
     128:	178000ef          	jal	ra,2a0 <_vfprintf_r>
     12c:	01c12083          	lw	ra,28(sp)
     130:	04010113          	addi	sp,sp,64
     134:	00008067          	ret

00000138 <_puts_r>:
     138:	fc010113          	addi	sp,sp,-64
     13c:	02812c23          	sw	s0,56(sp)
     140:	00050413          	mv	s0,a0
     144:	00058513          	mv	a0,a1
     148:	02912a23          	sw	s1,52(sp)
     14c:	02112e23          	sw	ra,60(sp)
     150:	00058493          	mv	s1,a1
     154:	0c0000ef          	jal	ra,214 <strlen>
     158:	000207b7          	lui	a5,0x20
     15c:	07478793          	addi	a5,a5,116 # 20074 <__malloc_trim_threshold+0x3c>
     160:	02f12423          	sw	a5,40(sp)
     164:	00100793          	li	a5,1
     168:	02f12623          	sw	a5,44(sp)
     16c:	03842703          	lw	a4,56(s0)
     170:	02010793          	addi	a5,sp,32
     174:	00150693          	addi	a3,a0,1
     178:	00f12a23          	sw	a5,20(sp)
     17c:	00200793          	li	a5,2
     180:	02912023          	sw	s1,32(sp)
     184:	02a12223          	sw	a0,36(sp)
     188:	00d12e23          	sw	a3,28(sp)
     18c:	00f12c23          	sw	a5,24(sp)
     190:	00842583          	lw	a1,8(s0)
     194:	04070e63          	beqz	a4,1f0 <_puts_r+0xb8>
     198:	00c59783          	lh	a5,12(a1)
     19c:	01279713          	slli	a4,a5,0x12
     1a0:	02074263          	bltz	a4,1c4 <_puts_r+0x8c>
     1a4:	0645a703          	lw	a4,100(a1)
     1a8:	000026b7          	lui	a3,0x2
     1ac:	00d7e7b3          	or	a5,a5,a3
     1b0:	ffffe6b7          	lui	a3,0xffffe
     1b4:	fff68693          	addi	a3,a3,-1 # ffffdfff <_stack+0xfffbdfff>
     1b8:	00d77733          	and	a4,a4,a3
     1bc:	00f59623          	sh	a5,12(a1)
     1c0:	06e5a223          	sw	a4,100(a1)
     1c4:	01410613          	addi	a2,sp,20
     1c8:	00040513          	mv	a0,s0
     1cc:	035030ef          	jal	ra,3a00 <__sfvwrite_r>
     1d0:	03c12083          	lw	ra,60(sp)
     1d4:	03812403          	lw	s0,56(sp)
     1d8:	00a03533          	snez	a0,a0
     1dc:	40a00533          	neg	a0,a0
     1e0:	03412483          	lw	s1,52(sp)
     1e4:	00a56513          	ori	a0,a0,10
     1e8:	04010113          	addi	sp,sp,64
     1ec:	00008067          	ret
     1f0:	00040513          	mv	a0,s0
     1f4:	00b12623          	sw	a1,12(sp)
     1f8:	36c030ef          	jal	ra,3564 <__sinit>
     1fc:	00c12583          	lw	a1,12(sp)
     200:	f99ff06f          	j	198 <_puts_r+0x60>

00000204 <puts>:
     204:	000207b7          	lui	a5,0x20
     208:	00050593          	mv	a1,a0
     20c:	0307a503          	lw	a0,48(a5) # 20030 <_impure_ptr>
     210:	f29ff06f          	j	138 <_puts_r>

00000214 <strlen>:
     214:	00357793          	andi	a5,a0,3
     218:	00050713          	mv	a4,a0
     21c:	04079c63          	bnez	a5,274 <strlen+0x60>
     220:	7f7f86b7          	lui	a3,0x7f7f8
     224:	f7f68693          	addi	a3,a3,-129 # 7f7f7f7f <_stack+0x7f7b7f7f>
     228:	fff00593          	li	a1,-1
     22c:	00072603          	lw	a2,0(a4)
     230:	00470713          	addi	a4,a4,4
     234:	00d677b3          	and	a5,a2,a3
     238:	00d787b3          	add	a5,a5,a3
     23c:	00c7e7b3          	or	a5,a5,a2
     240:	00d7e7b3          	or	a5,a5,a3
     244:	feb784e3          	beq	a5,a1,22c <strlen+0x18>
     248:	ffc74683          	lbu	a3,-4(a4)
     24c:	40a707b3          	sub	a5,a4,a0
     250:	04068463          	beqz	a3,298 <strlen+0x84>
     254:	ffd74683          	lbu	a3,-3(a4)
     258:	02068c63          	beqz	a3,290 <strlen+0x7c>
     25c:	ffe74503          	lbu	a0,-2(a4)
     260:	00a03533          	snez	a0,a0
     264:	00f50533          	add	a0,a0,a5
     268:	ffe50513          	addi	a0,a0,-2
     26c:	00008067          	ret
     270:	fa0688e3          	beqz	a3,220 <strlen+0xc>
     274:	00074783          	lbu	a5,0(a4)
     278:	00170713          	addi	a4,a4,1
     27c:	00377693          	andi	a3,a4,3
     280:	fe0798e3          	bnez	a5,270 <strlen+0x5c>
     284:	40a70733          	sub	a4,a4,a0
     288:	fff70513          	addi	a0,a4,-1
     28c:	00008067          	ret
     290:	ffd78513          	addi	a0,a5,-3
     294:	00008067          	ret
     298:	ffc78513          	addi	a0,a5,-4
     29c:	00008067          	ret

000002a0 <_vfprintf_r>:
     2a0:	e1010113          	addi	sp,sp,-496
     2a4:	1e112623          	sw	ra,492(sp)
     2a8:	1d512a23          	sw	s5,468(sp)
     2ac:	1d612823          	sw	s6,464(sp)
     2b0:	1d712623          	sw	s7,460(sp)
     2b4:	00060a93          	mv	s5,a2
     2b8:	00058b93          	mv	s7,a1
     2bc:	00d12a23          	sw	a3,20(sp)
     2c0:	1e812423          	sw	s0,488(sp)
     2c4:	1e912223          	sw	s1,484(sp)
     2c8:	1f212023          	sw	s2,480(sp)
     2cc:	1d312e23          	sw	s3,476(sp)
     2d0:	1d412c23          	sw	s4,472(sp)
     2d4:	1d812423          	sw	s8,456(sp)
     2d8:	1d912223          	sw	s9,452(sp)
     2dc:	1da12023          	sw	s10,448(sp)
     2e0:	1bb12e23          	sw	s11,444(sp)
     2e4:	00050b13          	mv	s6,a0
     2e8:	08d060ef          	jal	ra,6b74 <_localeconv_r>
     2ec:	00052783          	lw	a5,0(a0)
     2f0:	00078513          	mv	a0,a5
     2f4:	02f12823          	sw	a5,48(sp)
     2f8:	f1dff0ef          	jal	ra,214 <strlen>
     2fc:	02a12623          	sw	a0,44(sp)
     300:	0e012823          	sw	zero,240(sp)
     304:	0e012a23          	sw	zero,244(sp)
     308:	0e012c23          	sw	zero,248(sp)
     30c:	0e012e23          	sw	zero,252(sp)
     310:	000b0663          	beqz	s6,31c <_vfprintf_r+0x7c>
     314:	038b2783          	lw	a5,56(s6)
     318:	70078263          	beqz	a5,a1c <_vfprintf_r+0x77c>
     31c:	00cb9703          	lh	a4,12(s7)
     320:	000026b7          	lui	a3,0x2
     324:	01071793          	slli	a5,a4,0x10
     328:	0107d793          	srli	a5,a5,0x10
     32c:	00d7f633          	and	a2,a5,a3
     330:	02061863          	bnez	a2,360 <_vfprintf_r+0xc0>
     334:	064ba603          	lw	a2,100(s7)
     338:	00d767b3          	or	a5,a4,a3
     33c:	01079793          	slli	a5,a5,0x10
     340:	ffffe737          	lui	a4,0xffffe
     344:	4107d793          	srai	a5,a5,0x10
     348:	fff70713          	addi	a4,a4,-1 # ffffdfff <_stack+0xfffbdfff>
     34c:	00e67733          	and	a4,a2,a4
     350:	00fb9623          	sh	a5,12(s7)
     354:	01079793          	slli	a5,a5,0x10
     358:	06eba223          	sw	a4,100(s7)
     35c:	0107d793          	srli	a5,a5,0x10
     360:	0087f713          	andi	a4,a5,8
     364:	2e070a63          	beqz	a4,658 <_vfprintf_r+0x3b8>
     368:	010ba703          	lw	a4,16(s7)
     36c:	2e070663          	beqz	a4,658 <_vfprintf_r+0x3b8>
     370:	01a7f793          	andi	a5,a5,26
     374:	00a00713          	li	a4,10
     378:	30e78263          	beq	a5,a4,67c <_vfprintf_r+0x3dc>
     37c:	10c10793          	addi	a5,sp,268
     380:	0ef12223          	sw	a5,228(sp)
     384:	00078893          	mv	a7,a5
     388:	000207b7          	lui	a5,0x20
     38c:	0bc78793          	addi	a5,a5,188 # 200bc <__malloc_trim_threshold+0x84>
     390:	000a8d13          	mv	s10,s5
     394:	00f12c23          	sw	a5,24(sp)
     398:	000d4703          	lbu	a4,0(s10)
     39c:	000207b7          	lui	a5,0x20
     3a0:	2d078793          	addi	a5,a5,720 # 202d0 <zeroes.0>
     3a4:	0e012623          	sw	zero,236(sp)
     3a8:	0e012423          	sw	zero,232(sp)
     3ac:	02012023          	sw	zero,32(sp)
     3b0:	02012a23          	sw	zero,52(sp)
     3b4:	02012c23          	sw	zero,56(sp)
     3b8:	02012e23          	sw	zero,60(sp)
     3bc:	04012423          	sw	zero,72(sp)
     3c0:	04012623          	sw	zero,76(sp)
     3c4:	00012623          	sw	zero,12(sp)
     3c8:	00f12423          	sw	a5,8(sp)
     3cc:	22070863          	beqz	a4,5fc <_vfprintf_r+0x35c>
     3d0:	000d0413          	mv	s0,s10
     3d4:	02500693          	li	a3,37
     3d8:	30d70a63          	beq	a4,a3,6ec <_vfprintf_r+0x44c>
     3dc:	00144703          	lbu	a4,1(s0)
     3e0:	00140413          	addi	s0,s0,1
     3e4:	fe071ae3          	bnez	a4,3d8 <_vfprintf_r+0x138>
     3e8:	41a404b3          	sub	s1,s0,s10
     3ec:	21a40863          	beq	s0,s10,5fc <_vfprintf_r+0x35c>
     3f0:	0ec12683          	lw	a3,236(sp)
     3f4:	0e812703          	lw	a4,232(sp)
     3f8:	01a8a023          	sw	s10,0(a7)
     3fc:	009686b3          	add	a3,a3,s1
     400:	00170713          	addi	a4,a4,1
     404:	0098a223          	sw	s1,4(a7)
     408:	0ed12623          	sw	a3,236(sp)
     40c:	0ee12423          	sw	a4,232(sp)
     410:	00700693          	li	a3,7
     414:	00888893          	addi	a7,a7,8
     418:	2ee6c263          	blt	a3,a4,6fc <_vfprintf_r+0x45c>
     41c:	00c12783          	lw	a5,12(sp)
     420:	00044703          	lbu	a4,0(s0)
     424:	009787b3          	add	a5,a5,s1
     428:	00f12623          	sw	a5,12(sp)
     42c:	1c070863          	beqz	a4,5fc <_vfprintf_r+0x35c>
     430:	fff00313          	li	t1,-1
     434:	00144e03          	lbu	t3,1(s0)
     438:	0c0103a3          	sb	zero,199(sp)
     43c:	00140413          	addi	s0,s0,1
     440:	00000493          	li	s1,0
     444:	00000913          	li	s2,0
     448:	05a00993          	li	s3,90
     44c:	00900a93          	li	s5,9
     450:	02a00c13          	li	s8,42
     454:	00030a13          	mv	s4,t1
     458:	00088d93          	mv	s11,a7
     45c:	00140413          	addi	s0,s0,1
     460:	000e0c93          	mv	s9,t3
     464:	fe0c8793          	addi	a5,s9,-32
     468:	04f9e463          	bltu	s3,a5,4b0 <_vfprintf_r+0x210>
     46c:	01812703          	lw	a4,24(sp)
     470:	00279793          	slli	a5,a5,0x2
     474:	00e787b3          	add	a5,a5,a4
     478:	0007a783          	lw	a5,0(a5)
     47c:	00078067          	jr	a5
     480:	00000493          	li	s1,0
     484:	fd0c8693          	addi	a3,s9,-48
     488:	00044c83          	lbu	s9,0(s0)
     48c:	00249793          	slli	a5,s1,0x2
     490:	009787b3          	add	a5,a5,s1
     494:	00179793          	slli	a5,a5,0x1
     498:	00f684b3          	add	s1,a3,a5
     49c:	fd0c8693          	addi	a3,s9,-48
     4a0:	00140413          	addi	s0,s0,1
     4a4:	fedaf2e3          	bgeu	s5,a3,488 <_vfprintf_r+0x1e8>
     4a8:	fe0c8793          	addi	a5,s9,-32
     4ac:	fcf9f0e3          	bgeu	s3,a5,46c <_vfprintf_r+0x1cc>
     4b0:	000d8893          	mv	a7,s11
     4b4:	140c8463          	beqz	s9,5fc <_vfprintf_r+0x35c>
     4b8:	15910623          	sb	s9,332(sp)
     4bc:	0c0103a3          	sb	zero,199(sp)
     4c0:	00100993          	li	s3,1
     4c4:	00100c13          	li	s8,1
     4c8:	14c10d13          	addi	s10,sp,332
     4cc:	00012823          	sw	zero,16(sp)
     4d0:	00000313          	li	t1,0
     4d4:	02012423          	sw	zero,40(sp)
     4d8:	02012223          	sw	zero,36(sp)
     4dc:	00012e23          	sw	zero,28(sp)
     4e0:	00297a93          	andi	s5,s2,2
     4e4:	000a8463          	beqz	s5,4ec <_vfprintf_r+0x24c>
     4e8:	00298993          	addi	s3,s3,2
     4ec:	08497a13          	andi	s4,s2,132
     4f0:	0ec12703          	lw	a4,236(sp)
     4f4:	000a1663          	bnez	s4,500 <_vfprintf_r+0x260>
     4f8:	41348833          	sub	a6,s1,s3
     4fc:	490044e3          	bgtz	a6,1184 <_vfprintf_r+0xee4>
     500:	0c714683          	lbu	a3,199(sp)
     504:	02068a63          	beqz	a3,538 <_vfprintf_r+0x298>
     508:	0e812683          	lw	a3,232(sp)
     50c:	0c710613          	addi	a2,sp,199
     510:	00c8a023          	sw	a2,0(a7)
     514:	00170713          	addi	a4,a4,1
     518:	00100613          	li	a2,1
     51c:	00168693          	addi	a3,a3,1 # 2001 <_vfprintf_r+0x1d61>
     520:	00c8a223          	sw	a2,4(a7)
     524:	0ee12623          	sw	a4,236(sp)
     528:	0ed12423          	sw	a3,232(sp)
     52c:	00700613          	li	a2,7
     530:	00888893          	addi	a7,a7,8
     534:	2ed64463          	blt	a2,a3,81c <_vfprintf_r+0x57c>
     538:	020a8a63          	beqz	s5,56c <_vfprintf_r+0x2cc>
     53c:	0e812683          	lw	a3,232(sp)
     540:	0c810613          	addi	a2,sp,200
     544:	00c8a023          	sw	a2,0(a7)
     548:	00270713          	addi	a4,a4,2
     54c:	00200613          	li	a2,2
     550:	00168693          	addi	a3,a3,1
     554:	00c8a223          	sw	a2,4(a7)
     558:	0ee12623          	sw	a4,236(sp)
     55c:	0ed12423          	sw	a3,232(sp)
     560:	00700613          	li	a2,7
     564:	00888893          	addi	a7,a7,8
     568:	52d644e3          	blt	a2,a3,1290 <_vfprintf_r+0xff0>
     56c:	08000693          	li	a3,128
     570:	24da02e3          	beq	s4,a3,fb4 <_vfprintf_r+0xd14>
     574:	41830db3          	sub	s11,t1,s8
     578:	33b048e3          	bgtz	s11,10a8 <_vfprintf_r+0xe08>
     57c:	10097693          	andi	a3,s2,256
     580:	0e069ce3          	bnez	a3,e78 <_vfprintf_r+0xbd8>
     584:	0e812783          	lw	a5,232(sp)
     588:	01870733          	add	a4,a4,s8
     58c:	01a8a023          	sw	s10,0(a7)
     590:	00178793          	addi	a5,a5,1
     594:	0188a223          	sw	s8,4(a7)
     598:	0ee12623          	sw	a4,236(sp)
     59c:	0ef12423          	sw	a5,232(sp)
     5a0:	00700693          	li	a3,7
     5a4:	3af6c463          	blt	a3,a5,94c <_vfprintf_r+0x6ac>
     5a8:	00888893          	addi	a7,a7,8
     5ac:	00497913          	andi	s2,s2,4
     5b0:	00090663          	beqz	s2,5bc <_vfprintf_r+0x31c>
     5b4:	41348933          	sub	s2,s1,s3
     5b8:	3b204a63          	bgtz	s2,96c <_vfprintf_r+0x6cc>
     5bc:	0134d463          	bge	s1,s3,5c4 <_vfprintf_r+0x324>
     5c0:	00098493          	mv	s1,s3
     5c4:	00c12783          	lw	a5,12(sp)
     5c8:	009787b3          	add	a5,a5,s1
     5cc:	00f12623          	sw	a5,12(sp)
     5d0:	380716e3          	bnez	a4,115c <_vfprintf_r+0xebc>
     5d4:	01012783          	lw	a5,16(sp)
     5d8:	0e012423          	sw	zero,232(sp)
     5dc:	00078863          	beqz	a5,5ec <_vfprintf_r+0x34c>
     5e0:	01012583          	lw	a1,16(sp)
     5e4:	000b0513          	mv	a0,s6
     5e8:	104030ef          	jal	ra,36ec <_free_r>
     5ec:	10c10893          	addi	a7,sp,268
     5f0:	00040d13          	mv	s10,s0
     5f4:	000d4703          	lbu	a4,0(s10)
     5f8:	dc071ce3          	bnez	a4,3d0 <_vfprintf_r+0x130>
     5fc:	0ec12783          	lw	a5,236(sp)
     600:	00078463          	beqz	a5,608 <_vfprintf_r+0x368>
     604:	44d0106f          	j	2250 <_vfprintf_r+0x1fb0>
     608:	00cbd783          	lhu	a5,12(s7)
     60c:	0407f793          	andi	a5,a5,64
     610:	00078463          	beqz	a5,618 <_vfprintf_r+0x378>
     614:	2940206f          	j	28a8 <_vfprintf_r+0x2608>
     618:	1ec12083          	lw	ra,492(sp)
     61c:	1e812403          	lw	s0,488(sp)
     620:	00c12503          	lw	a0,12(sp)
     624:	1e412483          	lw	s1,484(sp)
     628:	1e012903          	lw	s2,480(sp)
     62c:	1dc12983          	lw	s3,476(sp)
     630:	1d812a03          	lw	s4,472(sp)
     634:	1d412a83          	lw	s5,468(sp)
     638:	1d012b03          	lw	s6,464(sp)
     63c:	1cc12b83          	lw	s7,460(sp)
     640:	1c812c03          	lw	s8,456(sp)
     644:	1c412c83          	lw	s9,452(sp)
     648:	1c012d03          	lw	s10,448(sp)
     64c:	1bc12d83          	lw	s11,444(sp)
     650:	1f010113          	addi	sp,sp,496
     654:	00008067          	ret
     658:	000b8593          	mv	a1,s7
     65c:	000b0513          	mv	a0,s6
     660:	6f8020ef          	jal	ra,2d58 <__swsetup_r>
     664:	00050463          	beqz	a0,66c <_vfprintf_r+0x3cc>
     668:	2400206f          	j	28a8 <_vfprintf_r+0x2608>
     66c:	00cbd783          	lhu	a5,12(s7)
     670:	00a00713          	li	a4,10
     674:	01a7f793          	andi	a5,a5,26
     678:	d0e792e3          	bne	a5,a4,37c <_vfprintf_r+0xdc>
     67c:	00eb9783          	lh	a5,14(s7)
     680:	ce07cee3          	bltz	a5,37c <_vfprintf_r+0xdc>
     684:	01412683          	lw	a3,20(sp)
     688:	000a8613          	mv	a2,s5
     68c:	000b8593          	mv	a1,s7
     690:	000b0513          	mv	a0,s6
     694:	604020ef          	jal	ra,2c98 <__sbprintf>
     698:	00a12623          	sw	a0,12(sp)
     69c:	f7dff06f          	j	618 <_vfprintf_r+0x378>
     6a0:	000b0513          	mv	a0,s6
     6a4:	4d0060ef          	jal	ra,6b74 <_localeconv_r>
     6a8:	00452783          	lw	a5,4(a0)
     6ac:	00078513          	mv	a0,a5
     6b0:	04f12623          	sw	a5,76(sp)
     6b4:	b61ff0ef          	jal	ra,214 <strlen>
     6b8:	00050793          	mv	a5,a0
     6bc:	000b0513          	mv	a0,s6
     6c0:	00078c93          	mv	s9,a5
     6c4:	04f12423          	sw	a5,72(sp)
     6c8:	4ac060ef          	jal	ra,6b74 <_localeconv_r>
     6cc:	00852783          	lw	a5,8(a0)
     6d0:	02f12e23          	sw	a5,60(sp)
     6d4:	740c98e3          	bnez	s9,1624 <_vfprintf_r+0x1384>
     6d8:	00044e03          	lbu	t3,0(s0)
     6dc:	d81ff06f          	j	45c <_vfprintf_r+0x1bc>
     6e0:	00044e03          	lbu	t3,0(s0)
     6e4:	02096913          	ori	s2,s2,32
     6e8:	d75ff06f          	j	45c <_vfprintf_r+0x1bc>
     6ec:	41a404b3          	sub	s1,s0,s10
     6f0:	d1a410e3          	bne	s0,s10,3f0 <_vfprintf_r+0x150>
     6f4:	00044703          	lbu	a4,0(s0)
     6f8:	d35ff06f          	j	42c <_vfprintf_r+0x18c>
     6fc:	0e410613          	addi	a2,sp,228
     700:	000b8593          	mv	a1,s7
     704:	000b0513          	mv	a0,s6
     708:	3e50b0ef          	jal	ra,c2ec <__sprint_r>
     70c:	ee051ee3          	bnez	a0,608 <_vfprintf_r+0x368>
     710:	10c10893          	addi	a7,sp,268
     714:	d09ff06f          	j	41c <_vfprintf_r+0x17c>
     718:	00897713          	andi	a4,s2,8
     71c:	000a0313          	mv	t1,s4
     720:	000d8893          	mv	a7,s11
     724:	720712e3          	bnez	a4,1648 <_vfprintf_r+0x13a8>
     728:	01412783          	lw	a5,20(sp)
     72c:	01412823          	sw	s4,16(sp)
     730:	0b010513          	addi	a0,sp,176
     734:	00778a13          	addi	s4,a5,7
     738:	ff8a7a13          	andi	s4,s4,-8
     73c:	000a2583          	lw	a1,0(s4)
     740:	004a2603          	lw	a2,4(s4)
     744:	008a0793          	addi	a5,s4,8
     748:	01b12e23          	sw	s11,28(sp)
     74c:	00f12a23          	sw	a5,20(sp)
     750:	2a5120ef          	jal	ra,131f4 <__extenddftf2>
     754:	0b012583          	lw	a1,176(sp)
     758:	0b412603          	lw	a2,180(sp)
     75c:	0b812683          	lw	a3,184(sp)
     760:	0bc12703          	lw	a4,188(sp)
     764:	01c12883          	lw	a7,28(sp)
     768:	01012303          	lw	t1,16(sp)
     76c:	0f010513          	addi	a0,sp,240
     770:	01112e23          	sw	a7,28(sp)
     774:	00612823          	sw	t1,16(sp)
     778:	0ee12e23          	sw	a4,252(sp)
     77c:	0eb12823          	sw	a1,240(sp)
     780:	0ec12a23          	sw	a2,244(sp)
     784:	0ed12c23          	sw	a3,248(sp)
     788:	36c060ef          	jal	ra,6af4 <_ldcheck>
     78c:	0ca12623          	sw	a0,204(sp)
     790:	00200713          	li	a4,2
     794:	01012303          	lw	t1,16(sp)
     798:	01c12883          	lw	a7,28(sp)
     79c:	00e51463          	bne	a0,a4,7a4 <_vfprintf_r+0x504>
     7a0:	5a40106f          	j	1d44 <_vfprintf_r+0x1aa4>
     7a4:	00100713          	li	a4,1
     7a8:	00e51463          	bne	a0,a4,7b0 <_vfprintf_r+0x510>
     7ac:	6f40106f          	j	1ea0 <_vfprintf_r+0x1c00>
     7b0:	06100713          	li	a4,97
     7b4:	00ec9463          	bne	s9,a4,7bc <_vfprintf_r+0x51c>
     7b8:	0200106f          	j	17d8 <_vfprintf_r+0x1538>
     7bc:	04100713          	li	a4,65
     7c0:	05800793          	li	a5,88
     7c4:	00ec9463          	bne	s9,a4,7cc <_vfprintf_r+0x52c>
     7c8:	0140106f          	j	17dc <_vfprintf_r+0x153c>
     7cc:	fdfcf793          	andi	a5,s9,-33
     7d0:	fff00713          	li	a4,-1
     7d4:	02f12423          	sw	a5,40(sp)
     7d8:	00e31463          	bne	t1,a4,7e0 <_vfprintf_r+0x540>
     7dc:	1d80206f          	j	29b4 <_vfprintf_r+0x2714>
     7e0:	04700713          	li	a4,71
     7e4:	00e79463          	bne	a5,a4,7ec <_vfprintf_r+0x54c>
     7e8:	1bc0206f          	j	29a4 <_vfprintf_r+0x2704>
     7ec:	0fc12a83          	lw	s5,252(sp)
     7f0:	05212023          	sw	s2,64(sp)
     7f4:	0f012a03          	lw	s4,240(sp)
     7f8:	0f412e83          	lw	t4,244(sp)
     7fc:	0f812f03          	lw	t5,248(sp)
     800:	10096713          	ori	a4,s2,256
     804:	000ad463          	bgez	s5,80c <_vfprintf_r+0x56c>
     808:	25d0106f          	j	2264 <_vfprintf_r+0x1fc4>
     80c:	04012c23          	sw	zero,88(sp)
     810:	00070913          	mv	s2,a4
     814:	00012823          	sw	zero,16(sp)
     818:	0180106f          	j	1830 <_vfprintf_r+0x1590>
     81c:	0e410613          	addi	a2,sp,228
     820:	000b8593          	mv	a1,s7
     824:	000b0513          	mv	a0,s6
     828:	04612023          	sw	t1,64(sp)
     82c:	2c10b0ef          	jal	ra,c2ec <__sprint_r>
     830:	140510e3          	bnez	a0,1170 <_vfprintf_r+0xed0>
     834:	0ec12703          	lw	a4,236(sp)
     838:	04012303          	lw	t1,64(sp)
     83c:	10c10893          	addi	a7,sp,268
     840:	cf9ff06f          	j	538 <_vfprintf_r+0x298>
     844:	0e812a83          	lw	s5,232(sp)
     848:	02012783          	lw	a5,32(sp)
     84c:	00100693          	li	a3,1
     850:	01a8a023          	sw	s10,0(a7)
     854:	00170d93          	addi	s11,a4,1
     858:	001a8a93          	addi	s5,s5,1
     85c:	00888c93          	addi	s9,a7,8
     860:	3cf6d8e3          	bge	a3,a5,1430 <_vfprintf_r+0x1190>
     864:	00100693          	li	a3,1
     868:	00d8a223          	sw	a3,4(a7)
     86c:	0fb12623          	sw	s11,236(sp)
     870:	0f512423          	sw	s5,232(sp)
     874:	00700693          	li	a3,7
     878:	0156d463          	bge	a3,s5,880 <_vfprintf_r+0x5e0>
     87c:	2600106f          	j	1adc <_vfprintf_r+0x183c>
     880:	02c12783          	lw	a5,44(sp)
     884:	03012703          	lw	a4,48(sp)
     888:	001a8a93          	addi	s5,s5,1
     88c:	00fd8db3          	add	s11,s11,a5
     890:	00eca023          	sw	a4,0(s9)
     894:	00fca223          	sw	a5,4(s9)
     898:	0fb12623          	sw	s11,236(sp)
     89c:	0f512423          	sw	s5,232(sp)
     8a0:	00700693          	li	a3,7
     8a4:	008c8c93          	addi	s9,s9,8
     8a8:	0156d463          	bge	a3,s5,8b0 <_vfprintf_r+0x610>
     8ac:	2540106f          	j	1b00 <_vfprintf_r+0x1860>
     8b0:	0f012683          	lw	a3,240(sp)
     8b4:	0a010593          	addi	a1,sp,160
     8b8:	0b010513          	addi	a0,sp,176
     8bc:	0ad12823          	sw	a3,176(sp)
     8c0:	0f412683          	lw	a3,244(sp)
     8c4:	0a012023          	sw	zero,160(sp)
     8c8:	0a012223          	sw	zero,164(sp)
     8cc:	0ad12a23          	sw	a3,180(sp)
     8d0:	0f812683          	lw	a3,248(sp)
     8d4:	0a012423          	sw	zero,168(sp)
     8d8:	0a012623          	sw	zero,172(sp)
     8dc:	0ad12c23          	sw	a3,184(sp)
     8e0:	0fc12683          	lw	a3,252(sp)
     8e4:	0ad12e23          	sw	a3,188(sp)
     8e8:	6710f0ef          	jal	ra,10758 <__eqtf2>
     8ec:	02012783          	lw	a5,32(sp)
     8f0:	fff78c13          	addi	s8,a5,-1
     8f4:	36050ee3          	beqz	a0,1470 <_vfprintf_r+0x11d0>
     8f8:	001a8a93          	addi	s5,s5,1
     8fc:	001d0793          	addi	a5,s10,1
     900:	018d8db3          	add	s11,s11,s8
     904:	00fca023          	sw	a5,0(s9)
     908:	018ca223          	sw	s8,4(s9)
     90c:	0fb12623          	sw	s11,236(sp)
     910:	0f512423          	sw	s5,232(sp)
     914:	00700793          	li	a5,7
     918:	008c8c93          	addi	s9,s9,8
     91c:	3357c8e3          	blt	a5,s5,144c <_vfprintf_r+0x11ac>
     920:	03812683          	lw	a3,56(sp)
     924:	0d410793          	addi	a5,sp,212
     928:	001a8a93          	addi	s5,s5,1
     92c:	01b68733          	add	a4,a3,s11
     930:	00fca023          	sw	a5,0(s9)
     934:	00dca223          	sw	a3,4(s9)
     938:	0ee12623          	sw	a4,236(sp)
     93c:	0f512423          	sw	s5,232(sp)
     940:	00700793          	li	a5,7
     944:	008c8893          	addi	a7,s9,8
     948:	c757d2e3          	bge	a5,s5,5ac <_vfprintf_r+0x30c>
     94c:	0e410613          	addi	a2,sp,228
     950:	000b8593          	mv	a1,s7
     954:	000b0513          	mv	a0,s6
     958:	1950b0ef          	jal	ra,c2ec <__sprint_r>
     95c:	00051ae3          	bnez	a0,1170 <_vfprintf_r+0xed0>
     960:	0ec12703          	lw	a4,236(sp)
     964:	10c10893          	addi	a7,sp,268
     968:	c45ff06f          	j	5ac <_vfprintf_r+0x30c>
     96c:	01000693          	li	a3,16
     970:	0e812783          	lw	a5,232(sp)
     974:	0126c463          	blt	a3,s2,97c <_vfprintf_r+0x6dc>
     978:	73d0106f          	j	28b4 <_vfprintf_r+0x2614>
     97c:	000206b7          	lui	a3,0x20
     980:	2c068d93          	addi	s11,a3,704 # 202c0 <blanks.1>
     984:	01000a93          	li	s5,16
     988:	00700c13          	li	s8,7
     98c:	00c0006f          	j	998 <_vfprintf_r+0x6f8>
     990:	ff090913          	addi	s2,s2,-16
     994:	052ad663          	bge	s5,s2,9e0 <_vfprintf_r+0x740>
     998:	01070713          	addi	a4,a4,16
     99c:	00178793          	addi	a5,a5,1
     9a0:	01b8a023          	sw	s11,0(a7)
     9a4:	0158a223          	sw	s5,4(a7)
     9a8:	0ee12623          	sw	a4,236(sp)
     9ac:	0ef12423          	sw	a5,232(sp)
     9b0:	00888893          	addi	a7,a7,8
     9b4:	fcfc5ee3          	bge	s8,a5,990 <_vfprintf_r+0x6f0>
     9b8:	0e410613          	addi	a2,sp,228
     9bc:	000b8593          	mv	a1,s7
     9c0:	000b0513          	mv	a0,s6
     9c4:	1290b0ef          	jal	ra,c2ec <__sprint_r>
     9c8:	7a051463          	bnez	a0,1170 <_vfprintf_r+0xed0>
     9cc:	ff090913          	addi	s2,s2,-16
     9d0:	0ec12703          	lw	a4,236(sp)
     9d4:	0e812783          	lw	a5,232(sp)
     9d8:	10c10893          	addi	a7,sp,268
     9dc:	fb2acee3          	blt	s5,s2,998 <_vfprintf_r+0x6f8>
     9e0:	01270733          	add	a4,a4,s2
     9e4:	00178793          	addi	a5,a5,1
     9e8:	01b8a023          	sw	s11,0(a7)
     9ec:	0128a223          	sw	s2,4(a7)
     9f0:	0ee12623          	sw	a4,236(sp)
     9f4:	0ef12423          	sw	a5,232(sp)
     9f8:	00700693          	li	a3,7
     9fc:	bcf6d0e3          	bge	a3,a5,5bc <_vfprintf_r+0x31c>
     a00:	0e410613          	addi	a2,sp,228
     a04:	000b8593          	mv	a1,s7
     a08:	000b0513          	mv	a0,s6
     a0c:	0e10b0ef          	jal	ra,c2ec <__sprint_r>
     a10:	76051063          	bnez	a0,1170 <_vfprintf_r+0xed0>
     a14:	0ec12703          	lw	a4,236(sp)
     a18:	ba5ff06f          	j	5bc <_vfprintf_r+0x31c>
     a1c:	000b0513          	mv	a0,s6
     a20:	345020ef          	jal	ra,3564 <__sinit>
     a24:	8f9ff06f          	j	31c <_vfprintf_r+0x7c>
     a28:	01412703          	lw	a4,20(sp)
     a2c:	000d8893          	mv	a7,s11
     a30:	0c0103a3          	sb	zero,199(sp)
     a34:	00072783          	lw	a5,0(a4)
     a38:	00470713          	addi	a4,a4,4
     a3c:	00e12a23          	sw	a4,20(sp)
     a40:	14f10623          	sb	a5,332(sp)
     a44:	00100993          	li	s3,1
     a48:	00100c13          	li	s8,1
     a4c:	14c10d13          	addi	s10,sp,332
     a50:	a7dff06f          	j	4cc <_vfprintf_r+0x22c>
     a54:	01412783          	lw	a5,20(sp)
     a58:	0c0103a3          	sb	zero,199(sp)
     a5c:	000a0313          	mv	t1,s4
     a60:	0007ad03          	lw	s10,0(a5)
     a64:	000d8893          	mv	a7,s11
     a68:	00478a13          	addi	s4,a5,4
     a6c:	4e0d02e3          	beqz	s10,1750 <_vfprintf_r+0x14b0>
     a70:	fff00713          	li	a4,-1
     a74:	00e31463          	bne	t1,a4,a7c <_vfprintf_r+0x7dc>
     a78:	3700106f          	j	1de8 <_vfprintf_r+0x1b48>
     a7c:	00030613          	mv	a2,t1
     a80:	00000593          	li	a1,0
     a84:	000d0513          	mv	a0,s10
     a88:	00612a23          	sw	t1,20(sp)
     a8c:	01b12e23          	sw	s11,28(sp)
     a90:	4ad060ef          	jal	ra,773c <memchr>
     a94:	00a12823          	sw	a0,16(sp)
     a98:	01412303          	lw	t1,20(sp)
     a9c:	01c12883          	lw	a7,28(sp)
     aa0:	00051463          	bnez	a0,aa8 <_vfprintf_r+0x808>
     aa4:	4d90106f          	j	277c <_vfprintf_r+0x24dc>
     aa8:	01012783          	lw	a5,16(sp)
     aac:	0c714703          	lbu	a4,199(sp)
     ab0:	01412a23          	sw	s4,20(sp)
     ab4:	41a78c33          	sub	s8,a5,s10
     ab8:	fffc4993          	not	s3,s8
     abc:	41f9d993          	srai	s3,s3,0x1f
     ac0:	00012823          	sw	zero,16(sp)
     ac4:	02012423          	sw	zero,40(sp)
     ac8:	02012223          	sw	zero,36(sp)
     acc:	00012e23          	sw	zero,28(sp)
     ad0:	013c79b3          	and	s3,s8,s3
     ad4:	00000313          	li	t1,0
     ad8:	a00704e3          	beqz	a4,4e0 <_vfprintf_r+0x240>
     adc:	00198993          	addi	s3,s3,1
     ae0:	a01ff06f          	j	4e0 <_vfprintf_r+0x240>
     ae4:	01412783          	lw	a5,20(sp)
     ae8:	0007a483          	lw	s1,0(a5)
     aec:	00478793          	addi	a5,a5,4
     af0:	2a04dee3          	bgez	s1,15ac <_vfprintf_r+0x130c>
     af4:	409004b3          	neg	s1,s1
     af8:	00f12a23          	sw	a5,20(sp)
     afc:	00044e03          	lbu	t3,0(s0)
     b00:	00496913          	ori	s2,s2,4
     b04:	959ff06f          	j	45c <_vfprintf_r+0x1bc>
     b08:	01412683          	lw	a3,20(sp)
     b0c:	02097793          	andi	a5,s2,32
     b10:	000d8893          	mv	a7,s11
     b14:	00468713          	addi	a4,a3,4
     b18:	2e0796e3          	bnez	a5,1604 <_vfprintf_r+0x1364>
     b1c:	01097793          	andi	a5,s2,16
     b20:	00078463          	beqz	a5,b28 <_vfprintf_r+0x888>
     b24:	2a80106f          	j	1dcc <_vfprintf_r+0x1b2c>
     b28:	04097793          	andi	a5,s2,64
     b2c:	00078463          	beqz	a5,b34 <_vfprintf_r+0x894>
     b30:	6c80106f          	j	21f8 <_vfprintf_r+0x1f58>
     b34:	20097913          	andi	s2,s2,512
     b38:	00091463          	bnez	s2,b40 <_vfprintf_r+0x8a0>
     b3c:	2900106f          	j	1dcc <_vfprintf_r+0x1b2c>
     b40:	01412783          	lw	a5,20(sp)
     b44:	00e12a23          	sw	a4,20(sp)
     b48:	00c12703          	lw	a4,12(sp)
     b4c:	0007a783          	lw	a5,0(a5)
     b50:	00040d13          	mv	s10,s0
     b54:	00e78023          	sb	a4,0(a5)
     b58:	a9dff06f          	j	5f4 <_vfprintf_r+0x354>
     b5c:	00044e03          	lbu	t3,0(s0)
     b60:	06c00793          	li	a5,108
     b64:	38fe0ae3          	beq	t3,a5,16f8 <_vfprintf_r+0x1458>
     b68:	01096913          	ori	s2,s2,16
     b6c:	8f1ff06f          	j	45c <_vfprintf_r+0x1bc>
     b70:	01412703          	lw	a4,20(sp)
     b74:	ffff87b7          	lui	a5,0xffff8
     b78:	8307c793          	xori	a5,a5,-2000
     b7c:	0cf11423          	sh	a5,200(sp)
     b80:	00470793          	addi	a5,a4,4
     b84:	00f12a23          	sw	a5,20(sp)
     b88:	00072983          	lw	s3,0(a4)
     b8c:	000207b7          	lui	a5,0x20
     b90:	08878793          	addi	a5,a5,136 # 20088 <__malloc_trim_threshold+0x50>
     b94:	000d8893          	mv	a7,s11
     b98:	02f12a23          	sw	a5,52(sp)
     b9c:	000a0313          	mv	t1,s4
     ba0:	00000a93          	li	s5,0
     ba4:	00296d93          	ori	s11,s2,2
     ba8:	00200793          	li	a5,2
     bac:	07800c93          	li	s9,120
     bb0:	00000713          	li	a4,0
     bb4:	0ce103a3          	sb	a4,199(sp)
     bb8:	fff00713          	li	a4,-1
     bbc:	1ee30a63          	beq	t1,a4,db0 <_vfprintf_r+0xb10>
     bc0:	0159e733          	or	a4,s3,s5
     bc4:	f7fdf913          	andi	s2,s11,-129
     bc8:	1e071263          	bnez	a4,dac <_vfprintf_r+0xb0c>
     bcc:	24031863          	bnez	t1,e1c <_vfprintf_r+0xb7c>
     bd0:	1a079463          	bnez	a5,d78 <_vfprintf_r+0xad8>
     bd4:	001dfc13          	andi	s8,s11,1
     bd8:	1b010d13          	addi	s10,sp,432
     bdc:	1c0c1ee3          	bnez	s8,15b8 <_vfprintf_r+0x1318>
     be0:	0c714703          	lbu	a4,199(sp)
     be4:	000c0993          	mv	s3,s8
     be8:	006c5463          	bge	s8,t1,bf0 <_vfprintf_r+0x950>
     bec:	00030993          	mv	s3,t1
     bf0:	00012823          	sw	zero,16(sp)
     bf4:	02012423          	sw	zero,40(sp)
     bf8:	02012223          	sw	zero,36(sp)
     bfc:	00012e23          	sw	zero,28(sp)
     c00:	ec071ee3          	bnez	a4,adc <_vfprintf_r+0x83c>
     c04:	8ddff06f          	j	4e0 <_vfprintf_r+0x240>
     c08:	00044e03          	lbu	t3,0(s0)
     c0c:	06800793          	li	a5,104
     c10:	2efe0ce3          	beq	t3,a5,1708 <_vfprintf_r+0x1468>
     c14:	04096913          	ori	s2,s2,64
     c18:	845ff06f          	j	45c <_vfprintf_r+0x1bc>
     c1c:	02b00793          	li	a5,43
     c20:	00044e03          	lbu	t3,0(s0)
     c24:	0cf103a3          	sb	a5,199(sp)
     c28:	835ff06f          	j	45c <_vfprintf_r+0x1bc>
     c2c:	00044e03          	lbu	t3,0(s0)
     c30:	08096913          	ori	s2,s2,128
     c34:	829ff06f          	j	45c <_vfprintf_r+0x1bc>
     c38:	00044c83          	lbu	s9,0(s0)
     c3c:	00140713          	addi	a4,s0,1
     c40:	018c9463          	bne	s9,s8,c48 <_vfprintf_r+0x9a8>
     c44:	7f90106f          	j	2c3c <_vfprintf_r+0x299c>
     c48:	fd0c8693          	addi	a3,s9,-48
     c4c:	00070413          	mv	s0,a4
     c50:	00000a13          	li	s4,0
     c54:	80dae8e3          	bltu	s5,a3,464 <_vfprintf_r+0x1c4>
     c58:	00044c83          	lbu	s9,0(s0)
     c5c:	002a1793          	slli	a5,s4,0x2
     c60:	014787b3          	add	a5,a5,s4
     c64:	00179793          	slli	a5,a5,0x1
     c68:	00d78a33          	add	s4,a5,a3
     c6c:	fd0c8693          	addi	a3,s9,-48
     c70:	00140413          	addi	s0,s0,1
     c74:	fedaf2e3          	bgeu	s5,a3,c58 <_vfprintf_r+0x9b8>
     c78:	fecff06f          	j	464 <_vfprintf_r+0x1c4>
     c7c:	00044e03          	lbu	t3,0(s0)
     c80:	00196913          	ori	s2,s2,1
     c84:	fd8ff06f          	j	45c <_vfprintf_r+0x1bc>
     c88:	0c714783          	lbu	a5,199(sp)
     c8c:	00044e03          	lbu	t3,0(s0)
     c90:	fc079663          	bnez	a5,45c <_vfprintf_r+0x1bc>
     c94:	02000793          	li	a5,32
     c98:	0cf103a3          	sb	a5,199(sp)
     c9c:	fc0ff06f          	j	45c <_vfprintf_r+0x1bc>
     ca0:	000a0313          	mv	t1,s4
     ca4:	000d8893          	mv	a7,s11
     ca8:	01096913          	ori	s2,s2,16
     cac:	02097793          	andi	a5,s2,32
     cb0:	06078ee3          	beqz	a5,152c <_vfprintf_r+0x128c>
     cb4:	01412783          	lw	a5,20(sp)
     cb8:	00778a13          	addi	s4,a5,7
     cbc:	ff8a7a13          	andi	s4,s4,-8
     cc0:	000a2983          	lw	s3,0(s4)
     cc4:	004a2a83          	lw	s5,4(s4)
     cc8:	008a0793          	addi	a5,s4,8
     ccc:	00f12a23          	sw	a5,20(sp)
     cd0:	bff97d93          	andi	s11,s2,-1025
     cd4:	00000793          	li	a5,0
     cd8:	ed9ff06f          	j	bb0 <_vfprintf_r+0x910>
     cdc:	000d8893          	mv	a7,s11
     ce0:	000a0313          	mv	t1,s4
     ce4:	01096d93          	ori	s11,s2,16
     ce8:	020df793          	andi	a5,s11,32
     cec:	060788e3          	beqz	a5,155c <_vfprintf_r+0x12bc>
     cf0:	01412783          	lw	a5,20(sp)
     cf4:	00778a13          	addi	s4,a5,7
     cf8:	ff8a7a13          	andi	s4,s4,-8
     cfc:	008a0793          	addi	a5,s4,8
     d00:	00f12a23          	sw	a5,20(sp)
     d04:	000a2983          	lw	s3,0(s4)
     d08:	004a2a83          	lw	s5,4(s4)
     d0c:	00100793          	li	a5,1
     d10:	ea1ff06f          	j	bb0 <_vfprintf_r+0x910>
     d14:	00044e03          	lbu	t3,0(s0)
     d18:	00896913          	ori	s2,s2,8
     d1c:	f40ff06f          	j	45c <_vfprintf_r+0x1bc>
     d20:	000a0313          	mv	t1,s4
     d24:	000d8893          	mv	a7,s11
     d28:	01096913          	ori	s2,s2,16
     d2c:	02097793          	andi	a5,s2,32
     d30:	7a078463          	beqz	a5,14d8 <_vfprintf_r+0x1238>
     d34:	01412783          	lw	a5,20(sp)
     d38:	00778a13          	addi	s4,a5,7
     d3c:	ff8a7a13          	andi	s4,s4,-8
     d40:	004a2783          	lw	a5,4(s4)
     d44:	000a2983          	lw	s3,0(s4)
     d48:	008a0713          	addi	a4,s4,8
     d4c:	00e12a23          	sw	a4,20(sp)
     d50:	00078a93          	mv	s5,a5
     d54:	7a07cc63          	bltz	a5,150c <_vfprintf_r+0x126c>
     d58:	fff00793          	li	a5,-1
     d5c:	00090d93          	mv	s11,s2
     d60:	02f30463          	beq	t1,a5,d88 <_vfprintf_r+0xae8>
     d64:	0159e7b3          	or	a5,s3,s5
     d68:	f7f97d93          	andi	s11,s2,-129
     d6c:	00079e63          	bnez	a5,d88 <_vfprintf_r+0xae8>
     d70:	02031263          	bnez	t1,d94 <_vfprintf_r+0xaf4>
     d74:	000d8913          	mv	s2,s11
     d78:	00000313          	li	t1,0
     d7c:	00000c13          	li	s8,0
     d80:	1b010d13          	addi	s10,sp,432
     d84:	e5dff06f          	j	be0 <_vfprintf_r+0x940>
     d88:	5a0a96e3          	bnez	s5,1b34 <_vfprintf_r+0x1894>
     d8c:	00900793          	li	a5,9
     d90:	5b37e2e3          	bltu	a5,s3,1b34 <_vfprintf_r+0x1894>
     d94:	03098993          	addi	s3,s3,48
     d98:	1b3107a3          	sb	s3,431(sp)
     d9c:	000d8913          	mv	s2,s11
     da0:	00100c13          	li	s8,1
     da4:	1af10d13          	addi	s10,sp,431
     da8:	e39ff06f          	j	be0 <_vfprintf_r+0x940>
     dac:	00090d93          	mv	s11,s2
     db0:	00100713          	li	a4,1
     db4:	fce78ae3          	beq	a5,a4,d88 <_vfprintf_r+0xae8>
     db8:	00200713          	li	a4,2
     dbc:	06e78c63          	beq	a5,a4,e34 <_vfprintf_r+0xb94>
     dc0:	1b010d13          	addi	s10,sp,432
     dc4:	01da9793          	slli	a5,s5,0x1d
     dc8:	0079f713          	andi	a4,s3,7
     dcc:	0039d993          	srli	s3,s3,0x3
     dd0:	03070713          	addi	a4,a4,48
     dd4:	0137e9b3          	or	s3,a5,s3
     dd8:	003ada93          	srli	s5,s5,0x3
     ddc:	feed0fa3          	sb	a4,-1(s10)
     de0:	0159e7b3          	or	a5,s3,s5
     de4:	000d0613          	mv	a2,s10
     de8:	fffd0d13          	addi	s10,s10,-1
     dec:	fc079ce3          	bnez	a5,dc4 <_vfprintf_r+0xb24>
     df0:	001df693          	andi	a3,s11,1
     df4:	06068a63          	beqz	a3,e68 <_vfprintf_r+0xbc8>
     df8:	03000693          	li	a3,48
     dfc:	06d70663          	beq	a4,a3,e68 <_vfprintf_r+0xbc8>
     e00:	ffe60613          	addi	a2,a2,-2
     e04:	1b010793          	addi	a5,sp,432
     e08:	fedd0fa3          	sb	a3,-1(s10)
     e0c:	40c78c33          	sub	s8,a5,a2
     e10:	000d8913          	mv	s2,s11
     e14:	00060d13          	mv	s10,a2
     e18:	dc9ff06f          	j	be0 <_vfprintf_r+0x940>
     e1c:	00100713          	li	a4,1
     e20:	00e79463          	bne	a5,a4,e28 <_vfprintf_r+0xb88>
     e24:	2cd0106f          	j	28f0 <_vfprintf_r+0x2650>
     e28:	00200713          	li	a4,2
     e2c:	00090d93          	mv	s11,s2
     e30:	f8e798e3          	bne	a5,a4,dc0 <_vfprintf_r+0xb20>
     e34:	03412683          	lw	a3,52(sp)
     e38:	1b010d13          	addi	s10,sp,432
     e3c:	00f9f793          	andi	a5,s3,15
     e40:	00f687b3          	add	a5,a3,a5
     e44:	0007c703          	lbu	a4,0(a5)
     e48:	0049d993          	srli	s3,s3,0x4
     e4c:	01ca9793          	slli	a5,s5,0x1c
     e50:	0137e9b3          	or	s3,a5,s3
     e54:	004ada93          	srli	s5,s5,0x4
     e58:	feed0fa3          	sb	a4,-1(s10)
     e5c:	0159e7b3          	or	a5,s3,s5
     e60:	fffd0d13          	addi	s10,s10,-1
     e64:	fc079ce3          	bnez	a5,e3c <_vfprintf_r+0xb9c>
     e68:	1b010793          	addi	a5,sp,432
     e6c:	41a78c33          	sub	s8,a5,s10
     e70:	000d8913          	mv	s2,s11
     e74:	d6dff06f          	j	be0 <_vfprintf_r+0x940>
     e78:	06500693          	li	a3,101
     e7c:	9d96d4e3          	bge	a3,s9,844 <_vfprintf_r+0x5a4>
     e80:	0f012683          	lw	a3,240(sp)
     e84:	0a010593          	addi	a1,sp,160
     e88:	0b010513          	addi	a0,sp,176
     e8c:	0ad12823          	sw	a3,176(sp)
     e90:	0f412683          	lw	a3,244(sp)
     e94:	05112223          	sw	a7,68(sp)
     e98:	04e12023          	sw	a4,64(sp)
     e9c:	0ad12a23          	sw	a3,180(sp)
     ea0:	0f812683          	lw	a3,248(sp)
     ea4:	0a012023          	sw	zero,160(sp)
     ea8:	0a012223          	sw	zero,164(sp)
     eac:	0ad12c23          	sw	a3,184(sp)
     eb0:	0fc12683          	lw	a3,252(sp)
     eb4:	0a012423          	sw	zero,168(sp)
     eb8:	0a012623          	sw	zero,172(sp)
     ebc:	0ad12e23          	sw	a3,188(sp)
     ec0:	0990f0ef          	jal	ra,10758 <__eqtf2>
     ec4:	04012703          	lw	a4,64(sp)
     ec8:	04412883          	lw	a7,68(sp)
     ecc:	3e051663          	bnez	a0,12b8 <_vfprintf_r+0x1018>
     ed0:	0e812783          	lw	a5,232(sp)
     ed4:	000206b7          	lui	a3,0x20
     ed8:	0b868693          	addi	a3,a3,184 # 200b8 <__malloc_trim_threshold+0x80>
     edc:	00d8a023          	sw	a3,0(a7)
     ee0:	00170713          	addi	a4,a4,1
     ee4:	00100693          	li	a3,1
     ee8:	00178793          	addi	a5,a5,1
     eec:	00d8a223          	sw	a3,4(a7)
     ef0:	0ee12623          	sw	a4,236(sp)
     ef4:	0ef12423          	sw	a5,232(sp)
     ef8:	00700693          	li	a3,7
     efc:	00888893          	addi	a7,a7,8
     f00:	5ef6c6e3          	blt	a3,a5,1cec <_vfprintf_r+0x1a4c>
     f04:	0cc12783          	lw	a5,204(sp)
     f08:	02012683          	lw	a3,32(sp)
     f0c:	68d7d263          	bge	a5,a3,1590 <_vfprintf_r+0x12f0>
     f10:	03012783          	lw	a5,48(sp)
     f14:	02c12683          	lw	a3,44(sp)
     f18:	00888893          	addi	a7,a7,8
     f1c:	fef8ac23          	sw	a5,-8(a7)
     f20:	0e812783          	lw	a5,232(sp)
     f24:	00d70733          	add	a4,a4,a3
     f28:	fed8ae23          	sw	a3,-4(a7)
     f2c:	00178793          	addi	a5,a5,1
     f30:	0ee12623          	sw	a4,236(sp)
     f34:	0ef12423          	sw	a5,232(sp)
     f38:	00700693          	li	a3,7
     f3c:	7ef6ca63          	blt	a3,a5,1730 <_vfprintf_r+0x1490>
     f40:	02012783          	lw	a5,32(sp)
     f44:	fff78a93          	addi	s5,a5,-1
     f48:	e7505263          	blez	s5,5ac <_vfprintf_r+0x30c>
     f4c:	01000693          	li	a3,16
     f50:	0e812783          	lw	a5,232(sp)
     f54:	5b56dce3          	bge	a3,s5,1d0c <_vfprintf_r+0x1a6c>
     f58:	01000c13          	li	s8,16
     f5c:	00700c93          	li	s9,7
     f60:	00c0006f          	j	f6c <_vfprintf_r+0xccc>
     f64:	ff0a8a93          	addi	s5,s5,-16
     f68:	5b5c52e3          	bge	s8,s5,1d0c <_vfprintf_r+0x1a6c>
     f6c:	00812683          	lw	a3,8(sp)
     f70:	01070713          	addi	a4,a4,16
     f74:	00178793          	addi	a5,a5,1
     f78:	00d8a023          	sw	a3,0(a7)
     f7c:	0188a223          	sw	s8,4(a7)
     f80:	0ee12623          	sw	a4,236(sp)
     f84:	0ef12423          	sw	a5,232(sp)
     f88:	00888893          	addi	a7,a7,8
     f8c:	fcfcdce3          	bge	s9,a5,f64 <_vfprintf_r+0xcc4>
     f90:	0e410613          	addi	a2,sp,228
     f94:	000b8593          	mv	a1,s7
     f98:	000b0513          	mv	a0,s6
     f9c:	3500b0ef          	jal	ra,c2ec <__sprint_r>
     fa0:	1c051863          	bnez	a0,1170 <_vfprintf_r+0xed0>
     fa4:	0ec12703          	lw	a4,236(sp)
     fa8:	0e812783          	lw	a5,232(sp)
     fac:	10c10893          	addi	a7,sp,268
     fb0:	fb5ff06f          	j	f64 <_vfprintf_r+0xcc4>
     fb4:	41348a33          	sub	s4,s1,s3
     fb8:	db405e63          	blez	s4,574 <_vfprintf_r+0x2d4>
     fbc:	01000613          	li	a2,16
     fc0:	0e812683          	lw	a3,232(sp)
     fc4:	09465a63          	bge	a2,s4,1058 <_vfprintf_r+0xdb8>
     fc8:	04812023          	sw	s0,64(sp)
     fcc:	01000d93          	li	s11,16
     fd0:	000b8413          	mv	s0,s7
     fd4:	00700a93          	li	s5,7
     fd8:	000b0b93          	mv	s7,s6
     fdc:	000a0b13          	mv	s6,s4
     fe0:	00098a13          	mv	s4,s3
     fe4:	00030993          	mv	s3,t1
     fe8:	00c0006f          	j	ff4 <_vfprintf_r+0xd54>
     fec:	ff0b0b13          	addi	s6,s6,-16
     ff0:	056dd863          	bge	s11,s6,1040 <_vfprintf_r+0xda0>
     ff4:	00812783          	lw	a5,8(sp)
     ff8:	01070713          	addi	a4,a4,16
     ffc:	00168693          	addi	a3,a3,1
    1000:	00f8a023          	sw	a5,0(a7)
    1004:	01b8a223          	sw	s11,4(a7)
    1008:	0ee12623          	sw	a4,236(sp)
    100c:	0ed12423          	sw	a3,232(sp)
    1010:	00888893          	addi	a7,a7,8
    1014:	fcdadce3          	bge	s5,a3,fec <_vfprintf_r+0xd4c>
    1018:	0e410613          	addi	a2,sp,228
    101c:	00040593          	mv	a1,s0
    1020:	000b8513          	mv	a0,s7
    1024:	2c80b0ef          	jal	ra,c2ec <__sprint_r>
    1028:	500518e3          	bnez	a0,1d38 <_vfprintf_r+0x1a98>
    102c:	ff0b0b13          	addi	s6,s6,-16
    1030:	0ec12703          	lw	a4,236(sp)
    1034:	0e812683          	lw	a3,232(sp)
    1038:	10c10893          	addi	a7,sp,268
    103c:	fb6dcce3          	blt	s11,s6,ff4 <_vfprintf_r+0xd54>
    1040:	00098313          	mv	t1,s3
    1044:	000a0993          	mv	s3,s4
    1048:	000b0a13          	mv	s4,s6
    104c:	000b8b13          	mv	s6,s7
    1050:	00040b93          	mv	s7,s0
    1054:	04012403          	lw	s0,64(sp)
    1058:	00812783          	lw	a5,8(sp)
    105c:	01470733          	add	a4,a4,s4
    1060:	00168693          	addi	a3,a3,1
    1064:	00f8a023          	sw	a5,0(a7)
    1068:	0148a223          	sw	s4,4(a7)
    106c:	0ee12623          	sw	a4,236(sp)
    1070:	0ed12423          	sw	a3,232(sp)
    1074:	00700613          	li	a2,7
    1078:	00888893          	addi	a7,a7,8
    107c:	ced65c63          	bge	a2,a3,574 <_vfprintf_r+0x2d4>
    1080:	0e410613          	addi	a2,sp,228
    1084:	000b8593          	mv	a1,s7
    1088:	000b0513          	mv	a0,s6
    108c:	04612023          	sw	t1,64(sp)
    1090:	25c0b0ef          	jal	ra,c2ec <__sprint_r>
    1094:	0c051e63          	bnez	a0,1170 <_vfprintf_r+0xed0>
    1098:	0ec12703          	lw	a4,236(sp)
    109c:	04012303          	lw	t1,64(sp)
    10a0:	10c10893          	addi	a7,sp,268
    10a4:	cd0ff06f          	j	574 <_vfprintf_r+0x2d4>
    10a8:	01000613          	li	a2,16
    10ac:	0e812683          	lw	a3,232(sp)
    10b0:	07b65263          	bge	a2,s11,1114 <_vfprintf_r+0xe74>
    10b4:	01000a13          	li	s4,16
    10b8:	00700a93          	li	s5,7
    10bc:	00c0006f          	j	10c8 <_vfprintf_r+0xe28>
    10c0:	ff0d8d93          	addi	s11,s11,-16
    10c4:	05ba5863          	bge	s4,s11,1114 <_vfprintf_r+0xe74>
    10c8:	00812783          	lw	a5,8(sp)
    10cc:	01070713          	addi	a4,a4,16
    10d0:	00168693          	addi	a3,a3,1
    10d4:	00f8a023          	sw	a5,0(a7)
    10d8:	0148a223          	sw	s4,4(a7)
    10dc:	0ee12623          	sw	a4,236(sp)
    10e0:	0ed12423          	sw	a3,232(sp)
    10e4:	00888893          	addi	a7,a7,8
    10e8:	fcdadce3          	bge	s5,a3,10c0 <_vfprintf_r+0xe20>
    10ec:	0e410613          	addi	a2,sp,228
    10f0:	000b8593          	mv	a1,s7
    10f4:	000b0513          	mv	a0,s6
    10f8:	1f40b0ef          	jal	ra,c2ec <__sprint_r>
    10fc:	06051a63          	bnez	a0,1170 <_vfprintf_r+0xed0>
    1100:	ff0d8d93          	addi	s11,s11,-16
    1104:	0ec12703          	lw	a4,236(sp)
    1108:	0e812683          	lw	a3,232(sp)
    110c:	10c10893          	addi	a7,sp,268
    1110:	fbba4ce3          	blt	s4,s11,10c8 <_vfprintf_r+0xe28>
    1114:	00812783          	lw	a5,8(sp)
    1118:	01b70733          	add	a4,a4,s11
    111c:	00168693          	addi	a3,a3,1
    1120:	00f8a023          	sw	a5,0(a7)
    1124:	01b8a223          	sw	s11,4(a7)
    1128:	0ee12623          	sw	a4,236(sp)
    112c:	0ed12423          	sw	a3,232(sp)
    1130:	00700613          	li	a2,7
    1134:	00888893          	addi	a7,a7,8
    1138:	c4d65263          	bge	a2,a3,57c <_vfprintf_r+0x2dc>
    113c:	0e410613          	addi	a2,sp,228
    1140:	000b8593          	mv	a1,s7
    1144:	000b0513          	mv	a0,s6
    1148:	1a40b0ef          	jal	ra,c2ec <__sprint_r>
    114c:	02051263          	bnez	a0,1170 <_vfprintf_r+0xed0>
    1150:	0ec12703          	lw	a4,236(sp)
    1154:	10c10893          	addi	a7,sp,268
    1158:	c24ff06f          	j	57c <_vfprintf_r+0x2dc>
    115c:	0e410613          	addi	a2,sp,228
    1160:	000b8593          	mv	a1,s7
    1164:	000b0513          	mv	a0,s6
    1168:	1840b0ef          	jal	ra,c2ec <__sprint_r>
    116c:	c6050463          	beqz	a0,5d4 <_vfprintf_r+0x334>
    1170:	01012583          	lw	a1,16(sp)
    1174:	c8058a63          	beqz	a1,608 <_vfprintf_r+0x368>
    1178:	000b0513          	mv	a0,s6
    117c:	570020ef          	jal	ra,36ec <_free_r>
    1180:	c88ff06f          	j	608 <_vfprintf_r+0x368>
    1184:	000207b7          	lui	a5,0x20
    1188:	01000613          	li	a2,16
    118c:	0e812683          	lw	a3,232(sp)
    1190:	2c078d93          	addi	s11,a5,704 # 202c0 <blanks.1>
    1194:	0b065863          	bge	a2,a6,1244 <_vfprintf_r+0xfa4>
    1198:	04812023          	sw	s0,64(sp)
    119c:	04912223          	sw	s1,68(sp)
    11a0:	000b0413          	mv	s0,s6
    11a4:	000b8493          	mv	s1,s7
    11a8:	01000f13          	li	t5,16
    11ac:	000d8b93          	mv	s7,s11
    11b0:	00700393          	li	t2,7
    11b4:	000d0d93          	mv	s11,s10
    11b8:	00080b13          	mv	s6,a6
    11bc:	00098d13          	mv	s10,s3
    11c0:	00030993          	mv	s3,t1
    11c4:	00c0006f          	j	11d0 <_vfprintf_r+0xf30>
    11c8:	ff0b0b13          	addi	s6,s6,-16
    11cc:	056f5a63          	bge	t5,s6,1220 <_vfprintf_r+0xf80>
    11d0:	01070713          	addi	a4,a4,16
    11d4:	00168693          	addi	a3,a3,1
    11d8:	0178a023          	sw	s7,0(a7)
    11dc:	01e8a223          	sw	t5,4(a7)
    11e0:	0ee12623          	sw	a4,236(sp)
    11e4:	0ed12423          	sw	a3,232(sp)
    11e8:	00888893          	addi	a7,a7,8
    11ec:	fcd3dee3          	bge	t2,a3,11c8 <_vfprintf_r+0xf28>
    11f0:	0e410613          	addi	a2,sp,228
    11f4:	00048593          	mv	a1,s1
    11f8:	00040513          	mv	a0,s0
    11fc:	0f00b0ef          	jal	ra,c2ec <__sprint_r>
    1200:	2e0510e3          	bnez	a0,1ce0 <_vfprintf_r+0x1a40>
    1204:	01000f13          	li	t5,16
    1208:	ff0b0b13          	addi	s6,s6,-16
    120c:	0ec12703          	lw	a4,236(sp)
    1210:	0e812683          	lw	a3,232(sp)
    1214:	10c10893          	addi	a7,sp,268
    1218:	00700393          	li	t2,7
    121c:	fb6f4ae3          	blt	t5,s6,11d0 <_vfprintf_r+0xf30>
    1220:	00098313          	mv	t1,s3
    1224:	000b0813          	mv	a6,s6
    1228:	000d0993          	mv	s3,s10
    122c:	00040b13          	mv	s6,s0
    1230:	000d8d13          	mv	s10,s11
    1234:	04012403          	lw	s0,64(sp)
    1238:	000b8d93          	mv	s11,s7
    123c:	00048b93          	mv	s7,s1
    1240:	04412483          	lw	s1,68(sp)
    1244:	01070733          	add	a4,a4,a6
    1248:	00168693          	addi	a3,a3,1
    124c:	01b8a023          	sw	s11,0(a7)
    1250:	0108a223          	sw	a6,4(a7)
    1254:	0ee12623          	sw	a4,236(sp)
    1258:	0ed12423          	sw	a3,232(sp)
    125c:	00700613          	li	a2,7
    1260:	00888893          	addi	a7,a7,8
    1264:	a8d65e63          	bge	a2,a3,500 <_vfprintf_r+0x260>
    1268:	0e410613          	addi	a2,sp,228
    126c:	000b8593          	mv	a1,s7
    1270:	000b0513          	mv	a0,s6
    1274:	04612023          	sw	t1,64(sp)
    1278:	0740b0ef          	jal	ra,c2ec <__sprint_r>
    127c:	ee051ae3          	bnez	a0,1170 <_vfprintf_r+0xed0>
    1280:	0ec12703          	lw	a4,236(sp)
    1284:	04012303          	lw	t1,64(sp)
    1288:	10c10893          	addi	a7,sp,268
    128c:	a74ff06f          	j	500 <_vfprintf_r+0x260>
    1290:	0e410613          	addi	a2,sp,228
    1294:	000b8593          	mv	a1,s7
    1298:	000b0513          	mv	a0,s6
    129c:	04612023          	sw	t1,64(sp)
    12a0:	04c0b0ef          	jal	ra,c2ec <__sprint_r>
    12a4:	ec0516e3          	bnez	a0,1170 <_vfprintf_r+0xed0>
    12a8:	0ec12703          	lw	a4,236(sp)
    12ac:	04012303          	lw	t1,64(sp)
    12b0:	10c10893          	addi	a7,sp,268
    12b4:	ab8ff06f          	j	56c <_vfprintf_r+0x2cc>
    12b8:	0cc12583          	lw	a1,204(sp)
    12bc:	1ab052e3          	blez	a1,1c60 <_vfprintf_r+0x19c0>
    12c0:	01c12783          	lw	a5,28(sp)
    12c4:	02012683          	lw	a3,32(sp)
    12c8:	00078c13          	mv	s8,a5
    12cc:	3af6c063          	blt	a3,a5,166c <_vfprintf_r+0x13cc>
    12d0:	03805663          	blez	s8,12fc <_vfprintf_r+0x105c>
    12d4:	0e812683          	lw	a3,232(sp)
    12d8:	01870733          	add	a4,a4,s8
    12dc:	01a8a023          	sw	s10,0(a7)
    12e0:	00168693          	addi	a3,a3,1
    12e4:	0188a223          	sw	s8,4(a7)
    12e8:	0ee12623          	sw	a4,236(sp)
    12ec:	0ed12423          	sw	a3,232(sp)
    12f0:	00700613          	li	a2,7
    12f4:	00888893          	addi	a7,a7,8
    12f8:	6ad64ce3          	blt	a2,a3,21b0 <_vfprintf_r+0x1f10>
    12fc:	fffc4693          	not	a3,s8
    1300:	01c12783          	lw	a5,28(sp)
    1304:	41f6d693          	srai	a3,a3,0x1f
    1308:	00dc7c33          	and	s8,s8,a3
    130c:	41878c33          	sub	s8,a5,s8
    1310:	47804063          	bgtz	s8,1770 <_vfprintf_r+0x14d0>
    1314:	01c12783          	lw	a5,28(sp)
    1318:	40097693          	andi	a3,s2,1024
    131c:	00fd0cb3          	add	s9,s10,a5
    1320:	4a0694e3          	bnez	a3,1fc8 <_vfprintf_r+0x1d28>
    1324:	0cc12683          	lw	a3,204(sp)
    1328:	02012783          	lw	a5,32(sp)
    132c:	00f6c663          	blt	a3,a5,1338 <_vfprintf_r+0x1098>
    1330:	00197613          	andi	a2,s2,1
    1334:	6a0604e3          	beqz	a2,21dc <_vfprintf_r+0x1f3c>
    1338:	03012603          	lw	a2,48(sp)
    133c:	02c12783          	lw	a5,44(sp)
    1340:	00700593          	li	a1,7
    1344:	00c8a023          	sw	a2,0(a7)
    1348:	0e812603          	lw	a2,232(sp)
    134c:	00f70733          	add	a4,a4,a5
    1350:	00f8a223          	sw	a5,4(a7)
    1354:	00160613          	addi	a2,a2,1
    1358:	0ee12623          	sw	a4,236(sp)
    135c:	0ec12423          	sw	a2,232(sp)
    1360:	00888893          	addi	a7,a7,8
    1364:	00c5d463          	bge	a1,a2,136c <_vfprintf_r+0x10cc>
    1368:	3dc0106f          	j	2744 <_vfprintf_r+0x24a4>
    136c:	02012603          	lw	a2,32(sp)
    1370:	00cd07b3          	add	a5,s10,a2
    1374:	40d606b3          	sub	a3,a2,a3
    1378:	41978ab3          	sub	s5,a5,s9
    137c:	0156d463          	bge	a3,s5,1384 <_vfprintf_r+0x10e4>
    1380:	00068a93          	mv	s5,a3
    1384:	03505863          	blez	s5,13b4 <_vfprintf_r+0x1114>
    1388:	0e812783          	lw	a5,232(sp)
    138c:	01570733          	add	a4,a4,s5
    1390:	0198a023          	sw	s9,0(a7)
    1394:	00178793          	addi	a5,a5,1
    1398:	0158a223          	sw	s5,4(a7)
    139c:	0ee12623          	sw	a4,236(sp)
    13a0:	0ef12423          	sw	a5,232(sp)
    13a4:	00700613          	li	a2,7
    13a8:	00888893          	addi	a7,a7,8
    13ac:	00f65463          	bge	a2,a5,13b4 <_vfprintf_r+0x1114>
    13b0:	4040106f          	j	27b4 <_vfprintf_r+0x2514>
    13b4:	fffac793          	not	a5,s5
    13b8:	41f7d793          	srai	a5,a5,0x1f
    13bc:	00fafab3          	and	s5,s5,a5
    13c0:	41568ab3          	sub	s5,a3,s5
    13c4:	9f505463          	blez	s5,5ac <_vfprintf_r+0x30c>
    13c8:	01000693          	li	a3,16
    13cc:	0e812783          	lw	a5,232(sp)
    13d0:	1356dee3          	bge	a3,s5,1d0c <_vfprintf_r+0x1a6c>
    13d4:	01000c13          	li	s8,16
    13d8:	00700c93          	li	s9,7
    13dc:	00c0006f          	j	13e8 <_vfprintf_r+0x1148>
    13e0:	ff0a8a93          	addi	s5,s5,-16
    13e4:	135c54e3          	bge	s8,s5,1d0c <_vfprintf_r+0x1a6c>
    13e8:	00812683          	lw	a3,8(sp)
    13ec:	01070713          	addi	a4,a4,16
    13f0:	00178793          	addi	a5,a5,1
    13f4:	00d8a023          	sw	a3,0(a7)
    13f8:	0188a223          	sw	s8,4(a7)
    13fc:	0ee12623          	sw	a4,236(sp)
    1400:	0ef12423          	sw	a5,232(sp)
    1404:	00888893          	addi	a7,a7,8
    1408:	fcfcdce3          	bge	s9,a5,13e0 <_vfprintf_r+0x1140>
    140c:	0e410613          	addi	a2,sp,228
    1410:	000b8593          	mv	a1,s7
    1414:	000b0513          	mv	a0,s6
    1418:	6d50a0ef          	jal	ra,c2ec <__sprint_r>
    141c:	d4051ae3          	bnez	a0,1170 <_vfprintf_r+0xed0>
    1420:	0ec12703          	lw	a4,236(sp)
    1424:	0e812783          	lw	a5,232(sp)
    1428:	10c10893          	addi	a7,sp,268
    142c:	fb5ff06f          	j	13e0 <_vfprintf_r+0x1140>
    1430:	00197593          	andi	a1,s2,1
    1434:	c2059863          	bnez	a1,864 <_vfprintf_r+0x5c4>
    1438:	00d8a223          	sw	a3,4(a7)
    143c:	0fb12623          	sw	s11,236(sp)
    1440:	0f512423          	sw	s5,232(sp)
    1444:	00700793          	li	a5,7
    1448:	cd57dc63          	bge	a5,s5,920 <_vfprintf_r+0x680>
    144c:	0e410613          	addi	a2,sp,228
    1450:	000b8593          	mv	a1,s7
    1454:	000b0513          	mv	a0,s6
    1458:	6950a0ef          	jal	ra,c2ec <__sprint_r>
    145c:	d0051ae3          	bnez	a0,1170 <_vfprintf_r+0xed0>
    1460:	0ec12d83          	lw	s11,236(sp)
    1464:	0e812a83          	lw	s5,232(sp)
    1468:	10c10c93          	addi	s9,sp,268
    146c:	cb4ff06f          	j	920 <_vfprintf_r+0x680>
    1470:	cb805863          	blez	s8,920 <_vfprintf_r+0x680>
    1474:	01000793          	li	a5,16
    1478:	2187dce3          	bge	a5,s8,1e90 <_vfprintf_r+0x1bf0>
    147c:	00700d13          	li	s10,7
    1480:	00c0006f          	j	148c <_vfprintf_r+0x11ec>
    1484:	ff0c0c13          	addi	s8,s8,-16
    1488:	2187d4e3          	bge	a5,s8,1e90 <_vfprintf_r+0x1bf0>
    148c:	00812703          	lw	a4,8(sp)
    1490:	010d8d93          	addi	s11,s11,16
    1494:	001a8a93          	addi	s5,s5,1
    1498:	00eca023          	sw	a4,0(s9)
    149c:	00fca223          	sw	a5,4(s9)
    14a0:	0fb12623          	sw	s11,236(sp)
    14a4:	0f512423          	sw	s5,232(sp)
    14a8:	008c8c93          	addi	s9,s9,8
    14ac:	fd5d5ce3          	bge	s10,s5,1484 <_vfprintf_r+0x11e4>
    14b0:	0e410613          	addi	a2,sp,228
    14b4:	000b8593          	mv	a1,s7
    14b8:	000b0513          	mv	a0,s6
    14bc:	6310a0ef          	jal	ra,c2ec <__sprint_r>
    14c0:	ca0518e3          	bnez	a0,1170 <_vfprintf_r+0xed0>
    14c4:	0ec12d83          	lw	s11,236(sp)
    14c8:	0e812a83          	lw	s5,232(sp)
    14cc:	10c10c93          	addi	s9,sp,268
    14d0:	01000793          	li	a5,16
    14d4:	fb1ff06f          	j	1484 <_vfprintf_r+0x11e4>
    14d8:	01412703          	lw	a4,20(sp)
    14dc:	01097793          	andi	a5,s2,16
    14e0:	00072983          	lw	s3,0(a4)
    14e4:	00470713          	addi	a4,a4,4
    14e8:	00e12a23          	sw	a4,20(sp)
    14ec:	10079663          	bnez	a5,15f8 <_vfprintf_r+0x1358>
    14f0:	04097793          	andi	a5,s2,64
    14f4:	0e078e63          	beqz	a5,15f0 <_vfprintf_r+0x1350>
    14f8:	01099993          	slli	s3,s3,0x10
    14fc:	4109d993          	srai	s3,s3,0x10
    1500:	41f9da93          	srai	s5,s3,0x1f
    1504:	000a8793          	mv	a5,s5
    1508:	8407d8e3          	bgez	a5,d58 <_vfprintf_r+0xab8>
    150c:	013037b3          	snez	a5,s3
    1510:	41500ab3          	neg	s5,s5
    1514:	40fa8ab3          	sub	s5,s5,a5
    1518:	413009b3          	neg	s3,s3
    151c:	00090d93          	mv	s11,s2
    1520:	02d00713          	li	a4,45
    1524:	00100793          	li	a5,1
    1528:	e8cff06f          	j	bb4 <_vfprintf_r+0x914>
    152c:	01412703          	lw	a4,20(sp)
    1530:	01097793          	andi	a5,s2,16
    1534:	00072983          	lw	s3,0(a4)
    1538:	00470713          	addi	a4,a4,4
    153c:	00e12a23          	sw	a4,20(sp)
    1540:	0a079463          	bnez	a5,15e8 <_vfprintf_r+0x1348>
    1544:	04097793          	andi	a5,s2,64
    1548:	08078c63          	beqz	a5,15e0 <_vfprintf_r+0x1340>
    154c:	01099993          	slli	s3,s3,0x10
    1550:	0109d993          	srli	s3,s3,0x10
    1554:	00000a93          	li	s5,0
    1558:	f78ff06f          	j	cd0 <_vfprintf_r+0xa30>
    155c:	01412703          	lw	a4,20(sp)
    1560:	010df793          	andi	a5,s11,16
    1564:	00072983          	lw	s3,0(a4)
    1568:	00470713          	addi	a4,a4,4
    156c:	00e12a23          	sw	a4,20(sp)
    1570:	06079263          	bnez	a5,15d4 <_vfprintf_r+0x1334>
    1574:	040df793          	andi	a5,s11,64
    1578:	04078863          	beqz	a5,15c8 <_vfprintf_r+0x1328>
    157c:	01099993          	slli	s3,s3,0x10
    1580:	0109d993          	srli	s3,s3,0x10
    1584:	00000a93          	li	s5,0
    1588:	00100793          	li	a5,1
    158c:	e24ff06f          	j	bb0 <_vfprintf_r+0x910>
    1590:	00197793          	andi	a5,s2,1
    1594:	00079463          	bnez	a5,159c <_vfprintf_r+0x12fc>
    1598:	814ff06f          	j	5ac <_vfprintf_r+0x30c>
    159c:	975ff06f          	j	f10 <_vfprintf_r+0xc70>
    15a0:	000a0313          	mv	t1,s4
    15a4:	000d8893          	mv	a7,s11
    15a8:	f84ff06f          	j	d2c <_vfprintf_r+0xa8c>
    15ac:	00044e03          	lbu	t3,0(s0)
    15b0:	00f12a23          	sw	a5,20(sp)
    15b4:	ea9fe06f          	j	45c <_vfprintf_r+0x1bc>
    15b8:	03000793          	li	a5,48
    15bc:	1af107a3          	sb	a5,431(sp)
    15c0:	1af10d13          	addi	s10,sp,431
    15c4:	e1cff06f          	j	be0 <_vfprintf_r+0x940>
    15c8:	200df793          	andi	a5,s11,512
    15cc:	00078463          	beqz	a5,15d4 <_vfprintf_r+0x1334>
    15d0:	0ff9f993          	zext.b	s3,s3
    15d4:	00000a93          	li	s5,0
    15d8:	00100793          	li	a5,1
    15dc:	dd4ff06f          	j	bb0 <_vfprintf_r+0x910>
    15e0:	20097793          	andi	a5,s2,512
    15e4:	42079ee3          	bnez	a5,2220 <_vfprintf_r+0x1f80>
    15e8:	00000a93          	li	s5,0
    15ec:	ee4ff06f          	j	cd0 <_vfprintf_r+0xa30>
    15f0:	20097793          	andi	a5,s2,512
    15f4:	42079ce3          	bnez	a5,222c <_vfprintf_r+0x1f8c>
    15f8:	41f9da93          	srai	s5,s3,0x1f
    15fc:	000a8793          	mv	a5,s5
    1600:	f54ff06f          	j	d54 <_vfprintf_r+0xab4>
    1604:	00c12603          	lw	a2,12(sp)
    1608:	0006a783          	lw	a5,0(a3)
    160c:	00e12a23          	sw	a4,20(sp)
    1610:	41f65693          	srai	a3,a2,0x1f
    1614:	00c7a023          	sw	a2,0(a5)
    1618:	00d7a223          	sw	a3,4(a5)
    161c:	00040d13          	mv	s10,s0
    1620:	fd5fe06f          	j	5f4 <_vfprintf_r+0x354>
    1624:	03c12783          	lw	a5,60(sp)
    1628:	00044e03          	lbu	t3,0(s0)
    162c:	00079463          	bnez	a5,1634 <_vfprintf_r+0x1394>
    1630:	e2dfe06f          	j	45c <_vfprintf_r+0x1bc>
    1634:	0007c783          	lbu	a5,0(a5)
    1638:	00079463          	bnez	a5,1640 <_vfprintf_r+0x13a0>
    163c:	e21fe06f          	j	45c <_vfprintf_r+0x1bc>
    1640:	40096913          	ori	s2,s2,1024
    1644:	e19fe06f          	j	45c <_vfprintf_r+0x1bc>
    1648:	01412783          	lw	a5,20(sp)
    164c:	0007a703          	lw	a4,0(a5)
    1650:	00478793          	addi	a5,a5,4
    1654:	00f12a23          	sw	a5,20(sp)
    1658:	00072583          	lw	a1,0(a4)
    165c:	00472603          	lw	a2,4(a4)
    1660:	00872683          	lw	a3,8(a4)
    1664:	00c72703          	lw	a4,12(a4)
    1668:	904ff06f          	j	76c <_vfprintf_r+0x4cc>
    166c:	00068c13          	mv	s8,a3
    1670:	c78042e3          	bgtz	s8,12d4 <_vfprintf_r+0x1034>
    1674:	c89ff06f          	j	12fc <_vfprintf_r+0x105c>
    1678:	000d8893          	mv	a7,s11
    167c:	000a0313          	mv	t1,s4
    1680:	00090d93          	mv	s11,s2
    1684:	e64ff06f          	j	ce8 <_vfprintf_r+0xa48>
    1688:	000207b7          	lui	a5,0x20
    168c:	08878793          	addi	a5,a5,136 # 20088 <__malloc_trim_threshold+0x50>
    1690:	000a0313          	mv	t1,s4
    1694:	000d8893          	mv	a7,s11
    1698:	02f12a23          	sw	a5,52(sp)
    169c:	02097793          	andi	a5,s2,32
    16a0:	40078663          	beqz	a5,1aac <_vfprintf_r+0x180c>
    16a4:	01412783          	lw	a5,20(sp)
    16a8:	00778a13          	addi	s4,a5,7
    16ac:	ff8a7a13          	andi	s4,s4,-8
    16b0:	000a2983          	lw	s3,0(s4)
    16b4:	004a2a83          	lw	s5,4(s4)
    16b8:	008a0793          	addi	a5,s4,8
    16bc:	00f12a23          	sw	a5,20(sp)
    16c0:	00197793          	andi	a5,s2,1
    16c4:	00078e63          	beqz	a5,16e0 <_vfprintf_r+0x1440>
    16c8:	0159e7b3          	or	a5,s3,s5
    16cc:	00078a63          	beqz	a5,16e0 <_vfprintf_r+0x1440>
    16d0:	03000793          	li	a5,48
    16d4:	0cf10423          	sb	a5,200(sp)
    16d8:	0d9104a3          	sb	s9,201(sp)
    16dc:	00296913          	ori	s2,s2,2
    16e0:	bff97d93          	andi	s11,s2,-1025
    16e4:	00200793          	li	a5,2
    16e8:	cc8ff06f          	j	bb0 <_vfprintf_r+0x910>
    16ec:	000a0313          	mv	t1,s4
    16f0:	000d8893          	mv	a7,s11
    16f4:	db8ff06f          	j	cac <_vfprintf_r+0xa0c>
    16f8:	00144e03          	lbu	t3,1(s0)
    16fc:	02096913          	ori	s2,s2,32
    1700:	00140413          	addi	s0,s0,1
    1704:	d59fe06f          	j	45c <_vfprintf_r+0x1bc>
    1708:	00144e03          	lbu	t3,1(s0)
    170c:	20096913          	ori	s2,s2,512
    1710:	00140413          	addi	s0,s0,1
    1714:	d49fe06f          	j	45c <_vfprintf_r+0x1bc>
    1718:	000207b7          	lui	a5,0x20
    171c:	09c78793          	addi	a5,a5,156 # 2009c <__malloc_trim_threshold+0x64>
    1720:	000a0313          	mv	t1,s4
    1724:	000d8893          	mv	a7,s11
    1728:	02f12a23          	sw	a5,52(sp)
    172c:	f71ff06f          	j	169c <_vfprintf_r+0x13fc>
    1730:	0e410613          	addi	a2,sp,228
    1734:	000b8593          	mv	a1,s7
    1738:	000b0513          	mv	a0,s6
    173c:	3b10a0ef          	jal	ra,c2ec <__sprint_r>
    1740:	a20518e3          	bnez	a0,1170 <_vfprintf_r+0xed0>
    1744:	0ec12703          	lw	a4,236(sp)
    1748:	10c10893          	addi	a7,sp,268
    174c:	ff4ff06f          	j	f40 <_vfprintf_r+0xca0>
    1750:	00600793          	li	a5,6
    1754:	00030c13          	mv	s8,t1
    1758:	2667eee3          	bltu	a5,t1,21d4 <_vfprintf_r+0x1f34>
    175c:	000207b7          	lui	a5,0x20
    1760:	000c0993          	mv	s3,s8
    1764:	01412a23          	sw	s4,20(sp)
    1768:	0b078d13          	addi	s10,a5,176 # 200b0 <__malloc_trim_threshold+0x78>
    176c:	d61fe06f          	j	4cc <_vfprintf_r+0x22c>
    1770:	01000613          	li	a2,16
    1774:	0e812683          	lw	a3,232(sp)
    1778:	75865463          	bge	a2,s8,1ec0 <_vfprintf_r+0x1c20>
    177c:	01000d93          	li	s11,16
    1780:	00700c93          	li	s9,7
    1784:	00c0006f          	j	1790 <_vfprintf_r+0x14f0>
    1788:	ff0c0c13          	addi	s8,s8,-16
    178c:	738dda63          	bge	s11,s8,1ec0 <_vfprintf_r+0x1c20>
    1790:	00812783          	lw	a5,8(sp)
    1794:	01070713          	addi	a4,a4,16
    1798:	00168693          	addi	a3,a3,1
    179c:	00f8a023          	sw	a5,0(a7)
    17a0:	01b8a223          	sw	s11,4(a7)
    17a4:	0ee12623          	sw	a4,236(sp)
    17a8:	0ed12423          	sw	a3,232(sp)
    17ac:	00888893          	addi	a7,a7,8
    17b0:	fcdcdce3          	bge	s9,a3,1788 <_vfprintf_r+0x14e8>
    17b4:	0e410613          	addi	a2,sp,228
    17b8:	000b8593          	mv	a1,s7
    17bc:	000b0513          	mv	a0,s6
    17c0:	32d0a0ef          	jal	ra,c2ec <__sprint_r>
    17c4:	9a0516e3          	bnez	a0,1170 <_vfprintf_r+0xed0>
    17c8:	0ec12703          	lw	a4,236(sp)
    17cc:	0e812683          	lw	a3,232(sp)
    17d0:	10c10893          	addi	a7,sp,268
    17d4:	fb5ff06f          	j	1788 <_vfprintf_r+0x14e8>
    17d8:	07800793          	li	a5,120
    17dc:	03000713          	li	a4,48
    17e0:	0cf104a3          	sb	a5,201(sp)
    17e4:	00296793          	ori	a5,s2,2
    17e8:	0ce10423          	sb	a4,200(sp)
    17ec:	04f12023          	sw	a5,64(sp)
    17f0:	06300713          	li	a4,99
    17f4:	00012823          	sw	zero,16(sp)
    17f8:	14c10d13          	addi	s10,sp,332
    17fc:	2a6748e3          	blt	a4,t1,22ac <_vfprintf_r+0x200c>
    1800:	0fc12a83          	lw	s5,252(sp)
    1804:	fdfcf793          	andi	a5,s9,-33
    1808:	02f12423          	sw	a5,40(sp)
    180c:	04012c23          	sw	zero,88(sp)
    1810:	0f012a03          	lw	s4,240(sp)
    1814:	0f412e83          	lw	t4,244(sp)
    1818:	0f812f03          	lw	t5,248(sp)
    181c:	10296913          	ori	s2,s2,258
    1820:	240ac6e3          	bltz	s5,226c <_vfprintf_r+0x1fcc>
    1824:	06100713          	li	a4,97
    1828:	00ec9463          	bne	s9,a4,1830 <_vfprintf_r+0x1590>
    182c:	2200106f          	j	2a4c <_vfprintf_r+0x27ac>
    1830:	fbfc8713          	addi	a4,s9,-65
    1834:	02500693          	li	a3,37
    1838:	00e6ee63          	bltu	a3,a4,1854 <_vfprintf_r+0x15b4>
    183c:	000206b7          	lui	a3,0x20
    1840:	00271713          	slli	a4,a4,0x2
    1844:	22868693          	addi	a3,a3,552 # 20228 <__malloc_trim_threshold+0x1f0>
    1848:	00d70733          	add	a4,a4,a3
    184c:	00072703          	lw	a4,0(a4)
    1850:	00070067          	jr	a4
    1854:	00030693          	mv	a3,t1
    1858:	00200613          	li	a2,2
    185c:	0b010993          	addi	s3,sp,176
    1860:	0d010793          	addi	a5,sp,208
    1864:	0cc10713          	addi	a4,sp,204
    1868:	0dc10813          	addi	a6,sp,220
    186c:	00098593          	mv	a1,s3
    1870:	000b0513          	mv	a0,s6
    1874:	05112823          	sw	a7,80(sp)
    1878:	04612223          	sw	t1,68(sp)
    187c:	02d12223          	sw	a3,36(sp)
    1880:	0bd12a23          	sw	t4,180(sp)
    1884:	03d12023          	sw	t4,32(sp)
    1888:	0be12c23          	sw	t5,184(sp)
    188c:	01e12e23          	sw	t5,28(sp)
    1890:	0b412823          	sw	s4,176(sp)
    1894:	0b512e23          	sw	s5,188(sp)
    1898:	79d030ef          	jal	ra,5834 <_ldtoa_r>
    189c:	02812783          	lw	a5,40(sp)
    18a0:	04700713          	li	a4,71
    18a4:	01c12f03          	lw	t5,28(sp)
    18a8:	02012e83          	lw	t4,32(sp)
    18ac:	02412683          	lw	a3,36(sp)
    18b0:	04412303          	lw	t1,68(sp)
    18b4:	05012883          	lw	a7,80(sp)
    18b8:	00050d13          	mv	s10,a0
    18bc:	64e782e3          	beq	a5,a4,2700 <_vfprintf_r+0x2460>
    18c0:	04600713          	li	a4,70
    18c4:	00d50633          	add	a2,a0,a3
    18c8:	20e798e3          	bne	a5,a4,22d8 <_vfprintf_r+0x2038>
    18cc:	00054583          	lbu	a1,0(a0)
    18d0:	03000713          	li	a4,48
    18d4:	00e59463          	bne	a1,a4,18dc <_vfprintf_r+0x163c>
    18d8:	2800106f          	j	2b58 <_vfprintf_r+0x28b8>
    18dc:	0a010c13          	addi	s8,sp,160
    18e0:	0cc12703          	lw	a4,204(sp)
    18e4:	00e60633          	add	a2,a2,a4
    18e8:	000c0593          	mv	a1,s8
    18ec:	00098513          	mv	a0,s3
    18f0:	03112223          	sw	a7,36(sp)
    18f4:	02c12023          	sw	a2,32(sp)
    18f8:	00612e23          	sw	t1,28(sp)
    18fc:	0b412823          	sw	s4,176(sp)
    1900:	0bd12a23          	sw	t4,180(sp)
    1904:	0be12c23          	sw	t5,184(sp)
    1908:	0b512e23          	sw	s5,188(sp)
    190c:	0a012023          	sw	zero,160(sp)
    1910:	0a012223          	sw	zero,164(sp)
    1914:	0a012423          	sw	zero,168(sp)
    1918:	0a012623          	sw	zero,172(sp)
    191c:	63d0e0ef          	jal	ra,10758 <__eqtf2>
    1920:	02012603          	lw	a2,32(sp)
    1924:	01c12303          	lw	t1,28(sp)
    1928:	02412883          	lw	a7,36(sp)
    192c:	00060793          	mv	a5,a2
    1930:	02050263          	beqz	a0,1954 <_vfprintf_r+0x16b4>
    1934:	0dc12783          	lw	a5,220(sp)
    1938:	00c7fe63          	bgeu	a5,a2,1954 <_vfprintf_r+0x16b4>
    193c:	03000693          	li	a3,48
    1940:	00178713          	addi	a4,a5,1
    1944:	0ce12e23          	sw	a4,220(sp)
    1948:	00d78023          	sb	a3,0(a5)
    194c:	0dc12783          	lw	a5,220(sp)
    1950:	fec7e8e3          	bltu	a5,a2,1940 <_vfprintf_r+0x16a0>
    1954:	41a787b3          	sub	a5,a5,s10
    1958:	02f12023          	sw	a5,32(sp)
    195c:	0cc12783          	lw	a5,204(sp)
    1960:	04700713          	li	a4,71
    1964:	00f12e23          	sw	a5,28(sp)
    1968:	02812783          	lw	a5,40(sp)
    196c:	50e784e3          	beq	a5,a4,2674 <_vfprintf_r+0x23d4>
    1970:	02812783          	lw	a5,40(sp)
    1974:	04600713          	li	a4,70
    1978:	70e786e3          	beq	a5,a4,2884 <_vfprintf_r+0x25e4>
    197c:	01c12783          	lw	a5,28(sp)
    1980:	04100593          	li	a1,65
    1984:	0ffcf693          	zext.b	a3,s9
    1988:	fff78713          	addi	a4,a5,-1
    198c:	02812783          	lw	a5,40(sp)
    1990:	0ce12623          	sw	a4,204(sp)
    1994:	00000613          	li	a2,0
    1998:	00b79863          	bne	a5,a1,19a8 <_vfprintf_r+0x1708>
    199c:	00f68693          	addi	a3,a3,15
    19a0:	0ff6f693          	zext.b	a3,a3
    19a4:	00100613          	li	a2,1
    19a8:	0cd10a23          	sb	a3,212(sp)
    19ac:	02b00693          	li	a3,43
    19b0:	00075a63          	bgez	a4,19c4 <_vfprintf_r+0x1724>
    19b4:	01c12783          	lw	a5,28(sp)
    19b8:	00100713          	li	a4,1
    19bc:	02d00693          	li	a3,45
    19c0:	40f70733          	sub	a4,a4,a5
    19c4:	0cd10aa3          	sb	a3,213(sp)
    19c8:	00900693          	li	a3,9
    19cc:	6ee6dae3          	bge	a3,a4,28c0 <_vfprintf_r+0x2620>
    19d0:	0e310313          	addi	t1,sp,227
    19d4:	00030513          	mv	a0,t1
    19d8:	00a00613          	li	a2,10
    19dc:	06300e93          	li	t4,99
    19e0:	02c767b3          	rem	a5,a4,a2
    19e4:	00050593          	mv	a1,a0
    19e8:	00070693          	mv	a3,a4
    19ec:	fff50513          	addi	a0,a0,-1
    19f0:	03078793          	addi	a5,a5,48
    19f4:	fef58fa3          	sb	a5,-1(a1)
    19f8:	02c74733          	div	a4,a4,a2
    19fc:	fedec2e3          	blt	t4,a3,19e0 <_vfprintf_r+0x1740>
    1a00:	03070713          	addi	a4,a4,48
    1a04:	0ff77613          	zext.b	a2,a4
    1a08:	fec50fa3          	sb	a2,-1(a0)
    1a0c:	ffe58713          	addi	a4,a1,-2
    1a10:	00676463          	bltu	a4,t1,1a18 <_vfprintf_r+0x1778>
    1a14:	1e80106f          	j	2bfc <_vfprintf_r+0x295c>
    1a18:	0d610693          	addi	a3,sp,214
    1a1c:	0080006f          	j	1a24 <_vfprintf_r+0x1784>
    1a20:	00074603          	lbu	a2,0(a4)
    1a24:	00c68023          	sb	a2,0(a3)
    1a28:	00170713          	addi	a4,a4,1
    1a2c:	00168693          	addi	a3,a3,1
    1a30:	fe6718e3          	bne	a4,t1,1a20 <_vfprintf_r+0x1780>
    1a34:	0e510713          	addi	a4,sp,229
    1a38:	0d610793          	addi	a5,sp,214
    1a3c:	40b70733          	sub	a4,a4,a1
    1a40:	00e78733          	add	a4,a5,a4
    1a44:	0d410693          	addi	a3,sp,212
    1a48:	40d707b3          	sub	a5,a4,a3
    1a4c:	02f12c23          	sw	a5,56(sp)
    1a50:	02012783          	lw	a5,32(sp)
    1a54:	03812683          	lw	a3,56(sp)
    1a58:	00100713          	li	a4,1
    1a5c:	00d78c33          	add	s8,a5,a3
    1a60:	74f75ee3          	bge	a4,a5,29bc <_vfprintf_r+0x271c>
    1a64:	02c12783          	lw	a5,44(sp)
    1a68:	00fc0c33          	add	s8,s8,a5
    1a6c:	04012783          	lw	a5,64(sp)
    1a70:	fffc4993          	not	s3,s8
    1a74:	41f9d993          	srai	s3,s3,0x1f
    1a78:	bff7f913          	andi	s2,a5,-1025
    1a7c:	10096913          	ori	s2,s2,256
    1a80:	013c79b3          	and	s3,s8,s3
    1a84:	02012423          	sw	zero,40(sp)
    1a88:	02012223          	sw	zero,36(sp)
    1a8c:	00012e23          	sw	zero,28(sp)
    1a90:	05812783          	lw	a5,88(sp)
    1a94:	400780e3          	beqz	a5,2694 <_vfprintf_r+0x23f4>
    1a98:	02d00713          	li	a4,45
    1a9c:	0ce103a3          	sb	a4,199(sp)
    1aa0:	00000313          	li	t1,0
    1aa4:	00198993          	addi	s3,s3,1
    1aa8:	a39fe06f          	j	4e0 <_vfprintf_r+0x240>
    1aac:	01412703          	lw	a4,20(sp)
    1ab0:	01097793          	andi	a5,s2,16
    1ab4:	00072983          	lw	s3,0(a4)
    1ab8:	00470713          	addi	a4,a4,4
    1abc:	00e12a23          	sw	a4,20(sp)
    1ac0:	06079663          	bnez	a5,1b2c <_vfprintf_r+0x188c>
    1ac4:	04097793          	andi	a5,s2,64
    1ac8:	04078e63          	beqz	a5,1b24 <_vfprintf_r+0x1884>
    1acc:	01099993          	slli	s3,s3,0x10
    1ad0:	0109d993          	srli	s3,s3,0x10
    1ad4:	00000a93          	li	s5,0
    1ad8:	be9ff06f          	j	16c0 <_vfprintf_r+0x1420>
    1adc:	0e410613          	addi	a2,sp,228
    1ae0:	000b8593          	mv	a1,s7
    1ae4:	000b0513          	mv	a0,s6
    1ae8:	0050a0ef          	jal	ra,c2ec <__sprint_r>
    1aec:	e8051263          	bnez	a0,1170 <_vfprintf_r+0xed0>
    1af0:	0ec12d83          	lw	s11,236(sp)
    1af4:	0e812a83          	lw	s5,232(sp)
    1af8:	10c10c93          	addi	s9,sp,268
    1afc:	d85fe06f          	j	880 <_vfprintf_r+0x5e0>
    1b00:	0e410613          	addi	a2,sp,228
    1b04:	000b8593          	mv	a1,s7
    1b08:	000b0513          	mv	a0,s6
    1b0c:	7e00a0ef          	jal	ra,c2ec <__sprint_r>
    1b10:	e6051063          	bnez	a0,1170 <_vfprintf_r+0xed0>
    1b14:	0ec12d83          	lw	s11,236(sp)
    1b18:	0e812a83          	lw	s5,232(sp)
    1b1c:	10c10c93          	addi	s9,sp,268
    1b20:	d91fe06f          	j	8b0 <_vfprintf_r+0x610>
    1b24:	20097793          	andi	a5,s2,512
    1b28:	6e079663          	bnez	a5,2214 <_vfprintf_r+0x1f74>
    1b2c:	00000a93          	li	s5,0
    1b30:	b91ff06f          	j	16c0 <_vfprintf_r+0x1420>
    1b34:	ccccdfb7          	lui	t6,0xccccd
    1b38:	100006b7          	lui	a3,0x10000
    1b3c:	ccdf8c13          	addi	s8,t6,-819 # cccccccd <_stack+0xccc8cccd>
    1b40:	03c12903          	lw	s2,60(sp)
    1b44:	400df293          	andi	t0,s11,1024
    1b48:	00000713          	li	a4,0
    1b4c:	1b010593          	addi	a1,sp,432
    1b50:	fff68693          	addi	a3,a3,-1 # fffffff <_stack+0xffbffff>
    1b54:	00500f13          	li	t5,5
    1b58:	cccf8f93          	addi	t6,t6,-820
    1b5c:	00900e13          	li	t3,9
    1b60:	0ff00a13          	li	s4,255
    1b64:	0600006f          	j	1bc4 <_vfprintf_r+0x1924>
    1b68:	007eeeb3          	or	t4,t4,t2
    1b6c:	00d9f7b3          	and	a5,s3,a3
    1b70:	00defeb3          	and	t4,t4,a3
    1b74:	01d787b3          	add	a5,a5,t4
    1b78:	010787b3          	add	a5,a5,a6
    1b7c:	03e7f7b3          	remu	a5,a5,t5
    1b80:	40f987b3          	sub	a5,s3,a5
    1b84:	00f9b633          	sltu	a2,s3,a5
    1b88:	40ca8633          	sub	a2,s5,a2
    1b8c:	03f78533          	mul	a0,a5,t6
    1b90:	03860633          	mul	a2,a2,s8
    1b94:	0387b5b3          	mulhu	a1,a5,s8
    1b98:	00a60633          	add	a2,a2,a0
    1b9c:	038787b3          	mul	a5,a5,s8
    1ba0:	00b60633          	add	a2,a2,a1
    1ba4:	01f61593          	slli	a1,a2,0x1f
    1ba8:	00165613          	srli	a2,a2,0x1
    1bac:	0017d793          	srli	a5,a5,0x1
    1bb0:	00f5e7b3          	or	a5,a1,a5
    1bb4:	5c0a8063          	beqz	s5,2174 <_vfprintf_r+0x1ed4>
    1bb8:	00078993          	mv	s3,a5
    1bbc:	00060a93          	mv	s5,a2
    1bc0:	000d0593          	mv	a1,s10
    1bc4:	004a9e93          	slli	t4,s5,0x4
    1bc8:	01c9d393          	srli	t2,s3,0x1c
    1bcc:	007ee633          	or	a2,t4,t2
    1bd0:	00d67633          	and	a2,a2,a3
    1bd4:	00d9f7b3          	and	a5,s3,a3
    1bd8:	00c787b3          	add	a5,a5,a2
    1bdc:	018ad813          	srli	a6,s5,0x18
    1be0:	010787b3          	add	a5,a5,a6
    1be4:	03e7f7b3          	remu	a5,a5,t5
    1be8:	fff58d13          	addi	s10,a1,-1
    1bec:	00170713          	addi	a4,a4,1
    1bf0:	40f987b3          	sub	a5,s3,a5
    1bf4:	00f9b533          	sltu	a0,s3,a5
    1bf8:	40aa8533          	sub	a0,s5,a0
    1bfc:	0387b633          	mulhu	a2,a5,s8
    1c00:	03850533          	mul	a0,a0,s8
    1c04:	038787b3          	mul	a5,a5,s8
    1c08:	00c50533          	add	a0,a0,a2
    1c0c:	01f51513          	slli	a0,a0,0x1f
    1c10:	0017d613          	srli	a2,a5,0x1
    1c14:	00c56633          	or	a2,a0,a2
    1c18:	00261793          	slli	a5,a2,0x2
    1c1c:	00c787b3          	add	a5,a5,a2
    1c20:	00179793          	slli	a5,a5,0x1
    1c24:	40f987b3          	sub	a5,s3,a5
    1c28:	03078793          	addi	a5,a5,48
    1c2c:	fef58fa3          	sb	a5,-1(a1)
    1c30:	f2028ce3          	beqz	t0,1b68 <_vfprintf_r+0x18c8>
    1c34:	00094783          	lbu	a5,0(s2)
    1c38:	f2f718e3          	bne	a4,a5,1b68 <_vfprintf_r+0x18c8>
    1c3c:	f34706e3          	beq	a4,s4,1b68 <_vfprintf_r+0x18c8>
    1c40:	2c0a9463          	bnez	s5,1f08 <_vfprintf_r+0x1c68>
    1c44:	2d3e6263          	bltu	t3,s3,1f08 <_vfprintf_r+0x1c68>
    1c48:	1b010793          	addi	a5,sp,432
    1c4c:	03212e23          	sw	s2,60(sp)
    1c50:	02e12023          	sw	a4,32(sp)
    1c54:	41a78c33          	sub	s8,a5,s10
    1c58:	000d8913          	mv	s2,s11
    1c5c:	f85fe06f          	j	be0 <_vfprintf_r+0x940>
    1c60:	0e812683          	lw	a3,232(sp)
    1c64:	00020637          	lui	a2,0x20
    1c68:	0b860613          	addi	a2,a2,184 # 200b8 <__malloc_trim_threshold+0x80>
    1c6c:	00c8a023          	sw	a2,0(a7)
    1c70:	00170713          	addi	a4,a4,1
    1c74:	00100613          	li	a2,1
    1c78:	00168693          	addi	a3,a3,1
    1c7c:	00c8a223          	sw	a2,4(a7)
    1c80:	0ee12623          	sw	a4,236(sp)
    1c84:	0ed12423          	sw	a3,232(sp)
    1c88:	00700613          	li	a2,7
    1c8c:	00888893          	addi	a7,a7,8
    1c90:	4ed64663          	blt	a2,a3,217c <_vfprintf_r+0x1edc>
    1c94:	18059e63          	bnez	a1,1e30 <_vfprintf_r+0x1b90>
    1c98:	02012783          	lw	a5,32(sp)
    1c9c:	00197693          	andi	a3,s2,1
    1ca0:	00f6e6b3          	or	a3,a3,a5
    1ca4:	00069463          	bnez	a3,1cac <_vfprintf_r+0x1a0c>
    1ca8:	905fe06f          	j	5ac <_vfprintf_r+0x30c>
    1cac:	03012683          	lw	a3,48(sp)
    1cb0:	02c12783          	lw	a5,44(sp)
    1cb4:	00700613          	li	a2,7
    1cb8:	00d8a023          	sw	a3,0(a7)
    1cbc:	0e812683          	lw	a3,232(sp)
    1cc0:	00e78733          	add	a4,a5,a4
    1cc4:	00f8a223          	sw	a5,4(a7)
    1cc8:	00168693          	addi	a3,a3,1
    1ccc:	0ee12623          	sw	a4,236(sp)
    1cd0:	0ed12423          	sw	a3,232(sp)
    1cd4:	5ad64663          	blt	a2,a3,2280 <_vfprintf_r+0x1fe0>
    1cd8:	00888893          	addi	a7,a7,8
    1cdc:	1880006f          	j	1e64 <_vfprintf_r+0x1bc4>
    1ce0:	00040b13          	mv	s6,s0
    1ce4:	00048b93          	mv	s7,s1
    1ce8:	c88ff06f          	j	1170 <_vfprintf_r+0xed0>
    1cec:	0e410613          	addi	a2,sp,228
    1cf0:	000b8593          	mv	a1,s7
    1cf4:	000b0513          	mv	a0,s6
    1cf8:	5f40a0ef          	jal	ra,c2ec <__sprint_r>
    1cfc:	c6051a63          	bnez	a0,1170 <_vfprintf_r+0xed0>
    1d00:	0ec12703          	lw	a4,236(sp)
    1d04:	10c10893          	addi	a7,sp,268
    1d08:	9fcff06f          	j	f04 <_vfprintf_r+0xc64>
    1d0c:	00812683          	lw	a3,8(sp)
    1d10:	01570733          	add	a4,a4,s5
    1d14:	0158a223          	sw	s5,4(a7)
    1d18:	00d8a023          	sw	a3,0(a7)
    1d1c:	00178793          	addi	a5,a5,1
    1d20:	0ee12623          	sw	a4,236(sp)
    1d24:	0ef12423          	sw	a5,232(sp)
    1d28:	00700693          	li	a3,7
    1d2c:	00f6c463          	blt	a3,a5,1d34 <_vfprintf_r+0x1a94>
    1d30:	879fe06f          	j	5a8 <_vfprintf_r+0x308>
    1d34:	c19fe06f          	j	94c <_vfprintf_r+0x6ac>
    1d38:	000b8b13          	mv	s6,s7
    1d3c:	00040b93          	mv	s7,s0
    1d40:	c30ff06f          	j	1170 <_vfprintf_r+0xed0>
    1d44:	0f012783          	lw	a5,240(sp)
    1d48:	0a010593          	addi	a1,sp,160
    1d4c:	0b010513          	addi	a0,sp,176
    1d50:	0af12823          	sw	a5,176(sp)
    1d54:	0f412783          	lw	a5,244(sp)
    1d58:	01112823          	sw	a7,16(sp)
    1d5c:	0a012023          	sw	zero,160(sp)
    1d60:	0af12a23          	sw	a5,180(sp)
    1d64:	0f812783          	lw	a5,248(sp)
    1d68:	0a012223          	sw	zero,164(sp)
    1d6c:	0a012423          	sw	zero,168(sp)
    1d70:	0af12c23          	sw	a5,184(sp)
    1d74:	0fc12783          	lw	a5,252(sp)
    1d78:	0a012623          	sw	zero,172(sp)
    1d7c:	0af12e23          	sw	a5,188(sp)
    1d80:	3e90e0ef          	jal	ra,10968 <__letf2>
    1d84:	01012883          	lw	a7,16(sp)
    1d88:	1e0542e3          	bltz	a0,276c <_vfprintf_r+0x24cc>
    1d8c:	0c714703          	lbu	a4,199(sp)
    1d90:	04700793          	li	a5,71
    1d94:	4197d863          	bge	a5,s9,21a4 <_vfprintf_r+0x1f04>
    1d98:	000207b7          	lui	a5,0x20
    1d9c:	07c78d13          	addi	s10,a5,124 # 2007c <__malloc_trim_threshold+0x44>
    1da0:	00012823          	sw	zero,16(sp)
    1da4:	02012423          	sw	zero,40(sp)
    1da8:	02012223          	sw	zero,36(sp)
    1dac:	00012e23          	sw	zero,28(sp)
    1db0:	f7f97913          	andi	s2,s2,-129
    1db4:	00300993          	li	s3,3
    1db8:	00300c13          	li	s8,3
    1dbc:	00000313          	li	t1,0
    1dc0:	00070463          	beqz	a4,1dc8 <_vfprintf_r+0x1b28>
    1dc4:	d19fe06f          	j	adc <_vfprintf_r+0x83c>
    1dc8:	f18fe06f          	j	4e0 <_vfprintf_r+0x240>
    1dcc:	01412783          	lw	a5,20(sp)
    1dd0:	00040d13          	mv	s10,s0
    1dd4:	0007a783          	lw	a5,0(a5)
    1dd8:	00e12a23          	sw	a4,20(sp)
    1ddc:	00c12703          	lw	a4,12(sp)
    1de0:	00e7a023          	sw	a4,0(a5)
    1de4:	811fe06f          	j	5f4 <_vfprintf_r+0x354>
    1de8:	000d0513          	mv	a0,s10
    1dec:	05b12023          	sw	s11,64(sp)
    1df0:	c24fe0ef          	jal	ra,214 <strlen>
    1df4:	0c714703          	lbu	a4,199(sp)
    1df8:	fff54993          	not	s3,a0
    1dfc:	41f9d993          	srai	s3,s3,0x1f
    1e00:	01412a23          	sw	s4,20(sp)
    1e04:	00012823          	sw	zero,16(sp)
    1e08:	02012423          	sw	zero,40(sp)
    1e0c:	02012223          	sw	zero,36(sp)
    1e10:	00012e23          	sw	zero,28(sp)
    1e14:	04012883          	lw	a7,64(sp)
    1e18:	00050c13          	mv	s8,a0
    1e1c:	013579b3          	and	s3,a0,s3
    1e20:	00000313          	li	t1,0
    1e24:	00070463          	beqz	a4,1e2c <_vfprintf_r+0x1b8c>
    1e28:	cb5fe06f          	j	adc <_vfprintf_r+0x83c>
    1e2c:	eb4fe06f          	j	4e0 <_vfprintf_r+0x240>
    1e30:	03012683          	lw	a3,48(sp)
    1e34:	02c12783          	lw	a5,44(sp)
    1e38:	00700613          	li	a2,7
    1e3c:	00d8a023          	sw	a3,0(a7)
    1e40:	0e812683          	lw	a3,232(sp)
    1e44:	00e78733          	add	a4,a5,a4
    1e48:	00f8a223          	sw	a5,4(a7)
    1e4c:	00168693          	addi	a3,a3,1
    1e50:	0ee12623          	sw	a4,236(sp)
    1e54:	0ed12423          	sw	a3,232(sp)
    1e58:	00888893          	addi	a7,a7,8
    1e5c:	42d64263          	blt	a2,a3,2280 <_vfprintf_r+0x1fe0>
    1e60:	1805c2e3          	bltz	a1,27e4 <_vfprintf_r+0x2544>
    1e64:	02012783          	lw	a5,32(sp)
    1e68:	00168693          	addi	a3,a3,1
    1e6c:	01a8a023          	sw	s10,0(a7)
    1e70:	00e78733          	add	a4,a5,a4
    1e74:	00f8a223          	sw	a5,4(a7)
    1e78:	0ee12623          	sw	a4,236(sp)
    1e7c:	0ed12423          	sw	a3,232(sp)
    1e80:	00700793          	li	a5,7
    1e84:	00d7c463          	blt	a5,a3,1e8c <_vfprintf_r+0x1bec>
    1e88:	f20fe06f          	j	5a8 <_vfprintf_r+0x308>
    1e8c:	ac1fe06f          	j	94c <_vfprintf_r+0x6ac>
    1e90:	00812783          	lw	a5,8(sp)
    1e94:	018d8db3          	add	s11,s11,s8
    1e98:	001a8a93          	addi	s5,s5,1
    1e9c:	a69fe06f          	j	904 <_vfprintf_r+0x664>
    1ea0:	0fc12783          	lw	a5,252(sp)
    1ea4:	3807ce63          	bltz	a5,2240 <_vfprintf_r+0x1fa0>
    1ea8:	0c714703          	lbu	a4,199(sp)
    1eac:	04700793          	li	a5,71
    1eb0:	0f97dce3          	bge	a5,s9,27a8 <_vfprintf_r+0x2508>
    1eb4:	000207b7          	lui	a5,0x20
    1eb8:	08478d13          	addi	s10,a5,132 # 20084 <__malloc_trim_threshold+0x4c>
    1ebc:	ee5ff06f          	j	1da0 <_vfprintf_r+0x1b00>
    1ec0:	00812783          	lw	a5,8(sp)
    1ec4:	01870733          	add	a4,a4,s8
    1ec8:	00168693          	addi	a3,a3,1
    1ecc:	00f8a023          	sw	a5,0(a7)
    1ed0:	0188a223          	sw	s8,4(a7)
    1ed4:	0ee12623          	sw	a4,236(sp)
    1ed8:	0ed12423          	sw	a3,232(sp)
    1edc:	00700613          	li	a2,7
    1ee0:	00888893          	addi	a7,a7,8
    1ee4:	c2d65863          	bge	a2,a3,1314 <_vfprintf_r+0x1074>
    1ee8:	0e410613          	addi	a2,sp,228
    1eec:	000b8593          	mv	a1,s7
    1ef0:	000b0513          	mv	a0,s6
    1ef4:	3f80a0ef          	jal	ra,c2ec <__sprint_r>
    1ef8:	a6051c63          	bnez	a0,1170 <_vfprintf_r+0xed0>
    1efc:	0ec12703          	lw	a4,236(sp)
    1f00:	10c10893          	addi	a7,sp,268
    1f04:	c10ff06f          	j	1314 <_vfprintf_r+0x1074>
    1f08:	04812783          	lw	a5,72(sp)
    1f0c:	04c12583          	lw	a1,76(sp)
    1f10:	02512e23          	sw	t0,60(sp)
    1f14:	40fd0d33          	sub	s10,s10,a5
    1f18:	00078613          	mv	a2,a5
    1f1c:	000d0513          	mv	a0,s10
    1f20:	03112423          	sw	a7,40(sp)
    1f24:	02612223          	sw	t1,36(sp)
    1f28:	02712023          	sw	t2,32(sp)
    1f2c:	01012e23          	sw	a6,28(sp)
    1f30:	01d12823          	sw	t4,16(sp)
    1f34:	0d5070ef          	jal	ra,9808 <strncpy>
    1f38:	01012e83          	lw	t4,16(sp)
    1f3c:	02012383          	lw	t2,32(sp)
    1f40:	100007b7          	lui	a5,0x10000
    1f44:	fff78693          	addi	a3,a5,-1 # fffffff <_stack+0xffbffff>
    1f48:	01c12803          	lw	a6,28(sp)
    1f4c:	007ee733          	or	a4,t4,t2
    1f50:	00d77733          	and	a4,a4,a3
    1f54:	00d9f7b3          	and	a5,s3,a3
    1f58:	00e787b3          	add	a5,a5,a4
    1f5c:	010787b3          	add	a5,a5,a6
    1f60:	00500f13          	li	t5,5
    1f64:	03e7f7b3          	remu	a5,a5,t5
    1f68:	00194603          	lbu	a2,1(s2)
    1f6c:	ccccd5b7          	lui	a1,0xccccd
    1f70:	ccc58f93          	addi	t6,a1,-820 # cccccccc <_stack+0xccc8cccc>
    1f74:	00c03633          	snez	a2,a2
    1f78:	00c90933          	add	s2,s2,a2
    1f7c:	02412303          	lw	t1,36(sp)
    1f80:	02812883          	lw	a7,40(sp)
    1f84:	03c12283          	lw	t0,60(sp)
    1f88:	00000713          	li	a4,0
    1f8c:	00900e13          	li	t3,9
    1f90:	40f987b3          	sub	a5,s3,a5
    1f94:	00f9b633          	sltu	a2,s3,a5
    1f98:	40ca8633          	sub	a2,s5,a2
    1f9c:	03f785b3          	mul	a1,a5,t6
    1fa0:	03860633          	mul	a2,a2,s8
    1fa4:	0387b533          	mulhu	a0,a5,s8
    1fa8:	00b60633          	add	a2,a2,a1
    1fac:	038785b3          	mul	a1,a5,s8
    1fb0:	00a60633          	add	a2,a2,a0
    1fb4:	01f61793          	slli	a5,a2,0x1f
    1fb8:	00165613          	srli	a2,a2,0x1
    1fbc:	0015d593          	srli	a1,a1,0x1
    1fc0:	00b7e7b3          	or	a5,a5,a1
    1fc4:	bf5ff06f          	j	1bb8 <_vfprintf_r+0x1918>
    1fc8:	02012783          	lw	a5,32(sp)
    1fcc:	02412a83          	lw	s5,36(sp)
    1fd0:	00812e23          	sw	s0,28(sp)
    1fd4:	05212023          	sw	s2,64(sp)
    1fd8:	04912223          	sw	s1,68(sp)
    1fdc:	03312223          	sw	s3,36(sp)
    1fe0:	02812483          	lw	s1,40(sp)
    1fe4:	03a12423          	sw	s10,40(sp)
    1fe8:	03c12403          	lw	s0,60(sp)
    1fec:	04812903          	lw	s2,72(sp)
    1ff0:	04c12983          	lw	s3,76(sp)
    1ff4:	00700c13          	li	s8,7
    1ff8:	00fd0a33          	add	s4,s10,a5
    1ffc:	01000d93          	li	s11,16
    2000:	080a8663          	beqz	s5,208c <_vfprintf_r+0x1dec>
    2004:	08049663          	bnez	s1,2090 <_vfprintf_r+0x1df0>
    2008:	fff40413          	addi	s0,s0,-1
    200c:	fffa8a93          	addi	s5,s5,-1
    2010:	0e812783          	lw	a5,232(sp)
    2014:	01270733          	add	a4,a4,s2
    2018:	0138a023          	sw	s3,0(a7)
    201c:	00178793          	addi	a5,a5,1
    2020:	0128a223          	sw	s2,4(a7)
    2024:	0ee12623          	sw	a4,236(sp)
    2028:	0ef12423          	sw	a5,232(sp)
    202c:	00888893          	addi	a7,a7,8
    2030:	0efc4c63          	blt	s8,a5,2128 <_vfprintf_r+0x1e88>
    2034:	00044683          	lbu	a3,0(s0)
    2038:	419a0d33          	sub	s10,s4,s9
    203c:	01a6d463          	bge	a3,s10,2044 <_vfprintf_r+0x1da4>
    2040:	00068d13          	mv	s10,a3
    2044:	03a05663          	blez	s10,2070 <_vfprintf_r+0x1dd0>
    2048:	0e812683          	lw	a3,232(sp)
    204c:	01a70733          	add	a4,a4,s10
    2050:	0198a023          	sw	s9,0(a7)
    2054:	00168693          	addi	a3,a3,1
    2058:	01a8a223          	sw	s10,4(a7)
    205c:	0ee12623          	sw	a4,236(sp)
    2060:	0ed12423          	sw	a3,232(sp)
    2064:	0edc4463          	blt	s8,a3,214c <_vfprintf_r+0x1eac>
    2068:	00044683          	lbu	a3,0(s0)
    206c:	00888893          	addi	a7,a7,8
    2070:	fffd4613          	not	a2,s10
    2074:	41f65613          	srai	a2,a2,0x1f
    2078:	00cd77b3          	and	a5,s10,a2
    207c:	40f68d33          	sub	s10,a3,a5
    2080:	01a04c63          	bgtz	s10,2098 <_vfprintf_r+0x1df8>
    2084:	00dc8cb3          	add	s9,s9,a3
    2088:	f60a9ee3          	bnez	s5,2004 <_vfprintf_r+0x1d64>
    208c:	5a048c63          	beqz	s1,2644 <_vfprintf_r+0x23a4>
    2090:	fff48493          	addi	s1,s1,-1
    2094:	f7dff06f          	j	2010 <_vfprintf_r+0x1d70>
    2098:	0e812683          	lw	a3,232(sp)
    209c:	01adc863          	blt	s11,s10,20ac <_vfprintf_r+0x1e0c>
    20a0:	0580006f          	j	20f8 <_vfprintf_r+0x1e58>
    20a4:	ff0d0d13          	addi	s10,s10,-16
    20a8:	05add863          	bge	s11,s10,20f8 <_vfprintf_r+0x1e58>
    20ac:	00812783          	lw	a5,8(sp)
    20b0:	01070713          	addi	a4,a4,16
    20b4:	00168693          	addi	a3,a3,1
    20b8:	00f8a023          	sw	a5,0(a7)
    20bc:	01b8a223          	sw	s11,4(a7)
    20c0:	0ee12623          	sw	a4,236(sp)
    20c4:	0ed12423          	sw	a3,232(sp)
    20c8:	00888893          	addi	a7,a7,8
    20cc:	fcdc5ce3          	bge	s8,a3,20a4 <_vfprintf_r+0x1e04>
    20d0:	0e410613          	addi	a2,sp,228
    20d4:	000b8593          	mv	a1,s7
    20d8:	000b0513          	mv	a0,s6
    20dc:	2100a0ef          	jal	ra,c2ec <__sprint_r>
    20e0:	88051863          	bnez	a0,1170 <_vfprintf_r+0xed0>
    20e4:	ff0d0d13          	addi	s10,s10,-16
    20e8:	0ec12703          	lw	a4,236(sp)
    20ec:	0e812683          	lw	a3,232(sp)
    20f0:	10c10893          	addi	a7,sp,268
    20f4:	fbadcce3          	blt	s11,s10,20ac <_vfprintf_r+0x1e0c>
    20f8:	00812783          	lw	a5,8(sp)
    20fc:	01a70733          	add	a4,a4,s10
    2100:	00168693          	addi	a3,a3,1
    2104:	00f8a023          	sw	a5,0(a7)
    2108:	01a8a223          	sw	s10,4(a7)
    210c:	0ee12623          	sw	a4,236(sp)
    2110:	0ed12423          	sw	a3,232(sp)
    2114:	60dc4263          	blt	s8,a3,2718 <_vfprintf_r+0x2478>
    2118:	00044683          	lbu	a3,0(s0)
    211c:	00888893          	addi	a7,a7,8
    2120:	00dc8cb3          	add	s9,s9,a3
    2124:	f65ff06f          	j	2088 <_vfprintf_r+0x1de8>
    2128:	0e410613          	addi	a2,sp,228
    212c:	000b8593          	mv	a1,s7
    2130:	000b0513          	mv	a0,s6
    2134:	1b80a0ef          	jal	ra,c2ec <__sprint_r>
    2138:	00050463          	beqz	a0,2140 <_vfprintf_r+0x1ea0>
    213c:	834ff06f          	j	1170 <_vfprintf_r+0xed0>
    2140:	0ec12703          	lw	a4,236(sp)
    2144:	10c10893          	addi	a7,sp,268
    2148:	eedff06f          	j	2034 <_vfprintf_r+0x1d94>
    214c:	0e410613          	addi	a2,sp,228
    2150:	000b8593          	mv	a1,s7
    2154:	000b0513          	mv	a0,s6
    2158:	1940a0ef          	jal	ra,c2ec <__sprint_r>
    215c:	00050463          	beqz	a0,2164 <_vfprintf_r+0x1ec4>
    2160:	810ff06f          	j	1170 <_vfprintf_r+0xed0>
    2164:	00044683          	lbu	a3,0(s0)
    2168:	0ec12703          	lw	a4,236(sp)
    216c:	10c10893          	addi	a7,sp,268
    2170:	f01ff06f          	j	2070 <_vfprintf_r+0x1dd0>
    2174:	a53e62e3          	bltu	t3,s3,1bb8 <_vfprintf_r+0x1918>
    2178:	ad1ff06f          	j	1c48 <_vfprintf_r+0x19a8>
    217c:	0e410613          	addi	a2,sp,228
    2180:	000b8593          	mv	a1,s7
    2184:	000b0513          	mv	a0,s6
    2188:	1640a0ef          	jal	ra,c2ec <__sprint_r>
    218c:	00050463          	beqz	a0,2194 <_vfprintf_r+0x1ef4>
    2190:	fe1fe06f          	j	1170 <_vfprintf_r+0xed0>
    2194:	0cc12583          	lw	a1,204(sp)
    2198:	0ec12703          	lw	a4,236(sp)
    219c:	10c10893          	addi	a7,sp,268
    21a0:	af5ff06f          	j	1c94 <_vfprintf_r+0x19f4>
    21a4:	000207b7          	lui	a5,0x20
    21a8:	07878d13          	addi	s10,a5,120 # 20078 <__malloc_trim_threshold+0x40>
    21ac:	bf5ff06f          	j	1da0 <_vfprintf_r+0x1b00>
    21b0:	0e410613          	addi	a2,sp,228
    21b4:	000b8593          	mv	a1,s7
    21b8:	000b0513          	mv	a0,s6
    21bc:	1300a0ef          	jal	ra,c2ec <__sprint_r>
    21c0:	00050463          	beqz	a0,21c8 <_vfprintf_r+0x1f28>
    21c4:	fadfe06f          	j	1170 <_vfprintf_r+0xed0>
    21c8:	0ec12703          	lw	a4,236(sp)
    21cc:	10c10893          	addi	a7,sp,268
    21d0:	92cff06f          	j	12fc <_vfprintf_r+0x105c>
    21d4:	00600c13          	li	s8,6
    21d8:	d84ff06f          	j	175c <_vfprintf_r+0x14bc>
    21dc:	02012603          	lw	a2,32(sp)
    21e0:	00cd07b3          	add	a5,s10,a2
    21e4:	40d606b3          	sub	a3,a2,a3
    21e8:	41978ab3          	sub	s5,a5,s9
    21ec:	9d56d463          	bge	a3,s5,13b4 <_vfprintf_r+0x1114>
    21f0:	00068a93          	mv	s5,a3
    21f4:	9c0ff06f          	j	13b4 <_vfprintf_r+0x1114>
    21f8:	01412783          	lw	a5,20(sp)
    21fc:	00e12a23          	sw	a4,20(sp)
    2200:	00c12703          	lw	a4,12(sp)
    2204:	0007a783          	lw	a5,0(a5)
    2208:	00040d13          	mv	s10,s0
    220c:	00e79023          	sh	a4,0(a5)
    2210:	be4fe06f          	j	5f4 <_vfprintf_r+0x354>
    2214:	0ff9f993          	zext.b	s3,s3
    2218:	00000a93          	li	s5,0
    221c:	ca4ff06f          	j	16c0 <_vfprintf_r+0x1420>
    2220:	0ff9f993          	zext.b	s3,s3
    2224:	00000a93          	li	s5,0
    2228:	aa9fe06f          	j	cd0 <_vfprintf_r+0xa30>
    222c:	01899993          	slli	s3,s3,0x18
    2230:	4189d993          	srai	s3,s3,0x18
    2234:	41f9da93          	srai	s5,s3,0x1f
    2238:	000a8793          	mv	a5,s5
    223c:	b19fe06f          	j	d54 <_vfprintf_r+0xab4>
    2240:	02d00793          	li	a5,45
    2244:	0cf103a3          	sb	a5,199(sp)
    2248:	02d00713          	li	a4,45
    224c:	c61ff06f          	j	1eac <_vfprintf_r+0x1c0c>
    2250:	0e410613          	addi	a2,sp,228
    2254:	000b8593          	mv	a1,s7
    2258:	000b0513          	mv	a0,s6
    225c:	0900a0ef          	jal	ra,c2ec <__sprint_r>
    2260:	ba8fe06f          	j	608 <_vfprintf_r+0x368>
    2264:	00012823          	sw	zero,16(sp)
    2268:	00070913          	mv	s2,a4
    226c:	80000737          	lui	a4,0x80000
    2270:	02d00793          	li	a5,45
    2274:	01574ab3          	xor	s5,a4,s5
    2278:	04f12c23          	sw	a5,88(sp)
    227c:	da8ff06f          	j	1824 <_vfprintf_r+0x1584>
    2280:	0e410613          	addi	a2,sp,228
    2284:	000b8593          	mv	a1,s7
    2288:	000b0513          	mv	a0,s6
    228c:	0600a0ef          	jal	ra,c2ec <__sprint_r>
    2290:	00050463          	beqz	a0,2298 <_vfprintf_r+0x1ff8>
    2294:	eddfe06f          	j	1170 <_vfprintf_r+0xed0>
    2298:	0cc12583          	lw	a1,204(sp)
    229c:	0ec12703          	lw	a4,236(sp)
    22a0:	0e812683          	lw	a3,232(sp)
    22a4:	10c10893          	addi	a7,sp,268
    22a8:	bb9ff06f          	j	1e60 <_vfprintf_r+0x1bc0>
    22ac:	00130593          	addi	a1,t1,1
    22b0:	000b0513          	mv	a0,s6
    22b4:	01112e23          	sw	a7,28(sp)
    22b8:	00612823          	sw	t1,16(sp)
    22bc:	441040ef          	jal	ra,6efc <_malloc_r>
    22c0:	01012303          	lw	t1,16(sp)
    22c4:	01c12883          	lw	a7,28(sp)
    22c8:	00050d13          	mv	s10,a0
    22cc:	18050ae3          	beqz	a0,2c60 <_vfprintf_r+0x29c0>
    22d0:	00a12823          	sw	a0,16(sp)
    22d4:	d2cff06f          	j	1800 <_vfprintf_r+0x1560>
    22d8:	0a010c13          	addi	s8,sp,160
    22dc:	e0cff06f          	j	18e8 <_vfprintf_r+0x1648>
    22e0:	00130693          	addi	a3,t1,1
    22e4:	00200613          	li	a2,2
    22e8:	d74ff06f          	j	185c <_vfprintf_r+0x15bc>
    22ec:	00030693          	mv	a3,t1
    22f0:	00300613          	li	a2,3
    22f4:	d68ff06f          	j	185c <_vfprintf_r+0x15bc>
    22f8:	0b010993          	addi	s3,sp,176
    22fc:	00098513          	mv	a0,s3
    2300:	05112e23          	sw	a7,92(sp)
    2304:	04612a23          	sw	t1,84(sp)
    2308:	0bd12a23          	sw	t4,180(sp)
    230c:	0be12c23          	sw	t5,184(sp)
    2310:	0b512e23          	sw	s5,188(sp)
    2314:	0b412823          	sw	s4,176(sp)
    2318:	0d8110ef          	jal	ra,133f0 <__trunctfdf2>
    231c:	0cc10613          	addi	a2,sp,204
    2320:	7cd060ef          	jal	ra,92ec <frexp>
    2324:	00058613          	mv	a2,a1
    2328:	00050593          	mv	a1,a0
    232c:	00098513          	mv	a0,s3
    2330:	6c5100ef          	jal	ra,131f4 <__extenddftf2>
    2334:	0b012703          	lw	a4,176(sp)
    2338:	0a010c13          	addi	s8,sp,160
    233c:	09010a93          	addi	s5,sp,144
    2340:	08e12823          	sw	a4,144(sp)
    2344:	0b412703          	lw	a4,180(sp)
    2348:	08010613          	addi	a2,sp,128
    234c:	000a8593          	mv	a1,s5
    2350:	08e12a23          	sw	a4,148(sp)
    2354:	0b812703          	lw	a4,184(sp)
    2358:	000c0513          	mv	a0,s8
    235c:	04c12223          	sw	a2,68(sp)
    2360:	08e12c23          	sw	a4,152(sp)
    2364:	0bc12703          	lw	a4,188(sp)
    2368:	08012023          	sw	zero,128(sp)
    236c:	08012223          	sw	zero,132(sp)
    2370:	08e12e23          	sw	a4,156(sp)
    2374:	3ffc0737          	lui	a4,0x3ffc0
    2378:	08e12623          	sw	a4,140(sp)
    237c:	08012423          	sw	zero,136(sp)
    2380:	72c0e0ef          	jal	ra,10aac <__multf3>
    2384:	0a012783          	lw	a5,160(sp)
    2388:	0a412803          	lw	a6,164(sp)
    238c:	0a812e83          	lw	t4,168(sp)
    2390:	0ac12f03          	lw	t5,172(sp)
    2394:	000c0593          	mv	a1,s8
    2398:	00098513          	mv	a0,s3
    239c:	0af12823          	sw	a5,176(sp)
    23a0:	04f12823          	sw	a5,80(sp)
    23a4:	0b012a23          	sw	a6,180(sp)
    23a8:	03012223          	sw	a6,36(sp)
    23ac:	0bd12c23          	sw	t4,184(sp)
    23b0:	03d12023          	sw	t4,32(sp)
    23b4:	0be12e23          	sw	t5,188(sp)
    23b8:	01e12e23          	sw	t5,28(sp)
    23bc:	0a012023          	sw	zero,160(sp)
    23c0:	0a012223          	sw	zero,164(sp)
    23c4:	0a012423          	sw	zero,168(sp)
    23c8:	0a012623          	sw	zero,172(sp)
    23cc:	38c0e0ef          	jal	ra,10758 <__eqtf2>
    23d0:	01c12f03          	lw	t5,28(sp)
    23d4:	02012e83          	lw	t4,32(sp)
    23d8:	02412803          	lw	a6,36(sp)
    23dc:	05012783          	lw	a5,80(sp)
    23e0:	05412303          	lw	t1,84(sp)
    23e4:	05c12883          	lw	a7,92(sp)
    23e8:	00051663          	bnez	a0,23f4 <_vfprintf_r+0x2154>
    23ec:	00100713          	li	a4,1
    23f0:	0ce12623          	sw	a4,204(sp)
    23f4:	00020737          	lui	a4,0x20
    23f8:	09c70713          	addi	a4,a4,156 # 2009c <__malloc_trim_threshold+0x64>
    23fc:	02e12223          	sw	a4,36(sp)
    2400:	fff30d93          	addi	s11,t1,-1
    2404:	07212223          	sw	s2,100(sp)
    2408:	06912423          	sw	s1,104(sp)
    240c:	07612a23          	sw	s6,116(sp)
    2410:	07712c23          	sw	s7,120(sp)
    2414:	000d8b13          	mv	s6,s11
    2418:	000d0b93          	mv	s7,s10
    241c:	07a12e23          	sw	s10,124(sp)
    2420:	04812e23          	sw	s0,92(sp)
    2424:	07912023          	sw	s9,96(sp)
    2428:	06612623          	sw	t1,108(sp)
    242c:	07112823          	sw	a7,112(sp)
    2430:	00078d13          	mv	s10,a5
    2434:	00080d93          	mv	s11,a6
    2438:	000e8493          	mv	s1,t4
    243c:	000f0913          	mv	s2,t5
    2440:	0480006f          	j	2488 <_vfprintf_r+0x21e8>
    2444:	000c0593          	mv	a1,s8
    2448:	00098513          	mv	a0,s3
    244c:	02c12023          	sw	a2,32(sp)
    2450:	01f12e23          	sw	t6,28(sp)
    2454:	0bf12c23          	sw	t6,184(sp)
    2458:	0ac12e23          	sw	a2,188(sp)
    245c:	0b412823          	sw	s4,176(sp)
    2460:	0b912a23          	sw	s9,180(sp)
    2464:	0a012023          	sw	zero,160(sp)
    2468:	0a012223          	sw	zero,164(sp)
    246c:	0a012423          	sw	zero,168(sp)
    2470:	0a012623          	sw	zero,172(sp)
    2474:	2e40e0ef          	jal	ra,10758 <__eqtf2>
    2478:	fffb0b13          	addi	s6,s6,-1
    247c:	00048f93          	mv	t6,s1
    2480:	00090613          	mv	a2,s2
    2484:	0e050263          	beqz	a0,2568 <_vfprintf_r+0x22c8>
    2488:	400307b7          	lui	a5,0x40030
    248c:	000a8613          	mv	a2,s5
    2490:	000c0593          	mv	a1,s8
    2494:	00098513          	mv	a0,s3
    2498:	08f12e23          	sw	a5,156(sp)
    249c:	0ba12023          	sw	s10,160(sp)
    24a0:	0bb12223          	sw	s11,164(sp)
    24a4:	0a912423          	sw	s1,168(sp)
    24a8:	0b212623          	sw	s2,172(sp)
    24ac:	08012823          	sw	zero,144(sp)
    24b0:	08012a23          	sw	zero,148(sp)
    24b4:	08012c23          	sw	zero,152(sp)
    24b8:	5f40e0ef          	jal	ra,10aac <__multf3>
    24bc:	00098513          	mv	a0,s3
    24c0:	2cd100ef          	jal	ra,12f8c <__fixtfsi>
    24c4:	00050593          	mv	a1,a0
    24c8:	00050413          	mv	s0,a0
    24cc:	00098513          	mv	a0,s3
    24d0:	0b012c83          	lw	s9,176(sp)
    24d4:	0b412903          	lw	s2,180(sp)
    24d8:	0b812a03          	lw	s4,184(sp)
    24dc:	0bc12483          	lw	s1,188(sp)
    24e0:	3c1100ef          	jal	ra,130a0 <__floatsitf>
    24e4:	0b012783          	lw	a5,176(sp)
    24e8:	04412603          	lw	a2,68(sp)
    24ec:	000a8593          	mv	a1,s5
    24f0:	08f12023          	sw	a5,128(sp)
    24f4:	0b412783          	lw	a5,180(sp)
    24f8:	000c0513          	mv	a0,s8
    24fc:	09912823          	sw	s9,144(sp)
    2500:	08f12223          	sw	a5,132(sp)
    2504:	0b812783          	lw	a5,184(sp)
    2508:	09212a23          	sw	s2,148(sp)
    250c:	09412c23          	sw	s4,152(sp)
    2510:	08f12423          	sw	a5,136(sp)
    2514:	0bc12783          	lw	a5,188(sp)
    2518:	08912e23          	sw	s1,156(sp)
    251c:	08f12623          	sw	a5,140(sp)
    2520:	5cc0f0ef          	jal	ra,11aec <__subtf3>
    2524:	02412783          	lw	a5,36(sp)
    2528:	0a012a03          	lw	s4,160(sp)
    252c:	0a412c83          	lw	s9,164(sp)
    2530:	008787b3          	add	a5,a5,s0
    2534:	0007c783          	lbu	a5,0(a5) # 40030000 <_stack+0x3fff0000>
    2538:	0a812f83          	lw	t6,168(sp)
    253c:	0ac12603          	lw	a2,172(sp)
    2540:	05712a23          	sw	s7,84(sp)
    2544:	00fb8023          	sb	a5,0(s7)
    2548:	05612823          	sw	s6,80(sp)
    254c:	fff00793          	li	a5,-1
    2550:	001b8b93          	addi	s7,s7,1
    2554:	000a0d13          	mv	s10,s4
    2558:	000c8d93          	mv	s11,s9
    255c:	000f8493          	mv	s1,t6
    2560:	00060913          	mv	s2,a2
    2564:	eefb10e3          	bne	s6,a5,2444 <_vfprintf_r+0x21a4>
    2568:	06c12303          	lw	t1,108(sp)
    256c:	07012883          	lw	a7,112(sp)
    2570:	000a0393          	mv	t2,s4
    2574:	000c8293          	mv	t0,s9
    2578:	3ffe0ab7          	lui	s5,0x3ffe0
    257c:	000c0593          	mv	a1,s8
    2580:	00098513          	mv	a0,s3
    2584:	02612023          	sw	t1,32(sp)
    2588:	01112e23          	sw	a7,28(sp)
    258c:	06412903          	lw	s2,100(sp)
    2590:	06012c83          	lw	s9,96(sp)
    2594:	00040d93          	mv	s11,s0
    2598:	0a712823          	sw	t2,176(sp)
    259c:	05c12403          	lw	s0,92(sp)
    25a0:	06712223          	sw	t2,100(sp)
    25a4:	0a512a23          	sw	t0,180(sp)
    25a8:	06512023          	sw	t0,96(sp)
    25ac:	0bf12c23          	sw	t6,184(sp)
    25b0:	05f12e23          	sw	t6,92(sp)
    25b4:	0ac12e23          	sw	a2,188(sp)
    25b8:	04c12223          	sw	a2,68(sp)
    25bc:	0a012023          	sw	zero,160(sp)
    25c0:	0a012223          	sw	zero,164(sp)
    25c4:	0a012423          	sw	zero,168(sp)
    25c8:	0b512623          	sw	s5,172(sp)
    25cc:	2580e0ef          	jal	ra,10824 <__getf2>
    25d0:	000b8a13          	mv	s4,s7
    25d4:	06812483          	lw	s1,104(sp)
    25d8:	07412b03          	lw	s6,116(sp)
    25dc:	07c12d03          	lw	s10,124(sp)
    25e0:	07812b83          	lw	s7,120(sp)
    25e4:	01c12883          	lw	a7,28(sp)
    25e8:	02012303          	lw	t1,32(sp)
    25ec:	30a04663          	bgtz	a0,28f8 <_vfprintf_r+0x2658>
    25f0:	000c0593          	mv	a1,s8
    25f4:	00098513          	mv	a0,s3
    25f8:	03112023          	sw	a7,32(sp)
    25fc:	00612e23          	sw	t1,28(sp)
    2600:	1580e0ef          	jal	ra,10758 <__eqtf2>
    2604:	01c12303          	lw	t1,28(sp)
    2608:	02012883          	lw	a7,32(sp)
    260c:	00051663          	bnez	a0,2618 <_vfprintf_r+0x2378>
    2610:	001dfa93          	andi	s5,s11,1
    2614:	2e0a9263          	bnez	s5,28f8 <_vfprintf_r+0x2658>
    2618:	05012783          	lw	a5,80(sp)
    261c:	03000613          	li	a2,48
    2620:	00178693          	addi	a3,a5,1
    2624:	00da06b3          	add	a3,s4,a3
    2628:	0007c863          	bltz	a5,2638 <_vfprintf_r+0x2398>
    262c:	001a0a13          	addi	s4,s4,1
    2630:	feca0fa3          	sb	a2,-1(s4)
    2634:	ff469ce3          	bne	a3,s4,262c <_vfprintf_r+0x238c>
    2638:	41aa07b3          	sub	a5,s4,s10
    263c:	02f12023          	sw	a5,32(sp)
    2640:	b1cff06f          	j	195c <_vfprintf_r+0x16bc>
    2644:	02812d03          	lw	s10,40(sp)
    2648:	02012783          	lw	a5,32(sp)
    264c:	02812e23          	sw	s0,60(sp)
    2650:	04012903          	lw	s2,64(sp)
    2654:	00fd06b3          	add	a3,s10,a5
    2658:	01c12403          	lw	s0,28(sp)
    265c:	04412483          	lw	s1,68(sp)
    2660:	02412983          	lw	s3,36(sp)
    2664:	0196e463          	bltu	a3,s9,266c <_vfprintf_r+0x23cc>
    2668:	cbdfe06f          	j	1324 <_vfprintf_r+0x1084>
    266c:	00068c93          	mv	s9,a3
    2670:	cb5fe06f          	j	1324 <_vfprintf_r+0x1084>
    2674:	01c12783          	lw	a5,28(sp)
    2678:	ffd00713          	li	a4,-3
    267c:	00e7c463          	blt	a5,a4,2684 <_vfprintf_r+0x23e4>
    2680:	02f35463          	bge	t1,a5,26a8 <_vfprintf_r+0x2408>
    2684:	ffec8c93          	addi	s9,s9,-2
    2688:	fdfcf793          	andi	a5,s9,-33
    268c:	02f12423          	sw	a5,40(sp)
    2690:	aecff06f          	j	197c <_vfprintf_r+0x16dc>
    2694:	0c714703          	lbu	a4,199(sp)
    2698:	00000313          	li	t1,0
    269c:	00070463          	beqz	a4,26a4 <_vfprintf_r+0x2404>
    26a0:	c3cfe06f          	j	adc <_vfprintf_r+0x83c>
    26a4:	e3dfd06f          	j	4e0 <_vfprintf_r+0x240>
    26a8:	02012783          	lw	a5,32(sp)
    26ac:	01c12703          	lw	a4,28(sp)
    26b0:	1af74063          	blt	a4,a5,2850 <_vfprintf_r+0x25b0>
    26b4:	04012783          	lw	a5,64(sp)
    26b8:	0017f713          	andi	a4,a5,1
    26bc:	01c12783          	lw	a5,28(sp)
    26c0:	00078c13          	mv	s8,a5
    26c4:	00070663          	beqz	a4,26d0 <_vfprintf_r+0x2430>
    26c8:	02c12703          	lw	a4,44(sp)
    26cc:	00e78c33          	add	s8,a5,a4
    26d0:	04012783          	lw	a5,64(sp)
    26d4:	4007f713          	andi	a4,a5,1024
    26d8:	00070663          	beqz	a4,26e4 <_vfprintf_r+0x2444>
    26dc:	01c12783          	lw	a5,28(sp)
    26e0:	2ef04663          	bgtz	a5,29cc <_vfprintf_r+0x272c>
    26e4:	fffc4993          	not	s3,s8
    26e8:	41f9d993          	srai	s3,s3,0x1f
    26ec:	013c79b3          	and	s3,s8,s3
    26f0:	06700c93          	li	s9,103
    26f4:	02012423          	sw	zero,40(sp)
    26f8:	02012223          	sw	zero,36(sp)
    26fc:	b94ff06f          	j	1a90 <_vfprintf_r+0x17f0>
    2700:	04012783          	lw	a5,64(sp)
    2704:	00d50633          	add	a2,a0,a3
    2708:	0017f713          	andi	a4,a5,1
    270c:	bc0716e3          	bnez	a4,22d8 <_vfprintf_r+0x2038>
    2710:	0dc12783          	lw	a5,220(sp)
    2714:	a40ff06f          	j	1954 <_vfprintf_r+0x16b4>
    2718:	0e410613          	addi	a2,sp,228
    271c:	000b8593          	mv	a1,s7
    2720:	000b0513          	mv	a0,s6
    2724:	3c9090ef          	jal	ra,c2ec <__sprint_r>
    2728:	00050463          	beqz	a0,2730 <_vfprintf_r+0x2490>
    272c:	a45fe06f          	j	1170 <_vfprintf_r+0xed0>
    2730:	00044683          	lbu	a3,0(s0)
    2734:	0ec12703          	lw	a4,236(sp)
    2738:	10c10893          	addi	a7,sp,268
    273c:	00dc8cb3          	add	s9,s9,a3
    2740:	949ff06f          	j	2088 <_vfprintf_r+0x1de8>
    2744:	0e410613          	addi	a2,sp,228
    2748:	000b8593          	mv	a1,s7
    274c:	000b0513          	mv	a0,s6
    2750:	39d090ef          	jal	ra,c2ec <__sprint_r>
    2754:	00050463          	beqz	a0,275c <_vfprintf_r+0x24bc>
    2758:	a19fe06f          	j	1170 <_vfprintf_r+0xed0>
    275c:	0cc12683          	lw	a3,204(sp)
    2760:	0ec12703          	lw	a4,236(sp)
    2764:	10c10893          	addi	a7,sp,268
    2768:	c05fe06f          	j	136c <_vfprintf_r+0x10cc>
    276c:	02d00793          	li	a5,45
    2770:	0cf103a3          	sb	a5,199(sp)
    2774:	02d00713          	li	a4,45
    2778:	e18ff06f          	j	1d90 <_vfprintf_r+0x1af0>
    277c:	0c714703          	lbu	a4,199(sp)
    2780:	01412a23          	sw	s4,20(sp)
    2784:	02012423          	sw	zero,40(sp)
    2788:	02012223          	sw	zero,36(sp)
    278c:	00012e23          	sw	zero,28(sp)
    2790:	00030993          	mv	s3,t1
    2794:	00030c13          	mv	s8,t1
    2798:	00000313          	li	t1,0
    279c:	00070463          	beqz	a4,27a4 <_vfprintf_r+0x2504>
    27a0:	b3cfe06f          	j	adc <_vfprintf_r+0x83c>
    27a4:	d3dfd06f          	j	4e0 <_vfprintf_r+0x240>
    27a8:	000207b7          	lui	a5,0x20
    27ac:	08078d13          	addi	s10,a5,128 # 20080 <__malloc_trim_threshold+0x48>
    27b0:	df0ff06f          	j	1da0 <_vfprintf_r+0x1b00>
    27b4:	0e410613          	addi	a2,sp,228
    27b8:	000b8593          	mv	a1,s7
    27bc:	000b0513          	mv	a0,s6
    27c0:	32d090ef          	jal	ra,c2ec <__sprint_r>
    27c4:	00050463          	beqz	a0,27cc <_vfprintf_r+0x252c>
    27c8:	9a9fe06f          	j	1170 <_vfprintf_r+0xed0>
    27cc:	0cc12683          	lw	a3,204(sp)
    27d0:	02012783          	lw	a5,32(sp)
    27d4:	0ec12703          	lw	a4,236(sp)
    27d8:	10c10893          	addi	a7,sp,268
    27dc:	40d786b3          	sub	a3,a5,a3
    27e0:	bd5fe06f          	j	13b4 <_vfprintf_r+0x1114>
    27e4:	ff000613          	li	a2,-16
    27e8:	40b00ab3          	neg	s5,a1
    27ec:	16c5d663          	bge	a1,a2,2958 <_vfprintf_r+0x26b8>
    27f0:	01000c13          	li	s8,16
    27f4:	00700c93          	li	s9,7
    27f8:	00c0006f          	j	2804 <_vfprintf_r+0x2564>
    27fc:	ff0a8a93          	addi	s5,s5,-16 # 3ffdfff0 <_stack+0x3ff9fff0>
    2800:	155c5c63          	bge	s8,s5,2958 <_vfprintf_r+0x26b8>
    2804:	00812783          	lw	a5,8(sp)
    2808:	01070713          	addi	a4,a4,16
    280c:	00168693          	addi	a3,a3,1
    2810:	00f8a023          	sw	a5,0(a7)
    2814:	0188a223          	sw	s8,4(a7)
    2818:	0ee12623          	sw	a4,236(sp)
    281c:	0ed12423          	sw	a3,232(sp)
    2820:	00888893          	addi	a7,a7,8
    2824:	fcdcdce3          	bge	s9,a3,27fc <_vfprintf_r+0x255c>
    2828:	0e410613          	addi	a2,sp,228
    282c:	000b8593          	mv	a1,s7
    2830:	000b0513          	mv	a0,s6
    2834:	2b9090ef          	jal	ra,c2ec <__sprint_r>
    2838:	00050463          	beqz	a0,2840 <_vfprintf_r+0x25a0>
    283c:	935fe06f          	j	1170 <_vfprintf_r+0xed0>
    2840:	0ec12703          	lw	a4,236(sp)
    2844:	0e812683          	lw	a3,232(sp)
    2848:	10c10893          	addi	a7,sp,268
    284c:	fb1ff06f          	j	27fc <_vfprintf_r+0x255c>
    2850:	02012783          	lw	a5,32(sp)
    2854:	02c12703          	lw	a4,44(sp)
    2858:	06700c93          	li	s9,103
    285c:	00e78c33          	add	s8,a5,a4
    2860:	01c12783          	lw	a5,28(sp)
    2864:	36f05663          	blez	a5,2bd0 <_vfprintf_r+0x2930>
    2868:	04012783          	lw	a5,64(sp)
    286c:	4007f713          	andi	a4,a5,1024
    2870:	16071063          	bnez	a4,29d0 <_vfprintf_r+0x2730>
    2874:	fffc4993          	not	s3,s8
    2878:	41f9d993          	srai	s3,s3,0x1f
    287c:	013c79b3          	and	s3,s8,s3
    2880:	e75ff06f          	j	26f4 <_vfprintf_r+0x2454>
    2884:	04012783          	lw	a5,64(sp)
    2888:	0017f713          	andi	a4,a5,1
    288c:	01c12783          	lw	a5,28(sp)
    2890:	00676733          	or	a4,a4,t1
    2894:	36f05a63          	blez	a5,2c08 <_vfprintf_r+0x2968>
    2898:	34071863          	bnez	a4,2be8 <_vfprintf_r+0x2948>
    289c:	01c12c03          	lw	s8,28(sp)
    28a0:	06600c93          	li	s9,102
    28a4:	fc5ff06f          	j	2868 <_vfprintf_r+0x25c8>
    28a8:	fff00793          	li	a5,-1
    28ac:	00f12623          	sw	a5,12(sp)
    28b0:	d69fd06f          	j	618 <_vfprintf_r+0x378>
    28b4:	000206b7          	lui	a3,0x20
    28b8:	2c068d93          	addi	s11,a3,704 # 202c0 <blanks.1>
    28bc:	924fe06f          	j	9e0 <_vfprintf_r+0x740>
    28c0:	0d610693          	addi	a3,sp,214
    28c4:	00061863          	bnez	a2,28d4 <_vfprintf_r+0x2634>
    28c8:	03000693          	li	a3,48
    28cc:	0cd10b23          	sb	a3,214(sp)
    28d0:	0d710693          	addi	a3,sp,215
    28d4:	1b010793          	addi	a5,sp,432
    28d8:	40f68633          	sub	a2,a3,a5
    28dc:	03070713          	addi	a4,a4,48
    28e0:	0dd60793          	addi	a5,a2,221
    28e4:	00e68023          	sb	a4,0(a3)
    28e8:	02f12c23          	sw	a5,56(sp)
    28ec:	964ff06f          	j	1a50 <_vfprintf_r+0x17b0>
    28f0:	00090d93          	mv	s11,s2
    28f4:	ca0fe06f          	j	d94 <_vfprintf_r+0xaf4>
    28f8:	05412783          	lw	a5,84(sp)
    28fc:	000a0693          	mv	a3,s4
    2900:	0cf12e23          	sw	a5,220(sp)
    2904:	02412783          	lw	a5,36(sp)
    2908:	fffa4603          	lbu	a2,-1(s4)
    290c:	00f7c583          	lbu	a1,15(a5)
    2910:	02c59063          	bne	a1,a2,2930 <_vfprintf_r+0x2690>
    2914:	03000513          	li	a0,48
    2918:	fea68fa3          	sb	a0,-1(a3)
    291c:	0dc12683          	lw	a3,220(sp)
    2920:	fff68793          	addi	a5,a3,-1
    2924:	0cf12e23          	sw	a5,220(sp)
    2928:	fff6c603          	lbu	a2,-1(a3)
    292c:	fec586e3          	beq	a1,a2,2918 <_vfprintf_r+0x2678>
    2930:	00160593          	addi	a1,a2,1
    2934:	03900513          	li	a0,57
    2938:	0ff5f593          	zext.b	a1,a1
    293c:	00a60663          	beq	a2,a0,2948 <_vfprintf_r+0x26a8>
    2940:	feb68fa3          	sb	a1,-1(a3)
    2944:	cf5ff06f          	j	2638 <_vfprintf_r+0x2398>
    2948:	02412783          	lw	a5,36(sp)
    294c:	00a7c583          	lbu	a1,10(a5)
    2950:	feb68fa3          	sb	a1,-1(a3)
    2954:	ce5ff06f          	j	2638 <_vfprintf_r+0x2398>
    2958:	00812783          	lw	a5,8(sp)
    295c:	01570733          	add	a4,a4,s5
    2960:	00168693          	addi	a3,a3,1
    2964:	00f8a023          	sw	a5,0(a7)
    2968:	0158a223          	sw	s5,4(a7)
    296c:	0ee12623          	sw	a4,236(sp)
    2970:	0ed12423          	sw	a3,232(sp)
    2974:	00700613          	li	a2,7
    2978:	b6d65063          	bge	a2,a3,1cd8 <_vfprintf_r+0x1a38>
    297c:	0e410613          	addi	a2,sp,228
    2980:	000b8593          	mv	a1,s7
    2984:	000b0513          	mv	a0,s6
    2988:	165090ef          	jal	ra,c2ec <__sprint_r>
    298c:	00050463          	beqz	a0,2994 <_vfprintf_r+0x26f4>
    2990:	fe0fe06f          	j	1170 <_vfprintf_r+0xed0>
    2994:	0ec12703          	lw	a4,236(sp)
    2998:	0e812683          	lw	a3,232(sp)
    299c:	10c10893          	addi	a7,sp,268
    29a0:	cc4ff06f          	j	1e64 <_vfprintf_r+0x1bc4>
    29a4:	00030463          	beqz	t1,29ac <_vfprintf_r+0x270c>
    29a8:	e45fd06f          	j	7ec <_vfprintf_r+0x54c>
    29ac:	00100313          	li	t1,1
    29b0:	e3dfd06f          	j	7ec <_vfprintf_r+0x54c>
    29b4:	00600313          	li	t1,6
    29b8:	e35fd06f          	j	7ec <_vfprintf_r+0x54c>
    29bc:	04012783          	lw	a5,64(sp)
    29c0:	0017f713          	andi	a4,a5,1
    29c4:	8a070463          	beqz	a4,1a6c <_vfprintf_r+0x17cc>
    29c8:	89cff06f          	j	1a64 <_vfprintf_r+0x17c4>
    29cc:	06700c93          	li	s9,103
    29d0:	03c12603          	lw	a2,60(sp)
    29d4:	0ff00693          	li	a3,255
    29d8:	00064703          	lbu	a4,0(a2)
    29dc:	28d70a63          	beq	a4,a3,2c70 <_vfprintf_r+0x29d0>
    29e0:	01c12783          	lw	a5,28(sp)
    29e4:	00000513          	li	a0,0
    29e8:	00000593          	li	a1,0
    29ec:	00f75e63          	bge	a4,a5,2a08 <_vfprintf_r+0x2768>
    29f0:	40e787b3          	sub	a5,a5,a4
    29f4:	00164703          	lbu	a4,1(a2)
    29f8:	04070463          	beqz	a4,2a40 <_vfprintf_r+0x27a0>
    29fc:	00158593          	addi	a1,a1,1
    2a00:	00160613          	addi	a2,a2,1
    2a04:	fed714e3          	bne	a4,a3,29ec <_vfprintf_r+0x274c>
    2a08:	02c12e23          	sw	a2,60(sp)
    2a0c:	00f12e23          	sw	a5,28(sp)
    2a10:	02b12223          	sw	a1,36(sp)
    2a14:	02a12423          	sw	a0,40(sp)
    2a18:	02812783          	lw	a5,40(sp)
    2a1c:	02412703          	lw	a4,36(sp)
    2a20:	00e78733          	add	a4,a5,a4
    2a24:	04812783          	lw	a5,72(sp)
    2a28:	02f70733          	mul	a4,a4,a5
    2a2c:	01870c33          	add	s8,a4,s8
    2a30:	fffc4993          	not	s3,s8
    2a34:	41f9d993          	srai	s3,s3,0x1f
    2a38:	013c79b3          	and	s3,s8,s3
    2a3c:	854ff06f          	j	1a90 <_vfprintf_r+0x17f0>
    2a40:	00064703          	lbu	a4,0(a2)
    2a44:	00150513          	addi	a0,a0,1
    2a48:	fbdff06f          	j	2a04 <_vfprintf_r+0x2764>
    2a4c:	0b010993          	addi	s3,sp,176
    2a50:	00098513          	mv	a0,s3
    2a54:	05112e23          	sw	a7,92(sp)
    2a58:	04612a23          	sw	t1,84(sp)
    2a5c:	0bd12a23          	sw	t4,180(sp)
    2a60:	0be12c23          	sw	t5,184(sp)
    2a64:	0b512e23          	sw	s5,188(sp)
    2a68:	0b412823          	sw	s4,176(sp)
    2a6c:	185100ef          	jal	ra,133f0 <__trunctfdf2>
    2a70:	0cc10613          	addi	a2,sp,204
    2a74:	079060ef          	jal	ra,92ec <frexp>
    2a78:	00058613          	mv	a2,a1
    2a7c:	00050593          	mv	a1,a0
    2a80:	00098513          	mv	a0,s3
    2a84:	770100ef          	jal	ra,131f4 <__extenddftf2>
    2a88:	0b012703          	lw	a4,176(sp)
    2a8c:	0a010c13          	addi	s8,sp,160
    2a90:	09010a93          	addi	s5,sp,144
    2a94:	08e12823          	sw	a4,144(sp)
    2a98:	0b412703          	lw	a4,180(sp)
    2a9c:	08010613          	addi	a2,sp,128
    2aa0:	000a8593          	mv	a1,s5
    2aa4:	08e12a23          	sw	a4,148(sp)
    2aa8:	0b812703          	lw	a4,184(sp)
    2aac:	000c0513          	mv	a0,s8
    2ab0:	04c12223          	sw	a2,68(sp)
    2ab4:	08e12c23          	sw	a4,152(sp)
    2ab8:	0bc12703          	lw	a4,188(sp)
    2abc:	08012023          	sw	zero,128(sp)
    2ac0:	08012223          	sw	zero,132(sp)
    2ac4:	08e12e23          	sw	a4,156(sp)
    2ac8:	3ffc0737          	lui	a4,0x3ffc0
    2acc:	08e12623          	sw	a4,140(sp)
    2ad0:	08012423          	sw	zero,136(sp)
    2ad4:	7d90d0ef          	jal	ra,10aac <__multf3>
    2ad8:	0a012783          	lw	a5,160(sp)
    2adc:	0a412803          	lw	a6,164(sp)
    2ae0:	0a812e83          	lw	t4,168(sp)
    2ae4:	0ac12f03          	lw	t5,172(sp)
    2ae8:	000c0593          	mv	a1,s8
    2aec:	00098513          	mv	a0,s3
    2af0:	0af12823          	sw	a5,176(sp)
    2af4:	04f12823          	sw	a5,80(sp)
    2af8:	0b012a23          	sw	a6,180(sp)
    2afc:	03012223          	sw	a6,36(sp)
    2b00:	0bd12c23          	sw	t4,184(sp)
    2b04:	03d12023          	sw	t4,32(sp)
    2b08:	0be12e23          	sw	t5,188(sp)
    2b0c:	01e12e23          	sw	t5,28(sp)
    2b10:	0a012023          	sw	zero,160(sp)
    2b14:	0a012223          	sw	zero,164(sp)
    2b18:	0a012423          	sw	zero,168(sp)
    2b1c:	0a012623          	sw	zero,172(sp)
    2b20:	4390d0ef          	jal	ra,10758 <__eqtf2>
    2b24:	01c12f03          	lw	t5,28(sp)
    2b28:	02012e83          	lw	t4,32(sp)
    2b2c:	02412803          	lw	a6,36(sp)
    2b30:	05012783          	lw	a5,80(sp)
    2b34:	05412303          	lw	t1,84(sp)
    2b38:	05c12883          	lw	a7,92(sp)
    2b3c:	00051663          	bnez	a0,2b48 <_vfprintf_r+0x28a8>
    2b40:	00100713          	li	a4,1
    2b44:	0ce12623          	sw	a4,204(sp)
    2b48:	00020737          	lui	a4,0x20
    2b4c:	08870713          	addi	a4,a4,136 # 20088 <__malloc_trim_threshold+0x50>
    2b50:	02e12223          	sw	a4,36(sp)
    2b54:	8adff06f          	j	2400 <_vfprintf_r+0x2160>
    2b58:	0a010c13          	addi	s8,sp,160
    2b5c:	000c0593          	mv	a1,s8
    2b60:	00098513          	mv	a0,s3
    2b64:	05112a23          	sw	a7,84(sp)
    2b68:	04c12823          	sw	a2,80(sp)
    2b6c:	02612223          	sw	t1,36(sp)
    2b70:	0bd12a23          	sw	t4,180(sp)
    2b74:	03d12023          	sw	t4,32(sp)
    2b78:	0be12c23          	sw	t5,184(sp)
    2b7c:	01e12e23          	sw	t5,28(sp)
    2b80:	04d12223          	sw	a3,68(sp)
    2b84:	0b412823          	sw	s4,176(sp)
    2b88:	0b512e23          	sw	s5,188(sp)
    2b8c:	0a012023          	sw	zero,160(sp)
    2b90:	0a012223          	sw	zero,164(sp)
    2b94:	0a012423          	sw	zero,168(sp)
    2b98:	0a012623          	sw	zero,172(sp)
    2b9c:	3bd0d0ef          	jal	ra,10758 <__eqtf2>
    2ba0:	01c12f03          	lw	t5,28(sp)
    2ba4:	02012e83          	lw	t4,32(sp)
    2ba8:	02412303          	lw	t1,36(sp)
    2bac:	05012603          	lw	a2,80(sp)
    2bb0:	05412883          	lw	a7,84(sp)
    2bb4:	00051463          	bnez	a0,2bbc <_vfprintf_r+0x291c>
    2bb8:	d29fe06f          	j	18e0 <_vfprintf_r+0x1640>
    2bbc:	04412683          	lw	a3,68(sp)
    2bc0:	00100713          	li	a4,1
    2bc4:	40d70733          	sub	a4,a4,a3
    2bc8:	0ce12623          	sw	a4,204(sp)
    2bcc:	d19fe06f          	j	18e4 <_vfprintf_r+0x1644>
    2bd0:	40fc0c33          	sub	s8,s8,a5
    2bd4:	001c0c13          	addi	s8,s8,1
    2bd8:	fffc4993          	not	s3,s8
    2bdc:	41f9d993          	srai	s3,s3,0x1f
    2be0:	013c79b3          	and	s3,s8,s3
    2be4:	b11ff06f          	j	26f4 <_vfprintf_r+0x2454>
    2be8:	02c12703          	lw	a4,44(sp)
    2bec:	06600c93          	li	s9,102
    2bf0:	00e78c33          	add	s8,a5,a4
    2bf4:	006c0c33          	add	s8,s8,t1
    2bf8:	c71ff06f          	j	2868 <_vfprintf_r+0x25c8>
    2bfc:	00200793          	li	a5,2
    2c00:	02f12c23          	sw	a5,56(sp)
    2c04:	e4dfe06f          	j	1a50 <_vfprintf_r+0x17b0>
    2c08:	00071a63          	bnez	a4,2c1c <_vfprintf_r+0x297c>
    2c0c:	00100993          	li	s3,1
    2c10:	06600c93          	li	s9,102
    2c14:	00100c13          	li	s8,1
    2c18:	addff06f          	j	26f4 <_vfprintf_r+0x2454>
    2c1c:	02c12783          	lw	a5,44(sp)
    2c20:	06600c93          	li	s9,102
    2c24:	00178c13          	addi	s8,a5,1
    2c28:	006c0c33          	add	s8,s8,t1
    2c2c:	fffc4993          	not	s3,s8
    2c30:	41f9d993          	srai	s3,s3,0x1f
    2c34:	013c79b3          	and	s3,s8,s3
    2c38:	abdff06f          	j	26f4 <_vfprintf_r+0x2454>
    2c3c:	01412783          	lw	a5,20(sp)
    2c40:	0007aa03          	lw	s4,0(a5)
    2c44:	00478793          	addi	a5,a5,4
    2c48:	000a5463          	bgez	s4,2c50 <_vfprintf_r+0x29b0>
    2c4c:	fff00a13          	li	s4,-1
    2c50:	00144e03          	lbu	t3,1(s0)
    2c54:	00f12a23          	sw	a5,20(sp)
    2c58:	00070413          	mv	s0,a4
    2c5c:	801fd06f          	j	45c <_vfprintf_r+0x1bc>
    2c60:	00cbd783          	lhu	a5,12(s7)
    2c64:	0407e793          	ori	a5,a5,64
    2c68:	00fb9623          	sh	a5,12(s7)
    2c6c:	99dfd06f          	j	608 <_vfprintf_r+0x368>
    2c70:	02012423          	sw	zero,40(sp)
    2c74:	02012223          	sw	zero,36(sp)
    2c78:	da1ff06f          	j	2a18 <_vfprintf_r+0x2778>

00002c7c <vfprintf>:
    2c7c:	00020737          	lui	a4,0x20
    2c80:	00050793          	mv	a5,a0
    2c84:	03072503          	lw	a0,48(a4) # 20030 <_impure_ptr>
    2c88:	00060693          	mv	a3,a2
    2c8c:	00058613          	mv	a2,a1
    2c90:	00078593          	mv	a1,a5
    2c94:	e0cfd06f          	j	2a0 <_vfprintf_r>

00002c98 <__sbprintf>:
    2c98:	00c5d783          	lhu	a5,12(a1)
    2c9c:	0645ae03          	lw	t3,100(a1)
    2ca0:	00e5d303          	lhu	t1,14(a1)
    2ca4:	01c5a883          	lw	a7,28(a1)
    2ca8:	0245a803          	lw	a6,36(a1)
    2cac:	b8010113          	addi	sp,sp,-1152
    2cb0:	ffd7f793          	andi	a5,a5,-3
    2cb4:	40000713          	li	a4,1024
    2cb8:	46812c23          	sw	s0,1144(sp)
    2cbc:	00f11a23          	sh	a5,20(sp)
    2cc0:	00058413          	mv	s0,a1
    2cc4:	07010793          	addi	a5,sp,112
    2cc8:	00810593          	addi	a1,sp,8
    2ccc:	46912a23          	sw	s1,1140(sp)
    2cd0:	47212823          	sw	s2,1136(sp)
    2cd4:	46112e23          	sw	ra,1148(sp)
    2cd8:	00050913          	mv	s2,a0
    2cdc:	07c12623          	sw	t3,108(sp)
    2ce0:	00611b23          	sh	t1,22(sp)
    2ce4:	03112223          	sw	a7,36(sp)
    2ce8:	03012623          	sw	a6,44(sp)
    2cec:	00f12423          	sw	a5,8(sp)
    2cf0:	00f12c23          	sw	a5,24(sp)
    2cf4:	00e12823          	sw	a4,16(sp)
    2cf8:	00e12e23          	sw	a4,28(sp)
    2cfc:	02012023          	sw	zero,32(sp)
    2d00:	da0fd0ef          	jal	ra,2a0 <_vfprintf_r>
    2d04:	00050493          	mv	s1,a0
    2d08:	02055c63          	bgez	a0,2d40 <__sbprintf+0xa8>
    2d0c:	01415783          	lhu	a5,20(sp)
    2d10:	0407f793          	andi	a5,a5,64
    2d14:	00078863          	beqz	a5,2d24 <__sbprintf+0x8c>
    2d18:	00c45783          	lhu	a5,12(s0)
    2d1c:	0407e793          	ori	a5,a5,64
    2d20:	00f41623          	sh	a5,12(s0)
    2d24:	47c12083          	lw	ra,1148(sp)
    2d28:	47812403          	lw	s0,1144(sp)
    2d2c:	47012903          	lw	s2,1136(sp)
    2d30:	00048513          	mv	a0,s1
    2d34:	47412483          	lw	s1,1140(sp)
    2d38:	48010113          	addi	sp,sp,1152
    2d3c:	00008067          	ret
    2d40:	00810593          	addi	a1,sp,8
    2d44:	00090513          	mv	a0,s2
    2d48:	3e0000ef          	jal	ra,3128 <_fflush_r>
    2d4c:	fc0500e3          	beqz	a0,2d0c <__sbprintf+0x74>
    2d50:	fff00493          	li	s1,-1
    2d54:	fb9ff06f          	j	2d0c <__sbprintf+0x74>

00002d58 <__swsetup_r>:
    2d58:	000207b7          	lui	a5,0x20
    2d5c:	0307a783          	lw	a5,48(a5) # 20030 <_impure_ptr>
    2d60:	ff010113          	addi	sp,sp,-16
    2d64:	00812423          	sw	s0,8(sp)
    2d68:	00912223          	sw	s1,4(sp)
    2d6c:	00112623          	sw	ra,12(sp)
    2d70:	00050493          	mv	s1,a0
    2d74:	00058413          	mv	s0,a1
    2d78:	00078663          	beqz	a5,2d84 <__swsetup_r+0x2c>
    2d7c:	0387a703          	lw	a4,56(a5)
    2d80:	08070463          	beqz	a4,2e08 <__swsetup_r+0xb0>
    2d84:	00c41703          	lh	a4,12(s0)
    2d88:	01071793          	slli	a5,a4,0x10
    2d8c:	00877693          	andi	a3,a4,8
    2d90:	0107d793          	srli	a5,a5,0x10
    2d94:	08068863          	beqz	a3,2e24 <__swsetup_r+0xcc>
    2d98:	01042683          	lw	a3,16(s0)
    2d9c:	0a068863          	beqz	a3,2e4c <__swsetup_r+0xf4>
    2da0:	0017f613          	andi	a2,a5,1
    2da4:	02060863          	beqz	a2,2dd4 <__swsetup_r+0x7c>
    2da8:	01442603          	lw	a2,20(s0)
    2dac:	00042423          	sw	zero,8(s0)
    2db0:	00000513          	li	a0,0
    2db4:	40c00633          	neg	a2,a2
    2db8:	00c42c23          	sw	a2,24(s0)
    2dbc:	02068a63          	beqz	a3,2df0 <__swsetup_r+0x98>
    2dc0:	00c12083          	lw	ra,12(sp)
    2dc4:	00812403          	lw	s0,8(sp)
    2dc8:	00412483          	lw	s1,4(sp)
    2dcc:	01010113          	addi	sp,sp,16
    2dd0:	00008067          	ret
    2dd4:	0027f613          	andi	a2,a5,2
    2dd8:	00000593          	li	a1,0
    2ddc:	00061463          	bnez	a2,2de4 <__swsetup_r+0x8c>
    2de0:	01442583          	lw	a1,20(s0)
    2de4:	00b42423          	sw	a1,8(s0)
    2de8:	00000513          	li	a0,0
    2dec:	fc069ae3          	bnez	a3,2dc0 <__swsetup_r+0x68>
    2df0:	0807f793          	andi	a5,a5,128
    2df4:	fc0786e3          	beqz	a5,2dc0 <__swsetup_r+0x68>
    2df8:	04076713          	ori	a4,a4,64
    2dfc:	00e41623          	sh	a4,12(s0)
    2e00:	fff00513          	li	a0,-1
    2e04:	fbdff06f          	j	2dc0 <__swsetup_r+0x68>
    2e08:	00078513          	mv	a0,a5
    2e0c:	758000ef          	jal	ra,3564 <__sinit>
    2e10:	00c41703          	lh	a4,12(s0)
    2e14:	01071793          	slli	a5,a4,0x10
    2e18:	00877693          	andi	a3,a4,8
    2e1c:	0107d793          	srli	a5,a5,0x10
    2e20:	f6069ce3          	bnez	a3,2d98 <__swsetup_r+0x40>
    2e24:	0107f693          	andi	a3,a5,16
    2e28:	08068263          	beqz	a3,2eac <__swsetup_r+0x154>
    2e2c:	0047f793          	andi	a5,a5,4
    2e30:	04079463          	bnez	a5,2e78 <__swsetup_r+0x120>
    2e34:	01042683          	lw	a3,16(s0)
    2e38:	00876713          	ori	a4,a4,8
    2e3c:	01071793          	slli	a5,a4,0x10
    2e40:	00e41623          	sh	a4,12(s0)
    2e44:	0107d793          	srli	a5,a5,0x10
    2e48:	f4069ce3          	bnez	a3,2da0 <__swsetup_r+0x48>
    2e4c:	2807f613          	andi	a2,a5,640
    2e50:	20000593          	li	a1,512
    2e54:	f4b606e3          	beq	a2,a1,2da0 <__swsetup_r+0x48>
    2e58:	00040593          	mv	a1,s0
    2e5c:	00048513          	mv	a0,s1
    2e60:	631030ef          	jal	ra,6c90 <__smakebuf_r>
    2e64:	00c41703          	lh	a4,12(s0)
    2e68:	01042683          	lw	a3,16(s0)
    2e6c:	01071793          	slli	a5,a4,0x10
    2e70:	0107d793          	srli	a5,a5,0x10
    2e74:	f2dff06f          	j	2da0 <__swsetup_r+0x48>
    2e78:	03042583          	lw	a1,48(s0)
    2e7c:	00058e63          	beqz	a1,2e98 <__swsetup_r+0x140>
    2e80:	04040793          	addi	a5,s0,64
    2e84:	00f58863          	beq	a1,a5,2e94 <__swsetup_r+0x13c>
    2e88:	00048513          	mv	a0,s1
    2e8c:	061000ef          	jal	ra,36ec <_free_r>
    2e90:	00c41703          	lh	a4,12(s0)
    2e94:	02042823          	sw	zero,48(s0)
    2e98:	01042683          	lw	a3,16(s0)
    2e9c:	fdb77713          	andi	a4,a4,-37
    2ea0:	00042223          	sw	zero,4(s0)
    2ea4:	00d42023          	sw	a3,0(s0)
    2ea8:	f91ff06f          	j	2e38 <__swsetup_r+0xe0>
    2eac:	00900793          	li	a5,9
    2eb0:	00f4a023          	sw	a5,0(s1)
    2eb4:	04076713          	ori	a4,a4,64
    2eb8:	00e41623          	sh	a4,12(s0)
    2ebc:	fff00513          	li	a0,-1
    2ec0:	f01ff06f          	j	2dc0 <__swsetup_r+0x68>

00002ec4 <__sflush_r>:
    2ec4:	00c59783          	lh	a5,12(a1)
    2ec8:	fe010113          	addi	sp,sp,-32
    2ecc:	00812c23          	sw	s0,24(sp)
    2ed0:	01312623          	sw	s3,12(sp)
    2ed4:	00112e23          	sw	ra,28(sp)
    2ed8:	00912a23          	sw	s1,20(sp)
    2edc:	01212823          	sw	s2,16(sp)
    2ee0:	0087f693          	andi	a3,a5,8
    2ee4:	00058413          	mv	s0,a1
    2ee8:	00050993          	mv	s3,a0
    2eec:	10069c63          	bnez	a3,3004 <__sflush_r+0x140>
    2ef0:	00001737          	lui	a4,0x1
    2ef4:	80070713          	addi	a4,a4,-2048 # 800 <_vfprintf_r+0x560>
    2ef8:	0045a683          	lw	a3,4(a1)
    2efc:	00e7e7b3          	or	a5,a5,a4
    2f00:	00f59623          	sh	a5,12(a1)
    2f04:	18d05663          	blez	a3,3090 <__sflush_r+0x1cc>
    2f08:	02842703          	lw	a4,40(s0)
    2f0c:	0c070c63          	beqz	a4,2fe4 <__sflush_r+0x120>
    2f10:	01079793          	slli	a5,a5,0x10
    2f14:	0107d793          	srli	a5,a5,0x10
    2f18:	000016b7          	lui	a3,0x1
    2f1c:	0009a483          	lw	s1,0(s3)
    2f20:	00d7f6b3          	and	a3,a5,a3
    2f24:	0009a023          	sw	zero,0(s3)
    2f28:	01c42583          	lw	a1,28(s0)
    2f2c:	16069863          	bnez	a3,309c <__sflush_r+0x1d8>
    2f30:	00100693          	li	a3,1
    2f34:	00000613          	li	a2,0
    2f38:	00098513          	mv	a0,s3
    2f3c:	000700e7          	jalr	a4
    2f40:	fff00793          	li	a5,-1
    2f44:	18f50e63          	beq	a0,a5,30e0 <__sflush_r+0x21c>
    2f48:	00c45783          	lhu	a5,12(s0)
    2f4c:	02842703          	lw	a4,40(s0)
    2f50:	01c42583          	lw	a1,28(s0)
    2f54:	0047f793          	andi	a5,a5,4
    2f58:	00078e63          	beqz	a5,2f74 <__sflush_r+0xb0>
    2f5c:	00442683          	lw	a3,4(s0)
    2f60:	03042783          	lw	a5,48(s0)
    2f64:	40d50533          	sub	a0,a0,a3
    2f68:	00078663          	beqz	a5,2f74 <__sflush_r+0xb0>
    2f6c:	03c42783          	lw	a5,60(s0)
    2f70:	40f50533          	sub	a0,a0,a5
    2f74:	00050613          	mv	a2,a0
    2f78:	00000693          	li	a3,0
    2f7c:	00098513          	mv	a0,s3
    2f80:	000700e7          	jalr	a4
    2f84:	fff00793          	li	a5,-1
    2f88:	10f51e63          	bne	a0,a5,30a4 <__sflush_r+0x1e0>
    2f8c:	0009a703          	lw	a4,0(s3)
    2f90:	00c41783          	lh	a5,12(s0)
    2f94:	16070a63          	beqz	a4,3108 <__sflush_r+0x244>
    2f98:	01d00693          	li	a3,29
    2f9c:	00d70663          	beq	a4,a3,2fa8 <__sflush_r+0xe4>
    2fa0:	01600693          	li	a3,22
    2fa4:	0cd71463          	bne	a4,a3,306c <__sflush_r+0x1a8>
    2fa8:	01042683          	lw	a3,16(s0)
    2fac:	fffff737          	lui	a4,0xfffff
    2fb0:	7ff70713          	addi	a4,a4,2047 # fffff7ff <_stack+0xfffbf7ff>
    2fb4:	00e7f7b3          	and	a5,a5,a4
    2fb8:	00f41623          	sh	a5,12(s0)
    2fbc:	00042223          	sw	zero,4(s0)
    2fc0:	00d42023          	sw	a3,0(s0)
    2fc4:	03042583          	lw	a1,48(s0)
    2fc8:	0099a023          	sw	s1,0(s3)
    2fcc:	00058c63          	beqz	a1,2fe4 <__sflush_r+0x120>
    2fd0:	04040793          	addi	a5,s0,64
    2fd4:	00f58663          	beq	a1,a5,2fe0 <__sflush_r+0x11c>
    2fd8:	00098513          	mv	a0,s3
    2fdc:	710000ef          	jal	ra,36ec <_free_r>
    2fe0:	02042823          	sw	zero,48(s0)
    2fe4:	00000513          	li	a0,0
    2fe8:	01c12083          	lw	ra,28(sp)
    2fec:	01812403          	lw	s0,24(sp)
    2ff0:	01412483          	lw	s1,20(sp)
    2ff4:	01012903          	lw	s2,16(sp)
    2ff8:	00c12983          	lw	s3,12(sp)
    2ffc:	02010113          	addi	sp,sp,32
    3000:	00008067          	ret
    3004:	0105a903          	lw	s2,16(a1)
    3008:	fc090ee3          	beqz	s2,2fe4 <__sflush_r+0x120>
    300c:	0005a483          	lw	s1,0(a1)
    3010:	01079713          	slli	a4,a5,0x10
    3014:	01075713          	srli	a4,a4,0x10
    3018:	00377713          	andi	a4,a4,3
    301c:	0125a023          	sw	s2,0(a1)
    3020:	412484b3          	sub	s1,s1,s2
    3024:	00000793          	li	a5,0
    3028:	00071463          	bnez	a4,3030 <__sflush_r+0x16c>
    302c:	0145a783          	lw	a5,20(a1)
    3030:	00f42423          	sw	a5,8(s0)
    3034:	00904863          	bgtz	s1,3044 <__sflush_r+0x180>
    3038:	fadff06f          	j	2fe4 <__sflush_r+0x120>
    303c:	00a90933          	add	s2,s2,a0
    3040:	fa9052e3          	blez	s1,2fe4 <__sflush_r+0x120>
    3044:	02442783          	lw	a5,36(s0)
    3048:	01c42583          	lw	a1,28(s0)
    304c:	00048693          	mv	a3,s1
    3050:	00090613          	mv	a2,s2
    3054:	00098513          	mv	a0,s3
    3058:	000780e7          	jalr	a5
    305c:	40a484b3          	sub	s1,s1,a0
    3060:	fca04ee3          	bgtz	a0,303c <__sflush_r+0x178>
    3064:	00c45783          	lhu	a5,12(s0)
    3068:	fff00513          	li	a0,-1
    306c:	0407e793          	ori	a5,a5,64
    3070:	01c12083          	lw	ra,28(sp)
    3074:	00f41623          	sh	a5,12(s0)
    3078:	01812403          	lw	s0,24(sp)
    307c:	01412483          	lw	s1,20(sp)
    3080:	01012903          	lw	s2,16(sp)
    3084:	00c12983          	lw	s3,12(sp)
    3088:	02010113          	addi	sp,sp,32
    308c:	00008067          	ret
    3090:	03c5a703          	lw	a4,60(a1)
    3094:	e6e04ae3          	bgtz	a4,2f08 <__sflush_r+0x44>
    3098:	f4dff06f          	j	2fe4 <__sflush_r+0x120>
    309c:	05042503          	lw	a0,80(s0)
    30a0:	eb5ff06f          	j	2f54 <__sflush_r+0x90>
    30a4:	00c45783          	lhu	a5,12(s0)
    30a8:	fffff737          	lui	a4,0xfffff
    30ac:	7ff70713          	addi	a4,a4,2047 # fffff7ff <_stack+0xfffbf7ff>
    30b0:	00e7f7b3          	and	a5,a5,a4
    30b4:	01042683          	lw	a3,16(s0)
    30b8:	01079793          	slli	a5,a5,0x10
    30bc:	4107d793          	srai	a5,a5,0x10
    30c0:	00c7d713          	srli	a4,a5,0xc
    30c4:	00f41623          	sh	a5,12(s0)
    30c8:	00042223          	sw	zero,4(s0)
    30cc:	00d42023          	sw	a3,0(s0)
    30d0:	00177793          	andi	a5,a4,1
    30d4:	ee0788e3          	beqz	a5,2fc4 <__sflush_r+0x100>
    30d8:	04a42823          	sw	a0,80(s0)
    30dc:	ee9ff06f          	j	2fc4 <__sflush_r+0x100>
    30e0:	0009a783          	lw	a5,0(s3)
    30e4:	e60782e3          	beqz	a5,2f48 <__sflush_r+0x84>
    30e8:	01d00713          	li	a4,29
    30ec:	02e78863          	beq	a5,a4,311c <__sflush_r+0x258>
    30f0:	01600713          	li	a4,22
    30f4:	02e78463          	beq	a5,a4,311c <__sflush_r+0x258>
    30f8:	00c45783          	lhu	a5,12(s0)
    30fc:	0407e793          	ori	a5,a5,64
    3100:	00f41623          	sh	a5,12(s0)
    3104:	ee5ff06f          	j	2fe8 <__sflush_r+0x124>
    3108:	fffff737          	lui	a4,0xfffff
    310c:	7ff70713          	addi	a4,a4,2047 # fffff7ff <_stack+0xfffbf7ff>
    3110:	01042683          	lw	a3,16(s0)
    3114:	00e7f7b3          	and	a5,a5,a4
    3118:	fa9ff06f          	j	30c0 <__sflush_r+0x1fc>
    311c:	0099a023          	sw	s1,0(s3)
    3120:	00000513          	li	a0,0
    3124:	ec5ff06f          	j	2fe8 <__sflush_r+0x124>

00003128 <_fflush_r>:
    3128:	fe010113          	addi	sp,sp,-32
    312c:	00812c23          	sw	s0,24(sp)
    3130:	00112e23          	sw	ra,28(sp)
    3134:	00050413          	mv	s0,a0
    3138:	00050663          	beqz	a0,3144 <_fflush_r+0x1c>
    313c:	03852783          	lw	a5,56(a0)
    3140:	02078063          	beqz	a5,3160 <_fflush_r+0x38>
    3144:	00c59783          	lh	a5,12(a1)
    3148:	02079663          	bnez	a5,3174 <_fflush_r+0x4c>
    314c:	01c12083          	lw	ra,28(sp)
    3150:	01812403          	lw	s0,24(sp)
    3154:	00000513          	li	a0,0
    3158:	02010113          	addi	sp,sp,32
    315c:	00008067          	ret
    3160:	00b12623          	sw	a1,12(sp)
    3164:	400000ef          	jal	ra,3564 <__sinit>
    3168:	00c12583          	lw	a1,12(sp)
    316c:	00c59783          	lh	a5,12(a1)
    3170:	fc078ee3          	beqz	a5,314c <_fflush_r+0x24>
    3174:	00040513          	mv	a0,s0
    3178:	01812403          	lw	s0,24(sp)
    317c:	01c12083          	lw	ra,28(sp)
    3180:	02010113          	addi	sp,sp,32
    3184:	d41ff06f          	j	2ec4 <__sflush_r>

00003188 <fflush>:
    3188:	06050863          	beqz	a0,31f8 <fflush+0x70>
    318c:	fe010113          	addi	sp,sp,-32
    3190:	000207b7          	lui	a5,0x20
    3194:	00812c23          	sw	s0,24(sp)
    3198:	00050413          	mv	s0,a0
    319c:	0307a503          	lw	a0,48(a5) # 20030 <_impure_ptr>
    31a0:	00112e23          	sw	ra,28(sp)
    31a4:	00050663          	beqz	a0,31b0 <fflush+0x28>
    31a8:	03852783          	lw	a5,56(a0)
    31ac:	02078a63          	beqz	a5,31e0 <fflush+0x58>
    31b0:	00c41783          	lh	a5,12(s0)
    31b4:	00079c63          	bnez	a5,31cc <fflush+0x44>
    31b8:	01c12083          	lw	ra,28(sp)
    31bc:	01812403          	lw	s0,24(sp)
    31c0:	00000513          	li	a0,0
    31c4:	02010113          	addi	sp,sp,32
    31c8:	00008067          	ret
    31cc:	00040593          	mv	a1,s0
    31d0:	01812403          	lw	s0,24(sp)
    31d4:	01c12083          	lw	ra,28(sp)
    31d8:	02010113          	addi	sp,sp,32
    31dc:	ce9ff06f          	j	2ec4 <__sflush_r>
    31e0:	00a12623          	sw	a0,12(sp)
    31e4:	380000ef          	jal	ra,3564 <__sinit>
    31e8:	00c41783          	lh	a5,12(s0)
    31ec:	00c12503          	lw	a0,12(sp)
    31f0:	fc0784e3          	beqz	a5,31b8 <fflush+0x30>
    31f4:	fd9ff06f          	j	31cc <fflush+0x44>
    31f8:	000207b7          	lui	a5,0x20
    31fc:	0107a503          	lw	a0,16(a5) # 20010 <_global_impure_ptr>
    3200:	000035b7          	lui	a1,0x3
    3204:	12858593          	addi	a1,a1,296 # 3128 <_fflush_r>
    3208:	54d0006f          	j	3f54 <_fwalk_reent>

0000320c <__fp_lock>:
    320c:	00000513          	li	a0,0
    3210:	00008067          	ret

00003214 <_cleanup_r>:
    3214:	0000e5b7          	lui	a1,0xe
    3218:	8fc58593          	addi	a1,a1,-1796 # d8fc <_fclose_r>
    321c:	5390006f          	j	3f54 <_fwalk_reent>

00003220 <__fp_unlock>:
    3220:	00000513          	li	a0,0
    3224:	00008067          	ret

00003228 <__sinit.part.0>:
    3228:	fe010113          	addi	sp,sp,-32
    322c:	000037b7          	lui	a5,0x3
    3230:	00112e23          	sw	ra,28(sp)
    3234:	00812c23          	sw	s0,24(sp)
    3238:	00912a23          	sw	s1,20(sp)
    323c:	01212823          	sw	s2,16(sp)
    3240:	01312623          	sw	s3,12(sp)
    3244:	01412423          	sw	s4,8(sp)
    3248:	01512223          	sw	s5,4(sp)
    324c:	01612023          	sw	s6,0(sp)
    3250:	00452403          	lw	s0,4(a0)
    3254:	21478793          	addi	a5,a5,532 # 3214 <_cleanup_r>
    3258:	02f52e23          	sw	a5,60(a0)
    325c:	2ec50713          	addi	a4,a0,748
    3260:	00300793          	li	a5,3
    3264:	2ee52423          	sw	a4,744(a0)
    3268:	2ef52223          	sw	a5,740(a0)
    326c:	2e052023          	sw	zero,736(a0)
    3270:	00400793          	li	a5,4
    3274:	00050913          	mv	s2,a0
    3278:	00f42623          	sw	a5,12(s0)
    327c:	00800613          	li	a2,8
    3280:	00000593          	li	a1,0
    3284:	06042223          	sw	zero,100(s0)
    3288:	00042023          	sw	zero,0(s0)
    328c:	00042223          	sw	zero,4(s0)
    3290:	00042423          	sw	zero,8(s0)
    3294:	00042823          	sw	zero,16(s0)
    3298:	00042a23          	sw	zero,20(s0)
    329c:	00042c23          	sw	zero,24(s0)
    32a0:	05c40513          	addi	a0,s0,92
    32a4:	7a8040ef          	jal	ra,7a4c <memset>
    32a8:	00009b37          	lui	s6,0x9
    32ac:	00892483          	lw	s1,8(s2)
    32b0:	00009ab7          	lui	s5,0x9
    32b4:	00009a37          	lui	s4,0x9
    32b8:	000099b7          	lui	s3,0x9
    32bc:	480b0b13          	addi	s6,s6,1152 # 9480 <__sread>
    32c0:	4e4a8a93          	addi	s5,s5,1252 # 94e4 <__swrite>
    32c4:	56ca0a13          	addi	s4,s4,1388 # 956c <__sseek>
    32c8:	5d498993          	addi	s3,s3,1492 # 95d4 <__sclose>
    32cc:	000107b7          	lui	a5,0x10
    32d0:	03642023          	sw	s6,32(s0)
    32d4:	03542223          	sw	s5,36(s0)
    32d8:	03442423          	sw	s4,40(s0)
    32dc:	03342623          	sw	s3,44(s0)
    32e0:	00842e23          	sw	s0,28(s0)
    32e4:	00978793          	addi	a5,a5,9 # 10009 <__divdf3+0x599>
    32e8:	00f4a623          	sw	a5,12(s1)
    32ec:	00800613          	li	a2,8
    32f0:	00000593          	li	a1,0
    32f4:	0604a223          	sw	zero,100(s1)
    32f8:	0004a023          	sw	zero,0(s1)
    32fc:	0004a223          	sw	zero,4(s1)
    3300:	0004a423          	sw	zero,8(s1)
    3304:	0004a823          	sw	zero,16(s1)
    3308:	0004aa23          	sw	zero,20(s1)
    330c:	0004ac23          	sw	zero,24(s1)
    3310:	05c48513          	addi	a0,s1,92
    3314:	738040ef          	jal	ra,7a4c <memset>
    3318:	00c92403          	lw	s0,12(s2)
    331c:	000207b7          	lui	a5,0x20
    3320:	0364a023          	sw	s6,32(s1)
    3324:	0354a223          	sw	s5,36(s1)
    3328:	0344a423          	sw	s4,40(s1)
    332c:	0334a623          	sw	s3,44(s1)
    3330:	0094ae23          	sw	s1,28(s1)
    3334:	01278793          	addi	a5,a5,18 # 20012 <_global_impure_ptr+0x2>
    3338:	00f42623          	sw	a5,12(s0)
    333c:	06042223          	sw	zero,100(s0)
    3340:	00042023          	sw	zero,0(s0)
    3344:	00042223          	sw	zero,4(s0)
    3348:	00042423          	sw	zero,8(s0)
    334c:	00042823          	sw	zero,16(s0)
    3350:	00042a23          	sw	zero,20(s0)
    3354:	00042c23          	sw	zero,24(s0)
    3358:	05c40513          	addi	a0,s0,92
    335c:	00800613          	li	a2,8
    3360:	00000593          	li	a1,0
    3364:	6e8040ef          	jal	ra,7a4c <memset>
    3368:	01c12083          	lw	ra,28(sp)
    336c:	03642023          	sw	s6,32(s0)
    3370:	03542223          	sw	s5,36(s0)
    3374:	03442423          	sw	s4,40(s0)
    3378:	03342623          	sw	s3,44(s0)
    337c:	00842e23          	sw	s0,28(s0)
    3380:	01812403          	lw	s0,24(sp)
    3384:	00100793          	li	a5,1
    3388:	02f92c23          	sw	a5,56(s2)
    338c:	01412483          	lw	s1,20(sp)
    3390:	01012903          	lw	s2,16(sp)
    3394:	00c12983          	lw	s3,12(sp)
    3398:	00812a03          	lw	s4,8(sp)
    339c:	00412a83          	lw	s5,4(sp)
    33a0:	00012b03          	lw	s6,0(sp)
    33a4:	02010113          	addi	sp,sp,32
    33a8:	00008067          	ret

000033ac <__sfmoreglue>:
    33ac:	ff010113          	addi	sp,sp,-16
    33b0:	00912223          	sw	s1,4(sp)
    33b4:	06800793          	li	a5,104
    33b8:	fff58493          	addi	s1,a1,-1
    33bc:	02f484b3          	mul	s1,s1,a5
    33c0:	01212023          	sw	s2,0(sp)
    33c4:	00058913          	mv	s2,a1
    33c8:	00812423          	sw	s0,8(sp)
    33cc:	00112623          	sw	ra,12(sp)
    33d0:	07448593          	addi	a1,s1,116
    33d4:	329030ef          	jal	ra,6efc <_malloc_r>
    33d8:	00050413          	mv	s0,a0
    33dc:	02050063          	beqz	a0,33fc <__sfmoreglue+0x50>
    33e0:	00c50513          	addi	a0,a0,12
    33e4:	00042023          	sw	zero,0(s0)
    33e8:	01242223          	sw	s2,4(s0)
    33ec:	00a42423          	sw	a0,8(s0)
    33f0:	06848613          	addi	a2,s1,104
    33f4:	00000593          	li	a1,0
    33f8:	654040ef          	jal	ra,7a4c <memset>
    33fc:	00c12083          	lw	ra,12(sp)
    3400:	00040513          	mv	a0,s0
    3404:	00812403          	lw	s0,8(sp)
    3408:	00412483          	lw	s1,4(sp)
    340c:	00012903          	lw	s2,0(sp)
    3410:	01010113          	addi	sp,sp,16
    3414:	00008067          	ret

00003418 <__sfp>:
    3418:	fe010113          	addi	sp,sp,-32
    341c:	000207b7          	lui	a5,0x20
    3420:	01212823          	sw	s2,16(sp)
    3424:	0107a903          	lw	s2,16(a5) # 20010 <_global_impure_ptr>
    3428:	01312623          	sw	s3,12(sp)
    342c:	00112e23          	sw	ra,28(sp)
    3430:	03892783          	lw	a5,56(s2)
    3434:	00812c23          	sw	s0,24(sp)
    3438:	00912a23          	sw	s1,20(sp)
    343c:	01412423          	sw	s4,8(sp)
    3440:	00050993          	mv	s3,a0
    3444:	0a078a63          	beqz	a5,34f8 <__sfp+0xe0>
    3448:	2e090913          	addi	s2,s2,736
    344c:	fff00493          	li	s1,-1
    3450:	00400a13          	li	s4,4
    3454:	00492783          	lw	a5,4(s2)
    3458:	00892403          	lw	s0,8(s2)
    345c:	fff78793          	addi	a5,a5,-1
    3460:	0007d863          	bgez	a5,3470 <__sfp+0x58>
    3464:	0840006f          	j	34e8 <__sfp+0xd0>
    3468:	06840413          	addi	s0,s0,104
    346c:	06978e63          	beq	a5,s1,34e8 <__sfp+0xd0>
    3470:	00c41703          	lh	a4,12(s0)
    3474:	fff78793          	addi	a5,a5,-1
    3478:	fe0718e3          	bnez	a4,3468 <__sfp+0x50>
    347c:	ffff07b7          	lui	a5,0xffff0
    3480:	00178793          	addi	a5,a5,1 # ffff0001 <_stack+0xfffb0001>
    3484:	06042223          	sw	zero,100(s0)
    3488:	00042023          	sw	zero,0(s0)
    348c:	00042223          	sw	zero,4(s0)
    3490:	00042423          	sw	zero,8(s0)
    3494:	00f42623          	sw	a5,12(s0)
    3498:	00042823          	sw	zero,16(s0)
    349c:	00042a23          	sw	zero,20(s0)
    34a0:	00042c23          	sw	zero,24(s0)
    34a4:	00800613          	li	a2,8
    34a8:	00000593          	li	a1,0
    34ac:	05c40513          	addi	a0,s0,92
    34b0:	59c040ef          	jal	ra,7a4c <memset>
    34b4:	02042823          	sw	zero,48(s0)
    34b8:	02042a23          	sw	zero,52(s0)
    34bc:	04042223          	sw	zero,68(s0)
    34c0:	04042423          	sw	zero,72(s0)
    34c4:	01c12083          	lw	ra,28(sp)
    34c8:	00040513          	mv	a0,s0
    34cc:	01812403          	lw	s0,24(sp)
    34d0:	01412483          	lw	s1,20(sp)
    34d4:	01012903          	lw	s2,16(sp)
    34d8:	00c12983          	lw	s3,12(sp)
    34dc:	00812a03          	lw	s4,8(sp)
    34e0:	02010113          	addi	sp,sp,32
    34e4:	00008067          	ret
    34e8:	00092403          	lw	s0,0(s2)
    34ec:	00040c63          	beqz	s0,3504 <__sfp+0xec>
    34f0:	00040913          	mv	s2,s0
    34f4:	f61ff06f          	j	3454 <__sfp+0x3c>
    34f8:	00090513          	mv	a0,s2
    34fc:	d2dff0ef          	jal	ra,3228 <__sinit.part.0>
    3500:	f49ff06f          	j	3448 <__sfp+0x30>
    3504:	1ac00593          	li	a1,428
    3508:	00098513          	mv	a0,s3
    350c:	1f1030ef          	jal	ra,6efc <_malloc_r>
    3510:	00050413          	mv	s0,a0
    3514:	02050663          	beqz	a0,3540 <__sfp+0x128>
    3518:	00c50513          	addi	a0,a0,12
    351c:	00042023          	sw	zero,0(s0)
    3520:	01442223          	sw	s4,4(s0)
    3524:	00a42423          	sw	a0,8(s0)
    3528:	1a000613          	li	a2,416
    352c:	00000593          	li	a1,0
    3530:	51c040ef          	jal	ra,7a4c <memset>
    3534:	00892023          	sw	s0,0(s2)
    3538:	00040913          	mv	s2,s0
    353c:	f19ff06f          	j	3454 <__sfp+0x3c>
    3540:	00092023          	sw	zero,0(s2)
    3544:	00c00793          	li	a5,12
    3548:	00f9a023          	sw	a5,0(s3)
    354c:	f79ff06f          	j	34c4 <__sfp+0xac>

00003550 <_cleanup>:
    3550:	000207b7          	lui	a5,0x20
    3554:	0107a503          	lw	a0,16(a5) # 20010 <_global_impure_ptr>
    3558:	0000e5b7          	lui	a1,0xe
    355c:	8fc58593          	addi	a1,a1,-1796 # d8fc <_fclose_r>
    3560:	1f50006f          	j	3f54 <_fwalk_reent>

00003564 <__sinit>:
    3564:	03852783          	lw	a5,56(a0)
    3568:	00078463          	beqz	a5,3570 <__sinit+0xc>
    356c:	00008067          	ret
    3570:	cb9ff06f          	j	3228 <__sinit.part.0>

00003574 <__sfp_lock_acquire>:
    3574:	00008067          	ret

00003578 <__sfp_lock_release>:
    3578:	00008067          	ret

0000357c <__sinit_lock_acquire>:
    357c:	00008067          	ret

00003580 <__sinit_lock_release>:
    3580:	00008067          	ret

00003584 <__fp_lock_all>:
    3584:	000207b7          	lui	a5,0x20
    3588:	0307a503          	lw	a0,48(a5) # 20030 <_impure_ptr>
    358c:	000035b7          	lui	a1,0x3
    3590:	20c58593          	addi	a1,a1,524 # 320c <__fp_lock>
    3594:	11d0006f          	j	3eb0 <_fwalk>

00003598 <__fp_unlock_all>:
    3598:	000207b7          	lui	a5,0x20
    359c:	0307a503          	lw	a0,48(a5) # 20030 <_impure_ptr>
    35a0:	000035b7          	lui	a1,0x3
    35a4:	22058593          	addi	a1,a1,544 # 3220 <__fp_unlock>
    35a8:	1090006f          	j	3eb0 <_fwalk>

000035ac <_malloc_trim_r>:
    35ac:	fe010113          	addi	sp,sp,-32
    35b0:	01312623          	sw	s3,12(sp)
    35b4:	000219b7          	lui	s3,0x21
    35b8:	00812c23          	sw	s0,24(sp)
    35bc:	00912a23          	sw	s1,20(sp)
    35c0:	01212823          	sw	s2,16(sp)
    35c4:	01412423          	sw	s4,8(sp)
    35c8:	00112e23          	sw	ra,28(sp)
    35cc:	00058a13          	mv	s4,a1
    35d0:	00050913          	mv	s2,a0
    35d4:	4a498993          	addi	s3,s3,1188 # 214a4 <__malloc_av_>
    35d8:	550040ef          	jal	ra,7b28 <__malloc_lock>
    35dc:	0089a703          	lw	a4,8(s3)
    35e0:	000017b7          	lui	a5,0x1
    35e4:	fef78413          	addi	s0,a5,-17 # fef <_vfprintf_r+0xd4f>
    35e8:	00472483          	lw	s1,4(a4)
    35ec:	41440433          	sub	s0,s0,s4
    35f0:	ffc4f493          	andi	s1,s1,-4
    35f4:	00940433          	add	s0,s0,s1
    35f8:	00c45413          	srli	s0,s0,0xc
    35fc:	fff40413          	addi	s0,s0,-1
    3600:	00c41413          	slli	s0,s0,0xc
    3604:	00f44e63          	blt	s0,a5,3620 <_malloc_trim_r+0x74>
    3608:	00000593          	li	a1,0
    360c:	00090513          	mv	a0,s2
    3610:	47d050ef          	jal	ra,928c <_sbrk_r>
    3614:	0089a783          	lw	a5,8(s3)
    3618:	009787b3          	add	a5,a5,s1
    361c:	02f50863          	beq	a0,a5,364c <_malloc_trim_r+0xa0>
    3620:	00090513          	mv	a0,s2
    3624:	508040ef          	jal	ra,7b2c <__malloc_unlock>
    3628:	01c12083          	lw	ra,28(sp)
    362c:	01812403          	lw	s0,24(sp)
    3630:	01412483          	lw	s1,20(sp)
    3634:	01012903          	lw	s2,16(sp)
    3638:	00c12983          	lw	s3,12(sp)
    363c:	00812a03          	lw	s4,8(sp)
    3640:	00000513          	li	a0,0
    3644:	02010113          	addi	sp,sp,32
    3648:	00008067          	ret
    364c:	408005b3          	neg	a1,s0
    3650:	00090513          	mv	a0,s2
    3654:	439050ef          	jal	ra,928c <_sbrk_r>
    3658:	fff00793          	li	a5,-1
    365c:	04f50a63          	beq	a0,a5,36b0 <_malloc_trim_r+0x104>
    3660:	000227b7          	lui	a5,0x22
    3664:	8c478793          	addi	a5,a5,-1852 # 218c4 <__malloc_current_mallinfo>
    3668:	0007a703          	lw	a4,0(a5)
    366c:	0089a683          	lw	a3,8(s3)
    3670:	408484b3          	sub	s1,s1,s0
    3674:	0014e493          	ori	s1,s1,1
    3678:	40870733          	sub	a4,a4,s0
    367c:	00090513          	mv	a0,s2
    3680:	0096a223          	sw	s1,4(a3) # 1004 <_vfprintf_r+0xd64>
    3684:	00e7a023          	sw	a4,0(a5)
    3688:	4a4040ef          	jal	ra,7b2c <__malloc_unlock>
    368c:	01c12083          	lw	ra,28(sp)
    3690:	01812403          	lw	s0,24(sp)
    3694:	01412483          	lw	s1,20(sp)
    3698:	01012903          	lw	s2,16(sp)
    369c:	00c12983          	lw	s3,12(sp)
    36a0:	00812a03          	lw	s4,8(sp)
    36a4:	00100513          	li	a0,1
    36a8:	02010113          	addi	sp,sp,32
    36ac:	00008067          	ret
    36b0:	00000593          	li	a1,0
    36b4:	00090513          	mv	a0,s2
    36b8:	3d5050ef          	jal	ra,928c <_sbrk_r>
    36bc:	0089a703          	lw	a4,8(s3)
    36c0:	00f00693          	li	a3,15
    36c4:	40e507b3          	sub	a5,a0,a4
    36c8:	f4f6dce3          	bge	a3,a5,3620 <_malloc_trim_r+0x74>
    36cc:	000206b7          	lui	a3,0x20
    36d0:	0346a683          	lw	a3,52(a3) # 20034 <__malloc_sbrk_base>
    36d4:	0017e793          	ori	a5,a5,1
    36d8:	00f72223          	sw	a5,4(a4)
    36dc:	40d50533          	sub	a0,a0,a3
    36e0:	000226b7          	lui	a3,0x22
    36e4:	8ca6a223          	sw	a0,-1852(a3) # 218c4 <__malloc_current_mallinfo>
    36e8:	f39ff06f          	j	3620 <_malloc_trim_r+0x74>

000036ec <_free_r>:
    36ec:	12058a63          	beqz	a1,3820 <_free_r+0x134>
    36f0:	ff010113          	addi	sp,sp,-16
    36f4:	00812423          	sw	s0,8(sp)
    36f8:	00912223          	sw	s1,4(sp)
    36fc:	00058413          	mv	s0,a1
    3700:	00050493          	mv	s1,a0
    3704:	00112623          	sw	ra,12(sp)
    3708:	420040ef          	jal	ra,7b28 <__malloc_lock>
    370c:	ffc42803          	lw	a6,-4(s0)
    3710:	ff840713          	addi	a4,s0,-8
    3714:	000215b7          	lui	a1,0x21
    3718:	ffe87793          	andi	a5,a6,-2
    371c:	00f70633          	add	a2,a4,a5
    3720:	4a458593          	addi	a1,a1,1188 # 214a4 <__malloc_av_>
    3724:	00462683          	lw	a3,4(a2)
    3728:	0085a503          	lw	a0,8(a1)
    372c:	ffc6f693          	andi	a3,a3,-4
    3730:	1ac50a63          	beq	a0,a2,38e4 <_free_r+0x1f8>
    3734:	00d62223          	sw	a3,4(a2)
    3738:	00187813          	andi	a6,a6,1
    373c:	00d60533          	add	a0,a2,a3
    3740:	0a081063          	bnez	a6,37e0 <_free_r+0xf4>
    3744:	ff842303          	lw	t1,-8(s0)
    3748:	00452803          	lw	a6,4(a0)
    374c:	00021537          	lui	a0,0x21
    3750:	40670733          	sub	a4,a4,t1
    3754:	00872883          	lw	a7,8(a4)
    3758:	4ac50513          	addi	a0,a0,1196 # 214ac <__malloc_av_+0x8>
    375c:	006787b3          	add	a5,a5,t1
    3760:	00187813          	andi	a6,a6,1
    3764:	14a88063          	beq	a7,a0,38a4 <_free_r+0x1b8>
    3768:	00c72303          	lw	t1,12(a4)
    376c:	0068a623          	sw	t1,12(a7)
    3770:	01132423          	sw	a7,8(t1)
    3774:	1e080463          	beqz	a6,395c <_free_r+0x270>
    3778:	0017e693          	ori	a3,a5,1
    377c:	00d72223          	sw	a3,4(a4)
    3780:	00f62023          	sw	a5,0(a2)
    3784:	1ff00693          	li	a3,511
    3788:	0af6e863          	bltu	a3,a5,3838 <_free_r+0x14c>
    378c:	ff87f693          	andi	a3,a5,-8
    3790:	00868693          	addi	a3,a3,8
    3794:	0045a503          	lw	a0,4(a1)
    3798:	00d586b3          	add	a3,a1,a3
    379c:	0006a603          	lw	a2,0(a3)
    37a0:	0057d813          	srli	a6,a5,0x5
    37a4:	00100793          	li	a5,1
    37a8:	010797b3          	sll	a5,a5,a6
    37ac:	00a7e7b3          	or	a5,a5,a0
    37b0:	ff868513          	addi	a0,a3,-8
    37b4:	00a72623          	sw	a0,12(a4)
    37b8:	00c72423          	sw	a2,8(a4)
    37bc:	00f5a223          	sw	a5,4(a1)
    37c0:	00e6a023          	sw	a4,0(a3)
    37c4:	00e62623          	sw	a4,12(a2)
    37c8:	00812403          	lw	s0,8(sp)
    37cc:	00c12083          	lw	ra,12(sp)
    37d0:	00048513          	mv	a0,s1
    37d4:	00412483          	lw	s1,4(sp)
    37d8:	01010113          	addi	sp,sp,16
    37dc:	3500406f          	j	7b2c <__malloc_unlock>
    37e0:	00452503          	lw	a0,4(a0)
    37e4:	00157513          	andi	a0,a0,1
    37e8:	02051e63          	bnez	a0,3824 <_free_r+0x138>
    37ec:	00021537          	lui	a0,0x21
    37f0:	00d787b3          	add	a5,a5,a3
    37f4:	4ac50513          	addi	a0,a0,1196 # 214ac <__malloc_av_+0x8>
    37f8:	00862683          	lw	a3,8(a2)
    37fc:	0017e893          	ori	a7,a5,1
    3800:	00f70833          	add	a6,a4,a5
    3804:	16a68863          	beq	a3,a0,3974 <_free_r+0x288>
    3808:	00c62603          	lw	a2,12(a2)
    380c:	00c6a623          	sw	a2,12(a3)
    3810:	00d62423          	sw	a3,8(a2)
    3814:	01172223          	sw	a7,4(a4)
    3818:	00f82023          	sw	a5,0(a6)
    381c:	f69ff06f          	j	3784 <_free_r+0x98>
    3820:	00008067          	ret
    3824:	0017e693          	ori	a3,a5,1
    3828:	fed42e23          	sw	a3,-4(s0)
    382c:	00f62023          	sw	a5,0(a2)
    3830:	1ff00693          	li	a3,511
    3834:	f4f6fce3          	bgeu	a3,a5,378c <_free_r+0xa0>
    3838:	0097d693          	srli	a3,a5,0x9
    383c:	00400613          	li	a2,4
    3840:	0ed66c63          	bltu	a2,a3,3938 <_free_r+0x24c>
    3844:	0067d693          	srli	a3,a5,0x6
    3848:	03968813          	addi	a6,a3,57
    384c:	03868613          	addi	a2,a3,56
    3850:	00381813          	slli	a6,a6,0x3
    3854:	01058833          	add	a6,a1,a6
    3858:	00082683          	lw	a3,0(a6)
    385c:	ff880813          	addi	a6,a6,-8
    3860:	12d80863          	beq	a6,a3,3990 <_free_r+0x2a4>
    3864:	0046a603          	lw	a2,4(a3)
    3868:	ffc67613          	andi	a2,a2,-4
    386c:	00c7f663          	bgeu	a5,a2,3878 <_free_r+0x18c>
    3870:	0086a683          	lw	a3,8(a3)
    3874:	fed818e3          	bne	a6,a3,3864 <_free_r+0x178>
    3878:	00c6a803          	lw	a6,12(a3)
    387c:	01072623          	sw	a6,12(a4)
    3880:	00d72423          	sw	a3,8(a4)
    3884:	00812403          	lw	s0,8(sp)
    3888:	00c12083          	lw	ra,12(sp)
    388c:	00e82423          	sw	a4,8(a6)
    3890:	00048513          	mv	a0,s1
    3894:	00412483          	lw	s1,4(sp)
    3898:	00e6a623          	sw	a4,12(a3)
    389c:	01010113          	addi	sp,sp,16
    38a0:	28c0406f          	j	7b2c <__malloc_unlock>
    38a4:	14081663          	bnez	a6,39f0 <_free_r+0x304>
    38a8:	00c62583          	lw	a1,12(a2)
    38ac:	00862603          	lw	a2,8(a2)
    38b0:	00f686b3          	add	a3,a3,a5
    38b4:	00812403          	lw	s0,8(sp)
    38b8:	00b62623          	sw	a1,12(a2)
    38bc:	00c5a423          	sw	a2,8(a1)
    38c0:	0016e793          	ori	a5,a3,1
    38c4:	00c12083          	lw	ra,12(sp)
    38c8:	00f72223          	sw	a5,4(a4)
    38cc:	00048513          	mv	a0,s1
    38d0:	00d70733          	add	a4,a4,a3
    38d4:	00412483          	lw	s1,4(sp)
    38d8:	00d72023          	sw	a3,0(a4)
    38dc:	01010113          	addi	sp,sp,16
    38e0:	24c0406f          	j	7b2c <__malloc_unlock>
    38e4:	00187813          	andi	a6,a6,1
    38e8:	00d786b3          	add	a3,a5,a3
    38ec:	02081063          	bnez	a6,390c <_free_r+0x220>
    38f0:	ff842503          	lw	a0,-8(s0)
    38f4:	40a70733          	sub	a4,a4,a0
    38f8:	00c72783          	lw	a5,12(a4)
    38fc:	00872603          	lw	a2,8(a4)
    3900:	00a686b3          	add	a3,a3,a0
    3904:	00f62623          	sw	a5,12(a2)
    3908:	00c7a423          	sw	a2,8(a5)
    390c:	000207b7          	lui	a5,0x20
    3910:	0016e613          	ori	a2,a3,1
    3914:	0387a783          	lw	a5,56(a5) # 20038 <__malloc_trim_threshold>
    3918:	00c72223          	sw	a2,4(a4)
    391c:	00e5a423          	sw	a4,8(a1)
    3920:	eaf6e4e3          	bltu	a3,a5,37c8 <_free_r+0xdc>
    3924:	000227b7          	lui	a5,0x22
    3928:	8b87a583          	lw	a1,-1864(a5) # 218b8 <__malloc_top_pad>
    392c:	00048513          	mv	a0,s1
    3930:	c7dff0ef          	jal	ra,35ac <_malloc_trim_r>
    3934:	e95ff06f          	j	37c8 <_free_r+0xdc>
    3938:	01400613          	li	a2,20
    393c:	02d67463          	bgeu	a2,a3,3964 <_free_r+0x278>
    3940:	05400613          	li	a2,84
    3944:	06d66463          	bltu	a2,a3,39ac <_free_r+0x2c0>
    3948:	00c7d693          	srli	a3,a5,0xc
    394c:	06f68813          	addi	a6,a3,111
    3950:	06e68613          	addi	a2,a3,110
    3954:	00381813          	slli	a6,a6,0x3
    3958:	efdff06f          	j	3854 <_free_r+0x168>
    395c:	00d787b3          	add	a5,a5,a3
    3960:	e99ff06f          	j	37f8 <_free_r+0x10c>
    3964:	05c68813          	addi	a6,a3,92
    3968:	05b68613          	addi	a2,a3,91
    396c:	00381813          	slli	a6,a6,0x3
    3970:	ee5ff06f          	j	3854 <_free_r+0x168>
    3974:	00e5aa23          	sw	a4,20(a1)
    3978:	00e5a823          	sw	a4,16(a1)
    397c:	00a72623          	sw	a0,12(a4)
    3980:	00a72423          	sw	a0,8(a4)
    3984:	01172223          	sw	a7,4(a4)
    3988:	00f82023          	sw	a5,0(a6)
    398c:	e3dff06f          	j	37c8 <_free_r+0xdc>
    3990:	0045a503          	lw	a0,4(a1)
    3994:	40265613          	srai	a2,a2,0x2
    3998:	00100793          	li	a5,1
    399c:	00c797b3          	sll	a5,a5,a2
    39a0:	00a7e7b3          	or	a5,a5,a0
    39a4:	00f5a223          	sw	a5,4(a1)
    39a8:	ed5ff06f          	j	387c <_free_r+0x190>
    39ac:	15400613          	li	a2,340
    39b0:	00d66c63          	bltu	a2,a3,39c8 <_free_r+0x2dc>
    39b4:	00f7d693          	srli	a3,a5,0xf
    39b8:	07868813          	addi	a6,a3,120
    39bc:	07768613          	addi	a2,a3,119
    39c0:	00381813          	slli	a6,a6,0x3
    39c4:	e91ff06f          	j	3854 <_free_r+0x168>
    39c8:	55400613          	li	a2,1364
    39cc:	00d66c63          	bltu	a2,a3,39e4 <_free_r+0x2f8>
    39d0:	0127d693          	srli	a3,a5,0x12
    39d4:	07d68813          	addi	a6,a3,125
    39d8:	07c68613          	addi	a2,a3,124
    39dc:	00381813          	slli	a6,a6,0x3
    39e0:	e75ff06f          	j	3854 <_free_r+0x168>
    39e4:	3f800813          	li	a6,1016
    39e8:	07e00613          	li	a2,126
    39ec:	e69ff06f          	j	3854 <_free_r+0x168>
    39f0:	0017e693          	ori	a3,a5,1
    39f4:	00d72223          	sw	a3,4(a4)
    39f8:	00f62023          	sw	a5,0(a2)
    39fc:	dcdff06f          	j	37c8 <_free_r+0xdc>

00003a00 <__sfvwrite_r>:
    3a00:	00862783          	lw	a5,8(a2)
    3a04:	32078063          	beqz	a5,3d24 <__sfvwrite_r+0x324>
    3a08:	00c5d683          	lhu	a3,12(a1)
    3a0c:	fd010113          	addi	sp,sp,-48
    3a10:	02812423          	sw	s0,40(sp)
    3a14:	01412c23          	sw	s4,24(sp)
    3a18:	01712623          	sw	s7,12(sp)
    3a1c:	02112623          	sw	ra,44(sp)
    3a20:	02912223          	sw	s1,36(sp)
    3a24:	03212023          	sw	s2,32(sp)
    3a28:	01312e23          	sw	s3,28(sp)
    3a2c:	01512a23          	sw	s5,20(sp)
    3a30:	01612823          	sw	s6,16(sp)
    3a34:	01812423          	sw	s8,8(sp)
    3a38:	01912223          	sw	s9,4(sp)
    3a3c:	01a12023          	sw	s10,0(sp)
    3a40:	0086f793          	andi	a5,a3,8
    3a44:	00060b93          	mv	s7,a2
    3a48:	00050a13          	mv	s4,a0
    3a4c:	00058413          	mv	s0,a1
    3a50:	08078663          	beqz	a5,3adc <__sfvwrite_r+0xdc>
    3a54:	0105a783          	lw	a5,16(a1)
    3a58:	08078263          	beqz	a5,3adc <__sfvwrite_r+0xdc>
    3a5c:	0026f793          	andi	a5,a3,2
    3a60:	000ba483          	lw	s1,0(s7)
    3a64:	08078c63          	beqz	a5,3afc <__sfvwrite_r+0xfc>
    3a68:	02442783          	lw	a5,36(s0)
    3a6c:	01c42583          	lw	a1,28(s0)
    3a70:	80000ab7          	lui	s5,0x80000
    3a74:	00000993          	li	s3,0
    3a78:	00000913          	li	s2,0
    3a7c:	c00aca93          	xori	s5,s5,-1024
    3a80:	00098613          	mv	a2,s3
    3a84:	000a0513          	mv	a0,s4
    3a88:	04090263          	beqz	s2,3acc <__sfvwrite_r+0xcc>
    3a8c:	00090693          	mv	a3,s2
    3a90:	012af463          	bgeu	s5,s2,3a98 <__sfvwrite_r+0x98>
    3a94:	000a8693          	mv	a3,s5
    3a98:	000780e7          	jalr	a5
    3a9c:	26a05a63          	blez	a0,3d10 <__sfvwrite_r+0x310>
    3aa0:	008ba783          	lw	a5,8(s7)
    3aa4:	00a989b3          	add	s3,s3,a0
    3aa8:	40a90933          	sub	s2,s2,a0
    3aac:	40a787b3          	sub	a5,a5,a0
    3ab0:	00fba423          	sw	a5,8(s7)
    3ab4:	20078863          	beqz	a5,3cc4 <__sfvwrite_r+0x2c4>
    3ab8:	02442783          	lw	a5,36(s0)
    3abc:	01c42583          	lw	a1,28(s0)
    3ac0:	00098613          	mv	a2,s3
    3ac4:	000a0513          	mv	a0,s4
    3ac8:	fc0912e3          	bnez	s2,3a8c <__sfvwrite_r+0x8c>
    3acc:	0004a983          	lw	s3,0(s1)
    3ad0:	0044a903          	lw	s2,4(s1)
    3ad4:	00848493          	addi	s1,s1,8
    3ad8:	fa9ff06f          	j	3a80 <__sfvwrite_r+0x80>
    3adc:	00040593          	mv	a1,s0
    3ae0:	000a0513          	mv	a0,s4
    3ae4:	a74ff0ef          	jal	ra,2d58 <__swsetup_r>
    3ae8:	3c051063          	bnez	a0,3ea8 <__sfvwrite_r+0x4a8>
    3aec:	00c45683          	lhu	a3,12(s0)
    3af0:	000ba483          	lw	s1,0(s7)
    3af4:	0026f793          	andi	a5,a3,2
    3af8:	f60798e3          	bnez	a5,3a68 <__sfvwrite_r+0x68>
    3afc:	0016f793          	andi	a5,a3,1
    3b00:	12079e63          	bnez	a5,3c3c <__sfvwrite_r+0x23c>
    3b04:	00042783          	lw	a5,0(s0)
    3b08:	00842703          	lw	a4,8(s0)
    3b0c:	80000ab7          	lui	s5,0x80000
    3b10:	ffeacb13          	xori	s6,s5,-2
    3b14:	00000c13          	li	s8,0
    3b18:	00000993          	li	s3,0
    3b1c:	fffaca93          	not	s5,s5
    3b20:	00078513          	mv	a0,a5
    3b24:	00070c93          	mv	s9,a4
    3b28:	10098263          	beqz	s3,3c2c <__sfvwrite_r+0x22c>
    3b2c:	2006f613          	andi	a2,a3,512
    3b30:	24060e63          	beqz	a2,3d8c <__sfvwrite_r+0x38c>
    3b34:	00070d13          	mv	s10,a4
    3b38:	2ee9e663          	bltu	s3,a4,3e24 <__sfvwrite_r+0x424>
    3b3c:	4806f713          	andi	a4,a3,1152
    3b40:	08070a63          	beqz	a4,3bd4 <__sfvwrite_r+0x1d4>
    3b44:	01442603          	lw	a2,20(s0)
    3b48:	01042583          	lw	a1,16(s0)
    3b4c:	00161713          	slli	a4,a2,0x1
    3b50:	00c70733          	add	a4,a4,a2
    3b54:	40b78933          	sub	s2,a5,a1
    3b58:	01f75c93          	srli	s9,a4,0x1f
    3b5c:	00ec8cb3          	add	s9,s9,a4
    3b60:	00190793          	addi	a5,s2,1
    3b64:	401cdc93          	srai	s9,s9,0x1
    3b68:	013787b3          	add	a5,a5,s3
    3b6c:	000c8613          	mv	a2,s9
    3b70:	00fcf663          	bgeu	s9,a5,3b7c <__sfvwrite_r+0x17c>
    3b74:	00078c93          	mv	s9,a5
    3b78:	00078613          	mv	a2,a5
    3b7c:	4006f693          	andi	a3,a3,1024
    3b80:	2c068e63          	beqz	a3,3e5c <__sfvwrite_r+0x45c>
    3b84:	00060593          	mv	a1,a2
    3b88:	000a0513          	mv	a0,s4
    3b8c:	370030ef          	jal	ra,6efc <_malloc_r>
    3b90:	00050d13          	mv	s10,a0
    3b94:	30050263          	beqz	a0,3e98 <__sfvwrite_r+0x498>
    3b98:	01042583          	lw	a1,16(s0)
    3b9c:	00090613          	mv	a2,s2
    3ba0:	465030ef          	jal	ra,7804 <memcpy>
    3ba4:	00c45783          	lhu	a5,12(s0)
    3ba8:	b7f7f793          	andi	a5,a5,-1153
    3bac:	0807e793          	ori	a5,a5,128
    3bb0:	00f41623          	sh	a5,12(s0)
    3bb4:	012d0533          	add	a0,s10,s2
    3bb8:	412c87b3          	sub	a5,s9,s2
    3bbc:	01a42823          	sw	s10,16(s0)
    3bc0:	01942a23          	sw	s9,20(s0)
    3bc4:	00a42023          	sw	a0,0(s0)
    3bc8:	00098c93          	mv	s9,s3
    3bcc:	00f42423          	sw	a5,8(s0)
    3bd0:	00098d13          	mv	s10,s3
    3bd4:	000d0613          	mv	a2,s10
    3bd8:	000c0593          	mv	a1,s8
    3bdc:	551030ef          	jal	ra,792c <memmove>
    3be0:	00842703          	lw	a4,8(s0)
    3be4:	00042783          	lw	a5,0(s0)
    3be8:	00098913          	mv	s2,s3
    3bec:	41970733          	sub	a4,a4,s9
    3bf0:	01a787b3          	add	a5,a5,s10
    3bf4:	00e42423          	sw	a4,8(s0)
    3bf8:	00f42023          	sw	a5,0(s0)
    3bfc:	00000993          	li	s3,0
    3c00:	008ba783          	lw	a5,8(s7)
    3c04:	012c0c33          	add	s8,s8,s2
    3c08:	412787b3          	sub	a5,a5,s2
    3c0c:	00fba423          	sw	a5,8(s7)
    3c10:	0a078a63          	beqz	a5,3cc4 <__sfvwrite_r+0x2c4>
    3c14:	00042783          	lw	a5,0(s0)
    3c18:	00842703          	lw	a4,8(s0)
    3c1c:	00c45683          	lhu	a3,12(s0)
    3c20:	00078513          	mv	a0,a5
    3c24:	00070c93          	mv	s9,a4
    3c28:	f00992e3          	bnez	s3,3b2c <__sfvwrite_r+0x12c>
    3c2c:	0004ac03          	lw	s8,0(s1)
    3c30:	0044a983          	lw	s3,4(s1)
    3c34:	00848493          	addi	s1,s1,8
    3c38:	ee9ff06f          	j	3b20 <__sfvwrite_r+0x120>
    3c3c:	00000a93          	li	s5,0
    3c40:	00000513          	li	a0,0
    3c44:	00000c13          	li	s8,0
    3c48:	00000993          	li	s3,0
    3c4c:	0e098063          	beqz	s3,3d2c <__sfvwrite_r+0x32c>
    3c50:	0e050863          	beqz	a0,3d40 <__sfvwrite_r+0x340>
    3c54:	000a8793          	mv	a5,s5
    3c58:	00098b13          	mv	s6,s3
    3c5c:	0137f463          	bgeu	a5,s3,3c64 <__sfvwrite_r+0x264>
    3c60:	00078b13          	mv	s6,a5
    3c64:	00042503          	lw	a0,0(s0)
    3c68:	01042783          	lw	a5,16(s0)
    3c6c:	00842903          	lw	s2,8(s0)
    3c70:	01442683          	lw	a3,20(s0)
    3c74:	00a7f663          	bgeu	a5,a0,3c80 <__sfvwrite_r+0x280>
    3c78:	00d90933          	add	s2,s2,a3
    3c7c:	0f694263          	blt	s2,s6,3d60 <__sfvwrite_r+0x360>
    3c80:	1adb4863          	blt	s6,a3,3e30 <__sfvwrite_r+0x430>
    3c84:	02442783          	lw	a5,36(s0)
    3c88:	01c42583          	lw	a1,28(s0)
    3c8c:	000c0613          	mv	a2,s8
    3c90:	000a0513          	mv	a0,s4
    3c94:	000780e7          	jalr	a5
    3c98:	00050913          	mv	s2,a0
    3c9c:	06a05a63          	blez	a0,3d10 <__sfvwrite_r+0x310>
    3ca0:	412a8ab3          	sub	s5,s5,s2
    3ca4:	00100513          	li	a0,1
    3ca8:	040a8c63          	beqz	s5,3d00 <__sfvwrite_r+0x300>
    3cac:	008ba783          	lw	a5,8(s7)
    3cb0:	012c0c33          	add	s8,s8,s2
    3cb4:	412989b3          	sub	s3,s3,s2
    3cb8:	412787b3          	sub	a5,a5,s2
    3cbc:	00fba423          	sw	a5,8(s7)
    3cc0:	f80796e3          	bnez	a5,3c4c <__sfvwrite_r+0x24c>
    3cc4:	00000513          	li	a0,0
    3cc8:	02c12083          	lw	ra,44(sp)
    3ccc:	02812403          	lw	s0,40(sp)
    3cd0:	02412483          	lw	s1,36(sp)
    3cd4:	02012903          	lw	s2,32(sp)
    3cd8:	01c12983          	lw	s3,28(sp)
    3cdc:	01812a03          	lw	s4,24(sp)
    3ce0:	01412a83          	lw	s5,20(sp)
    3ce4:	01012b03          	lw	s6,16(sp)
    3ce8:	00c12b83          	lw	s7,12(sp)
    3cec:	00812c03          	lw	s8,8(sp)
    3cf0:	00412c83          	lw	s9,4(sp)
    3cf4:	00012d03          	lw	s10,0(sp)
    3cf8:	03010113          	addi	sp,sp,48
    3cfc:	00008067          	ret
    3d00:	00040593          	mv	a1,s0
    3d04:	000a0513          	mv	a0,s4
    3d08:	c20ff0ef          	jal	ra,3128 <_fflush_r>
    3d0c:	fa0500e3          	beqz	a0,3cac <__sfvwrite_r+0x2ac>
    3d10:	00c41783          	lh	a5,12(s0)
    3d14:	0407e793          	ori	a5,a5,64
    3d18:	00f41623          	sh	a5,12(s0)
    3d1c:	fff00513          	li	a0,-1
    3d20:	fa9ff06f          	j	3cc8 <__sfvwrite_r+0x2c8>
    3d24:	00000513          	li	a0,0
    3d28:	00008067          	ret
    3d2c:	0044a983          	lw	s3,4(s1)
    3d30:	00048793          	mv	a5,s1
    3d34:	00848493          	addi	s1,s1,8
    3d38:	fe098ae3          	beqz	s3,3d2c <__sfvwrite_r+0x32c>
    3d3c:	0007ac03          	lw	s8,0(a5)
    3d40:	00098613          	mv	a2,s3
    3d44:	00a00593          	li	a1,10
    3d48:	000c0513          	mv	a0,s8
    3d4c:	1f1030ef          	jal	ra,773c <memchr>
    3d50:	12050e63          	beqz	a0,3e8c <__sfvwrite_r+0x48c>
    3d54:	00150513          	addi	a0,a0,1
    3d58:	41850ab3          	sub	s5,a0,s8
    3d5c:	ef9ff06f          	j	3c54 <__sfvwrite_r+0x254>
    3d60:	000c0593          	mv	a1,s8
    3d64:	00090613          	mv	a2,s2
    3d68:	3c5030ef          	jal	ra,792c <memmove>
    3d6c:	00042783          	lw	a5,0(s0)
    3d70:	00040593          	mv	a1,s0
    3d74:	000a0513          	mv	a0,s4
    3d78:	012787b3          	add	a5,a5,s2
    3d7c:	00f42023          	sw	a5,0(s0)
    3d80:	ba8ff0ef          	jal	ra,3128 <_fflush_r>
    3d84:	f0050ee3          	beqz	a0,3ca0 <__sfvwrite_r+0x2a0>
    3d88:	f89ff06f          	j	3d10 <__sfvwrite_r+0x310>
    3d8c:	01042683          	lw	a3,16(s0)
    3d90:	04f6e263          	bltu	a3,a5,3dd4 <__sfvwrite_r+0x3d4>
    3d94:	01442803          	lw	a6,20(s0)
    3d98:	0309ee63          	bltu	s3,a6,3dd4 <__sfvwrite_r+0x3d4>
    3d9c:	00098693          	mv	a3,s3
    3da0:	013b7463          	bgeu	s6,s3,3da8 <__sfvwrite_r+0x3a8>
    3da4:	000a8693          	mv	a3,s5
    3da8:	0306c6b3          	div	a3,a3,a6
    3dac:	02442783          	lw	a5,36(s0)
    3db0:	01c42583          	lw	a1,28(s0)
    3db4:	000c0613          	mv	a2,s8
    3db8:	000a0513          	mv	a0,s4
    3dbc:	030686b3          	mul	a3,a3,a6
    3dc0:	000780e7          	jalr	a5
    3dc4:	00050913          	mv	s2,a0
    3dc8:	f4a054e3          	blez	a0,3d10 <__sfvwrite_r+0x310>
    3dcc:	412989b3          	sub	s3,s3,s2
    3dd0:	e31ff06f          	j	3c00 <__sfvwrite_r+0x200>
    3dd4:	00070913          	mv	s2,a4
    3dd8:	00e9f463          	bgeu	s3,a4,3de0 <__sfvwrite_r+0x3e0>
    3ddc:	00098913          	mv	s2,s3
    3de0:	00078513          	mv	a0,a5
    3de4:	00090613          	mv	a2,s2
    3de8:	000c0593          	mv	a1,s8
    3dec:	341030ef          	jal	ra,792c <memmove>
    3df0:	00842703          	lw	a4,8(s0)
    3df4:	00042783          	lw	a5,0(s0)
    3df8:	41270733          	sub	a4,a4,s2
    3dfc:	012787b3          	add	a5,a5,s2
    3e00:	00e42423          	sw	a4,8(s0)
    3e04:	00f42023          	sw	a5,0(s0)
    3e08:	fc0712e3          	bnez	a4,3dcc <__sfvwrite_r+0x3cc>
    3e0c:	00040593          	mv	a1,s0
    3e10:	000a0513          	mv	a0,s4
    3e14:	b14ff0ef          	jal	ra,3128 <_fflush_r>
    3e18:	ee051ce3          	bnez	a0,3d10 <__sfvwrite_r+0x310>
    3e1c:	412989b3          	sub	s3,s3,s2
    3e20:	de1ff06f          	j	3c00 <__sfvwrite_r+0x200>
    3e24:	00098c93          	mv	s9,s3
    3e28:	00098d13          	mv	s10,s3
    3e2c:	da9ff06f          	j	3bd4 <__sfvwrite_r+0x1d4>
    3e30:	000b0613          	mv	a2,s6
    3e34:	000c0593          	mv	a1,s8
    3e38:	2f5030ef          	jal	ra,792c <memmove>
    3e3c:	00842703          	lw	a4,8(s0)
    3e40:	00042783          	lw	a5,0(s0)
    3e44:	000b0913          	mv	s2,s6
    3e48:	41670733          	sub	a4,a4,s6
    3e4c:	016787b3          	add	a5,a5,s6
    3e50:	00e42423          	sw	a4,8(s0)
    3e54:	00f42023          	sw	a5,0(s0)
    3e58:	e49ff06f          	j	3ca0 <__sfvwrite_r+0x2a0>
    3e5c:	000a0513          	mv	a0,s4
    3e60:	6d1040ef          	jal	ra,8d30 <_realloc_r>
    3e64:	00050d13          	mv	s10,a0
    3e68:	d40516e3          	bnez	a0,3bb4 <__sfvwrite_r+0x1b4>
    3e6c:	01042583          	lw	a1,16(s0)
    3e70:	000a0513          	mv	a0,s4
    3e74:	879ff0ef          	jal	ra,36ec <_free_r>
    3e78:	00c41783          	lh	a5,12(s0)
    3e7c:	00c00713          	li	a4,12
    3e80:	00ea2023          	sw	a4,0(s4)
    3e84:	f7f7f793          	andi	a5,a5,-129
    3e88:	e8dff06f          	j	3d14 <__sfvwrite_r+0x314>
    3e8c:	00198793          	addi	a5,s3,1
    3e90:	00078a93          	mv	s5,a5
    3e94:	dc5ff06f          	j	3c58 <__sfvwrite_r+0x258>
    3e98:	00c00713          	li	a4,12
    3e9c:	00c41783          	lh	a5,12(s0)
    3ea0:	00ea2023          	sw	a4,0(s4)
    3ea4:	e71ff06f          	j	3d14 <__sfvwrite_r+0x314>
    3ea8:	fff00513          	li	a0,-1
    3eac:	e1dff06f          	j	3cc8 <__sfvwrite_r+0x2c8>

00003eb0 <_fwalk>:
    3eb0:	fe010113          	addi	sp,sp,-32
    3eb4:	01212823          	sw	s2,16(sp)
    3eb8:	01312623          	sw	s3,12(sp)
    3ebc:	01412423          	sw	s4,8(sp)
    3ec0:	01512223          	sw	s5,4(sp)
    3ec4:	01612023          	sw	s6,0(sp)
    3ec8:	00112e23          	sw	ra,28(sp)
    3ecc:	00812c23          	sw	s0,24(sp)
    3ed0:	00912a23          	sw	s1,20(sp)
    3ed4:	00058b13          	mv	s6,a1
    3ed8:	2e050a93          	addi	s5,a0,736
    3edc:	00000a13          	li	s4,0
    3ee0:	00100993          	li	s3,1
    3ee4:	fff00913          	li	s2,-1
    3ee8:	004aa483          	lw	s1,4(s5) # 80000004 <_stack+0x7ffc0004>
    3eec:	008aa403          	lw	s0,8(s5)
    3ef0:	fff48493          	addi	s1,s1,-1
    3ef4:	0204c663          	bltz	s1,3f20 <_fwalk+0x70>
    3ef8:	00c45783          	lhu	a5,12(s0)
    3efc:	fff48493          	addi	s1,s1,-1
    3f00:	00f9fc63          	bgeu	s3,a5,3f18 <_fwalk+0x68>
    3f04:	00e41783          	lh	a5,14(s0)
    3f08:	00040513          	mv	a0,s0
    3f0c:	01278663          	beq	a5,s2,3f18 <_fwalk+0x68>
    3f10:	000b00e7          	jalr	s6
    3f14:	00aa6a33          	or	s4,s4,a0
    3f18:	06840413          	addi	s0,s0,104
    3f1c:	fd249ee3          	bne	s1,s2,3ef8 <_fwalk+0x48>
    3f20:	000aaa83          	lw	s5,0(s5)
    3f24:	fc0a92e3          	bnez	s5,3ee8 <_fwalk+0x38>
    3f28:	01c12083          	lw	ra,28(sp)
    3f2c:	01812403          	lw	s0,24(sp)
    3f30:	01412483          	lw	s1,20(sp)
    3f34:	01012903          	lw	s2,16(sp)
    3f38:	00c12983          	lw	s3,12(sp)
    3f3c:	00412a83          	lw	s5,4(sp)
    3f40:	00012b03          	lw	s6,0(sp)
    3f44:	000a0513          	mv	a0,s4
    3f48:	00812a03          	lw	s4,8(sp)
    3f4c:	02010113          	addi	sp,sp,32
    3f50:	00008067          	ret

00003f54 <_fwalk_reent>:
    3f54:	fd010113          	addi	sp,sp,-48
    3f58:	03212023          	sw	s2,32(sp)
    3f5c:	01312e23          	sw	s3,28(sp)
    3f60:	01412c23          	sw	s4,24(sp)
    3f64:	01512a23          	sw	s5,20(sp)
    3f68:	01612823          	sw	s6,16(sp)
    3f6c:	01712623          	sw	s7,12(sp)
    3f70:	02112623          	sw	ra,44(sp)
    3f74:	02812423          	sw	s0,40(sp)
    3f78:	02912223          	sw	s1,36(sp)
    3f7c:	00050a93          	mv	s5,a0
    3f80:	00058b93          	mv	s7,a1
    3f84:	2e050b13          	addi	s6,a0,736
    3f88:	00000a13          	li	s4,0
    3f8c:	00100993          	li	s3,1
    3f90:	fff00913          	li	s2,-1
    3f94:	004b2483          	lw	s1,4(s6)
    3f98:	008b2403          	lw	s0,8(s6)
    3f9c:	fff48493          	addi	s1,s1,-1
    3fa0:	0204c863          	bltz	s1,3fd0 <_fwalk_reent+0x7c>
    3fa4:	00c45783          	lhu	a5,12(s0)
    3fa8:	fff48493          	addi	s1,s1,-1
    3fac:	00f9fe63          	bgeu	s3,a5,3fc8 <_fwalk_reent+0x74>
    3fb0:	00e41783          	lh	a5,14(s0)
    3fb4:	00040593          	mv	a1,s0
    3fb8:	000a8513          	mv	a0,s5
    3fbc:	01278663          	beq	a5,s2,3fc8 <_fwalk_reent+0x74>
    3fc0:	000b80e7          	jalr	s7
    3fc4:	00aa6a33          	or	s4,s4,a0
    3fc8:	06840413          	addi	s0,s0,104
    3fcc:	fd249ce3          	bne	s1,s2,3fa4 <_fwalk_reent+0x50>
    3fd0:	000b2b03          	lw	s6,0(s6)
    3fd4:	fc0b10e3          	bnez	s6,3f94 <_fwalk_reent+0x40>
    3fd8:	02c12083          	lw	ra,44(sp)
    3fdc:	02812403          	lw	s0,40(sp)
    3fe0:	02412483          	lw	s1,36(sp)
    3fe4:	02012903          	lw	s2,32(sp)
    3fe8:	01c12983          	lw	s3,28(sp)
    3fec:	01412a83          	lw	s5,20(sp)
    3ff0:	01012b03          	lw	s6,16(sp)
    3ff4:	00c12b83          	lw	s7,12(sp)
    3ff8:	000a0513          	mv	a0,s4
    3ffc:	01812a03          	lw	s4,24(sp)
    4000:	03010113          	addi	sp,sp,48
    4004:	00008067          	ret

00004008 <eshdn1>:
    4008:	00450693          	addi	a3,a0,4
    400c:	00000793          	li	a5,0
    4010:	01a50513          	addi	a0,a0,26
    4014:	ffff8837          	lui	a6,0xffff8
    4018:	01c0006f          	j	4034 <eshdn1+0x2c>
    401c:	00179793          	slli	a5,a5,0x1
    4020:	00e69023          	sh	a4,0(a3)
    4024:	01079793          	slli	a5,a5,0x10
    4028:	00268693          	addi	a3,a3,2
    402c:	0107d793          	srli	a5,a5,0x10
    4030:	02d50e63          	beq	a0,a3,406c <eshdn1+0x64>
    4034:	0006d703          	lhu	a4,0(a3)
    4038:	00177613          	andi	a2,a4,1
    403c:	00060463          	beqz	a2,4044 <eshdn1+0x3c>
    4040:	0017e793          	ori	a5,a5,1
    4044:	00175713          	srli	a4,a4,0x1
    4048:	0027f613          	andi	a2,a5,2
    404c:	010765b3          	or	a1,a4,a6
    4050:	fc0606e3          	beqz	a2,401c <eshdn1+0x14>
    4054:	00179793          	slli	a5,a5,0x1
    4058:	00b69023          	sh	a1,0(a3)
    405c:	01079793          	slli	a5,a5,0x10
    4060:	00268693          	addi	a3,a3,2
    4064:	0107d793          	srli	a5,a5,0x10
    4068:	fcd516e3          	bne	a0,a3,4034 <eshdn1+0x2c>
    406c:	00008067          	ret

00004070 <eshup1>:
    4070:	01850693          	addi	a3,a0,24
    4074:	00000713          	li	a4,0
    4078:	00250513          	addi	a0,a0,2
    407c:	01c0006f          	j	4098 <eshup1+0x28>
    4080:	00171713          	slli	a4,a4,0x1
    4084:	00f69023          	sh	a5,0(a3)
    4088:	01071713          	slli	a4,a4,0x10
    408c:	ffe68693          	addi	a3,a3,-2
    4090:	01075713          	srli	a4,a4,0x10
    4094:	04d50463          	beq	a0,a3,40dc <eshup1+0x6c>
    4098:	0006d783          	lhu	a5,0(a3)
    409c:	01079613          	slli	a2,a5,0x10
    40a0:	41065613          	srai	a2,a2,0x10
    40a4:	00179793          	slli	a5,a5,0x1
    40a8:	00065463          	bgez	a2,40b0 <eshup1+0x40>
    40ac:	00176713          	ori	a4,a4,1
    40b0:	01079793          	slli	a5,a5,0x10
    40b4:	0107d793          	srli	a5,a5,0x10
    40b8:	00277613          	andi	a2,a4,2
    40bc:	0017e593          	ori	a1,a5,1
    40c0:	fc0600e3          	beqz	a2,4080 <eshup1+0x10>
    40c4:	00171713          	slli	a4,a4,0x1
    40c8:	00b69023          	sh	a1,0(a3)
    40cc:	01071713          	slli	a4,a4,0x10
    40d0:	ffe68693          	addi	a3,a3,-2
    40d4:	01075713          	srli	a4,a4,0x10
    40d8:	fcd510e3          	bne	a0,a3,4098 <eshup1+0x28>
    40dc:	00008067          	ret

000040e0 <m16m>:
    40e0:	fe010113          	addi	sp,sp,-32
    40e4:	00010e37          	lui	t3,0x10
    40e8:	00011d23          	sh	zero,26(sp)
    40ec:	00011e23          	sh	zero,28(sp)
    40f0:	01858593          	addi	a1,a1,24
    40f4:	01c10793          	addi	a5,sp,28
    40f8:	00810813          	addi	a6,sp,8
    40fc:	fffe0e13          	addi	t3,t3,-1 # ffff <__divdf3+0x58f>
    4100:	0005d703          	lhu	a4,0(a1)
    4104:	ffe78793          	addi	a5,a5,-2
    4108:	ffe58593          	addi	a1,a1,-2
    410c:	02070a63          	beqz	a4,4140 <m16m+0x60>
    4110:	02a70733          	mul	a4,a4,a0
    4114:	0027d883          	lhu	a7,2(a5)
    4118:	0007d303          	lhu	t1,0(a5)
    411c:	01c776b3          	and	a3,a4,t3
    4120:	011686b3          	add	a3,a3,a7
    4124:	01075713          	srli	a4,a4,0x10
    4128:	0106d893          	srli	a7,a3,0x10
    412c:	00670733          	add	a4,a4,t1
    4130:	01170733          	add	a4,a4,a7
    4134:	00e79023          	sh	a4,0(a5)
    4138:	00d79123          	sh	a3,2(a5)
    413c:	01075713          	srli	a4,a4,0x10
    4140:	fee79f23          	sh	a4,-2(a5)
    4144:	fb079ee3          	bne	a5,a6,4100 <m16m+0x20>
    4148:	00460613          	addi	a2,a2,4
    414c:	01e10693          	addi	a3,sp,30
    4150:	0007d703          	lhu	a4,0(a5)
    4154:	00278793          	addi	a5,a5,2
    4158:	00260613          	addi	a2,a2,2
    415c:	fee61f23          	sh	a4,-2(a2)
    4160:	fed798e3          	bne	a5,a3,4150 <m16m+0x70>
    4164:	02010113          	addi	sp,sp,32
    4168:	00008067          	ret

0000416c <emovo.constprop.0>:
    416c:	00055703          	lhu	a4,0(a0)
    4170:	00255783          	lhu	a5,2(a0)
    4174:	00070663          	beqz	a4,4180 <emovo.constprop.0+0x14>
    4178:	00008737          	lui	a4,0x8
    417c:	00e7e7b3          	or	a5,a5,a4
    4180:	00f59923          	sh	a5,18(a1)
    4184:	00255703          	lhu	a4,2(a0)
    4188:	000087b7          	lui	a5,0x8
    418c:	fff78793          	addi	a5,a5,-1 # 7fff <__i2b+0x2b>
    4190:	02f70463          	beq	a4,a5,41b8 <emovo.constprop.0+0x4c>
    4194:	00650793          	addi	a5,a0,6
    4198:	01058593          	addi	a1,a1,16
    419c:	01850513          	addi	a0,a0,24
    41a0:	0007d703          	lhu	a4,0(a5)
    41a4:	00278793          	addi	a5,a5,2
    41a8:	ffe58593          	addi	a1,a1,-2
    41ac:	00e59123          	sh	a4,2(a1)
    41b0:	fea798e3          	bne	a5,a0,41a0 <emovo.constprop.0+0x34>
    41b4:	00008067          	ret
    41b8:	00650793          	addi	a5,a0,6
    41bc:	01a50513          	addi	a0,a0,26
    41c0:	0007d703          	lhu	a4,0(a5)
    41c4:	00278793          	addi	a5,a5,2
    41c8:	02071a63          	bnez	a4,41fc <emovo.constprop.0+0x90>
    41cc:	fea79ae3          	bne	a5,a0,41c0 <emovo.constprop.0+0x54>
    41d0:	01258713          	addi	a4,a1,18
    41d4:	00058793          	mv	a5,a1
    41d8:	00278793          	addi	a5,a5,2
    41dc:	fe079f23          	sh	zero,-2(a5)
    41e0:	fef71ce3          	bne	a4,a5,41d8 <emovo.constprop.0+0x6c>
    41e4:	0125d783          	lhu	a5,18(a1)
    41e8:	00008737          	lui	a4,0x8
    41ec:	fff70713          	addi	a4,a4,-1 # 7fff <__i2b+0x2b>
    41f0:	00e7e7b3          	or	a5,a5,a4
    41f4:	00f59923          	sh	a5,18(a1)
    41f8:	00008067          	ret
    41fc:	01058713          	addi	a4,a1,16
    4200:	00058793          	mv	a5,a1
    4204:	00278793          	addi	a5,a5,2
    4208:	fe079f23          	sh	zero,-2(a5)
    420c:	fef71ce3          	bne	a4,a5,4204 <emovo.constprop.0+0x98>
    4210:	ffffc7b7          	lui	a5,0xffffc
    4214:	00f59823          	sh	a5,16(a1)
    4218:	ffff87b7          	lui	a5,0xffff8
    421c:	fff7c793          	not	a5,a5
    4220:	00f59923          	sh	a5,18(a1)
    4224:	00008067          	ret

00004228 <enormlz>:
    4228:	00455783          	lhu	a5,4(a0)
    422c:	ff010113          	addi	sp,sp,-16
    4230:	00912223          	sw	s1,4(sp)
    4234:	00112623          	sw	ra,12(sp)
    4238:	00812423          	sw	s0,8(sp)
    423c:	01212023          	sw	s2,0(sp)
    4240:	00050493          	mv	s1,a0
    4244:	0c079c63          	bnez	a5,431c <enormlz+0xf4>
    4248:	00655703          	lhu	a4,6(a0)
    424c:	00000413          	li	s0,0
    4250:	01071793          	slli	a5,a4,0x10
    4254:	4107d793          	srai	a5,a5,0x10
    4258:	0a07c463          	bltz	a5,4300 <enormlz+0xd8>
    425c:	01a50693          	addi	a3,a0,26
    4260:	0a000613          	li	a2,160
    4264:	02071863          	bnez	a4,4294 <enormlz+0x6c>
    4268:	00648793          	addi	a5,s1,6
    426c:	0080006f          	j	4274 <enormlz+0x4c>
    4270:	0007d703          	lhu	a4,0(a5) # ffff8000 <_stack+0xfffb8000>
    4274:	00278793          	addi	a5,a5,2
    4278:	fee79e23          	sh	a4,-4(a5)
    427c:	fed79ae3          	bne	a5,a3,4270 <enormlz+0x48>
    4280:	00049c23          	sh	zero,24(s1)
    4284:	01040413          	addi	s0,s0,16
    4288:	06c40c63          	beq	s0,a2,4300 <enormlz+0xd8>
    428c:	0064d703          	lhu	a4,6(s1)
    4290:	fc070ce3          	beqz	a4,4268 <enormlz+0x40>
    4294:	f0077793          	andi	a5,a4,-256
    4298:	04079063          	bnez	a5,42d8 <enormlz+0xb0>
    429c:	01848513          	addi	a0,s1,24
    42a0:	00248593          	addi	a1,s1,2
    42a4:	00000793          	li	a5,0
    42a8:	00050713          	mv	a4,a0
    42ac:	00075683          	lhu	a3,0(a4)
    42b0:	ffe70713          	addi	a4,a4,-2
    42b4:	00869613          	slli	a2,a3,0x8
    42b8:	00c7e7b3          	or	a5,a5,a2
    42bc:	00f71123          	sh	a5,2(a4)
    42c0:	0086d793          	srli	a5,a3,0x8
    42c4:	feb714e3          	bne	a4,a1,42ac <enormlz+0x84>
    42c8:	0064d703          	lhu	a4,6(s1)
    42cc:	00840413          	addi	s0,s0,8
    42d0:	f0077793          	andi	a5,a4,-256
    42d4:	fc0788e3          	beqz	a5,42a4 <enormlz+0x7c>
    42d8:	0a000913          	li	s2,160
    42dc:	0140006f          	j	42f0 <enormlz+0xc8>
    42e0:	00140413          	addi	s0,s0,1
    42e4:	d8dff0ef          	jal	ra,4070 <eshup1>
    42e8:	00894c63          	blt	s2,s0,4300 <enormlz+0xd8>
    42ec:	0064d703          	lhu	a4,6(s1)
    42f0:	01071713          	slli	a4,a4,0x10
    42f4:	41075713          	srai	a4,a4,0x10
    42f8:	00048513          	mv	a0,s1
    42fc:	fe0752e3          	bgez	a4,42e0 <enormlz+0xb8>
    4300:	00c12083          	lw	ra,12(sp)
    4304:	00040513          	mv	a0,s0
    4308:	00812403          	lw	s0,8(sp)
    430c:	00412483          	lw	s1,4(sp)
    4310:	00012903          	lw	s2,0(sp)
    4314:	01010113          	addi	sp,sp,16
    4318:	00008067          	ret
    431c:	f007f713          	andi	a4,a5,-256
    4320:	00000413          	li	s0,0
    4324:	04071063          	bnez	a4,4364 <enormlz+0x13c>
    4328:	f6f00913          	li	s2,-145
    432c:	0140006f          	j	4340 <enormlz+0x118>
    4330:	fff40413          	addi	s0,s0,-1
    4334:	cd5ff0ef          	jal	ra,4008 <eshdn1>
    4338:	fd2404e3          	beq	s0,s2,4300 <enormlz+0xd8>
    433c:	0044d783          	lhu	a5,4(s1)
    4340:	00048513          	mv	a0,s1
    4344:	fe0796e3          	bnez	a5,4330 <enormlz+0x108>
    4348:	00c12083          	lw	ra,12(sp)
    434c:	00040513          	mv	a0,s0
    4350:	00812403          	lw	s0,8(sp)
    4354:	00412483          	lw	s1,4(sp)
    4358:	00012903          	lw	s2,0(sp)
    435c:	01010113          	addi	sp,sp,16
    4360:	00008067          	ret
    4364:	00450693          	addi	a3,a0,4
    4368:	01a50593          	addi	a1,a0,26
    436c:	00000713          	li	a4,0
    4370:	0080006f          	j	4378 <enormlz+0x150>
    4374:	0006d783          	lhu	a5,0(a3)
    4378:	0087d613          	srli	a2,a5,0x8
    437c:	00c76733          	or	a4,a4,a2
    4380:	00879793          	slli	a5,a5,0x8
    4384:	00e69023          	sh	a4,0(a3)
    4388:	01079713          	slli	a4,a5,0x10
    438c:	00268693          	addi	a3,a3,2
    4390:	01075713          	srli	a4,a4,0x10
    4394:	fed590e3          	bne	a1,a3,4374 <enormlz+0x14c>
    4398:	0044d783          	lhu	a5,4(s1)
    439c:	ff800413          	li	s0,-8
    43a0:	f89ff06f          	j	4328 <enormlz+0x100>

000043a4 <eshift.part.0>:
    43a4:	fe010113          	addi	sp,sp,-32
    43a8:	00812c23          	sw	s0,24(sp)
    43ac:	00912a23          	sw	s1,20(sp)
    43b0:	00112e23          	sw	ra,28(sp)
    43b4:	01212823          	sw	s2,16(sp)
    43b8:	01312623          	sw	s3,12(sp)
    43bc:	00058493          	mv	s1,a1
    43c0:	00050413          	mv	s0,a0
    43c4:	0a05c463          	bltz	a1,446c <eshift.part.0+0xc8>
    43c8:	00f00793          	li	a5,15
    43cc:	00058613          	mv	a2,a1
    43d0:	00450513          	addi	a0,a0,4
    43d4:	01840693          	addi	a3,s0,24
    43d8:	00f00593          	li	a1,15
    43dc:	0297d463          	bge	a5,s1,4404 <eshift.part.0+0x60>
    43e0:	00050793          	mv	a5,a0
    43e4:	0027d703          	lhu	a4,2(a5)
    43e8:	00278793          	addi	a5,a5,2
    43ec:	fee79f23          	sh	a4,-2(a5)
    43f0:	fef69ae3          	bne	a3,a5,43e4 <eshift.part.0+0x40>
    43f4:	00041c23          	sh	zero,24(s0)
    43f8:	ff060613          	addi	a2,a2,-16
    43fc:	fec5c2e3          	blt	a1,a2,43e0 <eshift.part.0+0x3c>
    4400:	00f4f493          	andi	s1,s1,15
    4404:	00700793          	li	a5,7
    4408:	0297d863          	bge	a5,s1,4438 <eshift.part.0+0x94>
    440c:	01840713          	addi	a4,s0,24
    4410:	00240593          	addi	a1,s0,2
    4414:	00000793          	li	a5,0
    4418:	00075683          	lhu	a3,0(a4)
    441c:	ffe70713          	addi	a4,a4,-2
    4420:	00869613          	slli	a2,a3,0x8
    4424:	00c7e7b3          	or	a5,a5,a2
    4428:	00f71123          	sh	a5,2(a4)
    442c:	0086d793          	srli	a5,a3,0x8
    4430:	fee594e3          	bne	a1,a4,4418 <eshift.part.0+0x74>
    4434:	ff848493          	addi	s1,s1,-8
    4438:	00048a63          	beqz	s1,444c <eshift.part.0+0xa8>
    443c:	fff48493          	addi	s1,s1,-1
    4440:	00040513          	mv	a0,s0
    4444:	c2dff0ef          	jal	ra,4070 <eshup1>
    4448:	fe049ae3          	bnez	s1,443c <eshift.part.0+0x98>
    444c:	01c12083          	lw	ra,28(sp)
    4450:	01812403          	lw	s0,24(sp)
    4454:	01412483          	lw	s1,20(sp)
    4458:	01012903          	lw	s2,16(sp)
    445c:	00c12983          	lw	s3,12(sp)
    4460:	00000513          	li	a0,0
    4464:	02010113          	addi	sp,sp,32
    4468:	00008067          	ret
    446c:	ff100793          	li	a5,-15
    4470:	40b00933          	neg	s2,a1
    4474:	08f5de63          	bge	a1,a5,4510 <eshift.part.0+0x16c>
    4478:	01850593          	addi	a1,a0,24
    447c:	00000993          	li	s3,0
    4480:	00450693          	addi	a3,a0,4
    4484:	00f00613          	li	a2,15
    4488:	01845703          	lhu	a4,24(s0)
    448c:	00058793          	mv	a5,a1
    4490:	00e9e9b3          	or	s3,s3,a4
    4494:	ffe7d703          	lhu	a4,-2(a5)
    4498:	ffe78793          	addi	a5,a5,-2
    449c:	00e79123          	sh	a4,2(a5)
    44a0:	fed79ae3          	bne	a5,a3,4494 <eshift.part.0+0xf0>
    44a4:	00041223          	sh	zero,4(s0)
    44a8:	ff090913          	addi	s2,s2,-16
    44ac:	fd264ee3          	blt	a2,s2,4488 <eshift.part.0+0xe4>
    44b0:	ff000913          	li	s2,-16
    44b4:	ff100713          	li	a4,-15
    44b8:	40990933          	sub	s2,s2,s1
    44bc:	00000793          	li	a5,0
    44c0:	08e4ce63          	blt	s1,a4,455c <eshift.part.0+0x1b8>
    44c4:	00f90933          	add	s2,s2,a5
    44c8:	00700793          	li	a5,7
    44cc:	0527ca63          	blt	a5,s2,4520 <eshift.part.0+0x17c>
    44d0:	02090063          	beqz	s2,44f0 <eshift.part.0+0x14c>
    44d4:	01845783          	lhu	a5,24(s0)
    44d8:	fff90913          	addi	s2,s2,-1
    44dc:	00040513          	mv	a0,s0
    44e0:	0017f793          	andi	a5,a5,1
    44e4:	00f9e9b3          	or	s3,s3,a5
    44e8:	b21ff0ef          	jal	ra,4008 <eshdn1>
    44ec:	fe0914e3          	bnez	s2,44d4 <eshift.part.0+0x130>
    44f0:	01c12083          	lw	ra,28(sp)
    44f4:	01812403          	lw	s0,24(sp)
    44f8:	01412483          	lw	s1,20(sp)
    44fc:	01012903          	lw	s2,16(sp)
    4500:	01303533          	snez	a0,s3
    4504:	00c12983          	lw	s3,12(sp)
    4508:	02010113          	addi	sp,sp,32
    450c:	00008067          	ret
    4510:	ff900793          	li	a5,-7
    4514:	00000993          	li	s3,0
    4518:	00450693          	addi	a3,a0,4
    451c:	faf5dce3          	bge	a1,a5,44d4 <eshift.part.0+0x130>
    4520:	01844783          	lbu	a5,24(s0)
    4524:	01a40593          	addi	a1,s0,26
    4528:	00f9e9b3          	or	s3,s3,a5
    452c:	00000793          	li	a5,0
    4530:	0006d703          	lhu	a4,0(a3)
    4534:	00268693          	addi	a3,a3,2
    4538:	00875613          	srli	a2,a4,0x8
    453c:	00c7e7b3          	or	a5,a5,a2
    4540:	00871713          	slli	a4,a4,0x8
    4544:	fef69f23          	sh	a5,-2(a3)
    4548:	01071793          	slli	a5,a4,0x10
    454c:	0107d793          	srli	a5,a5,0x10
    4550:	feb690e3          	bne	a3,a1,4530 <eshift.part.0+0x18c>
    4554:	ff890913          	addi	s2,s2,-8
    4558:	f79ff06f          	j	44d0 <eshift.part.0+0x12c>
    455c:	ff097793          	andi	a5,s2,-16
    4560:	40f007b3          	neg	a5,a5
    4564:	00f90933          	add	s2,s2,a5
    4568:	00700793          	li	a5,7
    456c:	f727d2e3          	bge	a5,s2,44d0 <eshift.part.0+0x12c>
    4570:	fb1ff06f          	j	4520 <eshift.part.0+0x17c>

00004574 <emovi>:
    4574:	01255783          	lhu	a5,18(a0)
    4578:	00008637          	lui	a2,0x8
    457c:	fff60613          	addi	a2,a2,-1 # 7fff <__i2b+0x2b>
    4580:	00f7d793          	srli	a5,a5,0xf
    4584:	40f007b3          	neg	a5,a5
    4588:	00f59023          	sh	a5,0(a1)
    458c:	01255683          	lhu	a3,18(a0)
    4590:	01050793          	addi	a5,a0,16
    4594:	00458713          	addi	a4,a1,4
    4598:	00c6f6b3          	and	a3,a3,a2
    459c:	00d59123          	sh	a3,2(a1)
    45a0:	02c68663          	beq	a3,a2,45cc <emovi+0x58>
    45a4:	00658713          	addi	a4,a1,6
    45a8:	00059223          	sh	zero,4(a1)
    45ac:	ffe50513          	addi	a0,a0,-2
    45b0:	0007d683          	lhu	a3,0(a5)
    45b4:	ffe78793          	addi	a5,a5,-2
    45b8:	00270713          	addi	a4,a4,2
    45bc:	fed71f23          	sh	a3,-2(a4)
    45c0:	fef518e3          	bne	a0,a5,45b0 <emovi+0x3c>
    45c4:	00059c23          	sh	zero,24(a1)
    45c8:	00008067          	ret
    45cc:	01255603          	lhu	a2,18(a0)
    45d0:	00d67633          	and	a2,a2,a3
    45d4:	00d61e63          	bne	a2,a3,45f0 <emovi+0x7c>
    45d8:	01250813          	addi	a6,a0,18
    45dc:	00050693          	mv	a3,a0
    45e0:	0006d603          	lhu	a2,0(a3)
    45e4:	00268693          	addi	a3,a3,2
    45e8:	00061e63          	bnez	a2,4604 <emovi+0x90>
    45ec:	ff069ae3          	bne	a3,a6,45e0 <emovi+0x6c>
    45f0:	01a58593          	addi	a1,a1,26
    45f4:	00270713          	addi	a4,a4,2
    45f8:	fe071f23          	sh	zero,-2(a4)
    45fc:	fee59ce3          	bne	a1,a4,45f4 <emovi+0x80>
    4600:	00008067          	ret
    4604:	00658713          	addi	a4,a1,6
    4608:	00059223          	sh	zero,4(a1)
    460c:	ffc50513          	addi	a0,a0,-4
    4610:	0007d683          	lhu	a3,0(a5)
    4614:	ffe78793          	addi	a5,a5,-2
    4618:	00270713          	addi	a4,a4,2
    461c:	fed71f23          	sh	a3,-2(a4)
    4620:	fea798e3          	bne	a5,a0,4610 <emovi+0x9c>
    4624:	00008067          	ret

00004628 <ecmp>:
    4628:	01255783          	lhu	a5,18(a0)
    462c:	fb010113          	addi	sp,sp,-80
    4630:	04812423          	sw	s0,72(sp)
    4634:	fff7c793          	not	a5,a5
    4638:	04112623          	sw	ra,76(sp)
    463c:	01179713          	slli	a4,a5,0x11
    4640:	00058413          	mv	s0,a1
    4644:	00071e63          	bnez	a4,4660 <ecmp+0x38>
    4648:	01250693          	addi	a3,a0,18
    464c:	00050793          	mv	a5,a0
    4650:	0007d703          	lhu	a4,0(a5)
    4654:	00278793          	addi	a5,a5,2
    4658:	08071c63          	bnez	a4,46f0 <ecmp+0xc8>
    465c:	fed79ae3          	bne	a5,a3,4650 <ecmp+0x28>
    4660:	01245783          	lhu	a5,18(s0)
    4664:	fff7c793          	not	a5,a5
    4668:	01179713          	slli	a4,a5,0x11
    466c:	06070063          	beqz	a4,46cc <ecmp+0xa4>
    4670:	00810593          	addi	a1,sp,8
    4674:	f01ff0ef          	jal	ra,4574 <emovi>
    4678:	02410593          	addi	a1,sp,36
    467c:	00040513          	mv	a0,s0
    4680:	ef5ff0ef          	jal	ra,4574 <emovi>
    4684:	00815583          	lhu	a1,8(sp)
    4688:	02415503          	lhu	a0,36(sp)
    468c:	06b50c63          	beq	a0,a1,4704 <ecmp+0xdc>
    4690:	00a10793          	addi	a5,sp,10
    4694:	02610713          	addi	a4,sp,38
    4698:	02010613          	addi	a2,sp,32
    469c:	0007d683          	lhu	a3,0(a5)
    46a0:	00278793          	addi	a5,a5,2
    46a4:	0a069863          	bnez	a3,4754 <ecmp+0x12c>
    46a8:	00075683          	lhu	a3,0(a4)
    46ac:	00270713          	addi	a4,a4,2
    46b0:	0a069263          	bnez	a3,4754 <ecmp+0x12c>
    46b4:	fef614e3          	bne	a2,a5,469c <ecmp+0x74>
    46b8:	00000513          	li	a0,0
    46bc:	04c12083          	lw	ra,76(sp)
    46c0:	04812403          	lw	s0,72(sp)
    46c4:	05010113          	addi	sp,sp,80
    46c8:	00008067          	ret
    46cc:	00040793          	mv	a5,s0
    46d0:	0007d703          	lhu	a4,0(a5)
    46d4:	01240693          	addi	a3,s0,18
    46d8:	00278793          	addi	a5,a5,2
    46dc:	00071a63          	bnez	a4,46f0 <ecmp+0xc8>
    46e0:	f8d788e3          	beq	a5,a3,4670 <ecmp+0x48>
    46e4:	0007d703          	lhu	a4,0(a5)
    46e8:	00278793          	addi	a5,a5,2
    46ec:	fe070ae3          	beqz	a4,46e0 <ecmp+0xb8>
    46f0:	04c12083          	lw	ra,76(sp)
    46f4:	04812403          	lw	s0,72(sp)
    46f8:	ffe00513          	li	a0,-2
    46fc:	05010113          	addi	sp,sp,80
    4700:	00008067          	ret
    4704:	00a15603          	lhu	a2,10(sp)
    4708:	02615683          	lhu	a3,38(sp)
    470c:	00153513          	seqz	a0,a0
    4710:	00a10713          	addi	a4,sp,10
    4714:	02610793          	addi	a5,sp,38
    4718:	00151513          	slli	a0,a0,0x1
    471c:	fff50513          	addi	a0,a0,-1
    4720:	03c10593          	addi	a1,sp,60
    4724:	00278793          	addi	a5,a5,2
    4728:	00270713          	addi	a4,a4,2
    472c:	00d61e63          	bne	a2,a3,4748 <ecmp+0x120>
    4730:	f8b784e3          	beq	a5,a1,46b8 <ecmp+0x90>
    4734:	00075603          	lhu	a2,0(a4)
    4738:	0007d683          	lhu	a3,0(a5)
    473c:	00270713          	addi	a4,a4,2
    4740:	00278793          	addi	a5,a5,2
    4744:	fed606e3          	beq	a2,a3,4730 <ecmp+0x108>
    4748:	f6c6eae3          	bltu	a3,a2,46bc <ecmp+0x94>
    474c:	40a00533          	neg	a0,a0
    4750:	f6dff06f          	j	46bc <ecmp+0x94>
    4754:	00100513          	li	a0,1
    4758:	f60582e3          	beqz	a1,46bc <ecmp+0x94>
    475c:	fff00513          	li	a0,-1
    4760:	f5dff06f          	j	46bc <ecmp+0x94>

00004764 <emdnorm>:
    4764:	fd010113          	addi	sp,sp,-48
    4768:	02812423          	sw	s0,40(sp)
    476c:	03212023          	sw	s2,32(sp)
    4770:	01312e23          	sw	s3,28(sp)
    4774:	01412c23          	sw	s4,24(sp)
    4778:	01512a23          	sw	s5,20(sp)
    477c:	01712623          	sw	s7,12(sp)
    4780:	00078913          	mv	s2,a5
    4784:	00068b93          	mv	s7,a3
    4788:	02112623          	sw	ra,44(sp)
    478c:	02912223          	sw	s1,36(sp)
    4790:	01612823          	sw	s6,16(sp)
    4794:	00050413          	mv	s0,a0
    4798:	00058993          	mv	s3,a1
    479c:	00060a13          	mv	s4,a2
    47a0:	00070a93          	mv	s5,a4
    47a4:	a85ff0ef          	jal	ra,4228 <enormlz>
    47a8:	09000793          	li	a5,144
    47ac:	40ab8bb3          	sub	s7,s7,a0
    47b0:	14a7d463          	bge	a5,a0,48f8 <emdnorm+0x194>
    47b4:	000087b7          	lui	a5,0x8
    47b8:	ffe78793          	addi	a5,a5,-2 # 7ffe <__i2b+0x2a>
    47bc:	2777d263          	bge	a5,s7,4a20 <emdnorm+0x2bc>
    47c0:	220a8c63          	beqz	s5,49f8 <emdnorm+0x294>
    47c4:	00492a83          	lw	s5,4(s2)
    47c8:	00092683          	lw	a3,0(s2)
    47cc:	01a90713          	addi	a4,s2,26
    47d0:	03490793          	addi	a5,s2,52
    47d4:	2ada8063          	beq	s5,a3,4a74 <emdnorm+0x310>
    47d8:	00270713          	addi	a4,a4,2
    47dc:	fe071f23          	sh	zero,-2(a4)
    47e0:	fee79ce3          	bne	a5,a4,47d8 <emdnorm+0x74>
    47e4:	03800793          	li	a5,56
    47e8:	32fa8263          	beq	s5,a5,4b0c <emdnorm+0x3a8>
    47ec:	1357d863          	bge	a5,s5,491c <emdnorm+0x1b8>
    47f0:	04000793          	li	a5,64
    47f4:	2afa8863          	beq	s5,a5,4aa4 <emdnorm+0x340>
    47f8:	07100793          	li	a5,113
    47fc:	32fa9663          	bne	s5,a5,4b28 <emdnorm+0x3c4>
    4800:	00008737          	lui	a4,0x8
    4804:	fff70713          	addi	a4,a4,-1 # 7fff <__i2b+0x2b>
    4808:	000045b7          	lui	a1,0x4
    480c:	01400b13          	li	s6,20
    4810:	00a00493          	li	s1,10
    4814:	000087b7          	lui	a5,0x8
    4818:	00a00613          	li	a2,10
    481c:	00860693          	addi	a3,a2,8
    4820:	00169693          	slli	a3,a3,0x1
    4824:	00e91a23          	sh	a4,20(s2)
    4828:	00992423          	sw	s1,8(s2)
    482c:	00b91b23          	sh	a1,22(s2)
    4830:	00f91c23          	sh	a5,24(s2)
    4834:	00c92623          	sw	a2,12(s2)
    4838:	00d90733          	add	a4,s2,a3
    483c:	00f71523          	sh	a5,10(a4)
    4840:	01592023          	sw	s5,0(s2)
    4844:	01640b33          	add	s6,s0,s6
    4848:	23705e63          	blez	s7,4a84 <emdnorm+0x320>
    484c:	000b5783          	lhu	a5,0(s6)
    4850:	01495703          	lhu	a4,20(s2)
    4854:	08f00693          	li	a3,143
    4858:	00e7f633          	and	a2,a5,a4
    485c:	0356cc63          	blt	a3,s5,4894 <emdnorm+0x130>
    4860:	00b00693          	li	a3,11
    4864:	0296c863          	blt	a3,s1,4894 <emdnorm+0x130>
    4868:	00149713          	slli	a4,s1,0x1
    486c:	00e40733          	add	a4,s0,a4
    4870:	01840693          	addi	a3,s0,24
    4874:	00275783          	lhu	a5,2(a4)
    4878:	00078463          	beqz	a5,4880 <emdnorm+0x11c>
    487c:	00166613          	ori	a2,a2,1
    4880:	00071123          	sh	zero,2(a4)
    4884:	00270713          	addi	a4,a4,2
    4888:	fee696e3          	bne	a3,a4,4874 <emdnorm+0x110>
    488c:	000b5783          	lhu	a5,0(s6)
    4890:	01495703          	lhu	a4,20(s2)
    4894:	fff74713          	not	a4,a4
    4898:	00e7f7b3          	and	a5,a5,a4
    489c:	00fb1023          	sh	a5,0(s6)
    48a0:	01695783          	lhu	a5,22(s2)
    48a4:	00c7f733          	and	a4,a5,a2
    48a8:	0c071463          	bnez	a4,4970 <emdnorm+0x20c>
    48ac:	13705263          	blez	s7,49d0 <emdnorm+0x26c>
    48b0:	00445783          	lhu	a5,4(s0)
    48b4:	22079663          	bnez	a5,4ae0 <emdnorm+0x37c>
    48b8:	000087b7          	lui	a5,0x8
    48bc:	00041c23          	sh	zero,24(s0)
    48c0:	ffe78793          	addi	a5,a5,-2 # 7ffe <__i2b+0x2a>
    48c4:	1377cc63          	blt	a5,s7,49fc <emdnorm+0x298>
    48c8:	01741123          	sh	s7,2(s0)
    48cc:	02c12083          	lw	ra,44(sp)
    48d0:	02812403          	lw	s0,40(sp)
    48d4:	02412483          	lw	s1,36(sp)
    48d8:	02012903          	lw	s2,32(sp)
    48dc:	01c12983          	lw	s3,28(sp)
    48e0:	01812a03          	lw	s4,24(sp)
    48e4:	01412a83          	lw	s5,20(sp)
    48e8:	01012b03          	lw	s6,16(sp)
    48ec:	00c12b83          	lw	s7,12(sp)
    48f0:	03010113          	addi	sp,sp,48
    48f4:	00008067          	ret
    48f8:	160bd263          	bgez	s7,4a5c <emdnorm+0x2f8>
    48fc:	f7000793          	li	a5,-144
    4900:	12fbdc63          	bge	s7,a5,4a38 <emdnorm+0x2d4>
    4904:	00240793          	addi	a5,s0,2
    4908:	01a40413          	addi	s0,s0,26
    490c:	00278793          	addi	a5,a5,2
    4910:	fe079f23          	sh	zero,-2(a5)
    4914:	fe879ce3          	bne	a5,s0,490c <emdnorm+0x1a8>
    4918:	fb5ff06f          	j	48cc <emdnorm+0x168>
    491c:	01800793          	li	a5,24
    4920:	1afa8263          	beq	s5,a5,4ac4 <emdnorm+0x360>
    4924:	03500793          	li	a5,53
    4928:	20fa9063          	bne	s5,a5,4b28 <emdnorm+0x3c4>
    492c:	000017b7          	lui	a5,0x1
    4930:	7ff00713          	li	a4,2047
    4934:	40000593          	li	a1,1024
    4938:	00c00b13          	li	s6,12
    493c:	00600493          	li	s1,6
    4940:	80078793          	addi	a5,a5,-2048 # 800 <_vfprintf_r+0x560>
    4944:	00600613          	li	a2,6
    4948:	ed5ff06f          	j	481c <emdnorm+0xb8>
    494c:	01495703          	lhu	a4,20(s2)
    4950:	000b5603          	lhu	a2,0(s6)
    4954:	fff74793          	not	a5,a4
    4958:	00f677b3          	and	a5,a2,a5
    495c:	00fb1023          	sh	a5,0(s6)
    4960:	01695783          	lhu	a5,22(s2)
    4964:	00e67633          	and	a2,a2,a4
    4968:	00c7f733          	and	a4,a5,a2
    496c:	06070a63          	beqz	a4,49e0 <emdnorm+0x27c>
    4970:	02c79263          	bne	a5,a2,4994 <emdnorm+0x230>
    4974:	18099863          	bnez	s3,4b04 <emdnorm+0x3a0>
    4978:	00c92783          	lw	a5,12(s2)
    497c:	01895703          	lhu	a4,24(s2)
    4980:	00179793          	slli	a5,a5,0x1
    4984:	00f407b3          	add	a5,s0,a5
    4988:	0007d783          	lhu	a5,0(a5)
    498c:	00e7f7b3          	and	a5,a5,a4
    4990:	f0078ee3          	beqz	a5,48ac <emdnorm+0x148>
    4994:	03290513          	addi	a0,s2,50
    4998:	01840613          	addi	a2,s0,24
    499c:	01c90913          	addi	s2,s2,28
    49a0:	00000793          	li	a5,0
    49a4:	00055703          	lhu	a4,0(a0)
    49a8:	00065803          	lhu	a6,0(a2)
    49ac:	ffe60613          	addi	a2,a2,-2
    49b0:	ffe50513          	addi	a0,a0,-2
    49b4:	01070733          	add	a4,a4,a6
    49b8:	00f70733          	add	a4,a4,a5
    49bc:	01075793          	srli	a5,a4,0x10
    49c0:	00e61123          	sh	a4,2(a2)
    49c4:	0017f793          	andi	a5,a5,1
    49c8:	fca91ee3          	bne	s2,a0,49a4 <emdnorm+0x240>
    49cc:	ef7042e3          	bgtz	s7,48b0 <emdnorm+0x14c>
    49d0:	09000793          	li	a5,144
    49d4:	00fa8663          	beq	s5,a5,49e0 <emdnorm+0x27c>
    49d8:	00040513          	mv	a0,s0
    49dc:	e94ff0ef          	jal	ra,4070 <eshup1>
    49e0:	00445783          	lhu	a5,4(s0)
    49e4:	0e079e63          	bnez	a5,4ae0 <emdnorm+0x37c>
    49e8:	00041c23          	sh	zero,24(s0)
    49ec:	ec0bdee3          	bgez	s7,48c8 <emdnorm+0x164>
    49f0:	00041123          	sh	zero,2(s0)
    49f4:	ed9ff06f          	j	48cc <emdnorm+0x168>
    49f8:	00041c23          	sh	zero,24(s0)
    49fc:	ffff87b7          	lui	a5,0xffff8
    4a00:	fff7c793          	not	a5,a5
    4a04:	00f41123          	sh	a5,2(s0)
    4a08:	00440793          	addi	a5,s0,4
    4a0c:	01840413          	addi	s0,s0,24
    4a10:	00079023          	sh	zero,0(a5) # ffff8000 <_stack+0xfffb8000>
    4a14:	00278793          	addi	a5,a5,2
    4a18:	fe879ce3          	bne	a5,s0,4a10 <emdnorm+0x2ac>
    4a1c:	eb1ff06f          	j	48cc <emdnorm+0x168>
    4a20:	00240793          	addi	a5,s0,2
    4a24:	01a40413          	addi	s0,s0,26
    4a28:	00278793          	addi	a5,a5,2
    4a2c:	fe079f23          	sh	zero,-2(a5)
    4a30:	fef41ce3          	bne	s0,a5,4a28 <emdnorm+0x2c4>
    4a34:	e99ff06f          	j	48cc <emdnorm+0x168>
    4a38:	000b8593          	mv	a1,s7
    4a3c:	00040513          	mv	a0,s0
    4a40:	965ff0ef          	jal	ra,43a4 <eshift.part.0>
    4a44:	00050463          	beqz	a0,4a4c <emdnorm+0x2e8>
    4a48:	00100993          	li	s3,1
    4a4c:	d60a9ce3          	bnez	s5,47c4 <emdnorm+0x60>
    4a50:	00041c23          	sh	zero,24(s0)
    4a54:	00041123          	sh	zero,2(s0)
    4a58:	e75ff06f          	j	48cc <emdnorm+0x168>
    4a5c:	e40a8ee3          	beqz	s5,48b8 <emdnorm+0x154>
    4a60:	00492a83          	lw	s5,4(s2)
    4a64:	00092683          	lw	a3,0(s2)
    4a68:	01a90713          	addi	a4,s2,26
    4a6c:	03490793          	addi	a5,s2,52
    4a70:	d6da94e3          	bne	s5,a3,47d8 <emdnorm+0x74>
    4a74:	00892483          	lw	s1,8(s2)
    4a78:	00149b13          	slli	s6,s1,0x1
    4a7c:	01640b33          	add	s6,s0,s6
    4a80:	dd7046e3          	bgtz	s7,484c <emdnorm+0xe8>
    4a84:	09000793          	li	a5,144
    4a88:	ecfa82e3          	beq	s5,a5,494c <emdnorm+0x1e8>
    4a8c:	01845783          	lhu	a5,24(s0)
    4a90:	00040513          	mv	a0,s0
    4a94:	0017f793          	andi	a5,a5,1
    4a98:	00f9e9b3          	or	s3,s3,a5
    4a9c:	d6cff0ef          	jal	ra,4008 <eshdn1>
    4aa0:	dadff06f          	j	484c <emdnorm+0xe8>
    4aa4:	00010737          	lui	a4,0x10
    4aa8:	fff70713          	addi	a4,a4,-1 # ffff <__divdf3+0x58f>
    4aac:	000085b7          	lui	a1,0x8
    4ab0:	00e00b13          	li	s6,14
    4ab4:	00700493          	li	s1,7
    4ab8:	00100793          	li	a5,1
    4abc:	00600613          	li	a2,6
    4ac0:	d5dff06f          	j	481c <emdnorm+0xb8>
    4ac4:	0ff00713          	li	a4,255
    4ac8:	08000593          	li	a1,128
    4acc:	00800b13          	li	s6,8
    4ad0:	00400493          	li	s1,4
    4ad4:	10000793          	li	a5,256
    4ad8:	00400613          	li	a2,4
    4adc:	d41ff06f          	j	481c <emdnorm+0xb8>
    4ae0:	00040513          	mv	a0,s0
    4ae4:	d24ff0ef          	jal	ra,4008 <eshdn1>
    4ae8:	000087b7          	lui	a5,0x8
    4aec:	001b8b93          	addi	s7,s7,1
    4af0:	00041c23          	sh	zero,24(s0)
    4af4:	ffe78793          	addi	a5,a5,-2 # 7ffe <__i2b+0x2a>
    4af8:	f177c2e3          	blt	a5,s7,49fc <emdnorm+0x298>
    4afc:	ee0bcae3          	bltz	s7,49f0 <emdnorm+0x28c>
    4b00:	dc9ff06f          	j	48c8 <emdnorm+0x164>
    4b04:	e80a08e3          	beqz	s4,4994 <emdnorm+0x230>
    4b08:	da5ff06f          	j	48ac <emdnorm+0x148>
    4b0c:	0ff00713          	li	a4,255
    4b10:	08000593          	li	a1,128
    4b14:	00c00b13          	li	s6,12
    4b18:	00600493          	li	s1,6
    4b1c:	10000793          	li	a5,256
    4b20:	00600613          	li	a2,6
    4b24:	cf9ff06f          	j	481c <emdnorm+0xb8>
    4b28:	00010737          	lui	a4,0x10
    4b2c:	fff70713          	addi	a4,a4,-1 # ffff <__divdf3+0x58f>
    4b30:	000085b7          	lui	a1,0x8
    4b34:	01800b13          	li	s6,24
    4b38:	00c00493          	li	s1,12
    4b3c:	00100793          	li	a5,1
    4b40:	00b00613          	li	a2,11
    4b44:	cd9ff06f          	j	481c <emdnorm+0xb8>

00004b48 <eiremain>:
    4b48:	fd010113          	addi	sp,sp,-48
    4b4c:	03212023          	sw	s2,32(sp)
    4b50:	01312e23          	sw	s3,28(sp)
    4b54:	00058913          	mv	s2,a1
    4b58:	00255983          	lhu	s3,2(a0)
    4b5c:	02112623          	sw	ra,44(sp)
    4b60:	02812423          	sw	s0,40(sp)
    4b64:	02912223          	sw	s1,36(sp)
    4b68:	01412c23          	sw	s4,24(sp)
    4b6c:	00060493          	mv	s1,a2
    4b70:	01712623          	sw	s7,12(sp)
    4b74:	01512a23          	sw	s5,20(sp)
    4b78:	01612823          	sw	s6,16(sp)
    4b7c:	01812423          	sw	s8,8(sp)
    4b80:	01912223          	sw	s9,4(sp)
    4b84:	01a12023          	sw	s10,0(sp)
    4b88:	00050b93          	mv	s7,a0
    4b8c:	e9cff0ef          	jal	ra,4228 <enormlz>
    4b90:	00295403          	lhu	s0,2(s2)
    4b94:	00050793          	mv	a5,a0
    4b98:	00090513          	mv	a0,s2
    4b9c:	40f989b3          	sub	s3,s3,a5
    4ba0:	03448a13          	addi	s4,s1,52
    4ba4:	e84ff0ef          	jal	ra,4228 <enormlz>
    4ba8:	40a40433          	sub	s0,s0,a0
    4bac:	04e48713          	addi	a4,s1,78
    4bb0:	000a0793          	mv	a5,s4
    4bb4:	00278793          	addi	a5,a5,2
    4bb8:	fe079f23          	sh	zero,-2(a5)
    4bbc:	fee79ce3          	bne	a5,a4,4bb4 <eiremain+0x6c>
    4bc0:	09344863          	blt	s0,s3,4c50 <eiremain+0x108>
    4bc4:	004b8b13          	addi	s6,s7,4
    4bc8:	00490a93          	addi	s5,s2,4
    4bcc:	01ab8c13          	addi	s8,s7,26
    4bd0:	00290d13          	addi	s10,s2,2
    4bd4:	000a8713          	mv	a4,s5
    4bd8:	000b0793          	mv	a5,s6
    4bdc:	0007d603          	lhu	a2,0(a5)
    4be0:	00075683          	lhu	a3,0(a4)
    4be4:	00278793          	addi	a5,a5,2
    4be8:	00270713          	addi	a4,a4,2
    4bec:	0ad61a63          	bne	a2,a3,4ca0 <eiremain+0x158>
    4bf0:	ff8796e3          	bne	a5,s8,4bdc <eiremain+0x94>
    4bf4:	018b8613          	addi	a2,s7,24
    4bf8:	01890713          	addi	a4,s2,24
    4bfc:	00000693          	li	a3,0
    4c00:	00075783          	lhu	a5,0(a4)
    4c04:	00065583          	lhu	a1,0(a2)
    4c08:	ffe70713          	addi	a4,a4,-2
    4c0c:	40d787b3          	sub	a5,a5,a3
    4c10:	40b787b3          	sub	a5,a5,a1
    4c14:	0107d693          	srli	a3,a5,0x10
    4c18:	00f71123          	sh	a5,2(a4)
    4c1c:	0016f693          	andi	a3,a3,1
    4c20:	ffe60613          	addi	a2,a2,-2
    4c24:	fced1ee3          	bne	s10,a4,4c00 <eiremain+0xb8>
    4c28:	00100c93          	li	s9,1
    4c2c:	000a0513          	mv	a0,s4
    4c30:	c40ff0ef          	jal	ra,4070 <eshup1>
    4c34:	04c4d783          	lhu	a5,76(s1)
    4c38:	fff40413          	addi	s0,s0,-1
    4c3c:	00090513          	mv	a0,s2
    4c40:	00fce7b3          	or	a5,s9,a5
    4c44:	04f49623          	sh	a5,76(s1)
    4c48:	c28ff0ef          	jal	ra,4070 <eshup1>
    4c4c:	f93454e3          	bge	s0,s3,4bd4 <eiremain+0x8c>
    4c50:	00040693          	mv	a3,s0
    4c54:	02812403          	lw	s0,40(sp)
    4c58:	02c12083          	lw	ra,44(sp)
    4c5c:	01c12983          	lw	s3,28(sp)
    4c60:	01812a03          	lw	s4,24(sp)
    4c64:	01412a83          	lw	s5,20(sp)
    4c68:	01012b03          	lw	s6,16(sp)
    4c6c:	00c12b83          	lw	s7,12(sp)
    4c70:	00812c03          	lw	s8,8(sp)
    4c74:	00412c83          	lw	s9,4(sp)
    4c78:	00012d03          	lw	s10,0(sp)
    4c7c:	00048793          	mv	a5,s1
    4c80:	00090513          	mv	a0,s2
    4c84:	02412483          	lw	s1,36(sp)
    4c88:	02012903          	lw	s2,32(sp)
    4c8c:	00000713          	li	a4,0
    4c90:	00000613          	li	a2,0
    4c94:	00000593          	li	a1,0
    4c98:	03010113          	addi	sp,sp,48
    4c9c:	ac9ff06f          	j	4764 <emdnorm>
    4ca0:	00000c93          	li	s9,0
    4ca4:	f8c6e4e3          	bltu	a3,a2,4c2c <eiremain+0xe4>
    4ca8:	f4dff06f          	j	4bf4 <eiremain+0xac>

00004cac <e113toe.isra.0>:
    4cac:	fd010113          	addi	sp,sp,-48
    4cb0:	02812423          	sw	s0,40(sp)
    4cb4:	02112623          	sw	ra,44(sp)
    4cb8:	00058413          	mv	s0,a1
    4cbc:	00410793          	addi	a5,sp,4
    4cc0:	01e10713          	addi	a4,sp,30
    4cc4:	00278793          	addi	a5,a5,2
    4cc8:	fe079f23          	sh	zero,-2(a5)
    4ccc:	fee79ce3          	bne	a5,a4,4cc4 <e113toe.isra.0+0x18>
    4cd0:	00e55603          	lhu	a2,14(a0)
    4cd4:	000087b7          	lui	a5,0x8
    4cd8:	fff78793          	addi	a5,a5,-1 # 7fff <__i2b+0x2b>
    4cdc:	00f65713          	srli	a4,a2,0xf
    4ce0:	40e00733          	neg	a4,a4
    4ce4:	00e11223          	sh	a4,4(sp)
    4ce8:	00f67633          	and	a2,a2,a5
    4cec:	06f60063          	beq	a2,a5,4d4c <e113toe.isra.0+0xa0>
    4cf0:	00e50793          	addi	a5,a0,14
    4cf4:	00c11323          	sh	a2,6(sp)
    4cf8:	00a10713          	addi	a4,sp,10
    4cfc:	ffe7d683          	lhu	a3,-2(a5)
    4d00:	ffe78793          	addi	a5,a5,-2
    4d04:	00270713          	addi	a4,a4,2
    4d08:	fed71f23          	sh	a3,-2(a4)
    4d0c:	fef518e3          	bne	a0,a5,4cfc <e113toe.isra.0+0x50>
    4d10:	02061263          	bnez	a2,4d34 <e113toe.isra.0+0x88>
    4d14:	00011423          	sh	zero,8(sp)
    4d18:	00040593          	mv	a1,s0
    4d1c:	00410513          	addi	a0,sp,4
    4d20:	c4cff0ef          	jal	ra,416c <emovo.constprop.0>
    4d24:	02c12083          	lw	ra,44(sp)
    4d28:	02812403          	lw	s0,40(sp)
    4d2c:	03010113          	addi	sp,sp,48
    4d30:	00008067          	ret
    4d34:	00100793          	li	a5,1
    4d38:	fff00593          	li	a1,-1
    4d3c:	00410513          	addi	a0,sp,4
    4d40:	00f11423          	sh	a5,8(sp)
    4d44:	e60ff0ef          	jal	ra,43a4 <eshift.part.0>
    4d48:	fd1ff06f          	j	4d18 <e113toe.isra.0+0x6c>
    4d4c:	00050793          	mv	a5,a0
    4d50:	00e50693          	addi	a3,a0,14
    4d54:	0007d703          	lhu	a4,0(a5)
    4d58:	00278793          	addi	a5,a5,2
    4d5c:	06071c63          	bnez	a4,4dd4 <e113toe.isra.0+0x128>
    4d60:	fef69ae3          	bne	a3,a5,4d54 <e113toe.isra.0+0xa8>
    4d64:	01440713          	addi	a4,s0,20
    4d68:	00040793          	mv	a5,s0
    4d6c:	00278793          	addi	a5,a5,2
    4d70:	fe079f23          	sh	zero,-2(a5)
    4d74:	fee79ce3          	bne	a5,a4,4d6c <e113toe.isra.0+0xc0>
    4d78:	01240713          	addi	a4,s0,18
    4d7c:	00040793          	mv	a5,s0
    4d80:	00278793          	addi	a5,a5,2
    4d84:	fe079f23          	sh	zero,-2(a5)
    4d88:	fef71ce3          	bne	a4,a5,4d80 <e113toe.isra.0+0xd4>
    4d8c:	01245783          	lhu	a5,18(s0)
    4d90:	000086b7          	lui	a3,0x8
    4d94:	fff68693          	addi	a3,a3,-1 # 7fff <__i2b+0x2b>
    4d98:	00d7e7b3          	or	a5,a5,a3
    4d9c:	01079793          	slli	a5,a5,0x10
    4da0:	0107d793          	srli	a5,a5,0x10
    4da4:	00f41923          	sh	a5,18(s0)
    4da8:	00e51683          	lh	a3,14(a0)
    4dac:	f606dce3          	bgez	a3,4d24 <e113toe.isra.0+0x78>
    4db0:	00040693          	mv	a3,s0
    4db4:	0006d603          	lhu	a2,0(a3)
    4db8:	00268693          	addi	a3,a3,2
    4dbc:	f60614e3          	bnez	a2,4d24 <e113toe.isra.0+0x78>
    4dc0:	fed71ae3          	bne	a4,a3,4db4 <e113toe.isra.0+0x108>
    4dc4:	ffff8737          	lui	a4,0xffff8
    4dc8:	00e7c7b3          	xor	a5,a5,a4
    4dcc:	00f41923          	sh	a5,18(s0)
    4dd0:	f55ff06f          	j	4d24 <e113toe.isra.0+0x78>
    4dd4:	01040713          	addi	a4,s0,16
    4dd8:	00040793          	mv	a5,s0
    4ddc:	00278793          	addi	a5,a5,2
    4de0:	fe079f23          	sh	zero,-2(a5)
    4de4:	fee79ce3          	bne	a5,a4,4ddc <e113toe.isra.0+0x130>
    4de8:	ffffc7b7          	lui	a5,0xffffc
    4dec:	00f41823          	sh	a5,16(s0)
    4df0:	ffff87b7          	lui	a5,0xffff8
    4df4:	fff7c793          	not	a5,a5
    4df8:	00f41923          	sh	a5,18(s0)
    4dfc:	f29ff06f          	j	4d24 <e113toe.isra.0+0x78>

00004e00 <ediv>:
    4e00:	01255783          	lhu	a5,18(a0)
    4e04:	f5010113          	addi	sp,sp,-176
    4e08:	0a812423          	sw	s0,168(sp)
    4e0c:	fff7c793          	not	a5,a5
    4e10:	0a912223          	sw	s1,164(sp)
    4e14:	0b212023          	sw	s2,160(sp)
    4e18:	09312e23          	sw	s3,156(sp)
    4e1c:	0a112623          	sw	ra,172(sp)
    4e20:	09412c23          	sw	s4,152(sp)
    4e24:	09512a23          	sw	s5,148(sp)
    4e28:	09612823          	sw	s6,144(sp)
    4e2c:	09712623          	sw	s7,140(sp)
    4e30:	09812423          	sw	s8,136(sp)
    4e34:	09912223          	sw	s9,132(sp)
    4e38:	09a12023          	sw	s10,128(sp)
    4e3c:	07b12e23          	sw	s11,124(sp)
    4e40:	01179713          	slli	a4,a5,0x11
    4e44:	00050493          	mv	s1,a0
    4e48:	00058993          	mv	s3,a1
    4e4c:	00060413          	mv	s0,a2
    4e50:	00068913          	mv	s2,a3
    4e54:	00071e63          	bnez	a4,4e70 <ediv+0x70>
    4e58:	01250693          	addi	a3,a0,18
    4e5c:	00050793          	mv	a5,a0
    4e60:	0007d703          	lhu	a4,0(a5) # ffff8000 <_stack+0xfffb8000>
    4e64:	00278793          	addi	a5,a5,2
    4e68:	2e071863          	bnez	a4,5158 <ediv+0x358>
    4e6c:	fed79ae3          	bne	a5,a3,4e60 <ediv+0x60>
    4e70:	0129d783          	lhu	a5,18(s3)
    4e74:	fff7c793          	not	a5,a5
    4e78:	01179713          	slli	a4,a5,0x11
    4e7c:	00071e63          	bnez	a4,4e98 <ediv+0x98>
    4e80:	01298693          	addi	a3,s3,18
    4e84:	00098793          	mv	a5,s3
    4e88:	0007d703          	lhu	a4,0(a5)
    4e8c:	00278793          	addi	a5,a5,2
    4e90:	2e071263          	bnez	a4,5174 <ediv+0x374>
    4e94:	fed79ae3          	bne	a5,a3,4e88 <ediv+0x88>
    4e98:	00020a37          	lui	s4,0x20
    4e9c:	5b4a0593          	addi	a1,s4,1460 # 205b4 <ezero>
    4ea0:	00048513          	mv	a0,s1
    4ea4:	f84ff0ef          	jal	ra,4628 <ecmp>
    4ea8:	2e050463          	beqz	a0,5190 <ediv+0x390>
    4eac:	0124d603          	lhu	a2,18(s1)
    4eb0:	0129d703          	lhu	a4,18(s3)
    4eb4:	000087b7          	lui	a5,0x8
    4eb8:	fff78793          	addi	a5,a5,-1 # 7fff <__i2b+0x2b>
    4ebc:	00f67533          	and	a0,a2,a5
    4ec0:	00f775b3          	and	a1,a4,a5
    4ec4:	0af51663          	bne	a0,a5,4f70 <ediv+0x170>
    4ec8:	01248813          	addi	a6,s1,18
    4ecc:	00048793          	mv	a5,s1
    4ed0:	0007d683          	lhu	a3,0(a5)
    4ed4:	00278793          	addi	a5,a5,2
    4ed8:	08069863          	bnez	a3,4f68 <ediv+0x168>
    4edc:	ff079ae3          	bne	a5,a6,4ed0 <ediv+0xd0>
    4ee0:	000087b7          	lui	a5,0x8
    4ee4:	fff78793          	addi	a5,a5,-1 # 7fff <__i2b+0x2b>
    4ee8:	2cf59063          	bne	a1,a5,51a8 <ediv+0x3a8>
    4eec:	01298693          	addi	a3,s3,18
    4ef0:	00098793          	mv	a5,s3
    4ef4:	0007d583          	lhu	a1,0(a5)
    4ef8:	00278793          	addi	a5,a5,2
    4efc:	48059463          	bnez	a1,5384 <ediv+0x584>
    4f00:	fed79ae3          	bne	a5,a3,4ef4 <ediv+0xf4>
    4f04:	01040713          	addi	a4,s0,16
    4f08:	00040793          	mv	a5,s0
    4f0c:	00278793          	addi	a5,a5,2
    4f10:	fe079f23          	sh	zero,-2(a5)
    4f14:	fee79ce3          	bne	a5,a4,4f0c <ediv+0x10c>
    4f18:	ffffc7b7          	lui	a5,0xffffc
    4f1c:	00f41823          	sh	a5,16(s0)
    4f20:	ffff87b7          	lui	a5,0xffff8
    4f24:	fff7c793          	not	a5,a5
    4f28:	00f41923          	sh	a5,18(s0)
    4f2c:	0ac12083          	lw	ra,172(sp)
    4f30:	0a812403          	lw	s0,168(sp)
    4f34:	0a412483          	lw	s1,164(sp)
    4f38:	0a012903          	lw	s2,160(sp)
    4f3c:	09c12983          	lw	s3,156(sp)
    4f40:	09812a03          	lw	s4,152(sp)
    4f44:	09412a83          	lw	s5,148(sp)
    4f48:	09012b03          	lw	s6,144(sp)
    4f4c:	08c12b83          	lw	s7,140(sp)
    4f50:	08812c03          	lw	s8,136(sp)
    4f54:	08412c83          	lw	s9,132(sp)
    4f58:	08012d03          	lw	s10,128(sp)
    4f5c:	07c12d83          	lw	s11,124(sp)
    4f60:	0b010113          	addi	sp,sp,176
    4f64:	00008067          	ret
    4f68:	000087b7          	lui	a5,0x8
    4f6c:	fff78793          	addi	a5,a5,-1 # 7fff <__i2b+0x2b>
    4f70:	24f58663          	beq	a1,a5,51bc <ediv+0x3bc>
    4f74:	00048513          	mv	a0,s1
    4f78:	01c10593          	addi	a1,sp,28
    4f7c:	df8ff0ef          	jal	ra,4574 <emovi>
    4f80:	03810593          	addi	a1,sp,56
    4f84:	00098513          	mv	a0,s3
    4f88:	decff0ef          	jal	ra,4574 <emovi>
    4f8c:	03a15a83          	lhu	s5,58(sp)
    4f90:	01e15483          	lhu	s1,30(sp)
    4f94:	2a0a8c63          	beqz	s5,524c <ediv+0x44c>
    4f98:	01512623          	sw	s5,12(sp)
    4f9c:	00048713          	mv	a4,s1
    4fa0:	00912423          	sw	s1,8(sp)
    4fa4:	02010793          	addi	a5,sp,32
    4fa8:	03410693          	addi	a3,sp,52
    4fac:	02071263          	bnez	a4,4fd0 <ediv+0x1d0>
    4fb0:	38d78a63          	beq	a5,a3,5344 <ediv+0x544>
    4fb4:	0007d703          	lhu	a4,0(a5)
    4fb8:	00278793          	addi	a5,a5,2
    4fbc:	fe070ae3          	beqz	a4,4fb0 <ediv+0x1b0>
    4fc0:	01c10513          	addi	a0,sp,28
    4fc4:	a64ff0ef          	jal	ra,4228 <enormlz>
    4fc8:	40a487b3          	sub	a5,s1,a0
    4fcc:	00f12423          	sw	a5,8(sp)
    4fd0:	03812703          	lw	a4,56(sp)
    4fd4:	03890a93          	addi	s5,s2,56
    4fd8:	000a8793          	mv	a5,s5
    4fdc:	02e92a23          	sw	a4,52(s2)
    4fe0:	04e90493          	addi	s1,s2,78
    4fe4:	00278793          	addi	a5,a5,2
    4fe8:	fe079f23          	sh	zero,-2(a5)
    4fec:	fef49ce3          	bne	s1,a5,4fe4 <ediv+0x1e4>
    4ff0:	03810513          	addi	a0,sp,56
    4ff4:	814ff0ef          	jal	ra,4008 <eshdn1>
    4ff8:	02215b03          	lhu	s6,34(sp)
    4ffc:	000109b7          	lui	s3,0x10
    5000:	05010c13          	addi	s8,sp,80
    5004:	010b1a13          	slli	s4,s6,0x10
    5008:	416a0a33          	sub	s4,s4,s6
    500c:	03a10c93          	addi	s9,sp,58
    5010:	fff98993          	addi	s3,s3,-1 # ffff <__divdf3+0x58f>
    5014:	06e10d13          	addi	s10,sp,110
    5018:	05610d93          	addi	s11,sp,86
    501c:	03c15783          	lhu	a5,60(sp)
    5020:	03e15703          	lhu	a4,62(sp)
    5024:	00098b93          	mv	s7,s3
    5028:	01079793          	slli	a5,a5,0x10
    502c:	00e787b3          	add	a5,a5,a4
    5030:	00fa6863          	bltu	s4,a5,5040 <ediv+0x240>
    5034:	0367d7b3          	divu	a5,a5,s6
    5038:	01079b93          	slli	s7,a5,0x10
    503c:	010bdb93          	srli	s7,s7,0x10
    5040:	05410613          	addi	a2,sp,84
    5044:	01c10593          	addi	a1,sp,28
    5048:	000b8513          	mv	a0,s7
    504c:	894ff0ef          	jal	ra,40e0 <m16m>
    5050:	03c10713          	addi	a4,sp,60
    5054:	05810793          	addi	a5,sp,88
    5058:	0007d603          	lhu	a2,0(a5)
    505c:	00075683          	lhu	a3,0(a4) # ffff8000 <_stack+0xfffb8000>
    5060:	00278793          	addi	a5,a5,2
    5064:	00270713          	addi	a4,a4,2
    5068:	20d61a63          	bne	a2,a3,527c <ediv+0x47c>
    506c:	ffa796e3          	bne	a5,s10,5058 <ediv+0x258>
    5070:	00000793          	li	a5,0
    5074:	06c10693          	addi	a3,sp,108
    5078:	000c0613          	mv	a2,s8
    507c:	00065703          	lhu	a4,0(a2)
    5080:	0006d583          	lhu	a1,0(a3)
    5084:	ffe60613          	addi	a2,a2,-2
    5088:	40f70733          	sub	a4,a4,a5
    508c:	40b70733          	sub	a4,a4,a1
    5090:	01075793          	srli	a5,a4,0x10
    5094:	00e61123          	sh	a4,2(a2)
    5098:	0017f793          	andi	a5,a5,1
    509c:	ffe68693          	addi	a3,a3,-2
    50a0:	fd961ee3          	bne	a2,s9,507c <ediv+0x27c>
    50a4:	017a9023          	sh	s7,0(s5)
    50a8:	03c10793          	addi	a5,sp,60
    50ac:	0027d703          	lhu	a4,2(a5)
    50b0:	00278793          	addi	a5,a5,2
    50b4:	fee79f23          	sh	a4,-2(a5)
    50b8:	ff879ae3          	bne	a5,s8,50ac <ediv+0x2ac>
    50bc:	04011823          	sh	zero,80(sp)
    50c0:	002a8a93          	addi	s5,s5,2
    50c4:	f5549ce3          	bne	s1,s5,501c <ediv+0x21c>
    50c8:	00000713          	li	a4,0
    50cc:	03c10793          	addi	a5,sp,60
    50d0:	05210613          	addi	a2,sp,82
    50d4:	0007d683          	lhu	a3,0(a5)
    50d8:	00278793          	addi	a5,a5,2
    50dc:	00d76733          	or	a4,a4,a3
    50e0:	fec79ae3          	bne	a5,a2,50d4 <ediv+0x2d4>
    50e4:	00e035b3          	snez	a1,a4
    50e8:	03810793          	addi	a5,sp,56
    50ec:	03490713          	addi	a4,s2,52
    50f0:	00075683          	lhu	a3,0(a4)
    50f4:	00278793          	addi	a5,a5,2
    50f8:	00270713          	addi	a4,a4,2
    50fc:	fed79f23          	sh	a3,-2(a5)
    5100:	fef618e3          	bne	a2,a5,50f0 <ediv+0x2f0>
    5104:	00c12783          	lw	a5,12(sp)
    5108:	00812703          	lw	a4,8(sp)
    510c:	000046b7          	lui	a3,0x4
    5110:	fff68693          	addi	a3,a3,-1 # 3fff <_fwalk_reent+0xab>
    5114:	40e78ab3          	sub	s5,a5,a4
    5118:	03810513          	addi	a0,sp,56
    511c:	00090793          	mv	a5,s2
    5120:	04000713          	li	a4,64
    5124:	00da86b3          	add	a3,s5,a3
    5128:	00000613          	li	a2,0
    512c:	e38ff0ef          	jal	ra,4764 <emdnorm>
    5130:	03815703          	lhu	a4,56(sp)
    5134:	01c15783          	lhu	a5,28(sp)
    5138:	00040593          	mv	a1,s0
    513c:	03810513          	addi	a0,sp,56
    5140:	40e787b3          	sub	a5,a5,a4
    5144:	00f037b3          	snez	a5,a5
    5148:	40f007b3          	neg	a5,a5
    514c:	02f11c23          	sh	a5,56(sp)
    5150:	81cff0ef          	jal	ra,416c <emovo.constprop.0>
    5154:	dd9ff06f          	j	4f2c <ediv+0x12c>
    5158:	01448713          	addi	a4,s1,20
    515c:	0004d783          	lhu	a5,0(s1)
    5160:	00248493          	addi	s1,s1,2
    5164:	00240413          	addi	s0,s0,2
    5168:	fef41f23          	sh	a5,-2(s0)
    516c:	fee498e3          	bne	s1,a4,515c <ediv+0x35c>
    5170:	dbdff06f          	j	4f2c <ediv+0x12c>
    5174:	01440713          	addi	a4,s0,20
    5178:	0009d783          	lhu	a5,0(s3)
    517c:	00240413          	addi	s0,s0,2
    5180:	00298993          	addi	s3,s3,2
    5184:	fef41f23          	sh	a5,-2(s0)
    5188:	fee418e3          	bne	s0,a4,5178 <ediv+0x378>
    518c:	da1ff06f          	j	4f2c <ediv+0x12c>
    5190:	5b4a0593          	addi	a1,s4,1460
    5194:	00098513          	mv	a0,s3
    5198:	c90ff0ef          	jal	ra,4628 <ecmp>
    519c:	d00518e3          	bnez	a0,4eac <ediv+0xac>
    51a0:	d65ff06f          	j	4f04 <ediv+0x104>
    51a4:	dc0808e3          	beqz	a6,4f74 <ediv+0x174>
    51a8:	01440793          	addi	a5,s0,20
    51ac:	00240413          	addi	s0,s0,2
    51b0:	fe041f23          	sh	zero,-2(s0)
    51b4:	fef41ce3          	bne	s0,a5,51ac <ediv+0x3ac>
    51b8:	d75ff06f          	j	4f2c <ediv+0x12c>
    51bc:	00000813          	li	a6,0
    51c0:	01298693          	addi	a3,s3,18
    51c4:	00098793          	mv	a5,s3
    51c8:	0007d583          	lhu	a1,0(a5)
    51cc:	00278793          	addi	a5,a5,2
    51d0:	fc059ae3          	bnez	a1,51a4 <ediv+0x3a4>
    51d4:	fed79ae3          	bne	a5,a3,51c8 <ediv+0x3c8>
    51d8:	000087b7          	lui	a5,0x8
    51dc:	fff78793          	addi	a5,a5,-1 # 7fff <__i2b+0x2b>
    51e0:	04f50a63          	beq	a0,a5,5234 <ediv+0x434>
    51e4:	00f65613          	srli	a2,a2,0xf
    51e8:	0009d783          	lhu	a5,0(s3)
    51ec:	00298993          	addi	s3,s3,2
    51f0:	18079263          	bnez	a5,5374 <ediv+0x574>
    51f4:	fed99ae3          	bne	s3,a3,51e8 <ediv+0x3e8>
    51f8:	00f75793          	srli	a5,a4,0xf
    51fc:	00c7c7b3          	xor	a5,a5,a2
    5200:	00f79793          	slli	a5,a5,0xf
    5204:	00f41923          	sh	a5,18(s0)
    5208:	01240713          	addi	a4,s0,18
    520c:	00040793          	mv	a5,s0
    5210:	00278793          	addi	a5,a5,2
    5214:	fe079f23          	sh	zero,-2(a5)
    5218:	fee79ce3          	bne	a5,a4,5210 <ediv+0x410>
    521c:	01245783          	lhu	a5,18(s0)
    5220:	00008737          	lui	a4,0x8
    5224:	fff70713          	addi	a4,a4,-1 # 7fff <__i2b+0x2b>
    5228:	00e7e7b3          	or	a5,a5,a4
    522c:	00f41923          	sh	a5,18(s0)
    5230:	cfdff06f          	j	4f2c <ediv+0x12c>
    5234:	01248593          	addi	a1,s1,18
    5238:	0004d783          	lhu	a5,0(s1)
    523c:	00248493          	addi	s1,s1,2
    5240:	12079e63          	bnez	a5,537c <ediv+0x57c>
    5244:	feb49ae3          	bne	s1,a1,5238 <ediv+0x438>
    5248:	f9dff06f          	j	51e4 <ediv+0x3e4>
    524c:	03c10793          	addi	a5,sp,60
    5250:	05010c13          	addi	s8,sp,80
    5254:	0cfc0e63          	beq	s8,a5,5330 <ediv+0x530>
    5258:	0007d703          	lhu	a4,0(a5)
    525c:	00278793          	addi	a5,a5,2
    5260:	fe070ae3          	beqz	a4,5254 <ediv+0x454>
    5264:	03810513          	addi	a0,sp,56
    5268:	fc1fe0ef          	jal	ra,4228 <enormlz>
    526c:	40a007b3          	neg	a5,a0
    5270:	01e15703          	lhu	a4,30(sp)
    5274:	00f12623          	sw	a5,12(sp)
    5278:	d29ff06f          	j	4fa0 <ediv+0x1a0>
    527c:	dec6fae3          	bgeu	a3,a2,5070 <ediv+0x270>
    5280:	fffb8793          	addi	a5,s7,-1
    5284:	01079893          	slli	a7,a5,0x10
    5288:	0108d893          	srli	a7,a7,0x10
    528c:	00000693          	li	a3,0
    5290:	03410613          	addi	a2,sp,52
    5294:	06c10713          	addi	a4,sp,108
    5298:	00075783          	lhu	a5,0(a4)
    529c:	00065583          	lhu	a1,0(a2)
    52a0:	ffe70713          	addi	a4,a4,-2
    52a4:	40d787b3          	sub	a5,a5,a3
    52a8:	40b787b3          	sub	a5,a5,a1
    52ac:	0107d693          	srli	a3,a5,0x10
    52b0:	00f71123          	sh	a5,2(a4)
    52b4:	0016f693          	andi	a3,a3,1
    52b8:	ffe60613          	addi	a2,a2,-2
    52bc:	fdb71ee3          	bne	a4,s11,5298 <ediv+0x498>
    52c0:	03c10713          	addi	a4,sp,60
    52c4:	05810793          	addi	a5,sp,88
    52c8:	0007d603          	lhu	a2,0(a5)
    52cc:	00075683          	lhu	a3,0(a4)
    52d0:	00278793          	addi	a5,a5,2
    52d4:	00270713          	addi	a4,a4,2
    52d8:	00d61863          	bne	a2,a3,52e8 <ediv+0x4e8>
    52dc:	ffa796e3          	bne	a5,s10,52c8 <ediv+0x4c8>
    52e0:	00088b93          	mv	s7,a7
    52e4:	d8dff06f          	j	5070 <ediv+0x270>
    52e8:	fec6fce3          	bgeu	a3,a2,52e0 <ediv+0x4e0>
    52ec:	ffeb8513          	addi	a0,s7,-2
    52f0:	01051b93          	slli	s7,a0,0x10
    52f4:	010bdb93          	srli	s7,s7,0x10
    52f8:	00000693          	li	a3,0
    52fc:	03410613          	addi	a2,sp,52
    5300:	06c10713          	addi	a4,sp,108
    5304:	00075783          	lhu	a5,0(a4)
    5308:	00065583          	lhu	a1,0(a2)
    530c:	ffe70713          	addi	a4,a4,-2
    5310:	40d787b3          	sub	a5,a5,a3
    5314:	40b787b3          	sub	a5,a5,a1
    5318:	0107d693          	srli	a3,a5,0x10
    531c:	00f71123          	sh	a5,2(a4)
    5320:	0016f693          	andi	a3,a3,1
    5324:	ffe60613          	addi	a2,a2,-2
    5328:	fdb71ee3          	bne	a4,s11,5304 <ediv+0x504>
    532c:	d45ff06f          	j	5070 <ediv+0x270>
    5330:	01440793          	addi	a5,s0,20
    5334:	00240413          	addi	s0,s0,2
    5338:	fe041f23          	sh	zero,-2(s0)
    533c:	fef41ce3          	bne	s0,a5,5334 <ediv+0x534>
    5340:	bedff06f          	j	4f2c <ediv+0x12c>
    5344:	01c15683          	lhu	a3,28(sp)
    5348:	03815603          	lhu	a2,56(sp)
    534c:	01240713          	addi	a4,s0,18
    5350:	00040793          	mv	a5,s0
    5354:	40c686b3          	sub	a3,a3,a2
    5358:	00d036b3          	snez	a3,a3
    535c:	00f69693          	slli	a3,a3,0xf
    5360:	00d41923          	sh	a3,18(s0)
    5364:	00278793          	addi	a5,a5,2
    5368:	fe079f23          	sh	zero,-2(a5)
    536c:	fef71ce3          	bne	a4,a5,5364 <ediv+0x564>
    5370:	eadff06f          	j	521c <ediv+0x41c>
    5374:	00000793          	li	a5,0
    5378:	e85ff06f          	j	51fc <ediv+0x3fc>
    537c:	00000613          	li	a2,0
    5380:	e69ff06f          	j	51e8 <ediv+0x3e8>
    5384:	00100813          	li	a6,1
    5388:	e3dff06f          	j	51c4 <ediv+0x3c4>

0000538c <emul>:
    538c:	f7010113          	addi	sp,sp,-144
    5390:	08912223          	sw	s1,132(sp)
    5394:	00050493          	mv	s1,a0
    5398:	01255503          	lhu	a0,18(a0)
    539c:	00008737          	lui	a4,0x8
    53a0:	fff70713          	addi	a4,a4,-1 # 7fff <__i2b+0x2b>
    53a4:	08812423          	sw	s0,136(sp)
    53a8:	09212023          	sw	s2,128(sp)
    53ac:	07412c23          	sw	s4,120(sp)
    53b0:	08112623          	sw	ra,140(sp)
    53b4:	07312e23          	sw	s3,124(sp)
    53b8:	07512a23          	sw	s5,116(sp)
    53bc:	07612823          	sw	s6,112(sp)
    53c0:	07712623          	sw	s7,108(sp)
    53c4:	07812423          	sw	s8,104(sp)
    53c8:	07912223          	sw	s9,100(sp)
    53cc:	00e57833          	and	a6,a0,a4
    53d0:	00058913          	mv	s2,a1
    53d4:	00060413          	mv	s0,a2
    53d8:	00068a13          	mv	s4,a3
    53dc:	00e81e63          	bne	a6,a4,53f8 <emul+0x6c>
    53e0:	01248993          	addi	s3,s1,18
    53e4:	00048713          	mv	a4,s1
    53e8:	00075603          	lhu	a2,0(a4)
    53ec:	00270713          	addi	a4,a4,2
    53f0:	1e061463          	bnez	a2,55d8 <emul+0x24c>
    53f4:	ff371ae3          	bne	a4,s3,53e8 <emul+0x5c>
    53f8:	01295603          	lhu	a2,18(s2)
    53fc:	000087b7          	lui	a5,0x8
    5400:	fff78793          	addi	a5,a5,-1 # 7fff <__i2b+0x2b>
    5404:	00f675b3          	and	a1,a2,a5
    5408:	08f58863          	beq	a1,a5,5498 <emul+0x10c>
    540c:	1ef81463          	bne	a6,a5,55f4 <emul+0x268>
    5410:	01248993          	addi	s3,s1,18
    5414:	00048793          	mv	a5,s1
    5418:	0007d703          	lhu	a4,0(a5)
    541c:	00278793          	addi	a5,a5,2
    5420:	26071663          	bnez	a4,568c <emul+0x300>
    5424:	fef99ae3          	bne	s3,a5,5418 <emul+0x8c>
    5428:	000205b7          	lui	a1,0x20
    542c:	5b458593          	addi	a1,a1,1460 # 205b4 <ezero>
    5430:	00090513          	mv	a0,s2
    5434:	9f4ff0ef          	jal	ra,4628 <ecmp>
    5438:	22050463          	beqz	a0,5660 <emul+0x2d4>
    543c:	01295603          	lhu	a2,18(s2)
    5440:	000087b7          	lui	a5,0x8
    5444:	fff78793          	addi	a5,a5,-1 # 7fff <__i2b+0x2b>
    5448:	00f675b3          	and	a1,a2,a5
    544c:	24f58663          	beq	a1,a5,5698 <emul+0x30c>
    5450:	0124d503          	lhu	a0,18(s1)
    5454:	00f57733          	and	a4,a0,a5
    5458:	18f71e63          	bne	a4,a5,55f4 <emul+0x268>
    545c:	00048793          	mv	a5,s1
    5460:	0007d703          	lhu	a4,0(a5)
    5464:	00278793          	addi	a5,a5,2
    5468:	3c071063          	bnez	a4,5828 <emul+0x49c>
    546c:	fef99ae3          	bne	s3,a5,5460 <emul+0xd4>
    5470:	0004d783          	lhu	a5,0(s1)
    5474:	00248493          	addi	s1,s1,2
    5478:	36079c63          	bnez	a5,57f0 <emul+0x464>
    547c:	ff349ae3          	bne	s1,s3,5470 <emul+0xe4>
    5480:	00f55713          	srli	a4,a0,0xf
    5484:	000087b7          	lui	a5,0x8
    5488:	fff78793          	addi	a5,a5,-1 # 7fff <__i2b+0x2b>
    548c:	0cf59063          	bne	a1,a5,554c <emul+0x1c0>
    5490:	01290693          	addi	a3,s2,18
    5494:	0a80006f          	j	553c <emul+0x1b0>
    5498:	01290693          	addi	a3,s2,18
    549c:	00090713          	mv	a4,s2
    54a0:	00075783          	lhu	a5,0(a4)
    54a4:	00270713          	addi	a4,a4,2
    54a8:	18079e63          	bnez	a5,5644 <emul+0x2b8>
    54ac:	fee69ae3          	bne	a3,a4,54a0 <emul+0x114>
    54b0:	000087b7          	lui	a5,0x8
    54b4:	fff78793          	addi	a5,a5,-1 # 7fff <__i2b+0x2b>
    54b8:	f4f80ce3          	beq	a6,a5,5410 <emul+0x84>
    54bc:	00090793          	mv	a5,s2
    54c0:	0007d703          	lhu	a4,0(a5)
    54c4:	00278793          	addi	a5,a5,2
    54c8:	0e071863          	bnez	a4,55b8 <emul+0x22c>
    54cc:	fef69ae3          	bne	a3,a5,54c0 <emul+0x134>
    54d0:	000205b7          	lui	a1,0x20
    54d4:	5b458593          	addi	a1,a1,1460 # 205b4 <ezero>
    54d8:	00048513          	mv	a0,s1
    54dc:	94cff0ef          	jal	ra,4628 <ecmp>
    54e0:	18050063          	beqz	a0,5660 <emul+0x2d4>
    54e4:	0124d503          	lhu	a0,18(s1)
    54e8:	01295603          	lhu	a2,18(s2)
    54ec:	000087b7          	lui	a5,0x8
    54f0:	fff78793          	addi	a5,a5,-1 # 7fff <__i2b+0x2b>
    54f4:	00f57833          	and	a6,a0,a5
    54f8:	00f675b3          	and	a1,a2,a5
    54fc:	0cf80a63          	beq	a6,a5,55d0 <emul+0x244>
    5500:	000087b7          	lui	a5,0x8
    5504:	fff78793          	addi	a5,a5,-1 # 7fff <__i2b+0x2b>
    5508:	0ef59663          	bne	a1,a5,55f4 <emul+0x268>
    550c:	01290693          	addi	a3,s2,18
    5510:	00090793          	mv	a5,s2
    5514:	0007d703          	lhu	a4,0(a5)
    5518:	00278793          	addi	a5,a5,2
    551c:	0c071c63          	bnez	a4,55f4 <emul+0x268>
    5520:	fed79ae3          	bne	a5,a3,5514 <emul+0x188>
    5524:	000087b7          	lui	a5,0x8
    5528:	fff78793          	addi	a5,a5,-1 # 7fff <__i2b+0x2b>
    552c:	00f55713          	srli	a4,a0,0xf
    5530:	00080593          	mv	a1,a6
    5534:	01248993          	addi	s3,s1,18
    5538:	f2f80ce3          	beq	a6,a5,5470 <emul+0xe4>
    553c:	00095783          	lhu	a5,0(s2)
    5540:	00290913          	addi	s2,s2,2
    5544:	2a079a63          	bnez	a5,57f8 <emul+0x46c>
    5548:	fed91ae3          	bne	s2,a3,553c <emul+0x1b0>
    554c:	00f65793          	srli	a5,a2,0xf
    5550:	00e7c7b3          	xor	a5,a5,a4
    5554:	00f79793          	slli	a5,a5,0xf
    5558:	00f41923          	sh	a5,18(s0)
    555c:	01240713          	addi	a4,s0,18
    5560:	00040793          	mv	a5,s0
    5564:	00278793          	addi	a5,a5,2
    5568:	fe079f23          	sh	zero,-2(a5)
    556c:	fee79ce3          	bne	a5,a4,5564 <emul+0x1d8>
    5570:	01245783          	lhu	a5,18(s0)
    5574:	00008737          	lui	a4,0x8
    5578:	fff70713          	addi	a4,a4,-1 # 7fff <__i2b+0x2b>
    557c:	00e7e7b3          	or	a5,a5,a4
    5580:	00f41923          	sh	a5,18(s0)
    5584:	08c12083          	lw	ra,140(sp)
    5588:	08812403          	lw	s0,136(sp)
