
qsort.elf:     file format elf32-littleriscv


Disassembly of section .text:

00000000 <_start>:
       0:	00014297          	auipc	t0,0x14
       4:	3b028293          	addi	t0,t0,944 # 143b0 <trap_handler>
       8:	30529073          	csrw	mtvec,t0
       c:	3050e073          	csrsi	mtvec,1
      10:	00022297          	auipc	t0,0x22
      14:	8cc28293          	addi	t0,t0,-1844 # 218dc <_PathLocale>
      18:	00022317          	auipc	t1,0x22
      1c:	90430313          	addi	t1,t1,-1788 # 2191c <_bss_end>

00000020 <_bss_clear>:
      20:	0002a023          	sw	zero,0(t0)
      24:	00428293          	addi	t0,t0,4
      28:	fe62ece3          	bltu	t0,t1,20 <_bss_clear>
      2c:	00040117          	auipc	sp,0x40
      30:	fd410113          	addi	sp,sp,-44 # 40000 <_stack>
      34:	09c000ef          	jal	ra,d0 <main>
      38:	6841406f          	j	146bc <exit>

0000003c <comp>:
      3c:	fe010113          	addi	sp,sp,-32
      40:	00812c23          	sw	s0,24(sp)
      44:	00912a23          	sw	s1,20(sp)
      48:	01212823          	sw	s2,16(sp)
      4c:	00452483          	lw	s1,4(a0)
      50:	0005a903          	lw	s2,0(a1)
      54:	01312623          	sw	s3,12(sp)
      58:	00052403          	lw	s0,0(a0)
      5c:	0045a983          	lw	s3,4(a1)
      60:	00090613          	mv	a2,s2
      64:	00040513          	mv	a0,s0
      68:	00048593          	mv	a1,s1
      6c:	00098693          	mv	a3,s3
      70:	00112e23          	sw	ra,28(sp)
      74:	415100ef          	jal	ra,10c88 <__ledf2>
      78:	02054c63          	bltz	a0,b0 <comp+0x74>
      7c:	00090613          	mv	a2,s2
      80:	00098693          	mv	a3,s3
      84:	00040513          	mv	a0,s0
      88:	00048593          	mv	a1,s1
      8c:	371100ef          	jal	ra,10bfc <__eqdf2>
      90:	01c12083          	lw	ra,28(sp)
      94:	01812403          	lw	s0,24(sp)
      98:	01412483          	lw	s1,20(sp)
      9c:	01012903          	lw	s2,16(sp)
      a0:	00c12983          	lw	s3,12(sp)
      a4:	00a03533          	snez	a0,a0
      a8:	02010113          	addi	sp,sp,32
      ac:	00008067          	ret
      b0:	01c12083          	lw	ra,28(sp)
      b4:	01812403          	lw	s0,24(sp)
      b8:	01412483          	lw	s1,20(sp)
      bc:	01012903          	lw	s2,16(sp)
      c0:	00c12983          	lw	s3,12(sp)
      c4:	fff00513          	li	a0,-1
      c8:	02010113          	addi	sp,sp,32
      cc:	00008067          	ret

000000d0 <main>:
      d0:	fe010113          	addi	sp,sp,-32
      d4:	01412423          	sw	s4,8(sp)
      d8:	00020537          	lui	a0,0x20
      dc:	00021a37          	lui	s4,0x21
      e0:	00812c23          	sw	s0,24(sp)
      e4:	03c50513          	addi	a0,a0,60 # 2003c <__malloc_trim_threshold+0x4>
      e8:	f08a0413          	addi	s0,s4,-248 # 20f08 <values>
      ec:	00912a23          	sw	s1,20(sp)
      f0:	01212823          	sw	s2,16(sp)
      f4:	01312623          	sw	s3,12(sp)
      f8:	00112e23          	sw	ra,28(sp)
      fc:	03840913          	addi	s2,s0,56
     100:	344000ef          	jal	ra,444 <puts>
     104:	f08a0493          	addi	s1,s4,-248
     108:	000209b7          	lui	s3,0x20
     10c:	0004a603          	lw	a2,0(s1)
     110:	0044a683          	lw	a3,4(s1)
     114:	05098513          	addi	a0,s3,80 # 20050 <__malloc_trim_threshold+0x18>
     118:	00848493          	addi	s1,s1,8
     11c:	0ac000ef          	jal	ra,1c8 <printf>
     120:	ff2496e3          	bne	s1,s2,10c <main+0x3c>
     124:	f08a0513          	addi	a0,s4,-248
     128:	03c00693          	li	a3,60
     12c:	00800613          	li	a2,8
     130:	00700593          	li	a1,7
     134:	320000ef          	jal	ra,454 <qsort>
     138:	00020537          	lui	a0,0x20
     13c:	05450513          	addi	a0,a0,84 # 20054 <__malloc_trim_threshold+0x1c>
     140:	304000ef          	jal	ra,444 <puts>
     144:	00042603          	lw	a2,0(s0)
     148:	00442683          	lw	a3,4(s0)
     14c:	05098513          	addi	a0,s3,80
     150:	00840413          	addi	s0,s0,8
     154:	074000ef          	jal	ra,1c8 <printf>
     158:	ff2416e3          	bne	s0,s2,144 <main+0x74>
     15c:	00a00513          	li	a0,10
     160:	0c0000ef          	jal	ra,220 <putchar>
     164:	01c12083          	lw	ra,28(sp)
     168:	01812403          	lw	s0,24(sp)
     16c:	01412483          	lw	s1,20(sp)
     170:	01012903          	lw	s2,16(sp)
     174:	00c12983          	lw	s3,12(sp)
     178:	00812a03          	lw	s4,8(sp)
     17c:	00000513          	li	a0,0
     180:	02010113          	addi	sp,sp,32
     184:	00008067          	ret

00000188 <_printf_r>:
     188:	fc010113          	addi	sp,sp,-64
     18c:	02c12423          	sw	a2,40(sp)
     190:	02d12623          	sw	a3,44(sp)
     194:	02e12823          	sw	a4,48(sp)
     198:	02f12a23          	sw	a5,52(sp)
     19c:	03012c23          	sw	a6,56(sp)
     1a0:	03112e23          	sw	a7,60(sp)
     1a4:	00058613          	mv	a2,a1
     1a8:	00852583          	lw	a1,8(a0)
     1ac:	02810693          	addi	a3,sp,40
     1b0:	00112e23          	sw	ra,28(sp)
     1b4:	00d12623          	sw	a3,12(sp)
     1b8:	399000ef          	jal	ra,d50 <_vfprintf_r>
     1bc:	01c12083          	lw	ra,28(sp)
     1c0:	04010113          	addi	sp,sp,64
     1c4:	00008067          	ret

000001c8 <printf>:
     1c8:	00020337          	lui	t1,0x20
     1cc:	03032303          	lw	t1,48(t1) # 20030 <_impure_ptr>
     1d0:	fc010113          	addi	sp,sp,-64
     1d4:	02c12423          	sw	a2,40(sp)
     1d8:	02d12623          	sw	a3,44(sp)
     1dc:	02b12223          	sw	a1,36(sp)
     1e0:	02e12823          	sw	a4,48(sp)
     1e4:	02f12a23          	sw	a5,52(sp)
     1e8:	03012c23          	sw	a6,56(sp)
     1ec:	03112e23          	sw	a7,60(sp)
     1f0:	00832583          	lw	a1,8(t1)
     1f4:	02410693          	addi	a3,sp,36
     1f8:	00050613          	mv	a2,a0
     1fc:	00030513          	mv	a0,t1
     200:	00112e23          	sw	ra,28(sp)
     204:	00d12623          	sw	a3,12(sp)
     208:	349000ef          	jal	ra,d50 <_vfprintf_r>
     20c:	01c12083          	lw	ra,28(sp)
     210:	04010113          	addi	sp,sp,64
     214:	00008067          	ret

00000218 <_putchar_r>:
     218:	00852603          	lw	a2,8(a0)
     21c:	01c0006f          	j	238 <_putc_r>

00000220 <putchar>:
     220:	000207b7          	lui	a5,0x20
     224:	0307a783          	lw	a5,48(a5) # 20030 <_impure_ptr>
     228:	00050593          	mv	a1,a0
     22c:	0087a603          	lw	a2,8(a5)
     230:	00078513          	mv	a0,a5
     234:	0040006f          	j	238 <_putc_r>

00000238 <_putc_r>:
     238:	fe010113          	addi	sp,sp,-32
     23c:	01212c23          	sw	s2,24(sp)
     240:	00112e23          	sw	ra,28(sp)
     244:	00050913          	mv	s2,a0
     248:	00050663          	beqz	a0,254 <_putc_r+0x1c>
     24c:	03852783          	lw	a5,56(a0)
     250:	04078663          	beqz	a5,29c <_putc_r+0x64>
     254:	00862783          	lw	a5,8(a2)
     258:	fff78793          	addi	a5,a5,-1
     25c:	00f62423          	sw	a5,8(a2)
     260:	0007dc63          	bgez	a5,278 <_putc_r+0x40>
     264:	01862703          	lw	a4,24(a2)
     268:	04e7c663          	blt	a5,a4,2b4 <_putc_r+0x7c>
     26c:	0ff5f793          	zext.b	a5,a1
     270:	00a00713          	li	a4,10
     274:	04e78063          	beq	a5,a4,2b4 <_putc_r+0x7c>
     278:	00062783          	lw	a5,0(a2)
     27c:	0ff5f513          	zext.b	a0,a1
     280:	00178713          	addi	a4,a5,1
     284:	00e62023          	sw	a4,0(a2)
     288:	00b78023          	sb	a1,0(a5)
     28c:	01c12083          	lw	ra,28(sp)
     290:	01812903          	lw	s2,24(sp)
     294:	02010113          	addi	sp,sp,32
     298:	00008067          	ret
     29c:	00c12623          	sw	a2,12(sp)
     2a0:	00b12423          	sw	a1,8(sp)
     2a4:	711030ef          	jal	ra,41b4 <__sinit>
     2a8:	00c12603          	lw	a2,12(sp)
     2ac:	00812583          	lw	a1,8(sp)
     2b0:	fa5ff06f          	j	254 <_putc_r+0x1c>
     2b4:	01c12083          	lw	ra,28(sp)
     2b8:	00090513          	mv	a0,s2
     2bc:	01812903          	lw	s2,24(sp)
     2c0:	02010113          	addi	sp,sp,32
     2c4:	5440306f          	j	3808 <__swbuf_r>

000002c8 <putc>:
     2c8:	ff010113          	addi	sp,sp,-16
     2cc:	000207b7          	lui	a5,0x20
     2d0:	01212023          	sw	s2,0(sp)
     2d4:	0307a903          	lw	s2,48(a5) # 20030 <_impure_ptr>
     2d8:	00812423          	sw	s0,8(sp)
     2dc:	00912223          	sw	s1,4(sp)
     2e0:	00112623          	sw	ra,12(sp)
     2e4:	00050493          	mv	s1,a0
     2e8:	00058413          	mv	s0,a1
     2ec:	00090663          	beqz	s2,2f8 <putc+0x30>
     2f0:	03892783          	lw	a5,56(s2)
     2f4:	04078a63          	beqz	a5,348 <putc+0x80>
     2f8:	00842783          	lw	a5,8(s0)
     2fc:	fff78793          	addi	a5,a5,-1
     300:	00f42423          	sw	a5,8(s0)
     304:	0007dc63          	bgez	a5,31c <putc+0x54>
     308:	01842703          	lw	a4,24(s0)
     30c:	04e7c463          	blt	a5,a4,354 <putc+0x8c>
     310:	0ff4f793          	zext.b	a5,s1
     314:	00a00713          	li	a4,10
     318:	02e78e63          	beq	a5,a4,354 <putc+0x8c>
     31c:	00042783          	lw	a5,0(s0)
     320:	0ff4f513          	zext.b	a0,s1
     324:	00178713          	addi	a4,a5,1
     328:	00e42023          	sw	a4,0(s0)
     32c:	00978023          	sb	s1,0(a5)
     330:	00c12083          	lw	ra,12(sp)
     334:	00812403          	lw	s0,8(sp)
     338:	00412483          	lw	s1,4(sp)
     33c:	00012903          	lw	s2,0(sp)
     340:	01010113          	addi	sp,sp,16
     344:	00008067          	ret
     348:	00090513          	mv	a0,s2
     34c:	669030ef          	jal	ra,41b4 <__sinit>
     350:	fa9ff06f          	j	2f8 <putc+0x30>
     354:	00040613          	mv	a2,s0
     358:	00812403          	lw	s0,8(sp)
     35c:	00c12083          	lw	ra,12(sp)
     360:	00048593          	mv	a1,s1
     364:	00090513          	mv	a0,s2
     368:	00412483          	lw	s1,4(sp)
     36c:	00012903          	lw	s2,0(sp)
     370:	01010113          	addi	sp,sp,16
     374:	4940306f          	j	3808 <__swbuf_r>

00000378 <_puts_r>:
     378:	fc010113          	addi	sp,sp,-64
     37c:	02812c23          	sw	s0,56(sp)
     380:	00050413          	mv	s0,a0
     384:	00058513          	mv	a0,a1
     388:	02912a23          	sw	s1,52(sp)
     38c:	02112e23          	sw	ra,60(sp)
     390:	00058493          	mv	s1,a1
     394:	131000ef          	jal	ra,cc4 <strlen>
     398:	000207b7          	lui	a5,0x20
     39c:	06878793          	addi	a5,a5,104 # 20068 <__malloc_trim_threshold+0x30>
     3a0:	02f12423          	sw	a5,40(sp)
     3a4:	00100793          	li	a5,1
     3a8:	02f12623          	sw	a5,44(sp)
     3ac:	03842703          	lw	a4,56(s0)
     3b0:	02010793          	addi	a5,sp,32
     3b4:	00150693          	addi	a3,a0,1
     3b8:	00f12a23          	sw	a5,20(sp)
     3bc:	00200793          	li	a5,2
     3c0:	02912023          	sw	s1,32(sp)
     3c4:	02a12223          	sw	a0,36(sp)
     3c8:	00d12e23          	sw	a3,28(sp)
     3cc:	00f12c23          	sw	a5,24(sp)
     3d0:	00842583          	lw	a1,8(s0)
     3d4:	04070e63          	beqz	a4,430 <_puts_r+0xb8>
     3d8:	00c59783          	lh	a5,12(a1)
     3dc:	01279713          	slli	a4,a5,0x12
     3e0:	02074263          	bltz	a4,404 <_puts_r+0x8c>
     3e4:	0645a703          	lw	a4,100(a1)
     3e8:	000026b7          	lui	a3,0x2
     3ec:	00d7e7b3          	or	a5,a5,a3
     3f0:	ffffe6b7          	lui	a3,0xffffe
     3f4:	fff68693          	addi	a3,a3,-1 # ffffdfff <_stack+0xfffbdfff>
     3f8:	00d77733          	and	a4,a4,a3
     3fc:	00f59623          	sh	a5,12(a1)
     400:	06e5a223          	sw	a4,100(a1)
     404:	01410613          	addi	a2,sp,20
     408:	00040513          	mv	a0,s0
     40c:	244040ef          	jal	ra,4650 <__sfvwrite_r>
     410:	03c12083          	lw	ra,60(sp)
     414:	03812403          	lw	s0,56(sp)
     418:	00a03533          	snez	a0,a0
     41c:	40a00533          	neg	a0,a0
     420:	03412483          	lw	s1,52(sp)
     424:	00a56513          	ori	a0,a0,10
     428:	04010113          	addi	sp,sp,64
     42c:	00008067          	ret
     430:	00040513          	mv	a0,s0
     434:	00b12623          	sw	a1,12(sp)
     438:	57d030ef          	jal	ra,41b4 <__sinit>
     43c:	00c12583          	lw	a1,12(sp)
     440:	f99ff06f          	j	3d8 <_puts_r+0x60>

00000444 <puts>:
     444:	000207b7          	lui	a5,0x20
     448:	00050593          	mv	a1,a0
     44c:	0307a503          	lw	a0,48(a5) # 20030 <_impure_ptr>
     450:	f29ff06f          	j	378 <_puts_r>

00000454 <qsort>:
     454:	f6010113          	addi	sp,sp,-160
     458:	00c567b3          	or	a5,a0,a2
     45c:	09212823          	sw	s2,144(sp)
     460:	09412423          	sw	s4,136(sp)
     464:	09512223          	sw	s5,132(sp)
     468:	07912a23          	sw	s9,116(sp)
     46c:	08112e23          	sw	ra,156(sp)
     470:	08812c23          	sw	s0,152(sp)
     474:	08912a23          	sw	s1,148(sp)
     478:	09312623          	sw	s3,140(sp)
     47c:	09612023          	sw	s6,128(sp)
     480:	07712e23          	sw	s7,124(sp)
     484:	07812c23          	sw	s8,120(sp)
     488:	07a12823          	sw	s10,112(sp)
     48c:	07b12623          	sw	s11,108(sp)
     490:	0037f793          	andi	a5,a5,3
     494:	00050913          	mv	s2,a0
     498:	00060c93          	mv	s9,a2
     49c:	00068a13          	mv	s4,a3
     4a0:	00200a93          	li	s5,2
     4a4:	00079663          	bnez	a5,4b0 <qsort+0x5c>
     4a8:	ffc60a93          	addi	s5,a2,-4
     4ac:	01503ab3          	snez	s5,s5
     4b0:	002cd793          	srli	a5,s9,0x2
     4b4:	00f12623          	sw	a5,12(sp)
     4b8:	001c9793          	slli	a5,s9,0x1
     4bc:	00012e23          	sw	zero,28(sp)
     4c0:	41900433          	neg	s0,s9
     4c4:	00100d13          	li	s10,1
     4c8:	00f12423          	sw	a5,8(sp)
     4cc:	039587b3          	mul	a5,a1,s9
     4d0:	01990733          	add	a4,s2,s9
     4d4:	00070693          	mv	a3,a4
     4d8:	00d12a23          	sw	a3,20(sp)
     4dc:	00e12223          	sw	a4,4(sp)
     4e0:	00600713          	li	a4,6
     4e4:	00f906b3          	add	a3,s2,a5
     4e8:	00d12823          	sw	a3,16(sp)
     4ec:	3ab77c63          	bgeu	a4,a1,8a4 <qsort+0x450>
     4f0:	0015dc13          	srli	s8,a1,0x1
     4f4:	039c0c33          	mul	s8,s8,s9
     4f8:	419787b3          	sub	a5,a5,s9
     4fc:	00700713          	li	a4,7
     500:	00f90db3          	add	s11,s2,a5
     504:	01890c33          	add	s8,s2,s8
     508:	02e58a63          	beq	a1,a4,53c <qsort+0xe8>
     50c:	02800713          	li	a4,40
     510:	000d8993          	mv	s3,s11
     514:	00090493          	mv	s1,s2
     518:	54b76e63          	bltu	a4,a1,a74 <qsort+0x620>
     51c:	000c0593          	mv	a1,s8
     520:	00048513          	mv	a0,s1
     524:	000a00e7          	jalr	s4
     528:	00098593          	mv	a1,s3
     52c:	52054063          	bltz	a0,a4c <qsort+0x5f8>
     530:	000c0513          	mv	a0,s8
     534:	000a00e7          	jalr	s4
     538:	14a05c63          	blez	a0,690 <qsort+0x23c>
     53c:	160a9863          	bnez	s5,6ac <qsort+0x258>
     540:	000c2683          	lw	a3,0(s8)
     544:	00092703          	lw	a4,0(s2)
     548:	00d92023          	sw	a3,0(s2)
     54c:	00ec2023          	sw	a4,0(s8)
     550:	01412783          	lw	a5,20(sp)
     554:	18fde663          	bltu	s11,a5,6e0 <qsort+0x28c>
     558:	00078b13          	mv	s6,a5
     55c:	01978c33          	add	s8,a5,s9
     560:	000d8993          	mv	s3,s11
     564:	00f12c23          	sw	a5,24(sp)
     568:	00000b93          	li	s7,0
     56c:	00090593          	mv	a1,s2
     570:	000b0513          	mv	a0,s6
     574:	000a00e7          	jalr	s4
     578:	000b0493          	mv	s1,s6
     57c:	04a05063          	blez	a0,5bc <qsort+0x168>
     580:	076dea63          	bltu	s11,s6,5f4 <qsort+0x1a0>
     584:	00090593          	mv	a1,s2
     588:	000d8513          	mv	a0,s11
     58c:	000a00e7          	jalr	s4
     590:	20054863          	bltz	a0,7a0 <qsort+0x34c>
     594:	02051063          	bnez	a0,5b4 <qsort+0x160>
     598:	1c0a9a63          	bnez	s5,76c <qsort+0x318>
     59c:	0009a683          	lw	a3,0(s3)
     5a0:	000da703          	lw	a4,0(s11)
     5a4:	00dda023          	sw	a3,0(s11)
     5a8:	00e9a023          	sw	a4,0(s3)
     5ac:	008989b3          	add	s3,s3,s0
     5b0:	00100b93          	li	s7,1
     5b4:	008d8db3          	add	s11,s11,s0
     5b8:	fc9ff06f          	j	580 <qsort+0x12c>
     5bc:	02051463          	bnez	a0,5e4 <qsort+0x190>
     5c0:	3e0a9863          	bnez	s5,9b0 <qsort+0x55c>
     5c4:	01812783          	lw	a5,24(sp)
     5c8:	000b2603          	lw	a2,0(s6)
     5cc:	0007a703          	lw	a4,0(a5)
     5d0:	00c7a023          	sw	a2,0(a5)
     5d4:	019786b3          	add	a3,a5,s9
     5d8:	00eb2023          	sw	a4,0(s6)
     5dc:	00d12c23          	sw	a3,24(sp)
     5e0:	00100b93          	li	s7,1
     5e4:	000c0493          	mv	s1,s8
     5e8:	019b0b33          	add	s6,s6,s9
     5ec:	019c0c33          	add	s8,s8,s9
     5f0:	f69dfee3          	bgeu	s11,s1,56c <qsort+0x118>
     5f4:	0e0b8663          	beqz	s7,6e0 <qsort+0x28c>
     5f8:	01812783          	lw	a5,24(sp)
     5fc:	40f485b3          	sub	a1,s1,a5
     600:	41278733          	sub	a4,a5,s2
     604:	00e5d463          	bge	a1,a4,60c <qsort+0x1b8>
     608:	00058713          	mv	a4,a1
     60c:	01012783          	lw	a5,16(sp)
     610:	413786b3          	sub	a3,a5,s3
     614:	41968533          	sub	a0,a3,s9
     618:	41b987b3          	sub	a5,s3,s11
     61c:	00a7f463          	bgeu	a5,a0,624 <qsort+0x1d0>
     620:	00078513          	mv	a0,a5
     624:	3c071063          	bnez	a4,9e4 <qsort+0x590>
     628:	50051863          	bnez	a0,b38 <qsort+0x6e4>
     62c:	01012703          	lw	a4,16(sp)
     630:	00058493          	mv	s1,a1
     634:	40f70533          	sub	a0,a4,a5
     638:	00f5fc63          	bgeu	a1,a5,650 <qsort+0x1fc>
     63c:	00090713          	mv	a4,s2
     640:	00078493          	mv	s1,a5
     644:	00050913          	mv	s2,a0
     648:	00058793          	mv	a5,a1
     64c:	00070513          	mv	a0,a4
     650:	34fcfa63          	bgeu	s9,a5,9a4 <qsort+0x550>
     654:	01c12603          	lw	a2,28(sp)
     658:	00700713          	li	a4,7
     65c:	4cc76063          	bltu	a4,a2,b1c <qsort+0x6c8>
     660:	0394d6b3          	divu	a3,s1,s9
     664:	00361713          	slli	a4,a2,0x3
     668:	02010593          	addi	a1,sp,32
     66c:	04070713          	addi	a4,a4,64
     670:	00b70733          	add	a4,a4,a1
     674:	00160613          	addi	a2,a2,1
     678:	fd272023          	sw	s2,-64(a4)
     67c:	00c12e23          	sw	a2,28(sp)
     680:	00050913          	mv	s2,a0
     684:	0397d5b3          	divu	a1,a5,s9
     688:	fcd72223          	sw	a3,-60(a4)
     68c:	e41ff06f          	j	4cc <qsort+0x78>
     690:	00098593          	mv	a1,s3
     694:	00048513          	mv	a0,s1
     698:	000a00e7          	jalr	s4
     69c:	00048c13          	mv	s8,s1
     6a0:	e8054ee3          	bltz	a0,53c <qsort+0xe8>
     6a4:	00098c13          	mv	s8,s3
     6a8:	e80a8ce3          	beqz	s5,540 <qsort+0xec>
     6ac:	00090713          	mv	a4,s2
     6b0:	4faa8863          	beq	s5,s10,ba0 <qsort+0x74c>
     6b4:	000c4603          	lbu	a2,0(s8)
     6b8:	00074683          	lbu	a3,0(a4)
     6bc:	01412783          	lw	a5,20(sp)
     6c0:	00170713          	addi	a4,a4,1
     6c4:	001c0c13          	addi	s8,s8,1
     6c8:	fec70fa3          	sb	a2,-1(a4)
     6cc:	fedc0fa3          	sb	a3,-1(s8)
     6d0:	40e786b3          	sub	a3,a5,a4
     6d4:	fed040e3          	bgtz	a3,6b4 <qsort+0x260>
     6d8:	01412783          	lw	a5,20(sp)
     6dc:	e6fdfee3          	bgeu	s11,a5,558 <qsort+0x104>
     6e0:	01012783          	lw	a5,16(sp)
     6e4:	01412703          	lw	a4,20(sp)
     6e8:	04f77a63          	bgeu	a4,a5,73c <qsort+0x2e8>
     6ec:	00412783          	lw	a5,4(sp)
     6f0:	02f97c63          	bgeu	s2,a5,728 <qsort+0x2d4>
     6f4:	00078993          	mv	s3,a5
     6f8:	00098493          	mv	s1,s3
     6fc:	008989b3          	add	s3,s3,s0
     700:	00048593          	mv	a1,s1
     704:	00098513          	mv	a0,s3
     708:	000a00e7          	jalr	s4
     70c:	00a05e63          	blez	a0,728 <qsort+0x2d4>
     710:	120a9863          	bnez	s5,840 <qsort+0x3ec>
     714:	0009a703          	lw	a4,0(s3)
     718:	0004a783          	lw	a5,0(s1)
     71c:	00e4a023          	sw	a4,0(s1)
     720:	00f9a023          	sw	a5,0(s3)
     724:	fd396ae3          	bltu	s2,s3,6f8 <qsort+0x2a4>
     728:	00412783          	lw	a5,4(sp)
     72c:	01012703          	lw	a4,16(sp)
     730:	019787b3          	add	a5,a5,s9
     734:	00f12223          	sw	a5,4(sp)
     738:	fae7eae3          	bltu	a5,a4,6ec <qsort+0x298>
     73c:	01c12783          	lw	a5,28(sp)
     740:	1c078263          	beqz	a5,904 <qsort+0x4b0>
     744:	01c12783          	lw	a5,28(sp)
     748:	02010713          	addi	a4,sp,32
     74c:	fff78793          	addi	a5,a5,-1
     750:	00f12e23          	sw	a5,28(sp)
     754:	00379793          	slli	a5,a5,0x3
     758:	04078793          	addi	a5,a5,64
     75c:	00e787b3          	add	a5,a5,a4
     760:	fc07a903          	lw	s2,-64(a5)
     764:	fc47a583          	lw	a1,-60(a5)
     768:	d65ff06f          	j	4cc <qsort+0x78>
     76c:	00098693          	mv	a3,s3
     770:	000d8713          	mv	a4,s11
     774:	019d8533          	add	a0,s11,s9
     778:	05aa8663          	beq	s5,s10,7c4 <qsort+0x370>
     77c:	0006c583          	lbu	a1,0(a3)
     780:	00074603          	lbu	a2,0(a4)
     784:	00168693          	addi	a3,a3,1
     788:	00170713          	addi	a4,a4,1
     78c:	feb70fa3          	sb	a1,-1(a4)
     790:	fec68fa3          	sb	a2,-1(a3)
     794:	40e50633          	sub	a2,a0,a4
     798:	fec042e3          	bgtz	a2,77c <qsort+0x328>
     79c:	e11ff06f          	j	5ac <qsort+0x158>
     7a0:	040a9663          	bnez	s5,7ec <qsort+0x398>
     7a4:	000da683          	lw	a3,0(s11)
     7a8:	000b2703          	lw	a4,0(s6)
     7ac:	00db2023          	sw	a3,0(s6)
     7b0:	00eda023          	sw	a4,0(s11)
     7b4:	000c0493          	mv	s1,s8
     7b8:	008d8db3          	add	s11,s11,s0
     7bc:	00100b93          	li	s7,1
     7c0:	e29ff06f          	j	5e8 <qsort+0x194>
     7c4:	00c12603          	lw	a2,12(sp)
     7c8:	0006a503          	lw	a0,0(a3)
     7cc:	00072583          	lw	a1,0(a4)
     7d0:	00468693          	addi	a3,a3,4
     7d4:	00a72023          	sw	a0,0(a4)
     7d8:	fff60613          	addi	a2,a2,-1
     7dc:	feb6ae23          	sw	a1,-4(a3)
     7e0:	00470713          	addi	a4,a4,4
     7e4:	fec042e3          	bgtz	a2,7c8 <qsort+0x374>
     7e8:	dc5ff06f          	j	5ac <qsort+0x158>
     7ec:	000d8713          	mv	a4,s11
     7f0:	03aa8463          	beq	s5,s10,818 <qsort+0x3c4>
     7f4:	00074603          	lbu	a2,0(a4)
     7f8:	0004c683          	lbu	a3,0(s1)
     7fc:	00170713          	addi	a4,a4,1
     800:	00148493          	addi	s1,s1,1
     804:	fec48fa3          	sb	a2,-1(s1)
     808:	fed70fa3          	sb	a3,-1(a4)
     80c:	409c06b3          	sub	a3,s8,s1
     810:	fed042e3          	bgtz	a3,7f4 <qsort+0x3a0>
     814:	fa1ff06f          	j	7b4 <qsort+0x360>
     818:	00c12683          	lw	a3,12(sp)
     81c:	00072583          	lw	a1,0(a4)
     820:	0004a603          	lw	a2,0(s1)
     824:	00470713          	addi	a4,a4,4
     828:	00b4a023          	sw	a1,0(s1)
     82c:	fff68693          	addi	a3,a3,-1
     830:	fec72e23          	sw	a2,-4(a4)
     834:	00448493          	addi	s1,s1,4
     838:	fed042e3          	bgtz	a3,81c <qsort+0x3c8>
     83c:	f79ff06f          	j	7b4 <qsort+0x360>
     840:	00812703          	lw	a4,8(sp)
     844:	00098793          	mv	a5,s3
     848:	00e98633          	add	a2,s3,a4
     84c:	03aa8663          	beq	s5,s10,878 <qsort+0x424>
     850:	0007c683          	lbu	a3,0(a5)
     854:	0004c703          	lbu	a4,0(s1)
     858:	00178793          	addi	a5,a5,1
     85c:	00148493          	addi	s1,s1,1
     860:	fed48fa3          	sb	a3,-1(s1)
     864:	fee78fa3          	sb	a4,-1(a5)
     868:	40960733          	sub	a4,a2,s1
     86c:	fee042e3          	bgtz	a4,850 <qsort+0x3fc>
     870:	e93964e3          	bltu	s2,s3,6f8 <qsort+0x2a4>
     874:	eb5ff06f          	j	728 <qsort+0x2d4>
     878:	00c12703          	lw	a4,12(sp)
     87c:	0007a603          	lw	a2,0(a5)
     880:	0004a683          	lw	a3,0(s1)
     884:	00478793          	addi	a5,a5,4
     888:	00c4a023          	sw	a2,0(s1)
     88c:	fff70713          	addi	a4,a4,-1
     890:	fed7ae23          	sw	a3,-4(a5)
     894:	00448493          	addi	s1,s1,4
     898:	fee042e3          	bgtz	a4,87c <qsort+0x428>
     89c:	e5396ee3          	bltu	s2,s3,6f8 <qsort+0x2a4>
     8a0:	e89ff06f          	j	728 <qsort+0x2d4>
     8a4:	00412703          	lw	a4,4(sp)
     8a8:	e8d77ae3          	bgeu	a4,a3,73c <qsort+0x2e8>
     8ac:	00412783          	lw	a5,4(sp)
     8b0:	02f97c63          	bgeu	s2,a5,8e8 <qsort+0x494>
     8b4:	00078993          	mv	s3,a5
     8b8:	00098493          	mv	s1,s3
     8bc:	008989b3          	add	s3,s3,s0
     8c0:	00048593          	mv	a1,s1
     8c4:	00098513          	mv	a0,s3
     8c8:	000a00e7          	jalr	s4
     8cc:	00a05e63          	blez	a0,8e8 <qsort+0x494>
     8d0:	060a9863          	bnez	s5,940 <qsort+0x4ec>
     8d4:	0009a703          	lw	a4,0(s3)
     8d8:	0004a783          	lw	a5,0(s1)
     8dc:	00e4a023          	sw	a4,0(s1)
     8e0:	00f9a023          	sw	a5,0(s3)
     8e4:	fd396ae3          	bltu	s2,s3,8b8 <qsort+0x464>
     8e8:	00412783          	lw	a5,4(sp)
     8ec:	01012703          	lw	a4,16(sp)
     8f0:	019787b3          	add	a5,a5,s9
     8f4:	00f12223          	sw	a5,4(sp)
     8f8:	fae7eae3          	bltu	a5,a4,8ac <qsort+0x458>
     8fc:	01c12783          	lw	a5,28(sp)
     900:	e40792e3          	bnez	a5,744 <qsort+0x2f0>
     904:	09c12083          	lw	ra,156(sp)
     908:	09812403          	lw	s0,152(sp)
     90c:	09412483          	lw	s1,148(sp)
     910:	09012903          	lw	s2,144(sp)
     914:	08c12983          	lw	s3,140(sp)
     918:	08812a03          	lw	s4,136(sp)
     91c:	08412a83          	lw	s5,132(sp)
     920:	08012b03          	lw	s6,128(sp)
     924:	07c12b83          	lw	s7,124(sp)
     928:	07812c03          	lw	s8,120(sp)
     92c:	07412c83          	lw	s9,116(sp)
     930:	07012d03          	lw	s10,112(sp)
     934:	06c12d83          	lw	s11,108(sp)
     938:	0a010113          	addi	sp,sp,160
     93c:	00008067          	ret
     940:	00812703          	lw	a4,8(sp)
     944:	00098793          	mv	a5,s3
     948:	00e98633          	add	a2,s3,a4
     94c:	03aa8663          	beq	s5,s10,978 <qsort+0x524>
     950:	0007c683          	lbu	a3,0(a5)
     954:	0004c703          	lbu	a4,0(s1)
     958:	00178793          	addi	a5,a5,1
     95c:	00148493          	addi	s1,s1,1
     960:	fed48fa3          	sb	a3,-1(s1)
     964:	fee78fa3          	sb	a4,-1(a5)
     968:	40960733          	sub	a4,a2,s1
     96c:	fee042e3          	bgtz	a4,950 <qsort+0x4fc>
     970:	f53964e3          	bltu	s2,s3,8b8 <qsort+0x464>
     974:	f75ff06f          	j	8e8 <qsort+0x494>
     978:	00c12703          	lw	a4,12(sp)
     97c:	0007a603          	lw	a2,0(a5)
     980:	0004a683          	lw	a3,0(s1)
     984:	00478793          	addi	a5,a5,4
     988:	00c4a023          	sw	a2,0(s1)
     98c:	fff70713          	addi	a4,a4,-1
     990:	fed7ae23          	sw	a3,-4(a5)
     994:	00448493          	addi	s1,s1,4
     998:	fee042e3          	bgtz	a4,97c <qsort+0x528>
     99c:	f1396ee3          	bltu	s2,s3,8b8 <qsort+0x464>
     9a0:	f49ff06f          	j	8e8 <qsort+0x494>
     9a4:	d89cfce3          	bgeu	s9,s1,73c <qsort+0x2e8>
     9a8:	0394d5b3          	divu	a1,s1,s9
     9ac:	b21ff06f          	j	4cc <qsort+0x78>
     9b0:	01812783          	lw	a5,24(sp)
     9b4:	00078713          	mv	a4,a5
     9b8:	019786b3          	add	a3,a5,s9
     9bc:	1baa8a63          	beq	s5,s10,b70 <qsort+0x71c>
     9c0:	0004c583          	lbu	a1,0(s1)
     9c4:	00074603          	lbu	a2,0(a4)
     9c8:	00148493          	addi	s1,s1,1
     9cc:	00170713          	addi	a4,a4,1
     9d0:	feb70fa3          	sb	a1,-1(a4)
     9d4:	fec48fa3          	sb	a2,-1(s1)
     9d8:	40e68633          	sub	a2,a3,a4
     9dc:	fec042e3          	bgtz	a2,9c0 <qsort+0x56c>
     9e0:	bfdff06f          	j	5dc <qsort+0x188>
     9e4:	00200813          	li	a6,2
     9e8:	40e486b3          	sub	a3,s1,a4
     9ec:	00090613          	mv	a2,s2
     9f0:	00e908b3          	add	a7,s2,a4
     9f4:	250a9663          	bne	s5,a6,c40 <qsort+0x7ec>
     9f8:	0006c803          	lbu	a6,0(a3)
     9fc:	00064703          	lbu	a4,0(a2)
     a00:	00168693          	addi	a3,a3,1
     a04:	00160613          	addi	a2,a2,1
     a08:	ff060fa3          	sb	a6,-1(a2)
     a0c:	fee68fa3          	sb	a4,-1(a3)
     a10:	40c88733          	sub	a4,a7,a2
     a14:	fee042e3          	bgtz	a4,9f8 <qsort+0x5a4>
     a18:	c0050ae3          	beqz	a0,62c <qsort+0x1d8>
     a1c:	01012703          	lw	a4,16(sp)
     a20:	40a70733          	sub	a4,a4,a0
     a24:	00a486b3          	add	a3,s1,a0
     a28:	00074803          	lbu	a6,0(a4)
     a2c:	0004c603          	lbu	a2,0(s1)
     a30:	00170713          	addi	a4,a4,1
     a34:	00148493          	addi	s1,s1,1
     a38:	ff048fa3          	sb	a6,-1(s1)
     a3c:	fec70fa3          	sb	a2,-1(a4)
     a40:	40968633          	sub	a2,a3,s1
     a44:	fec042e3          	bgtz	a2,a28 <qsort+0x5d4>
     a48:	be5ff06f          	j	62c <qsort+0x1d8>
     a4c:	000c0513          	mv	a0,s8
     a50:	000a00e7          	jalr	s4
     a54:	ae0544e3          	bltz	a0,53c <qsort+0xe8>
     a58:	00098593          	mv	a1,s3
     a5c:	00048513          	mv	a0,s1
     a60:	000a00e7          	jalr	s4
     a64:	00098c13          	mv	s8,s3
     a68:	ac054ae3          	bltz	a0,53c <qsort+0xe8>
     a6c:	00048c13          	mv	s8,s1
     a70:	acdff06f          	j	53c <qsort+0xe8>
     a74:	0035d593          	srli	a1,a1,0x3
     a78:	039589b3          	mul	s3,a1,s9
     a7c:	00090513          	mv	a0,s2
     a80:	013904b3          	add	s1,s2,s3
     a84:	00048593          	mv	a1,s1
     a88:	000a00e7          	jalr	s4
     a8c:	00199793          	slli	a5,s3,0x1
     a90:	01348b33          	add	s6,s1,s3
     a94:	00f12c23          	sw	a5,24(sp)
     a98:	000b0593          	mv	a1,s6
     a9c:	20054063          	bltz	a0,c9c <qsort+0x848>
     aa0:	00048513          	mv	a0,s1
     aa4:	000a00e7          	jalr	s4
     aa8:	12a05e63          	blez	a0,be4 <qsort+0x790>
     aac:	413c0b33          	sub	s6,s8,s3
     ab0:	000c0593          	mv	a1,s8
     ab4:	000b0513          	mv	a0,s6
     ab8:	000a00e7          	jalr	s4
     abc:	013c0bb3          	add	s7,s8,s3
     ac0:	000b8593          	mv	a1,s7
     ac4:	14054a63          	bltz	a0,c18 <qsort+0x7c4>
     ac8:	000c0513          	mv	a0,s8
     acc:	000a00e7          	jalr	s4
     ad0:	0ea05c63          	blez	a0,bc8 <qsort+0x774>
     ad4:	00199793          	slli	a5,s3,0x1
     ad8:	40fd8bb3          	sub	s7,s11,a5
     adc:	013b89b3          	add	s3,s7,s3
     ae0:	00098593          	mv	a1,s3
     ae4:	000b8513          	mv	a0,s7
     ae8:	000a00e7          	jalr	s4
     aec:	000d8593          	mv	a1,s11
     af0:	18054263          	bltz	a0,c74 <qsort+0x820>
     af4:	00098513          	mv	a0,s3
     af8:	000a00e7          	jalr	s4
     afc:	a2a040e3          	bgtz	a0,51c <qsort+0xc8>
     b00:	000d8593          	mv	a1,s11
     b04:	000b8513          	mv	a0,s7
     b08:	000a00e7          	jalr	s4
     b0c:	000b8993          	mv	s3,s7
     b10:	a00546e3          	bltz	a0,51c <qsort+0xc8>
     b14:	000d8993          	mv	s3,s11
     b18:	a05ff06f          	j	51c <qsort+0xc8>
     b1c:	0397d5b3          	divu	a1,a5,s9
     b20:	000a0693          	mv	a3,s4
     b24:	000c8613          	mv	a2,s9
     b28:	92dff0ef          	jal	ra,454 <qsort>
     b2c:	c09cfce3          	bgeu	s9,s1,744 <qsort+0x2f0>
     b30:	0394d5b3          	divu	a1,s1,s9
     b34:	999ff06f          	j	4cc <qsort+0x78>
     b38:	01012703          	lw	a4,16(sp)
     b3c:	00200693          	li	a3,2
     b40:	40a70733          	sub	a4,a4,a0
     b44:	eeda80e3          	beq	s5,a3,a24 <qsort+0x5d0>
     b48:	00255693          	srli	a3,a0,0x2
     b4c:	00072503          	lw	a0,0(a4)
     b50:	0004a603          	lw	a2,0(s1)
     b54:	00470713          	addi	a4,a4,4
     b58:	00a4a023          	sw	a0,0(s1)
     b5c:	fff68693          	addi	a3,a3,-1
     b60:	fec72e23          	sw	a2,-4(a4)
     b64:	00448493          	addi	s1,s1,4
     b68:	fed042e3          	bgtz	a3,b4c <qsort+0x6f8>
     b6c:	ac1ff06f          	j	62c <qsort+0x1d8>
     b70:	00c12683          	lw	a3,12(sp)
     b74:	0004a583          	lw	a1,0(s1)
     b78:	00072603          	lw	a2,0(a4)
     b7c:	00448493          	addi	s1,s1,4
     b80:	00b72023          	sw	a1,0(a4)
     b84:	fff68693          	addi	a3,a3,-1
     b88:	fec4ae23          	sw	a2,-4(s1)
     b8c:	00470713          	addi	a4,a4,4
     b90:	fed042e3          	bgtz	a3,b74 <qsort+0x720>
     b94:	01812783          	lw	a5,24(sp)
     b98:	019786b3          	add	a3,a5,s9
     b9c:	a41ff06f          	j	5dc <qsort+0x188>
     ba0:	00c12683          	lw	a3,12(sp)
     ba4:	000c2583          	lw	a1,0(s8)
     ba8:	00072603          	lw	a2,0(a4)
     bac:	004c0c13          	addi	s8,s8,4
     bb0:	00b72023          	sw	a1,0(a4)
     bb4:	fff68693          	addi	a3,a3,-1
     bb8:	fecc2e23          	sw	a2,-4(s8)
     bbc:	00470713          	addi	a4,a4,4
     bc0:	fed042e3          	bgtz	a3,ba4 <qsort+0x750>
     bc4:	98dff06f          	j	550 <qsort+0xfc>
     bc8:	000b8593          	mv	a1,s7
     bcc:	000b0513          	mv	a0,s6
     bd0:	000a00e7          	jalr	s4
     bd4:	000b0c13          	mv	s8,s6
     bd8:	ee054ee3          	bltz	a0,ad4 <qsort+0x680>
     bdc:	000b8c13          	mv	s8,s7
     be0:	ef5ff06f          	j	ad4 <qsort+0x680>
     be4:	000b0593          	mv	a1,s6
     be8:	00090513          	mv	a0,s2
     bec:	000a00e7          	jalr	s4
     bf0:	00090493          	mv	s1,s2
     bf4:	ea054ce3          	bltz	a0,aac <qsort+0x658>
     bf8:	000b0493          	mv	s1,s6
     bfc:	413c0b33          	sub	s6,s8,s3
     c00:	000c0593          	mv	a1,s8
     c04:	000b0513          	mv	a0,s6
     c08:	000a00e7          	jalr	s4
     c0c:	013c0bb3          	add	s7,s8,s3
     c10:	000b8593          	mv	a1,s7
     c14:	ea055ae3          	bgez	a0,ac8 <qsort+0x674>
     c18:	000c0513          	mv	a0,s8
     c1c:	000a00e7          	jalr	s4
     c20:	ea054ae3          	bltz	a0,ad4 <qsort+0x680>
     c24:	000b8593          	mv	a1,s7
     c28:	000b0513          	mv	a0,s6
     c2c:	000a00e7          	jalr	s4
     c30:	000b8c13          	mv	s8,s7
     c34:	ea0540e3          	bltz	a0,ad4 <qsort+0x680>
     c38:	000b0c13          	mv	s8,s6
     c3c:	e99ff06f          	j	ad4 <qsort+0x680>
     c40:	00275713          	srli	a4,a4,0x2
     c44:	0006a883          	lw	a7,0(a3)
     c48:	00062803          	lw	a6,0(a2)
     c4c:	00468693          	addi	a3,a3,4
     c50:	01162023          	sw	a7,0(a2)
     c54:	fff70713          	addi	a4,a4,-1
     c58:	ff06ae23          	sw	a6,-4(a3)
     c5c:	00460613          	addi	a2,a2,4
     c60:	fee042e3          	bgtz	a4,c44 <qsort+0x7f0>
     c64:	9c0504e3          	beqz	a0,62c <qsort+0x1d8>
     c68:	01012703          	lw	a4,16(sp)
     c6c:	40a70733          	sub	a4,a4,a0
     c70:	ed9ff06f          	j	b48 <qsort+0x6f4>
     c74:	00098513          	mv	a0,s3
     c78:	000a00e7          	jalr	s4
     c7c:	8a0540e3          	bltz	a0,51c <qsort+0xc8>
     c80:	000d8593          	mv	a1,s11
     c84:	000b8513          	mv	a0,s7
     c88:	000a00e7          	jalr	s4
     c8c:	000d8993          	mv	s3,s11
     c90:	880546e3          	bltz	a0,51c <qsort+0xc8>
     c94:	000b8993          	mv	s3,s7
     c98:	885ff06f          	j	51c <qsort+0xc8>
     c9c:	00048513          	mv	a0,s1
     ca0:	000a00e7          	jalr	s4
     ca4:	e00544e3          	bltz	a0,aac <qsort+0x658>
     ca8:	000b0593          	mv	a1,s6
     cac:	00090513          	mv	a0,s2
     cb0:	000a00e7          	jalr	s4
     cb4:	000b0493          	mv	s1,s6
     cb8:	de054ae3          	bltz	a0,aac <qsort+0x658>
     cbc:	00090493          	mv	s1,s2
     cc0:	dedff06f          	j	aac <qsort+0x658>

00000cc4 <strlen>:
     cc4:	00357793          	andi	a5,a0,3
     cc8:	00050713          	mv	a4,a0
     ccc:	04079c63          	bnez	a5,d24 <strlen+0x60>
     cd0:	7f7f86b7          	lui	a3,0x7f7f8
     cd4:	f7f68693          	addi	a3,a3,-129 # 7f7f7f7f <_stack+0x7f7b7f7f>
     cd8:	fff00593          	li	a1,-1
     cdc:	00072603          	lw	a2,0(a4)
     ce0:	00470713          	addi	a4,a4,4
     ce4:	00d677b3          	and	a5,a2,a3
     ce8:	00d787b3          	add	a5,a5,a3
     cec:	00c7e7b3          	or	a5,a5,a2
     cf0:	00d7e7b3          	or	a5,a5,a3
     cf4:	feb784e3          	beq	a5,a1,cdc <strlen+0x18>
     cf8:	ffc74683          	lbu	a3,-4(a4)
     cfc:	40a707b3          	sub	a5,a4,a0
     d00:	04068463          	beqz	a3,d48 <strlen+0x84>
     d04:	ffd74683          	lbu	a3,-3(a4)
     d08:	02068c63          	beqz	a3,d40 <strlen+0x7c>
     d0c:	ffe74503          	lbu	a0,-2(a4)
     d10:	00a03533          	snez	a0,a0
     d14:	00f50533          	add	a0,a0,a5
     d18:	ffe50513          	addi	a0,a0,-2
     d1c:	00008067          	ret
     d20:	fa0688e3          	beqz	a3,cd0 <strlen+0xc>
     d24:	00074783          	lbu	a5,0(a4)
     d28:	00170713          	addi	a4,a4,1
     d2c:	00377693          	andi	a3,a4,3
     d30:	fe0798e3          	bnez	a5,d20 <strlen+0x5c>
     d34:	40a70733          	sub	a4,a4,a0
     d38:	fff70513          	addi	a0,a4,-1
     d3c:	00008067          	ret
     d40:	ffd78513          	addi	a0,a5,-3
     d44:	00008067          	ret
     d48:	ffc78513          	addi	a0,a5,-4
     d4c:	00008067          	ret

00000d50 <_vfprintf_r>:
     d50:	e1010113          	addi	sp,sp,-496
     d54:	1e112623          	sw	ra,492(sp)
     d58:	1d512a23          	sw	s5,468(sp)
     d5c:	1d612823          	sw	s6,464(sp)
     d60:	1d712623          	sw	s7,460(sp)
     d64:	00060a93          	mv	s5,a2
     d68:	00058b93          	mv	s7,a1
     d6c:	00d12a23          	sw	a3,20(sp)
     d70:	1e812423          	sw	s0,488(sp)
     d74:	1e912223          	sw	s1,484(sp)
     d78:	1f212023          	sw	s2,480(sp)
     d7c:	1d312e23          	sw	s3,476(sp)
     d80:	1d412c23          	sw	s4,472(sp)
     d84:	1d812423          	sw	s8,456(sp)
     d88:	1d912223          	sw	s9,452(sp)
     d8c:	1da12023          	sw	s10,448(sp)
     d90:	1bb12e23          	sw	s11,444(sp)
     d94:	00050b13          	mv	s6,a0
     d98:	22d060ef          	jal	ra,77c4 <_localeconv_r>
     d9c:	00052783          	lw	a5,0(a0)
     da0:	00078513          	mv	a0,a5
     da4:	02f12823          	sw	a5,48(sp)
     da8:	f1dff0ef          	jal	ra,cc4 <strlen>
     dac:	02a12623          	sw	a0,44(sp)
     db0:	0e012823          	sw	zero,240(sp)
     db4:	0e012a23          	sw	zero,244(sp)
     db8:	0e012c23          	sw	zero,248(sp)
     dbc:	0e012e23          	sw	zero,252(sp)
     dc0:	000b0663          	beqz	s6,dcc <_vfprintf_r+0x7c>
     dc4:	038b2783          	lw	a5,56(s6)
     dc8:	70078263          	beqz	a5,14cc <_vfprintf_r+0x77c>
     dcc:	00cb9703          	lh	a4,12(s7)
     dd0:	000026b7          	lui	a3,0x2
     dd4:	01071793          	slli	a5,a4,0x10
     dd8:	0107d793          	srli	a5,a5,0x10
     ddc:	00d7f633          	and	a2,a5,a3
     de0:	02061863          	bnez	a2,e10 <_vfprintf_r+0xc0>
     de4:	064ba603          	lw	a2,100(s7)
     de8:	00d767b3          	or	a5,a4,a3
     dec:	01079793          	slli	a5,a5,0x10
     df0:	ffffe737          	lui	a4,0xffffe
     df4:	4107d793          	srai	a5,a5,0x10
     df8:	fff70713          	addi	a4,a4,-1 # ffffdfff <_stack+0xfffbdfff>
     dfc:	00e67733          	and	a4,a2,a4
     e00:	00fb9623          	sh	a5,12(s7)
     e04:	01079793          	slli	a5,a5,0x10
     e08:	06eba223          	sw	a4,100(s7)
     e0c:	0107d793          	srli	a5,a5,0x10
     e10:	0087f713          	andi	a4,a5,8
     e14:	2e070a63          	beqz	a4,1108 <_vfprintf_r+0x3b8>
     e18:	010ba703          	lw	a4,16(s7)
     e1c:	2e070663          	beqz	a4,1108 <_vfprintf_r+0x3b8>
     e20:	01a7f793          	andi	a5,a5,26
     e24:	00a00713          	li	a4,10
     e28:	30e78263          	beq	a5,a4,112c <_vfprintf_r+0x3dc>
     e2c:	10c10793          	addi	a5,sp,268
     e30:	0ef12223          	sw	a5,228(sp)
     e34:	00078893          	mv	a7,a5
     e38:	000207b7          	lui	a5,0x20
     e3c:	0b078793          	addi	a5,a5,176 # 200b0 <__malloc_trim_threshold+0x78>
     e40:	000a8d13          	mv	s10,s5
     e44:	00f12c23          	sw	a5,24(sp)
     e48:	000d4703          	lbu	a4,0(s10)
     e4c:	000207b7          	lui	a5,0x20
     e50:	2c478793          	addi	a5,a5,708 # 202c4 <zeroes.0>
     e54:	0e012623          	sw	zero,236(sp)
     e58:	0e012423          	sw	zero,232(sp)
     e5c:	02012023          	sw	zero,32(sp)
     e60:	02012a23          	sw	zero,52(sp)
     e64:	02012c23          	sw	zero,56(sp)
     e68:	02012e23          	sw	zero,60(sp)
     e6c:	04012423          	sw	zero,72(sp)
     e70:	04012623          	sw	zero,76(sp)
     e74:	00012623          	sw	zero,12(sp)
     e78:	00f12423          	sw	a5,8(sp)
     e7c:	22070863          	beqz	a4,10ac <_vfprintf_r+0x35c>
     e80:	000d0413          	mv	s0,s10
     e84:	02500693          	li	a3,37
     e88:	30d70a63          	beq	a4,a3,119c <_vfprintf_r+0x44c>
     e8c:	00144703          	lbu	a4,1(s0)
     e90:	00140413          	addi	s0,s0,1
     e94:	fe071ae3          	bnez	a4,e88 <_vfprintf_r+0x138>
     e98:	41a404b3          	sub	s1,s0,s10
     e9c:	21a40863          	beq	s0,s10,10ac <_vfprintf_r+0x35c>
     ea0:	0ec12683          	lw	a3,236(sp)
     ea4:	0e812703          	lw	a4,232(sp)
     ea8:	01a8a023          	sw	s10,0(a7)
     eac:	009686b3          	add	a3,a3,s1
     eb0:	00170713          	addi	a4,a4,1
     eb4:	0098a223          	sw	s1,4(a7)
     eb8:	0ed12623          	sw	a3,236(sp)
     ebc:	0ee12423          	sw	a4,232(sp)
     ec0:	00700693          	li	a3,7
     ec4:	00888893          	addi	a7,a7,8
     ec8:	2ee6c263          	blt	a3,a4,11ac <_vfprintf_r+0x45c>
     ecc:	00c12783          	lw	a5,12(sp)
     ed0:	00044703          	lbu	a4,0(s0)
     ed4:	009787b3          	add	a5,a5,s1
     ed8:	00f12623          	sw	a5,12(sp)
     edc:	1c070863          	beqz	a4,10ac <_vfprintf_r+0x35c>
     ee0:	fff00313          	li	t1,-1
     ee4:	00144e03          	lbu	t3,1(s0)
     ee8:	0c0103a3          	sb	zero,199(sp)
     eec:	00140413          	addi	s0,s0,1
     ef0:	00000493          	li	s1,0
     ef4:	00000913          	li	s2,0
     ef8:	05a00993          	li	s3,90
     efc:	00900a93          	li	s5,9
     f00:	02a00c13          	li	s8,42
     f04:	00030a13          	mv	s4,t1
     f08:	00088d93          	mv	s11,a7
     f0c:	00140413          	addi	s0,s0,1
     f10:	000e0c93          	mv	s9,t3
     f14:	fe0c8793          	addi	a5,s9,-32
     f18:	04f9e463          	bltu	s3,a5,f60 <_vfprintf_r+0x210>
     f1c:	01812703          	lw	a4,24(sp)
     f20:	00279793          	slli	a5,a5,0x2
     f24:	00e787b3          	add	a5,a5,a4
     f28:	0007a783          	lw	a5,0(a5)
     f2c:	00078067          	jr	a5
     f30:	00000493          	li	s1,0
     f34:	fd0c8693          	addi	a3,s9,-48
     f38:	00044c83          	lbu	s9,0(s0)
     f3c:	00249793          	slli	a5,s1,0x2
     f40:	009787b3          	add	a5,a5,s1
     f44:	00179793          	slli	a5,a5,0x1
     f48:	00f684b3          	add	s1,a3,a5
     f4c:	fd0c8693          	addi	a3,s9,-48
     f50:	00140413          	addi	s0,s0,1
     f54:	fedaf2e3          	bgeu	s5,a3,f38 <_vfprintf_r+0x1e8>
     f58:	fe0c8793          	addi	a5,s9,-32
     f5c:	fcf9f0e3          	bgeu	s3,a5,f1c <_vfprintf_r+0x1cc>
     f60:	000d8893          	mv	a7,s11
     f64:	140c8463          	beqz	s9,10ac <_vfprintf_r+0x35c>
     f68:	15910623          	sb	s9,332(sp)
     f6c:	0c0103a3          	sb	zero,199(sp)
     f70:	00100993          	li	s3,1
     f74:	00100c13          	li	s8,1
     f78:	14c10d13          	addi	s10,sp,332
     f7c:	00012823          	sw	zero,16(sp)
     f80:	00000313          	li	t1,0
     f84:	02012423          	sw	zero,40(sp)
     f88:	02012223          	sw	zero,36(sp)
     f8c:	00012e23          	sw	zero,28(sp)
     f90:	00297a93          	andi	s5,s2,2
     f94:	000a8463          	beqz	s5,f9c <_vfprintf_r+0x24c>
     f98:	00298993          	addi	s3,s3,2
     f9c:	08497a13          	andi	s4,s2,132
     fa0:	0ec12703          	lw	a4,236(sp)
     fa4:	000a1663          	bnez	s4,fb0 <_vfprintf_r+0x260>
     fa8:	41348833          	sub	a6,s1,s3
     fac:	490044e3          	bgtz	a6,1c34 <_vfprintf_r+0xee4>
     fb0:	0c714683          	lbu	a3,199(sp)
     fb4:	02068a63          	beqz	a3,fe8 <_vfprintf_r+0x298>
     fb8:	0e812683          	lw	a3,232(sp)
     fbc:	0c710613          	addi	a2,sp,199
     fc0:	00c8a023          	sw	a2,0(a7)
     fc4:	00170713          	addi	a4,a4,1
     fc8:	00100613          	li	a2,1
     fcc:	00168693          	addi	a3,a3,1 # 2001 <_vfprintf_r+0x12b1>
     fd0:	00c8a223          	sw	a2,4(a7)
     fd4:	0ee12623          	sw	a4,236(sp)
     fd8:	0ed12423          	sw	a3,232(sp)
     fdc:	00700613          	li	a2,7
     fe0:	00888893          	addi	a7,a7,8
     fe4:	2ed64463          	blt	a2,a3,12cc <_vfprintf_r+0x57c>
     fe8:	020a8a63          	beqz	s5,101c <_vfprintf_r+0x2cc>
     fec:	0e812683          	lw	a3,232(sp)
     ff0:	0c810613          	addi	a2,sp,200
     ff4:	00c8a023          	sw	a2,0(a7)
     ff8:	00270713          	addi	a4,a4,2
     ffc:	00200613          	li	a2,2
    1000:	00168693          	addi	a3,a3,1
    1004:	00c8a223          	sw	a2,4(a7)
    1008:	0ee12623          	sw	a4,236(sp)
    100c:	0ed12423          	sw	a3,232(sp)
    1010:	00700613          	li	a2,7
    1014:	00888893          	addi	a7,a7,8
    1018:	52d644e3          	blt	a2,a3,1d40 <_vfprintf_r+0xff0>
    101c:	08000693          	li	a3,128
    1020:	24da02e3          	beq	s4,a3,1a64 <_vfprintf_r+0xd14>
    1024:	41830db3          	sub	s11,t1,s8
    1028:	33b048e3          	bgtz	s11,1b58 <_vfprintf_r+0xe08>
    102c:	10097693          	andi	a3,s2,256
    1030:	0e069ce3          	bnez	a3,1928 <_vfprintf_r+0xbd8>
    1034:	0e812783          	lw	a5,232(sp)
    1038:	01870733          	add	a4,a4,s8
    103c:	01a8a023          	sw	s10,0(a7)
    1040:	00178793          	addi	a5,a5,1
    1044:	0188a223          	sw	s8,4(a7)
    1048:	0ee12623          	sw	a4,236(sp)
    104c:	0ef12423          	sw	a5,232(sp)
    1050:	00700693          	li	a3,7
    1054:	3af6c463          	blt	a3,a5,13fc <_vfprintf_r+0x6ac>
    1058:	00888893          	addi	a7,a7,8
    105c:	00497913          	andi	s2,s2,4
    1060:	00090663          	beqz	s2,106c <_vfprintf_r+0x31c>
    1064:	41348933          	sub	s2,s1,s3
    1068:	3b204a63          	bgtz	s2,141c <_vfprintf_r+0x6cc>
    106c:	0134d463          	bge	s1,s3,1074 <_vfprintf_r+0x324>
    1070:	00098493          	mv	s1,s3
    1074:	00c12783          	lw	a5,12(sp)
    1078:	009787b3          	add	a5,a5,s1
    107c:	00f12623          	sw	a5,12(sp)
    1080:	380716e3          	bnez	a4,1c0c <_vfprintf_r+0xebc>
    1084:	01012783          	lw	a5,16(sp)
    1088:	0e012423          	sw	zero,232(sp)
    108c:	00078863          	beqz	a5,109c <_vfprintf_r+0x34c>
    1090:	01012583          	lw	a1,16(sp)
    1094:	000b0513          	mv	a0,s6
    1098:	2a4030ef          	jal	ra,433c <_free_r>
    109c:	10c10893          	addi	a7,sp,268
    10a0:	00040d13          	mv	s10,s0
    10a4:	000d4703          	lbu	a4,0(s10)
    10a8:	dc071ce3          	bnez	a4,e80 <_vfprintf_r+0x130>
    10ac:	0ec12783          	lw	a5,236(sp)
    10b0:	00078463          	beqz	a5,10b8 <_vfprintf_r+0x368>
    10b4:	44d0106f          	j	2d00 <_vfprintf_r+0x1fb0>
    10b8:	00cbd783          	lhu	a5,12(s7)
    10bc:	0407f793          	andi	a5,a5,64
    10c0:	00078463          	beqz	a5,10c8 <_vfprintf_r+0x378>
    10c4:	2940206f          	j	3358 <_vfprintf_r+0x2608>
    10c8:	1ec12083          	lw	ra,492(sp)
    10cc:	1e812403          	lw	s0,488(sp)
    10d0:	00c12503          	lw	a0,12(sp)
    10d4:	1e412483          	lw	s1,484(sp)
    10d8:	1e012903          	lw	s2,480(sp)
    10dc:	1dc12983          	lw	s3,476(sp)
    10e0:	1d812a03          	lw	s4,472(sp)
    10e4:	1d412a83          	lw	s5,468(sp)
    10e8:	1d012b03          	lw	s6,464(sp)
    10ec:	1cc12b83          	lw	s7,460(sp)
    10f0:	1c812c03          	lw	s8,456(sp)
    10f4:	1c412c83          	lw	s9,452(sp)
    10f8:	1c012d03          	lw	s10,448(sp)
    10fc:	1bc12d83          	lw	s11,444(sp)
    1100:	1f010113          	addi	sp,sp,496
    1104:	00008067          	ret
    1108:	000b8593          	mv	a1,s7
    110c:	000b0513          	mv	a0,s6
    1110:	099020ef          	jal	ra,39a8 <__swsetup_r>
    1114:	00050463          	beqz	a0,111c <_vfprintf_r+0x3cc>
    1118:	2400206f          	j	3358 <_vfprintf_r+0x2608>
    111c:	00cbd783          	lhu	a5,12(s7)
    1120:	00a00713          	li	a4,10
    1124:	01a7f793          	andi	a5,a5,26
    1128:	d0e792e3          	bne	a5,a4,e2c <_vfprintf_r+0xdc>
    112c:	00eb9783          	lh	a5,14(s7)
    1130:	ce07cee3          	bltz	a5,e2c <_vfprintf_r+0xdc>
    1134:	01412683          	lw	a3,20(sp)
    1138:	000a8613          	mv	a2,s5
    113c:	000b8593          	mv	a1,s7
    1140:	000b0513          	mv	a0,s6
    1144:	604020ef          	jal	ra,3748 <__sbprintf>
    1148:	00a12623          	sw	a0,12(sp)
    114c:	f7dff06f          	j	10c8 <_vfprintf_r+0x378>
    1150:	000b0513          	mv	a0,s6
    1154:	670060ef          	jal	ra,77c4 <_localeconv_r>
    1158:	00452783          	lw	a5,4(a0)
    115c:	00078513          	mv	a0,a5
    1160:	04f12623          	sw	a5,76(sp)
    1164:	b61ff0ef          	jal	ra,cc4 <strlen>
    1168:	00050793          	mv	a5,a0
    116c:	000b0513          	mv	a0,s6
    1170:	00078c93          	mv	s9,a5
    1174:	04f12423          	sw	a5,72(sp)
    1178:	64c060ef          	jal	ra,77c4 <_localeconv_r>
    117c:	00852783          	lw	a5,8(a0)
    1180:	02f12e23          	sw	a5,60(sp)
    1184:	740c98e3          	bnez	s9,20d4 <_vfprintf_r+0x1384>
    1188:	00044e03          	lbu	t3,0(s0)
    118c:	d81ff06f          	j	f0c <_vfprintf_r+0x1bc>
    1190:	00044e03          	lbu	t3,0(s0)
    1194:	02096913          	ori	s2,s2,32
    1198:	d75ff06f          	j	f0c <_vfprintf_r+0x1bc>
    119c:	41a404b3          	sub	s1,s0,s10
    11a0:	d1a410e3          	bne	s0,s10,ea0 <_vfprintf_r+0x150>
    11a4:	00044703          	lbu	a4,0(s0)
    11a8:	d35ff06f          	j	edc <_vfprintf_r+0x18c>
    11ac:	0e410613          	addi	a2,sp,228
    11b0:	000b8593          	mv	a1,s7
    11b4:	000b0513          	mv	a0,s6
    11b8:	5850b0ef          	jal	ra,cf3c <__sprint_r>
    11bc:	ee051ee3          	bnez	a0,10b8 <_vfprintf_r+0x368>
    11c0:	10c10893          	addi	a7,sp,268
    11c4:	d09ff06f          	j	ecc <_vfprintf_r+0x17c>
    11c8:	00897713          	andi	a4,s2,8
    11cc:	000a0313          	mv	t1,s4
    11d0:	000d8893          	mv	a7,s11
    11d4:	720712e3          	bnez	a4,20f8 <_vfprintf_r+0x13a8>
    11d8:	01412783          	lw	a5,20(sp)
    11dc:	01412823          	sw	s4,16(sp)
    11e0:	0b010513          	addi	a0,sp,176
    11e4:	00778a13          	addi	s4,a5,7
    11e8:	ff8a7a13          	andi	s4,s4,-8
    11ec:	000a2583          	lw	a1,0(s4)
    11f0:	004a2603          	lw	a2,4(s4)
    11f4:	008a0793          	addi	a5,s4,8
    11f8:	01b12e23          	sw	s11,28(sp)
    11fc:	00f12a23          	sw	a5,20(sp)
    1200:	415120ef          	jal	ra,13e14 <__extenddftf2>
    1204:	0b012583          	lw	a1,176(sp)
    1208:	0b412603          	lw	a2,180(sp)
    120c:	0b812683          	lw	a3,184(sp)
    1210:	0bc12703          	lw	a4,188(sp)
    1214:	01c12883          	lw	a7,28(sp)
    1218:	01012303          	lw	t1,16(sp)
    121c:	0f010513          	addi	a0,sp,240
    1220:	01112e23          	sw	a7,28(sp)
    1224:	00612823          	sw	t1,16(sp)
    1228:	0ee12e23          	sw	a4,252(sp)
    122c:	0eb12823          	sw	a1,240(sp)
    1230:	0ec12a23          	sw	a2,244(sp)
    1234:	0ed12c23          	sw	a3,248(sp)
    1238:	50c060ef          	jal	ra,7744 <_ldcheck>
    123c:	0ca12623          	sw	a0,204(sp)
    1240:	00200713          	li	a4,2
    1244:	01012303          	lw	t1,16(sp)
    1248:	01c12883          	lw	a7,28(sp)
    124c:	00e51463          	bne	a0,a4,1254 <_vfprintf_r+0x504>
    1250:	5a40106f          	j	27f4 <_vfprintf_r+0x1aa4>
    1254:	00100713          	li	a4,1
    1258:	00e51463          	bne	a0,a4,1260 <_vfprintf_r+0x510>
    125c:	6f40106f          	j	2950 <_vfprintf_r+0x1c00>
    1260:	06100713          	li	a4,97
    1264:	00ec9463          	bne	s9,a4,126c <_vfprintf_r+0x51c>
    1268:	0200106f          	j	2288 <_vfprintf_r+0x1538>
    126c:	04100713          	li	a4,65
    1270:	05800793          	li	a5,88
    1274:	00ec9463          	bne	s9,a4,127c <_vfprintf_r+0x52c>
    1278:	0140106f          	j	228c <_vfprintf_r+0x153c>
    127c:	fdfcf793          	andi	a5,s9,-33
    1280:	fff00713          	li	a4,-1
    1284:	02f12423          	sw	a5,40(sp)
    1288:	00e31463          	bne	t1,a4,1290 <_vfprintf_r+0x540>
    128c:	1d80206f          	j	3464 <_vfprintf_r+0x2714>
    1290:	04700713          	li	a4,71
    1294:	00e79463          	bne	a5,a4,129c <_vfprintf_r+0x54c>
    1298:	1bc0206f          	j	3454 <_vfprintf_r+0x2704>
    129c:	0fc12a83          	lw	s5,252(sp)
    12a0:	05212023          	sw	s2,64(sp)
    12a4:	0f012a03          	lw	s4,240(sp)
    12a8:	0f412e83          	lw	t4,244(sp)
    12ac:	0f812f03          	lw	t5,248(sp)
    12b0:	10096713          	ori	a4,s2,256
    12b4:	000ad463          	bgez	s5,12bc <_vfprintf_r+0x56c>
    12b8:	25d0106f          	j	2d14 <_vfprintf_r+0x1fc4>
    12bc:	04012c23          	sw	zero,88(sp)
    12c0:	00070913          	mv	s2,a4
    12c4:	00012823          	sw	zero,16(sp)
    12c8:	0180106f          	j	22e0 <_vfprintf_r+0x1590>
    12cc:	0e410613          	addi	a2,sp,228
    12d0:	000b8593          	mv	a1,s7
    12d4:	000b0513          	mv	a0,s6
    12d8:	04612023          	sw	t1,64(sp)
    12dc:	4610b0ef          	jal	ra,cf3c <__sprint_r>
    12e0:	140510e3          	bnez	a0,1c20 <_vfprintf_r+0xed0>
    12e4:	0ec12703          	lw	a4,236(sp)
    12e8:	04012303          	lw	t1,64(sp)
    12ec:	10c10893          	addi	a7,sp,268
    12f0:	cf9ff06f          	j	fe8 <_vfprintf_r+0x298>
    12f4:	0e812a83          	lw	s5,232(sp)
    12f8:	02012783          	lw	a5,32(sp)
    12fc:	00100693          	li	a3,1
    1300:	01a8a023          	sw	s10,0(a7)
    1304:	00170d93          	addi	s11,a4,1
    1308:	001a8a93          	addi	s5,s5,1
    130c:	00888c93          	addi	s9,a7,8
    1310:	3cf6d8e3          	bge	a3,a5,1ee0 <_vfprintf_r+0x1190>
    1314:	00100693          	li	a3,1
    1318:	00d8a223          	sw	a3,4(a7)
    131c:	0fb12623          	sw	s11,236(sp)
    1320:	0f512423          	sw	s5,232(sp)
    1324:	00700693          	li	a3,7
    1328:	0156d463          	bge	a3,s5,1330 <_vfprintf_r+0x5e0>
    132c:	2600106f          	j	258c <_vfprintf_r+0x183c>
    1330:	02c12783          	lw	a5,44(sp)
    1334:	03012703          	lw	a4,48(sp)
    1338:	001a8a93          	addi	s5,s5,1
    133c:	00fd8db3          	add	s11,s11,a5
    1340:	00eca023          	sw	a4,0(s9)
    1344:	00fca223          	sw	a5,4(s9)
    1348:	0fb12623          	sw	s11,236(sp)
    134c:	0f512423          	sw	s5,232(sp)
    1350:	00700693          	li	a3,7
    1354:	008c8c93          	addi	s9,s9,8
    1358:	0156d463          	bge	a3,s5,1360 <_vfprintf_r+0x610>
    135c:	2540106f          	j	25b0 <_vfprintf_r+0x1860>
    1360:	0f012683          	lw	a3,240(sp)
    1364:	0a010593          	addi	a1,sp,160
    1368:	0b010513          	addi	a0,sp,176
    136c:	0ad12823          	sw	a3,176(sp)
    1370:	0f412683          	lw	a3,244(sp)
    1374:	0a012023          	sw	zero,160(sp)
    1378:	0a012223          	sw	zero,164(sp)
    137c:	0ad12a23          	sw	a3,180(sp)
    1380:	0f812683          	lw	a3,248(sp)
    1384:	0a012423          	sw	zero,168(sp)
    1388:	0a012623          	sw	zero,172(sp)
    138c:	0ad12c23          	sw	a3,184(sp)
    1390:	0fc12683          	lw	a3,252(sp)
    1394:	0ad12e23          	sw	a3,188(sp)
    1398:	7e10f0ef          	jal	ra,11378 <__eqtf2>
    139c:	02012783          	lw	a5,32(sp)
    13a0:	fff78c13          	addi	s8,a5,-1
    13a4:	36050ee3          	beqz	a0,1f20 <_vfprintf_r+0x11d0>
    13a8:	001a8a93          	addi	s5,s5,1
    13ac:	001d0793          	addi	a5,s10,1
    13b0:	018d8db3          	add	s11,s11,s8
    13b4:	00fca023          	sw	a5,0(s9)
    13b8:	018ca223          	sw	s8,4(s9)
    13bc:	0fb12623          	sw	s11,236(sp)
    13c0:	0f512423          	sw	s5,232(sp)
    13c4:	00700793          	li	a5,7
    13c8:	008c8c93          	addi	s9,s9,8
    13cc:	3357c8e3          	blt	a5,s5,1efc <_vfprintf_r+0x11ac>
    13d0:	03812683          	lw	a3,56(sp)
    13d4:	0d410793          	addi	a5,sp,212
    13d8:	001a8a93          	addi	s5,s5,1
    13dc:	01b68733          	add	a4,a3,s11
    13e0:	00fca023          	sw	a5,0(s9)
    13e4:	00dca223          	sw	a3,4(s9)
    13e8:	0ee12623          	sw	a4,236(sp)
    13ec:	0f512423          	sw	s5,232(sp)
    13f0:	00700793          	li	a5,7
    13f4:	008c8893          	addi	a7,s9,8
    13f8:	c757d2e3          	bge	a5,s5,105c <_vfprintf_r+0x30c>
    13fc:	0e410613          	addi	a2,sp,228
    1400:	000b8593          	mv	a1,s7
    1404:	000b0513          	mv	a0,s6
    1408:	3350b0ef          	jal	ra,cf3c <__sprint_r>
    140c:	00051ae3          	bnez	a0,1c20 <_vfprintf_r+0xed0>
    1410:	0ec12703          	lw	a4,236(sp)
    1414:	10c10893          	addi	a7,sp,268
    1418:	c45ff06f          	j	105c <_vfprintf_r+0x30c>
    141c:	01000693          	li	a3,16
    1420:	0e812783          	lw	a5,232(sp)
    1424:	0126c463          	blt	a3,s2,142c <_vfprintf_r+0x6dc>
    1428:	73d0106f          	j	3364 <_vfprintf_r+0x2614>
    142c:	000206b7          	lui	a3,0x20
    1430:	2b468d93          	addi	s11,a3,692 # 202b4 <blanks.1>
    1434:	01000a93          	li	s5,16
    1438:	00700c13          	li	s8,7
    143c:	00c0006f          	j	1448 <_vfprintf_r+0x6f8>
    1440:	ff090913          	addi	s2,s2,-16
    1444:	052ad663          	bge	s5,s2,1490 <_vfprintf_r+0x740>
    1448:	01070713          	addi	a4,a4,16
    144c:	00178793          	addi	a5,a5,1
    1450:	01b8a023          	sw	s11,0(a7)
    1454:	0158a223          	sw	s5,4(a7)
    1458:	0ee12623          	sw	a4,236(sp)
    145c:	0ef12423          	sw	a5,232(sp)
    1460:	00888893          	addi	a7,a7,8
    1464:	fcfc5ee3          	bge	s8,a5,1440 <_vfprintf_r+0x6f0>
    1468:	0e410613          	addi	a2,sp,228
    146c:	000b8593          	mv	a1,s7
    1470:	000b0513          	mv	a0,s6
    1474:	2c90b0ef          	jal	ra,cf3c <__sprint_r>
    1478:	7a051463          	bnez	a0,1c20 <_vfprintf_r+0xed0>
    147c:	ff090913          	addi	s2,s2,-16
    1480:	0ec12703          	lw	a4,236(sp)
    1484:	0e812783          	lw	a5,232(sp)
    1488:	10c10893          	addi	a7,sp,268
    148c:	fb2acee3          	blt	s5,s2,1448 <_vfprintf_r+0x6f8>
    1490:	01270733          	add	a4,a4,s2
    1494:	00178793          	addi	a5,a5,1
    1498:	01b8a023          	sw	s11,0(a7)
    149c:	0128a223          	sw	s2,4(a7)
    14a0:	0ee12623          	sw	a4,236(sp)
    14a4:	0ef12423          	sw	a5,232(sp)
    14a8:	00700693          	li	a3,7
    14ac:	bcf6d0e3          	bge	a3,a5,106c <_vfprintf_r+0x31c>
    14b0:	0e410613          	addi	a2,sp,228
    14b4:	000b8593          	mv	a1,s7
    14b8:	000b0513          	mv	a0,s6
    14bc:	2810b0ef          	jal	ra,cf3c <__sprint_r>
    14c0:	76051063          	bnez	a0,1c20 <_vfprintf_r+0xed0>
    14c4:	0ec12703          	lw	a4,236(sp)
    14c8:	ba5ff06f          	j	106c <_vfprintf_r+0x31c>
    14cc:	000b0513          	mv	a0,s6
    14d0:	4e5020ef          	jal	ra,41b4 <__sinit>
    14d4:	8f9ff06f          	j	dcc <_vfprintf_r+0x7c>
    14d8:	01412703          	lw	a4,20(sp)
    14dc:	000d8893          	mv	a7,s11
    14e0:	0c0103a3          	sb	zero,199(sp)
    14e4:	00072783          	lw	a5,0(a4)
    14e8:	00470713          	addi	a4,a4,4
    14ec:	00e12a23          	sw	a4,20(sp)
    14f0:	14f10623          	sb	a5,332(sp)
    14f4:	00100993          	li	s3,1
    14f8:	00100c13          	li	s8,1
    14fc:	14c10d13          	addi	s10,sp,332
    1500:	a7dff06f          	j	f7c <_vfprintf_r+0x22c>
    1504:	01412783          	lw	a5,20(sp)
    1508:	0c0103a3          	sb	zero,199(sp)
    150c:	000a0313          	mv	t1,s4
    1510:	0007ad03          	lw	s10,0(a5)
    1514:	000d8893          	mv	a7,s11
    1518:	00478a13          	addi	s4,a5,4
    151c:	4e0d02e3          	beqz	s10,2200 <_vfprintf_r+0x14b0>
    1520:	fff00713          	li	a4,-1
    1524:	00e31463          	bne	t1,a4,152c <_vfprintf_r+0x7dc>
    1528:	3700106f          	j	2898 <_vfprintf_r+0x1b48>
    152c:	00030613          	mv	a2,t1
    1530:	00000593          	li	a1,0
    1534:	000d0513          	mv	a0,s10
    1538:	00612a23          	sw	t1,20(sp)
    153c:	01b12e23          	sw	s11,28(sp)
    1540:	64d060ef          	jal	ra,838c <memchr>
    1544:	00a12823          	sw	a0,16(sp)
    1548:	01412303          	lw	t1,20(sp)
    154c:	01c12883          	lw	a7,28(sp)
    1550:	00051463          	bnez	a0,1558 <_vfprintf_r+0x808>
    1554:	4d90106f          	j	322c <_vfprintf_r+0x24dc>
    1558:	01012783          	lw	a5,16(sp)
    155c:	0c714703          	lbu	a4,199(sp)
    1560:	01412a23          	sw	s4,20(sp)
    1564:	41a78c33          	sub	s8,a5,s10
    1568:	fffc4993          	not	s3,s8
    156c:	41f9d993          	srai	s3,s3,0x1f
    1570:	00012823          	sw	zero,16(sp)
    1574:	02012423          	sw	zero,40(sp)
    1578:	02012223          	sw	zero,36(sp)
    157c:	00012e23          	sw	zero,28(sp)
    1580:	013c79b3          	and	s3,s8,s3
    1584:	00000313          	li	t1,0
    1588:	a00704e3          	beqz	a4,f90 <_vfprintf_r+0x240>
    158c:	00198993          	addi	s3,s3,1
    1590:	a01ff06f          	j	f90 <_vfprintf_r+0x240>
    1594:	01412783          	lw	a5,20(sp)
    1598:	0007a483          	lw	s1,0(a5)
    159c:	00478793          	addi	a5,a5,4
    15a0:	2a04dee3          	bgez	s1,205c <_vfprintf_r+0x130c>
    15a4:	409004b3          	neg	s1,s1
    15a8:	00f12a23          	sw	a5,20(sp)
    15ac:	00044e03          	lbu	t3,0(s0)
    15b0:	00496913          	ori	s2,s2,4
    15b4:	959ff06f          	j	f0c <_vfprintf_r+0x1bc>
    15b8:	01412683          	lw	a3,20(sp)
    15bc:	02097793          	andi	a5,s2,32
    15c0:	000d8893          	mv	a7,s11
    15c4:	00468713          	addi	a4,a3,4
    15c8:	2e0796e3          	bnez	a5,20b4 <_vfprintf_r+0x1364>
    15cc:	01097793          	andi	a5,s2,16
    15d0:	00078463          	beqz	a5,15d8 <_vfprintf_r+0x888>
    15d4:	2a80106f          	j	287c <_vfprintf_r+0x1b2c>
    15d8:	04097793          	andi	a5,s2,64
    15dc:	00078463          	beqz	a5,15e4 <_vfprintf_r+0x894>
    15e0:	6c80106f          	j	2ca8 <_vfprintf_r+0x1f58>
    15e4:	20097913          	andi	s2,s2,512
    15e8:	00091463          	bnez	s2,15f0 <_vfprintf_r+0x8a0>
    15ec:	2900106f          	j	287c <_vfprintf_r+0x1b2c>
    15f0:	01412783          	lw	a5,20(sp)
    15f4:	00e12a23          	sw	a4,20(sp)
    15f8:	00c12703          	lw	a4,12(sp)
    15fc:	0007a783          	lw	a5,0(a5)
    1600:	00040d13          	mv	s10,s0
    1604:	00e78023          	sb	a4,0(a5)
    1608:	a9dff06f          	j	10a4 <_vfprintf_r+0x354>
    160c:	00044e03          	lbu	t3,0(s0)
    1610:	06c00793          	li	a5,108
    1614:	38fe0ae3          	beq	t3,a5,21a8 <_vfprintf_r+0x1458>
    1618:	01096913          	ori	s2,s2,16
    161c:	8f1ff06f          	j	f0c <_vfprintf_r+0x1bc>
    1620:	01412703          	lw	a4,20(sp)
    1624:	ffff87b7          	lui	a5,0xffff8
    1628:	8307c793          	xori	a5,a5,-2000
    162c:	0cf11423          	sh	a5,200(sp)
    1630:	00470793          	addi	a5,a4,4
    1634:	00f12a23          	sw	a5,20(sp)
    1638:	00072983          	lw	s3,0(a4)
    163c:	000207b7          	lui	a5,0x20
    1640:	07c78793          	addi	a5,a5,124 # 2007c <__malloc_trim_threshold+0x44>
    1644:	000d8893          	mv	a7,s11
    1648:	02f12a23          	sw	a5,52(sp)
    164c:	000a0313          	mv	t1,s4
    1650:	00000a93          	li	s5,0
    1654:	00296d93          	ori	s11,s2,2
    1658:	00200793          	li	a5,2
    165c:	07800c93          	li	s9,120
    1660:	00000713          	li	a4,0
    1664:	0ce103a3          	sb	a4,199(sp)
    1668:	fff00713          	li	a4,-1
    166c:	1ee30a63          	beq	t1,a4,1860 <_vfprintf_r+0xb10>
    1670:	0159e733          	or	a4,s3,s5
    1674:	f7fdf913          	andi	s2,s11,-129
    1678:	1e071263          	bnez	a4,185c <_vfprintf_r+0xb0c>
    167c:	24031863          	bnez	t1,18cc <_vfprintf_r+0xb7c>
    1680:	1a079463          	bnez	a5,1828 <_vfprintf_r+0xad8>
    1684:	001dfc13          	andi	s8,s11,1
    1688:	1b010d13          	addi	s10,sp,432
    168c:	1c0c1ee3          	bnez	s8,2068 <_vfprintf_r+0x1318>
    1690:	0c714703          	lbu	a4,199(sp)
    1694:	000c0993          	mv	s3,s8
    1698:	006c5463          	bge	s8,t1,16a0 <_vfprintf_r+0x950>
    169c:	00030993          	mv	s3,t1
    16a0:	00012823          	sw	zero,16(sp)
    16a4:	02012423          	sw	zero,40(sp)
    16a8:	02012223          	sw	zero,36(sp)
    16ac:	00012e23          	sw	zero,28(sp)
    16b0:	ec071ee3          	bnez	a4,158c <_vfprintf_r+0x83c>
    16b4:	8ddff06f          	j	f90 <_vfprintf_r+0x240>
    16b8:	00044e03          	lbu	t3,0(s0)
    16bc:	06800793          	li	a5,104
    16c0:	2efe0ce3          	beq	t3,a5,21b8 <_vfprintf_r+0x1468>
    16c4:	04096913          	ori	s2,s2,64
    16c8:	845ff06f          	j	f0c <_vfprintf_r+0x1bc>
    16cc:	02b00793          	li	a5,43
    16d0:	00044e03          	lbu	t3,0(s0)
    16d4:	0cf103a3          	sb	a5,199(sp)
    16d8:	835ff06f          	j	f0c <_vfprintf_r+0x1bc>
    16dc:	00044e03          	lbu	t3,0(s0)
    16e0:	08096913          	ori	s2,s2,128
    16e4:	829ff06f          	j	f0c <_vfprintf_r+0x1bc>
    16e8:	00044c83          	lbu	s9,0(s0)
    16ec:	00140713          	addi	a4,s0,1
    16f0:	018c9463          	bne	s9,s8,16f8 <_vfprintf_r+0x9a8>
    16f4:	7f90106f          	j	36ec <_vfprintf_r+0x299c>
    16f8:	fd0c8693          	addi	a3,s9,-48
    16fc:	00070413          	mv	s0,a4
    1700:	00000a13          	li	s4,0
    1704:	80dae8e3          	bltu	s5,a3,f14 <_vfprintf_r+0x1c4>
    1708:	00044c83          	lbu	s9,0(s0)
    170c:	002a1793          	slli	a5,s4,0x2
    1710:	014787b3          	add	a5,a5,s4
    1714:	00179793          	slli	a5,a5,0x1
    1718:	00d78a33          	add	s4,a5,a3
    171c:	fd0c8693          	addi	a3,s9,-48
    1720:	00140413          	addi	s0,s0,1
    1724:	fedaf2e3          	bgeu	s5,a3,1708 <_vfprintf_r+0x9b8>
    1728:	fecff06f          	j	f14 <_vfprintf_r+0x1c4>
    172c:	00044e03          	lbu	t3,0(s0)
    1730:	00196913          	ori	s2,s2,1
    1734:	fd8ff06f          	j	f0c <_vfprintf_r+0x1bc>
    1738:	0c714783          	lbu	a5,199(sp)
    173c:	00044e03          	lbu	t3,0(s0)
    1740:	fc079663          	bnez	a5,f0c <_vfprintf_r+0x1bc>
    1744:	02000793          	li	a5,32
    1748:	0cf103a3          	sb	a5,199(sp)
    174c:	fc0ff06f          	j	f0c <_vfprintf_r+0x1bc>
    1750:	000a0313          	mv	t1,s4
    1754:	000d8893          	mv	a7,s11
    1758:	01096913          	ori	s2,s2,16
    175c:	02097793          	andi	a5,s2,32
    1760:	06078ee3          	beqz	a5,1fdc <_vfprintf_r+0x128c>
    1764:	01412783          	lw	a5,20(sp)
    1768:	00778a13          	addi	s4,a5,7
    176c:	ff8a7a13          	andi	s4,s4,-8
    1770:	000a2983          	lw	s3,0(s4)
    1774:	004a2a83          	lw	s5,4(s4)
    1778:	008a0793          	addi	a5,s4,8
    177c:	00f12a23          	sw	a5,20(sp)
    1780:	bff97d93          	andi	s11,s2,-1025
    1784:	00000793          	li	a5,0
    1788:	ed9ff06f          	j	1660 <_vfprintf_r+0x910>
    178c:	000d8893          	mv	a7,s11
    1790:	000a0313          	mv	t1,s4
    1794:	01096d93          	ori	s11,s2,16
    1798:	020df793          	andi	a5,s11,32
    179c:	060788e3          	beqz	a5,200c <_vfprintf_r+0x12bc>
    17a0:	01412783          	lw	a5,20(sp)
    17a4:	00778a13          	addi	s4,a5,7
    17a8:	ff8a7a13          	andi	s4,s4,-8
    17ac:	008a0793          	addi	a5,s4,8
    17b0:	00f12a23          	sw	a5,20(sp)
    17b4:	000a2983          	lw	s3,0(s4)
    17b8:	004a2a83          	lw	s5,4(s4)
    17bc:	00100793          	li	a5,1
    17c0:	ea1ff06f          	j	1660 <_vfprintf_r+0x910>
    17c4:	00044e03          	lbu	t3,0(s0)
    17c8:	00896913          	ori	s2,s2,8
    17cc:	f40ff06f          	j	f0c <_vfprintf_r+0x1bc>
    17d0:	000a0313          	mv	t1,s4
    17d4:	000d8893          	mv	a7,s11
    17d8:	01096913          	ori	s2,s2,16
    17dc:	02097793          	andi	a5,s2,32
    17e0:	7a078463          	beqz	a5,1f88 <_vfprintf_r+0x1238>
    17e4:	01412783          	lw	a5,20(sp)
    17e8:	00778a13          	addi	s4,a5,7
    17ec:	ff8a7a13          	andi	s4,s4,-8
    17f0:	004a2783          	lw	a5,4(s4)
    17f4:	000a2983          	lw	s3,0(s4)
    17f8:	008a0713          	addi	a4,s4,8
    17fc:	00e12a23          	sw	a4,20(sp)
    1800:	00078a93          	mv	s5,a5
    1804:	7a07cc63          	bltz	a5,1fbc <_vfprintf_r+0x126c>
    1808:	fff00793          	li	a5,-1
    180c:	00090d93          	mv	s11,s2
    1810:	02f30463          	beq	t1,a5,1838 <_vfprintf_r+0xae8>
    1814:	0159e7b3          	or	a5,s3,s5
    1818:	f7f97d93          	andi	s11,s2,-129
    181c:	00079e63          	bnez	a5,1838 <_vfprintf_r+0xae8>
    1820:	02031263          	bnez	t1,1844 <_vfprintf_r+0xaf4>
    1824:	000d8913          	mv	s2,s11
    1828:	00000313          	li	t1,0
    182c:	00000c13          	li	s8,0
    1830:	1b010d13          	addi	s10,sp,432
    1834:	e5dff06f          	j	1690 <_vfprintf_r+0x940>
    1838:	5a0a96e3          	bnez	s5,25e4 <_vfprintf_r+0x1894>
    183c:	00900793          	li	a5,9
    1840:	5b37e2e3          	bltu	a5,s3,25e4 <_vfprintf_r+0x1894>
    1844:	03098993          	addi	s3,s3,48
    1848:	1b3107a3          	sb	s3,431(sp)
    184c:	000d8913          	mv	s2,s11
    1850:	00100c13          	li	s8,1
    1854:	1af10d13          	addi	s10,sp,431
    1858:	e39ff06f          	j	1690 <_vfprintf_r+0x940>
    185c:	00090d93          	mv	s11,s2
    1860:	00100713          	li	a4,1
    1864:	fce78ae3          	beq	a5,a4,1838 <_vfprintf_r+0xae8>
    1868:	00200713          	li	a4,2
    186c:	06e78c63          	beq	a5,a4,18e4 <_vfprintf_r+0xb94>
    1870:	1b010d13          	addi	s10,sp,432
    1874:	01da9793          	slli	a5,s5,0x1d
    1878:	0079f713          	andi	a4,s3,7
    187c:	0039d993          	srli	s3,s3,0x3
    1880:	03070713          	addi	a4,a4,48
    1884:	0137e9b3          	or	s3,a5,s3
    1888:	003ada93          	srli	s5,s5,0x3
    188c:	feed0fa3          	sb	a4,-1(s10)
    1890:	0159e7b3          	or	a5,s3,s5
    1894:	000d0613          	mv	a2,s10
    1898:	fffd0d13          	addi	s10,s10,-1
    189c:	fc079ce3          	bnez	a5,1874 <_vfprintf_r+0xb24>
    18a0:	001df693          	andi	a3,s11,1
    18a4:	06068a63          	beqz	a3,1918 <_vfprintf_r+0xbc8>
    18a8:	03000693          	li	a3,48
    18ac:	06d70663          	beq	a4,a3,1918 <_vfprintf_r+0xbc8>
    18b0:	ffe60613          	addi	a2,a2,-2
    18b4:	1b010793          	addi	a5,sp,432
    18b8:	fedd0fa3          	sb	a3,-1(s10)
    18bc:	40c78c33          	sub	s8,a5,a2
    18c0:	000d8913          	mv	s2,s11
    18c4:	00060d13          	mv	s10,a2
    18c8:	dc9ff06f          	j	1690 <_vfprintf_r+0x940>
    18cc:	00100713          	li	a4,1
    18d0:	00e79463          	bne	a5,a4,18d8 <_vfprintf_r+0xb88>
    18d4:	2cd0106f          	j	33a0 <_vfprintf_r+0x2650>
    18d8:	00200713          	li	a4,2
    18dc:	00090d93          	mv	s11,s2
    18e0:	f8e798e3          	bne	a5,a4,1870 <_vfprintf_r+0xb20>
    18e4:	03412683          	lw	a3,52(sp)
    18e8:	1b010d13          	addi	s10,sp,432
    18ec:	00f9f793          	andi	a5,s3,15
    18f0:	00f687b3          	add	a5,a3,a5
    18f4:	0007c703          	lbu	a4,0(a5)
    18f8:	0049d993          	srli	s3,s3,0x4
    18fc:	01ca9793          	slli	a5,s5,0x1c
    1900:	0137e9b3          	or	s3,a5,s3
    1904:	004ada93          	srli	s5,s5,0x4
    1908:	feed0fa3          	sb	a4,-1(s10)
    190c:	0159e7b3          	or	a5,s3,s5
    1910:	fffd0d13          	addi	s10,s10,-1
    1914:	fc079ce3          	bnez	a5,18ec <_vfprintf_r+0xb9c>
    1918:	1b010793          	addi	a5,sp,432
    191c:	41a78c33          	sub	s8,a5,s10
    1920:	000d8913          	mv	s2,s11
    1924:	d6dff06f          	j	1690 <_vfprintf_r+0x940>
    1928:	06500693          	li	a3,101
    192c:	9d96d4e3          	bge	a3,s9,12f4 <_vfprintf_r+0x5a4>
    1930:	0f012683          	lw	a3,240(sp)
    1934:	0a010593          	addi	a1,sp,160
    1938:	0b010513          	addi	a0,sp,176
    193c:	0ad12823          	sw	a3,176(sp)
    1940:	0f412683          	lw	a3,244(sp)
    1944:	05112223          	sw	a7,68(sp)
    1948:	04e12023          	sw	a4,64(sp)
    194c:	0ad12a23          	sw	a3,180(sp)
    1950:	0f812683          	lw	a3,248(sp)
    1954:	0a012023          	sw	zero,160(sp)
    1958:	0a012223          	sw	zero,164(sp)
    195c:	0ad12c23          	sw	a3,184(sp)
    1960:	0fc12683          	lw	a3,252(sp)
    1964:	0a012423          	sw	zero,168(sp)
    1968:	0a012623          	sw	zero,172(sp)
    196c:	0ad12e23          	sw	a3,188(sp)
    1970:	2090f0ef          	jal	ra,11378 <__eqtf2>
    1974:	04012703          	lw	a4,64(sp)
    1978:	04412883          	lw	a7,68(sp)
    197c:	3e051663          	bnez	a0,1d68 <_vfprintf_r+0x1018>
    1980:	0e812783          	lw	a5,232(sp)
    1984:	000206b7          	lui	a3,0x20
    1988:	0ac68693          	addi	a3,a3,172 # 200ac <__malloc_trim_threshold+0x74>
    198c:	00d8a023          	sw	a3,0(a7)
    1990:	00170713          	addi	a4,a4,1
    1994:	00100693          	li	a3,1
    1998:	00178793          	addi	a5,a5,1
    199c:	00d8a223          	sw	a3,4(a7)
    19a0:	0ee12623          	sw	a4,236(sp)
    19a4:	0ef12423          	sw	a5,232(sp)
    19a8:	00700693          	li	a3,7
    19ac:	00888893          	addi	a7,a7,8
    19b0:	5ef6c6e3          	blt	a3,a5,279c <_vfprintf_r+0x1a4c>
    19b4:	0cc12783          	lw	a5,204(sp)
    19b8:	02012683          	lw	a3,32(sp)
    19bc:	68d7d263          	bge	a5,a3,2040 <_vfprintf_r+0x12f0>
    19c0:	03012783          	lw	a5,48(sp)
    19c4:	02c12683          	lw	a3,44(sp)
    19c8:	00888893          	addi	a7,a7,8
    19cc:	fef8ac23          	sw	a5,-8(a7)
    19d0:	0e812783          	lw	a5,232(sp)
    19d4:	00d70733          	add	a4,a4,a3
    19d8:	fed8ae23          	sw	a3,-4(a7)
    19dc:	00178793          	addi	a5,a5,1
    19e0:	0ee12623          	sw	a4,236(sp)
    19e4:	0ef12423          	sw	a5,232(sp)
    19e8:	00700693          	li	a3,7
    19ec:	7ef6ca63          	blt	a3,a5,21e0 <_vfprintf_r+0x1490>
    19f0:	02012783          	lw	a5,32(sp)
    19f4:	fff78a93          	addi	s5,a5,-1
    19f8:	e7505263          	blez	s5,105c <_vfprintf_r+0x30c>
    19fc:	01000693          	li	a3,16
    1a00:	0e812783          	lw	a5,232(sp)
    1a04:	5b56dce3          	bge	a3,s5,27bc <_vfprintf_r+0x1a6c>
    1a08:	01000c13          	li	s8,16
    1a0c:	00700c93          	li	s9,7
    1a10:	00c0006f          	j	1a1c <_vfprintf_r+0xccc>
    1a14:	ff0a8a93          	addi	s5,s5,-16
    1a18:	5b5c52e3          	bge	s8,s5,27bc <_vfprintf_r+0x1a6c>
    1a1c:	00812683          	lw	a3,8(sp)
    1a20:	01070713          	addi	a4,a4,16
    1a24:	00178793          	addi	a5,a5,1
    1a28:	00d8a023          	sw	a3,0(a7)
    1a2c:	0188a223          	sw	s8,4(a7)
    1a30:	0ee12623          	sw	a4,236(sp)
    1a34:	0ef12423          	sw	a5,232(sp)
    1a38:	00888893          	addi	a7,a7,8
    1a3c:	fcfcdce3          	bge	s9,a5,1a14 <_vfprintf_r+0xcc4>
    1a40:	0e410613          	addi	a2,sp,228
    1a44:	000b8593          	mv	a1,s7
    1a48:	000b0513          	mv	a0,s6
    1a4c:	4f00b0ef          	jal	ra,cf3c <__sprint_r>
    1a50:	1c051863          	bnez	a0,1c20 <_vfprintf_r+0xed0>
    1a54:	0ec12703          	lw	a4,236(sp)
    1a58:	0e812783          	lw	a5,232(sp)
    1a5c:	10c10893          	addi	a7,sp,268
    1a60:	fb5ff06f          	j	1a14 <_vfprintf_r+0xcc4>
    1a64:	41348a33          	sub	s4,s1,s3
    1a68:	db405e63          	blez	s4,1024 <_vfprintf_r+0x2d4>
    1a6c:	01000613          	li	a2,16
    1a70:	0e812683          	lw	a3,232(sp)
    1a74:	09465a63          	bge	a2,s4,1b08 <_vfprintf_r+0xdb8>
    1a78:	04812023          	sw	s0,64(sp)
    1a7c:	01000d93          	li	s11,16
    1a80:	000b8413          	mv	s0,s7
    1a84:	00700a93          	li	s5,7
    1a88:	000b0b93          	mv	s7,s6
    1a8c:	000a0b13          	mv	s6,s4
    1a90:	00098a13          	mv	s4,s3
    1a94:	00030993          	mv	s3,t1
    1a98:	00c0006f          	j	1aa4 <_vfprintf_r+0xd54>
    1a9c:	ff0b0b13          	addi	s6,s6,-16
    1aa0:	056dd863          	bge	s11,s6,1af0 <_vfprintf_r+0xda0>
    1aa4:	00812783          	lw	a5,8(sp)
    1aa8:	01070713          	addi	a4,a4,16
    1aac:	00168693          	addi	a3,a3,1
    1ab0:	00f8a023          	sw	a5,0(a7)
    1ab4:	01b8a223          	sw	s11,4(a7)
    1ab8:	0ee12623          	sw	a4,236(sp)
    1abc:	0ed12423          	sw	a3,232(sp)
    1ac0:	00888893          	addi	a7,a7,8
    1ac4:	fcdadce3          	bge	s5,a3,1a9c <_vfprintf_r+0xd4c>
    1ac8:	0e410613          	addi	a2,sp,228
    1acc:	00040593          	mv	a1,s0
    1ad0:	000b8513          	mv	a0,s7
    1ad4:	4680b0ef          	jal	ra,cf3c <__sprint_r>
    1ad8:	500518e3          	bnez	a0,27e8 <_vfprintf_r+0x1a98>
    1adc:	ff0b0b13          	addi	s6,s6,-16
    1ae0:	0ec12703          	lw	a4,236(sp)
    1ae4:	0e812683          	lw	a3,232(sp)
    1ae8:	10c10893          	addi	a7,sp,268
    1aec:	fb6dcce3          	blt	s11,s6,1aa4 <_vfprintf_r+0xd54>
    1af0:	00098313          	mv	t1,s3
    1af4:	000a0993          	mv	s3,s4
    1af8:	000b0a13          	mv	s4,s6
    1afc:	000b8b13          	mv	s6,s7
    1b00:	00040b93          	mv	s7,s0
    1b04:	04012403          	lw	s0,64(sp)
    1b08:	00812783          	lw	a5,8(sp)
    1b0c:	01470733          	add	a4,a4,s4
    1b10:	00168693          	addi	a3,a3,1
    1b14:	00f8a023          	sw	a5,0(a7)
    1b18:	0148a223          	sw	s4,4(a7)
    1b1c:	0ee12623          	sw	a4,236(sp)
    1b20:	0ed12423          	sw	a3,232(sp)
    1b24:	00700613          	li	a2,7
    1b28:	00888893          	addi	a7,a7,8
    1b2c:	ced65c63          	bge	a2,a3,1024 <_vfprintf_r+0x2d4>
    1b30:	0e410613          	addi	a2,sp,228
    1b34:	000b8593          	mv	a1,s7
    1b38:	000b0513          	mv	a0,s6
    1b3c:	04612023          	sw	t1,64(sp)
    1b40:	3fc0b0ef          	jal	ra,cf3c <__sprint_r>
    1b44:	0c051e63          	bnez	a0,1c20 <_vfprintf_r+0xed0>
    1b48:	0ec12703          	lw	a4,236(sp)
    1b4c:	04012303          	lw	t1,64(sp)
    1b50:	10c10893          	addi	a7,sp,268
    1b54:	cd0ff06f          	j	1024 <_vfprintf_r+0x2d4>
    1b58:	01000613          	li	a2,16
    1b5c:	0e812683          	lw	a3,232(sp)
    1b60:	07b65263          	bge	a2,s11,1bc4 <_vfprintf_r+0xe74>
    1b64:	01000a13          	li	s4,16
    1b68:	00700a93          	li	s5,7
    1b6c:	00c0006f          	j	1b78 <_vfprintf_r+0xe28>
    1b70:	ff0d8d93          	addi	s11,s11,-16
    1b74:	05ba5863          	bge	s4,s11,1bc4 <_vfprintf_r+0xe74>
    1b78:	00812783          	lw	a5,8(sp)
    1b7c:	01070713          	addi	a4,a4,16
    1b80:	00168693          	addi	a3,a3,1
    1b84:	00f8a023          	sw	a5,0(a7)
    1b88:	0148a223          	sw	s4,4(a7)
    1b8c:	0ee12623          	sw	a4,236(sp)
    1b90:	0ed12423          	sw	a3,232(sp)
    1b94:	00888893          	addi	a7,a7,8
    1b98:	fcdadce3          	bge	s5,a3,1b70 <_vfprintf_r+0xe20>
    1b9c:	0e410613          	addi	a2,sp,228
    1ba0:	000b8593          	mv	a1,s7
    1ba4:	000b0513          	mv	a0,s6
    1ba8:	3940b0ef          	jal	ra,cf3c <__sprint_r>
    1bac:	06051a63          	bnez	a0,1c20 <_vfprintf_r+0xed0>
    1bb0:	ff0d8d93          	addi	s11,s11,-16
    1bb4:	0ec12703          	lw	a4,236(sp)
    1bb8:	0e812683          	lw	a3,232(sp)
    1bbc:	10c10893          	addi	a7,sp,268
    1bc0:	fbba4ce3          	blt	s4,s11,1b78 <_vfprintf_r+0xe28>
    1bc4:	00812783          	lw	a5,8(sp)
    1bc8:	01b70733          	add	a4,a4,s11
    1bcc:	00168693          	addi	a3,a3,1
    1bd0:	00f8a023          	sw	a5,0(a7)
    1bd4:	01b8a223          	sw	s11,4(a7)
    1bd8:	0ee12623          	sw	a4,236(sp)
    1bdc:	0ed12423          	sw	a3,232(sp)
    1be0:	00700613          	li	a2,7
    1be4:	00888893          	addi	a7,a7,8
    1be8:	c4d65263          	bge	a2,a3,102c <_vfprintf_r+0x2dc>
    1bec:	0e410613          	addi	a2,sp,228
    1bf0:	000b8593          	mv	a1,s7
    1bf4:	000b0513          	mv	a0,s6
    1bf8:	3440b0ef          	jal	ra,cf3c <__sprint_r>
    1bfc:	02051263          	bnez	a0,1c20 <_vfprintf_r+0xed0>
    1c00:	0ec12703          	lw	a4,236(sp)
    1c04:	10c10893          	addi	a7,sp,268
    1c08:	c24ff06f          	j	102c <_vfprintf_r+0x2dc>
    1c0c:	0e410613          	addi	a2,sp,228
    1c10:	000b8593          	mv	a1,s7
    1c14:	000b0513          	mv	a0,s6
    1c18:	3240b0ef          	jal	ra,cf3c <__sprint_r>
    1c1c:	c6050463          	beqz	a0,1084 <_vfprintf_r+0x334>
    1c20:	01012583          	lw	a1,16(sp)
    1c24:	c8058a63          	beqz	a1,10b8 <_vfprintf_r+0x368>
    1c28:	000b0513          	mv	a0,s6
    1c2c:	710020ef          	jal	ra,433c <_free_r>
    1c30:	c88ff06f          	j	10b8 <_vfprintf_r+0x368>
    1c34:	000207b7          	lui	a5,0x20
    1c38:	01000613          	li	a2,16
    1c3c:	0e812683          	lw	a3,232(sp)
    1c40:	2b478d93          	addi	s11,a5,692 # 202b4 <blanks.1>
    1c44:	0b065863          	bge	a2,a6,1cf4 <_vfprintf_r+0xfa4>
    1c48:	04812023          	sw	s0,64(sp)
    1c4c:	04912223          	sw	s1,68(sp)
    1c50:	000b0413          	mv	s0,s6
    1c54:	000b8493          	mv	s1,s7
    1c58:	01000f13          	li	t5,16
    1c5c:	000d8b93          	mv	s7,s11
    1c60:	00700393          	li	t2,7
    1c64:	000d0d93          	mv	s11,s10
    1c68:	00080b13          	mv	s6,a6
    1c6c:	00098d13          	mv	s10,s3
    1c70:	00030993          	mv	s3,t1
    1c74:	00c0006f          	j	1c80 <_vfprintf_r+0xf30>
    1c78:	ff0b0b13          	addi	s6,s6,-16
    1c7c:	056f5a63          	bge	t5,s6,1cd0 <_vfprintf_r+0xf80>
    1c80:	01070713          	addi	a4,a4,16
    1c84:	00168693          	addi	a3,a3,1
    1c88:	0178a023          	sw	s7,0(a7)
    1c8c:	01e8a223          	sw	t5,4(a7)
    1c90:	0ee12623          	sw	a4,236(sp)
    1c94:	0ed12423          	sw	a3,232(sp)
    1c98:	00888893          	addi	a7,a7,8
    1c9c:	fcd3dee3          	bge	t2,a3,1c78 <_vfprintf_r+0xf28>
    1ca0:	0e410613          	addi	a2,sp,228
    1ca4:	00048593          	mv	a1,s1
    1ca8:	00040513          	mv	a0,s0
    1cac:	2900b0ef          	jal	ra,cf3c <__sprint_r>
    1cb0:	2e0510e3          	bnez	a0,2790 <_vfprintf_r+0x1a40>
    1cb4:	01000f13          	li	t5,16
    1cb8:	ff0b0b13          	addi	s6,s6,-16
    1cbc:	0ec12703          	lw	a4,236(sp)
    1cc0:	0e812683          	lw	a3,232(sp)
    1cc4:	10c10893          	addi	a7,sp,268
    1cc8:	00700393          	li	t2,7
    1ccc:	fb6f4ae3          	blt	t5,s6,1c80 <_vfprintf_r+0xf30>
    1cd0:	00098313          	mv	t1,s3
    1cd4:	000b0813          	mv	a6,s6
    1cd8:	000d0993          	mv	s3,s10
    1cdc:	00040b13          	mv	s6,s0
    1ce0:	000d8d13          	mv	s10,s11
    1ce4:	04012403          	lw	s0,64(sp)
    1ce8:	000b8d93          	mv	s11,s7
    1cec:	00048b93          	mv	s7,s1
    1cf0:	04412483          	lw	s1,68(sp)
    1cf4:	01070733          	add	a4,a4,a6
    1cf8:	00168693          	addi	a3,a3,1
    1cfc:	01b8a023          	sw	s11,0(a7)
    1d00:	0108a223          	sw	a6,4(a7)
    1d04:	0ee12623          	sw	a4,236(sp)
    1d08:	0ed12423          	sw	a3,232(sp)
    1d0c:	00700613          	li	a2,7
    1d10:	00888893          	addi	a7,a7,8
    1d14:	a8d65e63          	bge	a2,a3,fb0 <_vfprintf_r+0x260>
    1d18:	0e410613          	addi	a2,sp,228
    1d1c:	000b8593          	mv	a1,s7
    1d20:	000b0513          	mv	a0,s6
    1d24:	04612023          	sw	t1,64(sp)
    1d28:	2140b0ef          	jal	ra,cf3c <__sprint_r>
    1d2c:	ee051ae3          	bnez	a0,1c20 <_vfprintf_r+0xed0>
    1d30:	0ec12703          	lw	a4,236(sp)
    1d34:	04012303          	lw	t1,64(sp)
    1d38:	10c10893          	addi	a7,sp,268
    1d3c:	a74ff06f          	j	fb0 <_vfprintf_r+0x260>
    1d40:	0e410613          	addi	a2,sp,228
    1d44:	000b8593          	mv	a1,s7
    1d48:	000b0513          	mv	a0,s6
    1d4c:	04612023          	sw	t1,64(sp)
    1d50:	1ec0b0ef          	jal	ra,cf3c <__sprint_r>
    1d54:	ec0516e3          	bnez	a0,1c20 <_vfprintf_r+0xed0>
    1d58:	0ec12703          	lw	a4,236(sp)
    1d5c:	04012303          	lw	t1,64(sp)
    1d60:	10c10893          	addi	a7,sp,268
    1d64:	ab8ff06f          	j	101c <_vfprintf_r+0x2cc>
    1d68:	0cc12583          	lw	a1,204(sp)
    1d6c:	1ab052e3          	blez	a1,2710 <_vfprintf_r+0x19c0>
    1d70:	01c12783          	lw	a5,28(sp)
    1d74:	02012683          	lw	a3,32(sp)
    1d78:	00078c13          	mv	s8,a5
    1d7c:	3af6c063          	blt	a3,a5,211c <_vfprintf_r+0x13cc>
    1d80:	03805663          	blez	s8,1dac <_vfprintf_r+0x105c>
    1d84:	0e812683          	lw	a3,232(sp)
    1d88:	01870733          	add	a4,a4,s8
    1d8c:	01a8a023          	sw	s10,0(a7)
    1d90:	00168693          	addi	a3,a3,1
    1d94:	0188a223          	sw	s8,4(a7)
    1d98:	0ee12623          	sw	a4,236(sp)
    1d9c:	0ed12423          	sw	a3,232(sp)
    1da0:	00700613          	li	a2,7
    1da4:	00888893          	addi	a7,a7,8
    1da8:	6ad64ce3          	blt	a2,a3,2c60 <_vfprintf_r+0x1f10>
    1dac:	fffc4693          	not	a3,s8
    1db0:	01c12783          	lw	a5,28(sp)
    1db4:	41f6d693          	srai	a3,a3,0x1f
    1db8:	00dc7c33          	and	s8,s8,a3
    1dbc:	41878c33          	sub	s8,a5,s8
    1dc0:	47804063          	bgtz	s8,2220 <_vfprintf_r+0x14d0>
    1dc4:	01c12783          	lw	a5,28(sp)
    1dc8:	40097693          	andi	a3,s2,1024
    1dcc:	00fd0cb3          	add	s9,s10,a5
    1dd0:	4a0694e3          	bnez	a3,2a78 <_vfprintf_r+0x1d28>
    1dd4:	0cc12683          	lw	a3,204(sp)
    1dd8:	02012783          	lw	a5,32(sp)
    1ddc:	00f6c663          	blt	a3,a5,1de8 <_vfprintf_r+0x1098>
    1de0:	00197613          	andi	a2,s2,1
    1de4:	6a0604e3          	beqz	a2,2c8c <_vfprintf_r+0x1f3c>
    1de8:	03012603          	lw	a2,48(sp)
    1dec:	02c12783          	lw	a5,44(sp)
    1df0:	00700593          	li	a1,7
    1df4:	00c8a023          	sw	a2,0(a7)
    1df8:	0e812603          	lw	a2,232(sp)
    1dfc:	00f70733          	add	a4,a4,a5
    1e00:	00f8a223          	sw	a5,4(a7)
    1e04:	00160613          	addi	a2,a2,1
    1e08:	0ee12623          	sw	a4,236(sp)
    1e0c:	0ec12423          	sw	a2,232(sp)
    1e10:	00888893          	addi	a7,a7,8
    1e14:	00c5d463          	bge	a1,a2,1e1c <_vfprintf_r+0x10cc>
    1e18:	3dc0106f          	j	31f4 <_vfprintf_r+0x24a4>
    1e1c:	02012603          	lw	a2,32(sp)
    1e20:	00cd07b3          	add	a5,s10,a2
    1e24:	40d606b3          	sub	a3,a2,a3
    1e28:	41978ab3          	sub	s5,a5,s9
    1e2c:	0156d463          	bge	a3,s5,1e34 <_vfprintf_r+0x10e4>
    1e30:	00068a93          	mv	s5,a3
    1e34:	03505863          	blez	s5,1e64 <_vfprintf_r+0x1114>
    1e38:	0e812783          	lw	a5,232(sp)
    1e3c:	01570733          	add	a4,a4,s5
    1e40:	0198a023          	sw	s9,0(a7)
    1e44:	00178793          	addi	a5,a5,1
    1e48:	0158a223          	sw	s5,4(a7)
    1e4c:	0ee12623          	sw	a4,236(sp)
    1e50:	0ef12423          	sw	a5,232(sp)
    1e54:	00700613          	li	a2,7
    1e58:	00888893          	addi	a7,a7,8
    1e5c:	00f65463          	bge	a2,a5,1e64 <_vfprintf_r+0x1114>
    1e60:	4040106f          	j	3264 <_vfprintf_r+0x2514>
    1e64:	fffac793          	not	a5,s5
    1e68:	41f7d793          	srai	a5,a5,0x1f
    1e6c:	00fafab3          	and	s5,s5,a5
    1e70:	41568ab3          	sub	s5,a3,s5
    1e74:	9f505463          	blez	s5,105c <_vfprintf_r+0x30c>
    1e78:	01000693          	li	a3,16
    1e7c:	0e812783          	lw	a5,232(sp)
    1e80:	1356dee3          	bge	a3,s5,27bc <_vfprintf_r+0x1a6c>
    1e84:	01000c13          	li	s8,16
    1e88:	00700c93          	li	s9,7
    1e8c:	00c0006f          	j	1e98 <_vfprintf_r+0x1148>
    1e90:	ff0a8a93          	addi	s5,s5,-16
    1e94:	135c54e3          	bge	s8,s5,27bc <_vfprintf_r+0x1a6c>
    1e98:	00812683          	lw	a3,8(sp)
    1e9c:	01070713          	addi	a4,a4,16
    1ea0:	00178793          	addi	a5,a5,1
    1ea4:	00d8a023          	sw	a3,0(a7)
    1ea8:	0188a223          	sw	s8,4(a7)
    1eac:	0ee12623          	sw	a4,236(sp)
    1eb0:	0ef12423          	sw	a5,232(sp)
    1eb4:	00888893          	addi	a7,a7,8
    1eb8:	fcfcdce3          	bge	s9,a5,1e90 <_vfprintf_r+0x1140>
    1ebc:	0e410613          	addi	a2,sp,228
    1ec0:	000b8593          	mv	a1,s7
    1ec4:	000b0513          	mv	a0,s6
    1ec8:	0740b0ef          	jal	ra,cf3c <__sprint_r>
    1ecc:	d4051ae3          	bnez	a0,1c20 <_vfprintf_r+0xed0>
    1ed0:	0ec12703          	lw	a4,236(sp)
    1ed4:	0e812783          	lw	a5,232(sp)
    1ed8:	10c10893          	addi	a7,sp,268
    1edc:	fb5ff06f          	j	1e90 <_vfprintf_r+0x1140>
    1ee0:	00197593          	andi	a1,s2,1
    1ee4:	c2059863          	bnez	a1,1314 <_vfprintf_r+0x5c4>
    1ee8:	00d8a223          	sw	a3,4(a7)
    1eec:	0fb12623          	sw	s11,236(sp)
    1ef0:	0f512423          	sw	s5,232(sp)
    1ef4:	00700793          	li	a5,7
    1ef8:	cd57dc63          	bge	a5,s5,13d0 <_vfprintf_r+0x680>
    1efc:	0e410613          	addi	a2,sp,228
    1f00:	000b8593          	mv	a1,s7
    1f04:	000b0513          	mv	a0,s6
    1f08:	0340b0ef          	jal	ra,cf3c <__sprint_r>
    1f0c:	d0051ae3          	bnez	a0,1c20 <_vfprintf_r+0xed0>
    1f10:	0ec12d83          	lw	s11,236(sp)
    1f14:	0e812a83          	lw	s5,232(sp)
    1f18:	10c10c93          	addi	s9,sp,268
    1f1c:	cb4ff06f          	j	13d0 <_vfprintf_r+0x680>
    1f20:	cb805863          	blez	s8,13d0 <_vfprintf_r+0x680>
    1f24:	01000793          	li	a5,16
    1f28:	2187dce3          	bge	a5,s8,2940 <_vfprintf_r+0x1bf0>
    1f2c:	00700d13          	li	s10,7
    1f30:	00c0006f          	j	1f3c <_vfprintf_r+0x11ec>
    1f34:	ff0c0c13          	addi	s8,s8,-16
    1f38:	2187d4e3          	bge	a5,s8,2940 <_vfprintf_r+0x1bf0>
    1f3c:	00812703          	lw	a4,8(sp)
    1f40:	010d8d93          	addi	s11,s11,16
    1f44:	001a8a93          	addi	s5,s5,1
    1f48:	00eca023          	sw	a4,0(s9)
    1f4c:	00fca223          	sw	a5,4(s9)
    1f50:	0fb12623          	sw	s11,236(sp)
    1f54:	0f512423          	sw	s5,232(sp)
    1f58:	008c8c93          	addi	s9,s9,8
    1f5c:	fd5d5ce3          	bge	s10,s5,1f34 <_vfprintf_r+0x11e4>
    1f60:	0e410613          	addi	a2,sp,228
    1f64:	000b8593          	mv	a1,s7
    1f68:	000b0513          	mv	a0,s6
    1f6c:	7d10a0ef          	jal	ra,cf3c <__sprint_r>
    1f70:	ca0518e3          	bnez	a0,1c20 <_vfprintf_r+0xed0>
    1f74:	0ec12d83          	lw	s11,236(sp)
    1f78:	0e812a83          	lw	s5,232(sp)
    1f7c:	10c10c93          	addi	s9,sp,268
    1f80:	01000793          	li	a5,16
    1f84:	fb1ff06f          	j	1f34 <_vfprintf_r+0x11e4>
    1f88:	01412703          	lw	a4,20(sp)
    1f8c:	01097793          	andi	a5,s2,16
    1f90:	00072983          	lw	s3,0(a4)
    1f94:	00470713          	addi	a4,a4,4
    1f98:	00e12a23          	sw	a4,20(sp)
    1f9c:	10079663          	bnez	a5,20a8 <_vfprintf_r+0x1358>
    1fa0:	04097793          	andi	a5,s2,64
    1fa4:	0e078e63          	beqz	a5,20a0 <_vfprintf_r+0x1350>
    1fa8:	01099993          	slli	s3,s3,0x10
    1fac:	4109d993          	srai	s3,s3,0x10
    1fb0:	41f9da93          	srai	s5,s3,0x1f
    1fb4:	000a8793          	mv	a5,s5
    1fb8:	8407d8e3          	bgez	a5,1808 <_vfprintf_r+0xab8>
    1fbc:	013037b3          	snez	a5,s3
    1fc0:	41500ab3          	neg	s5,s5
    1fc4:	40fa8ab3          	sub	s5,s5,a5
    1fc8:	413009b3          	neg	s3,s3
    1fcc:	00090d93          	mv	s11,s2
    1fd0:	02d00713          	li	a4,45
    1fd4:	00100793          	li	a5,1
    1fd8:	e8cff06f          	j	1664 <_vfprintf_r+0x914>
    1fdc:	01412703          	lw	a4,20(sp)
    1fe0:	01097793          	andi	a5,s2,16
    1fe4:	00072983          	lw	s3,0(a4)
    1fe8:	00470713          	addi	a4,a4,4
    1fec:	00e12a23          	sw	a4,20(sp)
    1ff0:	0a079463          	bnez	a5,2098 <_vfprintf_r+0x1348>
    1ff4:	04097793          	andi	a5,s2,64
    1ff8:	08078c63          	beqz	a5,2090 <_vfprintf_r+0x1340>
    1ffc:	01099993          	slli	s3,s3,0x10
    2000:	0109d993          	srli	s3,s3,0x10
    2004:	00000a93          	li	s5,0
    2008:	f78ff06f          	j	1780 <_vfprintf_r+0xa30>
    200c:	01412703          	lw	a4,20(sp)
    2010:	010df793          	andi	a5,s11,16
    2014:	00072983          	lw	s3,0(a4)
    2018:	00470713          	addi	a4,a4,4
    201c:	00e12a23          	sw	a4,20(sp)
    2020:	06079263          	bnez	a5,2084 <_vfprintf_r+0x1334>
    2024:	040df793          	andi	a5,s11,64
    2028:	04078863          	beqz	a5,2078 <_vfprintf_r+0x1328>
    202c:	01099993          	slli	s3,s3,0x10
    2030:	0109d993          	srli	s3,s3,0x10
    2034:	00000a93          	li	s5,0
    2038:	00100793          	li	a5,1
    203c:	e24ff06f          	j	1660 <_vfprintf_r+0x910>
    2040:	00197793          	andi	a5,s2,1
    2044:	00079463          	bnez	a5,204c <_vfprintf_r+0x12fc>
    2048:	814ff06f          	j	105c <_vfprintf_r+0x30c>
    204c:	975ff06f          	j	19c0 <_vfprintf_r+0xc70>
    2050:	000a0313          	mv	t1,s4
    2054:	000d8893          	mv	a7,s11
    2058:	f84ff06f          	j	17dc <_vfprintf_r+0xa8c>
    205c:	00044e03          	lbu	t3,0(s0)
    2060:	00f12a23          	sw	a5,20(sp)
    2064:	ea9fe06f          	j	f0c <_vfprintf_r+0x1bc>
    2068:	03000793          	li	a5,48
    206c:	1af107a3          	sb	a5,431(sp)
    2070:	1af10d13          	addi	s10,sp,431
    2074:	e1cff06f          	j	1690 <_vfprintf_r+0x940>
    2078:	200df793          	andi	a5,s11,512
    207c:	00078463          	beqz	a5,2084 <_vfprintf_r+0x1334>
    2080:	0ff9f993          	zext.b	s3,s3
    2084:	00000a93          	li	s5,0
    2088:	00100793          	li	a5,1
    208c:	dd4ff06f          	j	1660 <_vfprintf_r+0x910>
    2090:	20097793          	andi	a5,s2,512
    2094:	42079ee3          	bnez	a5,2cd0 <_vfprintf_r+0x1f80>
    2098:	00000a93          	li	s5,0
    209c:	ee4ff06f          	j	1780 <_vfprintf_r+0xa30>
    20a0:	20097793          	andi	a5,s2,512
    20a4:	42079ce3          	bnez	a5,2cdc <_vfprintf_r+0x1f8c>
    20a8:	41f9da93          	srai	s5,s3,0x1f
    20ac:	000a8793          	mv	a5,s5
    20b0:	f54ff06f          	j	1804 <_vfprintf_r+0xab4>
    20b4:	00c12603          	lw	a2,12(sp)
    20b8:	0006a783          	lw	a5,0(a3)
    20bc:	00e12a23          	sw	a4,20(sp)
    20c0:	41f65693          	srai	a3,a2,0x1f
    20c4:	00c7a023          	sw	a2,0(a5)
    20c8:	00d7a223          	sw	a3,4(a5)
    20cc:	00040d13          	mv	s10,s0
    20d0:	fd5fe06f          	j	10a4 <_vfprintf_r+0x354>
    20d4:	03c12783          	lw	a5,60(sp)
    20d8:	00044e03          	lbu	t3,0(s0)
    20dc:	00079463          	bnez	a5,20e4 <_vfprintf_r+0x1394>
    20e0:	e2dfe06f          	j	f0c <_vfprintf_r+0x1bc>
    20e4:	0007c783          	lbu	a5,0(a5)
    20e8:	00079463          	bnez	a5,20f0 <_vfprintf_r+0x13a0>
    20ec:	e21fe06f          	j	f0c <_vfprintf_r+0x1bc>
    20f0:	40096913          	ori	s2,s2,1024
    20f4:	e19fe06f          	j	f0c <_vfprintf_r+0x1bc>
    20f8:	01412783          	lw	a5,20(sp)
    20fc:	0007a703          	lw	a4,0(a5)
    2100:	00478793          	addi	a5,a5,4
    2104:	00f12a23          	sw	a5,20(sp)
    2108:	00072583          	lw	a1,0(a4)
    210c:	00472603          	lw	a2,4(a4)
    2110:	00872683          	lw	a3,8(a4)
    2114:	00c72703          	lw	a4,12(a4)
    2118:	904ff06f          	j	121c <_vfprintf_r+0x4cc>
    211c:	00068c13          	mv	s8,a3
    2120:	c78042e3          	bgtz	s8,1d84 <_vfprintf_r+0x1034>
    2124:	c89ff06f          	j	1dac <_vfprintf_r+0x105c>
    2128:	000d8893          	mv	a7,s11
    212c:	000a0313          	mv	t1,s4
    2130:	00090d93          	mv	s11,s2
    2134:	e64ff06f          	j	1798 <_vfprintf_r+0xa48>
    2138:	000207b7          	lui	a5,0x20
    213c:	07c78793          	addi	a5,a5,124 # 2007c <__malloc_trim_threshold+0x44>
    2140:	000a0313          	mv	t1,s4
    2144:	000d8893          	mv	a7,s11
    2148:	02f12a23          	sw	a5,52(sp)
    214c:	02097793          	andi	a5,s2,32
    2150:	40078663          	beqz	a5,255c <_vfprintf_r+0x180c>
    2154:	01412783          	lw	a5,20(sp)
    2158:	00778a13          	addi	s4,a5,7
    215c:	ff8a7a13          	andi	s4,s4,-8
    2160:	000a2983          	lw	s3,0(s4)
    2164:	004a2a83          	lw	s5,4(s4)
    2168:	008a0793          	addi	a5,s4,8
    216c:	00f12a23          	sw	a5,20(sp)
    2170:	00197793          	andi	a5,s2,1
    2174:	00078e63          	beqz	a5,2190 <_vfprintf_r+0x1440>
    2178:	0159e7b3          	or	a5,s3,s5
    217c:	00078a63          	beqz	a5,2190 <_vfprintf_r+0x1440>
    2180:	03000793          	li	a5,48
    2184:	0cf10423          	sb	a5,200(sp)
    2188:	0d9104a3          	sb	s9,201(sp)
    218c:	00296913          	ori	s2,s2,2
    2190:	bff97d93          	andi	s11,s2,-1025
    2194:	00200793          	li	a5,2
    2198:	cc8ff06f          	j	1660 <_vfprintf_r+0x910>
    219c:	000a0313          	mv	t1,s4
    21a0:	000d8893          	mv	a7,s11
    21a4:	db8ff06f          	j	175c <_vfprintf_r+0xa0c>
    21a8:	00144e03          	lbu	t3,1(s0)
    21ac:	02096913          	ori	s2,s2,32
    21b0:	00140413          	addi	s0,s0,1
    21b4:	d59fe06f          	j	f0c <_vfprintf_r+0x1bc>
    21b8:	00144e03          	lbu	t3,1(s0)
    21bc:	20096913          	ori	s2,s2,512
    21c0:	00140413          	addi	s0,s0,1
    21c4:	d49fe06f          	j	f0c <_vfprintf_r+0x1bc>
    21c8:	000207b7          	lui	a5,0x20
    21cc:	09078793          	addi	a5,a5,144 # 20090 <__malloc_trim_threshold+0x58>
    21d0:	000a0313          	mv	t1,s4
    21d4:	000d8893          	mv	a7,s11
    21d8:	02f12a23          	sw	a5,52(sp)
    21dc:	f71ff06f          	j	214c <_vfprintf_r+0x13fc>
    21e0:	0e410613          	addi	a2,sp,228
    21e4:	000b8593          	mv	a1,s7
    21e8:	000b0513          	mv	a0,s6
    21ec:	5510a0ef          	jal	ra,cf3c <__sprint_r>
    21f0:	a20518e3          	bnez	a0,1c20 <_vfprintf_r+0xed0>
    21f4:	0ec12703          	lw	a4,236(sp)
    21f8:	10c10893          	addi	a7,sp,268
    21fc:	ff4ff06f          	j	19f0 <_vfprintf_r+0xca0>
    2200:	00600793          	li	a5,6
    2204:	00030c13          	mv	s8,t1
    2208:	2667eee3          	bltu	a5,t1,2c84 <_vfprintf_r+0x1f34>
    220c:	000207b7          	lui	a5,0x20
    2210:	000c0993          	mv	s3,s8
    2214:	01412a23          	sw	s4,20(sp)
    2218:	0a478d13          	addi	s10,a5,164 # 200a4 <__malloc_trim_threshold+0x6c>
    221c:	d61fe06f          	j	f7c <_vfprintf_r+0x22c>
    2220:	01000613          	li	a2,16
    2224:	0e812683          	lw	a3,232(sp)
    2228:	75865463          	bge	a2,s8,2970 <_vfprintf_r+0x1c20>
    222c:	01000d93          	li	s11,16
    2230:	00700c93          	li	s9,7
    2234:	00c0006f          	j	2240 <_vfprintf_r+0x14f0>
    2238:	ff0c0c13          	addi	s8,s8,-16
    223c:	738dda63          	bge	s11,s8,2970 <_vfprintf_r+0x1c20>
    2240:	00812783          	lw	a5,8(sp)
    2244:	01070713          	addi	a4,a4,16
    2248:	00168693          	addi	a3,a3,1
    224c:	00f8a023          	sw	a5,0(a7)
    2250:	01b8a223          	sw	s11,4(a7)
    2254:	0ee12623          	sw	a4,236(sp)
    2258:	0ed12423          	sw	a3,232(sp)
    225c:	00888893          	addi	a7,a7,8
    2260:	fcdcdce3          	bge	s9,a3,2238 <_vfprintf_r+0x14e8>
    2264:	0e410613          	addi	a2,sp,228
    2268:	000b8593          	mv	a1,s7
    226c:	000b0513          	mv	a0,s6
    2270:	4cd0a0ef          	jal	ra,cf3c <__sprint_r>
    2274:	9a0516e3          	bnez	a0,1c20 <_vfprintf_r+0xed0>
    2278:	0ec12703          	lw	a4,236(sp)
    227c:	0e812683          	lw	a3,232(sp)
    2280:	10c10893          	addi	a7,sp,268
    2284:	fb5ff06f          	j	2238 <_vfprintf_r+0x14e8>
    2288:	07800793          	li	a5,120
    228c:	03000713          	li	a4,48
    2290:	0cf104a3          	sb	a5,201(sp)
    2294:	00296793          	ori	a5,s2,2
    2298:	0ce10423          	sb	a4,200(sp)
    229c:	04f12023          	sw	a5,64(sp)
    22a0:	06300713          	li	a4,99
    22a4:	00012823          	sw	zero,16(sp)
    22a8:	14c10d13          	addi	s10,sp,332
    22ac:	2a6748e3          	blt	a4,t1,2d5c <_vfprintf_r+0x200c>
    22b0:	0fc12a83          	lw	s5,252(sp)
    22b4:	fdfcf793          	andi	a5,s9,-33
    22b8:	02f12423          	sw	a5,40(sp)
    22bc:	04012c23          	sw	zero,88(sp)
    22c0:	0f012a03          	lw	s4,240(sp)
    22c4:	0f412e83          	lw	t4,244(sp)
    22c8:	0f812f03          	lw	t5,248(sp)
    22cc:	10296913          	ori	s2,s2,258
    22d0:	240ac6e3          	bltz	s5,2d1c <_vfprintf_r+0x1fcc>
    22d4:	06100713          	li	a4,97
    22d8:	00ec9463          	bne	s9,a4,22e0 <_vfprintf_r+0x1590>
    22dc:	2200106f          	j	34fc <_vfprintf_r+0x27ac>
    22e0:	fbfc8713          	addi	a4,s9,-65
    22e4:	02500693          	li	a3,37
    22e8:	00e6ee63          	bltu	a3,a4,2304 <_vfprintf_r+0x15b4>
    22ec:	000206b7          	lui	a3,0x20
    22f0:	00271713          	slli	a4,a4,0x2
    22f4:	21c68693          	addi	a3,a3,540 # 2021c <__malloc_trim_threshold+0x1e4>
    22f8:	00d70733          	add	a4,a4,a3
    22fc:	00072703          	lw	a4,0(a4)
    2300:	00070067          	jr	a4
    2304:	00030693          	mv	a3,t1
    2308:	00200613          	li	a2,2
    230c:	0b010993          	addi	s3,sp,176
    2310:	0d010793          	addi	a5,sp,208
    2314:	0cc10713          	addi	a4,sp,204
    2318:	0dc10813          	addi	a6,sp,220
    231c:	00098593          	mv	a1,s3
    2320:	000b0513          	mv	a0,s6
    2324:	05112823          	sw	a7,80(sp)
    2328:	04612223          	sw	t1,68(sp)
    232c:	02d12223          	sw	a3,36(sp)
    2330:	0bd12a23          	sw	t4,180(sp)
    2334:	03d12023          	sw	t4,32(sp)
    2338:	0be12c23          	sw	t5,184(sp)
    233c:	01e12e23          	sw	t5,28(sp)
    2340:	0b412823          	sw	s4,176(sp)
    2344:	0b512e23          	sw	s5,188(sp)
    2348:	13c040ef          	jal	ra,6484 <_ldtoa_r>
    234c:	02812783          	lw	a5,40(sp)
    2350:	04700713          	li	a4,71
    2354:	01c12f03          	lw	t5,28(sp)
    2358:	02012e83          	lw	t4,32(sp)
    235c:	02412683          	lw	a3,36(sp)
    2360:	04412303          	lw	t1,68(sp)
    2364:	05012883          	lw	a7,80(sp)
    2368:	00050d13          	mv	s10,a0
    236c:	64e782e3          	beq	a5,a4,31b0 <_vfprintf_r+0x2460>
    2370:	04600713          	li	a4,70
    2374:	00d50633          	add	a2,a0,a3
    2378:	20e798e3          	bne	a5,a4,2d88 <_vfprintf_r+0x2038>
    237c:	00054583          	lbu	a1,0(a0)
    2380:	03000713          	li	a4,48
    2384:	00e59463          	bne	a1,a4,238c <_vfprintf_r+0x163c>
    2388:	2800106f          	j	3608 <_vfprintf_r+0x28b8>
    238c:	0a010c13          	addi	s8,sp,160
    2390:	0cc12703          	lw	a4,204(sp)
    2394:	00e60633          	add	a2,a2,a4
    2398:	000c0593          	mv	a1,s8
    239c:	00098513          	mv	a0,s3
    23a0:	03112223          	sw	a7,36(sp)
    23a4:	02c12023          	sw	a2,32(sp)
    23a8:	00612e23          	sw	t1,28(sp)
    23ac:	0b412823          	sw	s4,176(sp)
    23b0:	0bd12a23          	sw	t4,180(sp)
    23b4:	0be12c23          	sw	t5,184(sp)
    23b8:	0b512e23          	sw	s5,188(sp)
    23bc:	0a012023          	sw	zero,160(sp)
    23c0:	0a012223          	sw	zero,164(sp)
    23c4:	0a012423          	sw	zero,168(sp)
    23c8:	0a012623          	sw	zero,172(sp)
    23cc:	7ad0e0ef          	jal	ra,11378 <__eqtf2>
    23d0:	02012603          	lw	a2,32(sp)
    23d4:	01c12303          	lw	t1,28(sp)
    23d8:	02412883          	lw	a7,36(sp)
    23dc:	00060793          	mv	a5,a2
    23e0:	02050263          	beqz	a0,2404 <_vfprintf_r+0x16b4>
    23e4:	0dc12783          	lw	a5,220(sp)
    23e8:	00c7fe63          	bgeu	a5,a2,2404 <_vfprintf_r+0x16b4>
    23ec:	03000693          	li	a3,48
    23f0:	00178713          	addi	a4,a5,1
    23f4:	0ce12e23          	sw	a4,220(sp)
    23f8:	00d78023          	sb	a3,0(a5)
    23fc:	0dc12783          	lw	a5,220(sp)
    2400:	fec7e8e3          	bltu	a5,a2,23f0 <_vfprintf_r+0x16a0>
    2404:	41a787b3          	sub	a5,a5,s10
    2408:	02f12023          	sw	a5,32(sp)
    240c:	0cc12783          	lw	a5,204(sp)
    2410:	04700713          	li	a4,71
    2414:	00f12e23          	sw	a5,28(sp)
    2418:	02812783          	lw	a5,40(sp)
    241c:	50e784e3          	beq	a5,a4,3124 <_vfprintf_r+0x23d4>
    2420:	02812783          	lw	a5,40(sp)
    2424:	04600713          	li	a4,70
    2428:	70e786e3          	beq	a5,a4,3334 <_vfprintf_r+0x25e4>
    242c:	01c12783          	lw	a5,28(sp)
    2430:	04100593          	li	a1,65
    2434:	0ffcf693          	zext.b	a3,s9
    2438:	fff78713          	addi	a4,a5,-1
    243c:	02812783          	lw	a5,40(sp)
    2440:	0ce12623          	sw	a4,204(sp)
    2444:	00000613          	li	a2,0
    2448:	00b79863          	bne	a5,a1,2458 <_vfprintf_r+0x1708>
    244c:	00f68693          	addi	a3,a3,15
    2450:	0ff6f693          	zext.b	a3,a3
    2454:	00100613          	li	a2,1
    2458:	0cd10a23          	sb	a3,212(sp)
    245c:	02b00693          	li	a3,43
    2460:	00075a63          	bgez	a4,2474 <_vfprintf_r+0x1724>
    2464:	01c12783          	lw	a5,28(sp)
    2468:	00100713          	li	a4,1
    246c:	02d00693          	li	a3,45
    2470:	40f70733          	sub	a4,a4,a5
    2474:	0cd10aa3          	sb	a3,213(sp)
    2478:	00900693          	li	a3,9
    247c:	6ee6dae3          	bge	a3,a4,3370 <_vfprintf_r+0x2620>
    2480:	0e310313          	addi	t1,sp,227
    2484:	00030513          	mv	a0,t1
    2488:	00a00613          	li	a2,10
    248c:	06300e93          	li	t4,99
    2490:	02c767b3          	rem	a5,a4,a2
    2494:	00050593          	mv	a1,a0
    2498:	00070693          	mv	a3,a4
    249c:	fff50513          	addi	a0,a0,-1
    24a0:	03078793          	addi	a5,a5,48
    24a4:	fef58fa3          	sb	a5,-1(a1)
    24a8:	02c74733          	div	a4,a4,a2
    24ac:	fedec2e3          	blt	t4,a3,2490 <_vfprintf_r+0x1740>
    24b0:	03070713          	addi	a4,a4,48
    24b4:	0ff77613          	zext.b	a2,a4
    24b8:	fec50fa3          	sb	a2,-1(a0)
    24bc:	ffe58713          	addi	a4,a1,-2
    24c0:	00676463          	bltu	a4,t1,24c8 <_vfprintf_r+0x1778>
    24c4:	1e80106f          	j	36ac <_vfprintf_r+0x295c>
    24c8:	0d610693          	addi	a3,sp,214
    24cc:	0080006f          	j	24d4 <_vfprintf_r+0x1784>
    24d0:	00074603          	lbu	a2,0(a4)
    24d4:	00c68023          	sb	a2,0(a3)
    24d8:	00170713          	addi	a4,a4,1
    24dc:	00168693          	addi	a3,a3,1
    24e0:	fe6718e3          	bne	a4,t1,24d0 <_vfprintf_r+0x1780>
    24e4:	0e510713          	addi	a4,sp,229
    24e8:	0d610793          	addi	a5,sp,214
    24ec:	40b70733          	sub	a4,a4,a1
    24f0:	00e78733          	add	a4,a5,a4
    24f4:	0d410693          	addi	a3,sp,212
    24f8:	40d707b3          	sub	a5,a4,a3
    24fc:	02f12c23          	sw	a5,56(sp)
    2500:	02012783          	lw	a5,32(sp)
    2504:	03812683          	lw	a3,56(sp)
    2508:	00100713          	li	a4,1
    250c:	00d78c33          	add	s8,a5,a3
    2510:	74f75ee3          	bge	a4,a5,346c <_vfprintf_r+0x271c>
    2514:	02c12783          	lw	a5,44(sp)
    2518:	00fc0c33          	add	s8,s8,a5
    251c:	04012783          	lw	a5,64(sp)
    2520:	fffc4993          	not	s3,s8
    2524:	41f9d993          	srai	s3,s3,0x1f
    2528:	bff7f913          	andi	s2,a5,-1025
    252c:	10096913          	ori	s2,s2,256
    2530:	013c79b3          	and	s3,s8,s3
    2534:	02012423          	sw	zero,40(sp)
    2538:	02012223          	sw	zero,36(sp)
    253c:	00012e23          	sw	zero,28(sp)
    2540:	05812783          	lw	a5,88(sp)
    2544:	400780e3          	beqz	a5,3144 <_vfprintf_r+0x23f4>
    2548:	02d00713          	li	a4,45
    254c:	0ce103a3          	sb	a4,199(sp)
    2550:	00000313          	li	t1,0
    2554:	00198993          	addi	s3,s3,1
    2558:	a39fe06f          	j	f90 <_vfprintf_r+0x240>
    255c:	01412703          	lw	a4,20(sp)
    2560:	01097793          	andi	a5,s2,16
    2564:	00072983          	lw	s3,0(a4)
    2568:	00470713          	addi	a4,a4,4
    256c:	00e12a23          	sw	a4,20(sp)
    2570:	06079663          	bnez	a5,25dc <_vfprintf_r+0x188c>
    2574:	04097793          	andi	a5,s2,64
    2578:	04078e63          	beqz	a5,25d4 <_vfprintf_r+0x1884>
    257c:	01099993          	slli	s3,s3,0x10
    2580:	0109d993          	srli	s3,s3,0x10
    2584:	00000a93          	li	s5,0
    2588:	be9ff06f          	j	2170 <_vfprintf_r+0x1420>
    258c:	0e410613          	addi	a2,sp,228
    2590:	000b8593          	mv	a1,s7
    2594:	000b0513          	mv	a0,s6
    2598:	1a50a0ef          	jal	ra,cf3c <__sprint_r>
    259c:	e8051263          	bnez	a0,1c20 <_vfprintf_r+0xed0>
    25a0:	0ec12d83          	lw	s11,236(sp)
    25a4:	0e812a83          	lw	s5,232(sp)
    25a8:	10c10c93          	addi	s9,sp,268
    25ac:	d85fe06f          	j	1330 <_vfprintf_r+0x5e0>
    25b0:	0e410613          	addi	a2,sp,228
    25b4:	000b8593          	mv	a1,s7
    25b8:	000b0513          	mv	a0,s6
    25bc:	1810a0ef          	jal	ra,cf3c <__sprint_r>
    25c0:	e6051063          	bnez	a0,1c20 <_vfprintf_r+0xed0>
    25c4:	0ec12d83          	lw	s11,236(sp)
    25c8:	0e812a83          	lw	s5,232(sp)
    25cc:	10c10c93          	addi	s9,sp,268
    25d0:	d91fe06f          	j	1360 <_vfprintf_r+0x610>
    25d4:	20097793          	andi	a5,s2,512
    25d8:	6e079663          	bnez	a5,2cc4 <_vfprintf_r+0x1f74>
    25dc:	00000a93          	li	s5,0
    25e0:	b91ff06f          	j	2170 <_vfprintf_r+0x1420>
    25e4:	ccccdfb7          	lui	t6,0xccccd
    25e8:	100006b7          	lui	a3,0x10000
    25ec:	ccdf8c13          	addi	s8,t6,-819 # cccccccd <_stack+0xccc8cccd>
    25f0:	03c12903          	lw	s2,60(sp)
    25f4:	400df293          	andi	t0,s11,1024
    25f8:	00000713          	li	a4,0
    25fc:	1b010593          	addi	a1,sp,432
    2600:	fff68693          	addi	a3,a3,-1 # fffffff <_stack+0xffbffff>
    2604:	00500f13          	li	t5,5
    2608:	cccf8f93          	addi	t6,t6,-820
    260c:	00900e13          	li	t3,9
    2610:	0ff00a13          	li	s4,255
    2614:	0600006f          	j	2674 <_vfprintf_r+0x1924>
    2618:	007eeeb3          	or	t4,t4,t2
    261c:	00d9f7b3          	and	a5,s3,a3
    2620:	00defeb3          	and	t4,t4,a3
    2624:	01d787b3          	add	a5,a5,t4
    2628:	010787b3          	add	a5,a5,a6
    262c:	03e7f7b3          	remu	a5,a5,t5
    2630:	40f987b3          	sub	a5,s3,a5
    2634:	00f9b633          	sltu	a2,s3,a5
    2638:	40ca8633          	sub	a2,s5,a2
    263c:	03f78533          	mul	a0,a5,t6
    2640:	03860633          	mul	a2,a2,s8
    2644:	0387b5b3          	mulhu	a1,a5,s8
    2648:	00a60633          	add	a2,a2,a0
    264c:	038787b3          	mul	a5,a5,s8
    2650:	00b60633          	add	a2,a2,a1
    2654:	01f61593          	slli	a1,a2,0x1f
    2658:	00165613          	srli	a2,a2,0x1
    265c:	0017d793          	srli	a5,a5,0x1
    2660:	00f5e7b3          	or	a5,a1,a5
    2664:	5c0a8063          	beqz	s5,2c24 <_vfprintf_r+0x1ed4>
    2668:	00078993          	mv	s3,a5
    266c:	00060a93          	mv	s5,a2
    2670:	000d0593          	mv	a1,s10
    2674:	004a9e93          	slli	t4,s5,0x4
    2678:	01c9d393          	srli	t2,s3,0x1c
    267c:	007ee633          	or	a2,t4,t2
    2680:	00d67633          	and	a2,a2,a3
    2684:	00d9f7b3          	and	a5,s3,a3
    2688:	00c787b3          	add	a5,a5,a2
    268c:	018ad813          	srli	a6,s5,0x18
    2690:	010787b3          	add	a5,a5,a6
    2694:	03e7f7b3          	remu	a5,a5,t5
    2698:	fff58d13          	addi	s10,a1,-1
    269c:	00170713          	addi	a4,a4,1
    26a0:	40f987b3          	sub	a5,s3,a5
    26a4:	00f9b533          	sltu	a0,s3,a5
    26a8:	40aa8533          	sub	a0,s5,a0
    26ac:	0387b633          	mulhu	a2,a5,s8
    26b0:	03850533          	mul	a0,a0,s8
    26b4:	038787b3          	mul	a5,a5,s8
    26b8:	00c50533          	add	a0,a0,a2
    26bc:	01f51513          	slli	a0,a0,0x1f
    26c0:	0017d613          	srli	a2,a5,0x1
    26c4:	00c56633          	or	a2,a0,a2
    26c8:	00261793          	slli	a5,a2,0x2
    26cc:	00c787b3          	add	a5,a5,a2
    26d0:	00179793          	slli	a5,a5,0x1
    26d4:	40f987b3          	sub	a5,s3,a5
    26d8:	03078793          	addi	a5,a5,48
    26dc:	fef58fa3          	sb	a5,-1(a1)
    26e0:	f2028ce3          	beqz	t0,2618 <_vfprintf_r+0x18c8>
    26e4:	00094783          	lbu	a5,0(s2)
    26e8:	f2f718e3          	bne	a4,a5,2618 <_vfprintf_r+0x18c8>
    26ec:	f34706e3          	beq	a4,s4,2618 <_vfprintf_r+0x18c8>
    26f0:	2c0a9463          	bnez	s5,29b8 <_vfprintf_r+0x1c68>
    26f4:	2d3e6263          	bltu	t3,s3,29b8 <_vfprintf_r+0x1c68>
    26f8:	1b010793          	addi	a5,sp,432
    26fc:	03212e23          	sw	s2,60(sp)
    2700:	02e12023          	sw	a4,32(sp)
    2704:	41a78c33          	sub	s8,a5,s10
    2708:	000d8913          	mv	s2,s11
    270c:	f85fe06f          	j	1690 <_vfprintf_r+0x940>
    2710:	0e812683          	lw	a3,232(sp)
    2714:	00020637          	lui	a2,0x20
    2718:	0ac60613          	addi	a2,a2,172 # 200ac <__malloc_trim_threshold+0x74>
    271c:	00c8a023          	sw	a2,0(a7)
    2720:	00170713          	addi	a4,a4,1
    2724:	00100613          	li	a2,1
    2728:	00168693          	addi	a3,a3,1
    272c:	00c8a223          	sw	a2,4(a7)
    2730:	0ee12623          	sw	a4,236(sp)
    2734:	0ed12423          	sw	a3,232(sp)
    2738:	00700613          	li	a2,7
    273c:	00888893          	addi	a7,a7,8
    2740:	4ed64663          	blt	a2,a3,2c2c <_vfprintf_r+0x1edc>
    2744:	18059e63          	bnez	a1,28e0 <_vfprintf_r+0x1b90>
    2748:	02012783          	lw	a5,32(sp)
    274c:	00197693          	andi	a3,s2,1
    2750:	00f6e6b3          	or	a3,a3,a5
    2754:	00069463          	bnez	a3,275c <_vfprintf_r+0x1a0c>
    2758:	905fe06f          	j	105c <_vfprintf_r+0x30c>
    275c:	03012683          	lw	a3,48(sp)
    2760:	02c12783          	lw	a5,44(sp)
    2764:	00700613          	li	a2,7
    2768:	00d8a023          	sw	a3,0(a7)
    276c:	0e812683          	lw	a3,232(sp)
    2770:	00e78733          	add	a4,a5,a4
    2774:	00f8a223          	sw	a5,4(a7)
    2778:	00168693          	addi	a3,a3,1
    277c:	0ee12623          	sw	a4,236(sp)
    2780:	0ed12423          	sw	a3,232(sp)
    2784:	5ad64663          	blt	a2,a3,2d30 <_vfprintf_r+0x1fe0>
    2788:	00888893          	addi	a7,a7,8
    278c:	1880006f          	j	2914 <_vfprintf_r+0x1bc4>
    2790:	00040b13          	mv	s6,s0
    2794:	00048b93          	mv	s7,s1
    2798:	c88ff06f          	j	1c20 <_vfprintf_r+0xed0>
    279c:	0e410613          	addi	a2,sp,228
    27a0:	000b8593          	mv	a1,s7
    27a4:	000b0513          	mv	a0,s6
    27a8:	7940a0ef          	jal	ra,cf3c <__sprint_r>
    27ac:	c6051a63          	bnez	a0,1c20 <_vfprintf_r+0xed0>
    27b0:	0ec12703          	lw	a4,236(sp)
    27b4:	10c10893          	addi	a7,sp,268
    27b8:	9fcff06f          	j	19b4 <_vfprintf_r+0xc64>
    27bc:	00812683          	lw	a3,8(sp)
    27c0:	01570733          	add	a4,a4,s5
    27c4:	0158a223          	sw	s5,4(a7)
    27c8:	00d8a023          	sw	a3,0(a7)
    27cc:	00178793          	addi	a5,a5,1
    27d0:	0ee12623          	sw	a4,236(sp)
    27d4:	0ef12423          	sw	a5,232(sp)
    27d8:	00700693          	li	a3,7
    27dc:	00f6c463          	blt	a3,a5,27e4 <_vfprintf_r+0x1a94>
    27e0:	879fe06f          	j	1058 <_vfprintf_r+0x308>
    27e4:	c19fe06f          	j	13fc <_vfprintf_r+0x6ac>
    27e8:	000b8b13          	mv	s6,s7
    27ec:	00040b93          	mv	s7,s0
    27f0:	c30ff06f          	j	1c20 <_vfprintf_r+0xed0>
    27f4:	0f012783          	lw	a5,240(sp)
    27f8:	0a010593          	addi	a1,sp,160
    27fc:	0b010513          	addi	a0,sp,176
    2800:	0af12823          	sw	a5,176(sp)
    2804:	0f412783          	lw	a5,244(sp)
    2808:	01112823          	sw	a7,16(sp)
    280c:	0a012023          	sw	zero,160(sp)
    2810:	0af12a23          	sw	a5,180(sp)
    2814:	0f812783          	lw	a5,248(sp)
    2818:	0a012223          	sw	zero,164(sp)
    281c:	0a012423          	sw	zero,168(sp)
    2820:	0af12c23          	sw	a5,184(sp)
    2824:	0fc12783          	lw	a5,252(sp)
    2828:	0a012623          	sw	zero,172(sp)
    282c:	0af12e23          	sw	a5,188(sp)
    2830:	5590e0ef          	jal	ra,11588 <__letf2>
    2834:	01012883          	lw	a7,16(sp)
    2838:	1e0542e3          	bltz	a0,321c <_vfprintf_r+0x24cc>
    283c:	0c714703          	lbu	a4,199(sp)
    2840:	04700793          	li	a5,71
    2844:	4197d863          	bge	a5,s9,2c54 <_vfprintf_r+0x1f04>
    2848:	000207b7          	lui	a5,0x20
    284c:	07078d13          	addi	s10,a5,112 # 20070 <__malloc_trim_threshold+0x38>
    2850:	00012823          	sw	zero,16(sp)
    2854:	02012423          	sw	zero,40(sp)
    2858:	02012223          	sw	zero,36(sp)
    285c:	00012e23          	sw	zero,28(sp)
    2860:	f7f97913          	andi	s2,s2,-129
    2864:	00300993          	li	s3,3
    2868:	00300c13          	li	s8,3
    286c:	00000313          	li	t1,0
    2870:	00070463          	beqz	a4,2878 <_vfprintf_r+0x1b28>
    2874:	d19fe06f          	j	158c <_vfprintf_r+0x83c>
    2878:	f18fe06f          	j	f90 <_vfprintf_r+0x240>
    287c:	01412783          	lw	a5,20(sp)
    2880:	00040d13          	mv	s10,s0
    2884:	0007a783          	lw	a5,0(a5)
    2888:	00e12a23          	sw	a4,20(sp)
    288c:	00c12703          	lw	a4,12(sp)
    2890:	00e7a023          	sw	a4,0(a5)
    2894:	811fe06f          	j	10a4 <_vfprintf_r+0x354>
    2898:	000d0513          	mv	a0,s10
    289c:	05b12023          	sw	s11,64(sp)
    28a0:	c24fe0ef          	jal	ra,cc4 <strlen>
    28a4:	0c714703          	lbu	a4,199(sp)
    28a8:	fff54993          	not	s3,a0
    28ac:	41f9d993          	srai	s3,s3,0x1f
    28b0:	01412a23          	sw	s4,20(sp)
    28b4:	00012823          	sw	zero,16(sp)
    28b8:	02012423          	sw	zero,40(sp)
    28bc:	02012223          	sw	zero,36(sp)
    28c0:	00012e23          	sw	zero,28(sp)
    28c4:	04012883          	lw	a7,64(sp)
    28c8:	00050c13          	mv	s8,a0
    28cc:	013579b3          	and	s3,a0,s3
    28d0:	00000313          	li	t1,0
    28d4:	00070463          	beqz	a4,28dc <_vfprintf_r+0x1b8c>
    28d8:	cb5fe06f          	j	158c <_vfprintf_r+0x83c>
    28dc:	eb4fe06f          	j	f90 <_vfprintf_r+0x240>
    28e0:	03012683          	lw	a3,48(sp)
    28e4:	02c12783          	lw	a5,44(sp)
    28e8:	00700613          	li	a2,7
    28ec:	00d8a023          	sw	a3,0(a7)
    28f0:	0e812683          	lw	a3,232(sp)
    28f4:	00e78733          	add	a4,a5,a4
    28f8:	00f8a223          	sw	a5,4(a7)
    28fc:	00168693          	addi	a3,a3,1
    2900:	0ee12623          	sw	a4,236(sp)
    2904:	0ed12423          	sw	a3,232(sp)
    2908:	00888893          	addi	a7,a7,8
    290c:	42d64263          	blt	a2,a3,2d30 <_vfprintf_r+0x1fe0>
    2910:	1805c2e3          	bltz	a1,3294 <_vfprintf_r+0x2544>
    2914:	02012783          	lw	a5,32(sp)
    2918:	00168693          	addi	a3,a3,1
    291c:	01a8a023          	sw	s10,0(a7)
    2920:	00e78733          	add	a4,a5,a4
    2924:	00f8a223          	sw	a5,4(a7)
    2928:	0ee12623          	sw	a4,236(sp)
    292c:	0ed12423          	sw	a3,232(sp)
    2930:	00700793          	li	a5,7
    2934:	00d7c463          	blt	a5,a3,293c <_vfprintf_r+0x1bec>
    2938:	f20fe06f          	j	1058 <_vfprintf_r+0x308>
    293c:	ac1fe06f          	j	13fc <_vfprintf_r+0x6ac>
    2940:	00812783          	lw	a5,8(sp)
    2944:	018d8db3          	add	s11,s11,s8
    2948:	001a8a93          	addi	s5,s5,1
    294c:	a69fe06f          	j	13b4 <_vfprintf_r+0x664>
    2950:	0fc12783          	lw	a5,252(sp)
    2954:	3807ce63          	bltz	a5,2cf0 <_vfprintf_r+0x1fa0>
    2958:	0c714703          	lbu	a4,199(sp)
    295c:	04700793          	li	a5,71
    2960:	0f97dce3          	bge	a5,s9,3258 <_vfprintf_r+0x2508>
    2964:	000207b7          	lui	a5,0x20
    2968:	07878d13          	addi	s10,a5,120 # 20078 <__malloc_trim_threshold+0x40>
    296c:	ee5ff06f          	j	2850 <_vfprintf_r+0x1b00>
    2970:	00812783          	lw	a5,8(sp)
    2974:	01870733          	add	a4,a4,s8
    2978:	00168693          	addi	a3,a3,1
    297c:	00f8a023          	sw	a5,0(a7)
    2980:	0188a223          	sw	s8,4(a7)
    2984:	0ee12623          	sw	a4,236(sp)
    2988:	0ed12423          	sw	a3,232(sp)
    298c:	00700613          	li	a2,7
    2990:	00888893          	addi	a7,a7,8
    2994:	c2d65863          	bge	a2,a3,1dc4 <_vfprintf_r+0x1074>
    2998:	0e410613          	addi	a2,sp,228
    299c:	000b8593          	mv	a1,s7
    29a0:	000b0513          	mv	a0,s6
    29a4:	5980a0ef          	jal	ra,cf3c <__sprint_r>
    29a8:	a6051c63          	bnez	a0,1c20 <_vfprintf_r+0xed0>
    29ac:	0ec12703          	lw	a4,236(sp)
    29b0:	10c10893          	addi	a7,sp,268
    29b4:	c10ff06f          	j	1dc4 <_vfprintf_r+0x1074>
    29b8:	04812783          	lw	a5,72(sp)
    29bc:	04c12583          	lw	a1,76(sp)
    29c0:	02512e23          	sw	t0,60(sp)
    29c4:	40fd0d33          	sub	s10,s10,a5
    29c8:	00078613          	mv	a2,a5
    29cc:	000d0513          	mv	a0,s10
    29d0:	03112423          	sw	a7,40(sp)
    29d4:	02612223          	sw	t1,36(sp)
    29d8:	02712023          	sw	t2,32(sp)
    29dc:	01012e23          	sw	a6,28(sp)
    29e0:	01d12823          	sw	t4,16(sp)
    29e4:	275070ef          	jal	ra,a458 <strncpy>
    29e8:	01012e83          	lw	t4,16(sp)
    29ec:	02012383          	lw	t2,32(sp)
    29f0:	100007b7          	lui	a5,0x10000
    29f4:	fff78693          	addi	a3,a5,-1 # fffffff <_stack+0xffbffff>
    29f8:	01c12803          	lw	a6,28(sp)
    29fc:	007ee733          	or	a4,t4,t2
    2a00:	00d77733          	and	a4,a4,a3
    2a04:	00d9f7b3          	and	a5,s3,a3
    2a08:	00e787b3          	add	a5,a5,a4
    2a0c:	010787b3          	add	a5,a5,a6
    2a10:	00500f13          	li	t5,5
    2a14:	03e7f7b3          	remu	a5,a5,t5
    2a18:	00194603          	lbu	a2,1(s2)
    2a1c:	ccccd5b7          	lui	a1,0xccccd
    2a20:	ccc58f93          	addi	t6,a1,-820 # cccccccc <_stack+0xccc8cccc>
    2a24:	00c03633          	snez	a2,a2
    2a28:	00c90933          	add	s2,s2,a2
    2a2c:	02412303          	lw	t1,36(sp)
    2a30:	02812883          	lw	a7,40(sp)
    2a34:	03c12283          	lw	t0,60(sp)
    2a38:	00000713          	li	a4,0
    2a3c:	00900e13          	li	t3,9
    2a40:	40f987b3          	sub	a5,s3,a5
    2a44:	00f9b633          	sltu	a2,s3,a5
    2a48:	40ca8633          	sub	a2,s5,a2
    2a4c:	03f785b3          	mul	a1,a5,t6
    2a50:	03860633          	mul	a2,a2,s8
    2a54:	0387b533          	mulhu	a0,a5,s8
    2a58:	00b60633          	add	a2,a2,a1
    2a5c:	038785b3          	mul	a1,a5,s8
    2a60:	00a60633          	add	a2,a2,a0
    2a64:	01f61793          	slli	a5,a2,0x1f
    2a68:	00165613          	srli	a2,a2,0x1
    2a6c:	0015d593          	srli	a1,a1,0x1
    2a70:	00b7e7b3          	or	a5,a5,a1
    2a74:	bf5ff06f          	j	2668 <_vfprintf_r+0x1918>
    2a78:	02012783          	lw	a5,32(sp)
    2a7c:	02412a83          	lw	s5,36(sp)
    2a80:	00812e23          	sw	s0,28(sp)
    2a84:	05212023          	sw	s2,64(sp)
    2a88:	04912223          	sw	s1,68(sp)
    2a8c:	03312223          	sw	s3,36(sp)
    2a90:	02812483          	lw	s1,40(sp)
    2a94:	03a12423          	sw	s10,40(sp)
    2a98:	03c12403          	lw	s0,60(sp)
    2a9c:	04812903          	lw	s2,72(sp)
    2aa0:	04c12983          	lw	s3,76(sp)
    2aa4:	00700c13          	li	s8,7
    2aa8:	00fd0a33          	add	s4,s10,a5
    2aac:	01000d93          	li	s11,16
    2ab0:	080a8663          	beqz	s5,2b3c <_vfprintf_r+0x1dec>
    2ab4:	08049663          	bnez	s1,2b40 <_vfprintf_r+0x1df0>
    2ab8:	fff40413          	addi	s0,s0,-1
    2abc:	fffa8a93          	addi	s5,s5,-1
    2ac0:	0e812783          	lw	a5,232(sp)
    2ac4:	01270733          	add	a4,a4,s2
    2ac8:	0138a023          	sw	s3,0(a7)
    2acc:	00178793          	addi	a5,a5,1
    2ad0:	0128a223          	sw	s2,4(a7)
    2ad4:	0ee12623          	sw	a4,236(sp)
    2ad8:	0ef12423          	sw	a5,232(sp)
    2adc:	00888893          	addi	a7,a7,8
    2ae0:	0efc4c63          	blt	s8,a5,2bd8 <_vfprintf_r+0x1e88>
    2ae4:	00044683          	lbu	a3,0(s0)
    2ae8:	419a0d33          	sub	s10,s4,s9
    2aec:	01a6d463          	bge	a3,s10,2af4 <_vfprintf_r+0x1da4>
    2af0:	00068d13          	mv	s10,a3
    2af4:	03a05663          	blez	s10,2b20 <_vfprintf_r+0x1dd0>
    2af8:	0e812683          	lw	a3,232(sp)
    2afc:	01a70733          	add	a4,a4,s10
    2b00:	0198a023          	sw	s9,0(a7)
    2b04:	00168693          	addi	a3,a3,1
    2b08:	01a8a223          	sw	s10,4(a7)
    2b0c:	0ee12623          	sw	a4,236(sp)
    2b10:	0ed12423          	sw	a3,232(sp)
    2b14:	0edc4463          	blt	s8,a3,2bfc <_vfprintf_r+0x1eac>
    2b18:	00044683          	lbu	a3,0(s0)
    2b1c:	00888893          	addi	a7,a7,8
    2b20:	fffd4613          	not	a2,s10
    2b24:	41f65613          	srai	a2,a2,0x1f
    2b28:	00cd77b3          	and	a5,s10,a2
    2b2c:	40f68d33          	sub	s10,a3,a5
    2b30:	01a04c63          	bgtz	s10,2b48 <_vfprintf_r+0x1df8>
    2b34:	00dc8cb3          	add	s9,s9,a3
    2b38:	f60a9ee3          	bnez	s5,2ab4 <_vfprintf_r+0x1d64>
    2b3c:	5a048c63          	beqz	s1,30f4 <_vfprintf_r+0x23a4>
    2b40:	fff48493          	addi	s1,s1,-1
    2b44:	f7dff06f          	j	2ac0 <_vfprintf_r+0x1d70>
    2b48:	0e812683          	lw	a3,232(sp)
    2b4c:	01adc863          	blt	s11,s10,2b5c <_vfprintf_r+0x1e0c>
    2b50:	0580006f          	j	2ba8 <_vfprintf_r+0x1e58>
    2b54:	ff0d0d13          	addi	s10,s10,-16
    2b58:	05add863          	bge	s11,s10,2ba8 <_vfprintf_r+0x1e58>
    2b5c:	00812783          	lw	a5,8(sp)
    2b60:	01070713          	addi	a4,a4,16
    2b64:	00168693          	addi	a3,a3,1
    2b68:	00f8a023          	sw	a5,0(a7)
    2b6c:	01b8a223          	sw	s11,4(a7)
    2b70:	0ee12623          	sw	a4,236(sp)
    2b74:	0ed12423          	sw	a3,232(sp)
    2b78:	00888893          	addi	a7,a7,8
    2b7c:	fcdc5ce3          	bge	s8,a3,2b54 <_vfprintf_r+0x1e04>
    2b80:	0e410613          	addi	a2,sp,228
    2b84:	000b8593          	mv	a1,s7
    2b88:	000b0513          	mv	a0,s6
    2b8c:	3b00a0ef          	jal	ra,cf3c <__sprint_r>
    2b90:	88051863          	bnez	a0,1c20 <_vfprintf_r+0xed0>
    2b94:	ff0d0d13          	addi	s10,s10,-16
    2b98:	0ec12703          	lw	a4,236(sp)
    2b9c:	0e812683          	lw	a3,232(sp)
    2ba0:	10c10893          	addi	a7,sp,268
    2ba4:	fbadcce3          	blt	s11,s10,2b5c <_vfprintf_r+0x1e0c>
    2ba8:	00812783          	lw	a5,8(sp)
    2bac:	01a70733          	add	a4,a4,s10
    2bb0:	00168693          	addi	a3,a3,1
    2bb4:	00f8a023          	sw	a5,0(a7)
    2bb8:	01a8a223          	sw	s10,4(a7)
    2bbc:	0ee12623          	sw	a4,236(sp)
    2bc0:	0ed12423          	sw	a3,232(sp)
    2bc4:	60dc4263          	blt	s8,a3,31c8 <_vfprintf_r+0x2478>
    2bc8:	00044683          	lbu	a3,0(s0)
    2bcc:	00888893          	addi	a7,a7,8
    2bd0:	00dc8cb3          	add	s9,s9,a3
    2bd4:	f65ff06f          	j	2b38 <_vfprintf_r+0x1de8>
    2bd8:	0e410613          	addi	a2,sp,228
    2bdc:	000b8593          	mv	a1,s7
    2be0:	000b0513          	mv	a0,s6
    2be4:	3580a0ef          	jal	ra,cf3c <__sprint_r>
    2be8:	00050463          	beqz	a0,2bf0 <_vfprintf_r+0x1ea0>
    2bec:	834ff06f          	j	1c20 <_vfprintf_r+0xed0>
    2bf0:	0ec12703          	lw	a4,236(sp)
    2bf4:	10c10893          	addi	a7,sp,268
    2bf8:	eedff06f          	j	2ae4 <_vfprintf_r+0x1d94>
    2bfc:	0e410613          	addi	a2,sp,228
    2c00:	000b8593          	mv	a1,s7
    2c04:	000b0513          	mv	a0,s6
    2c08:	3340a0ef          	jal	ra,cf3c <__sprint_r>
    2c0c:	00050463          	beqz	a0,2c14 <_vfprintf_r+0x1ec4>
    2c10:	810ff06f          	j	1c20 <_vfprintf_r+0xed0>
    2c14:	00044683          	lbu	a3,0(s0)
    2c18:	0ec12703          	lw	a4,236(sp)
    2c1c:	10c10893          	addi	a7,sp,268
    2c20:	f01ff06f          	j	2b20 <_vfprintf_r+0x1dd0>
    2c24:	a53e62e3          	bltu	t3,s3,2668 <_vfprintf_r+0x1918>
    2c28:	ad1ff06f          	j	26f8 <_vfprintf_r+0x19a8>
    2c2c:	0e410613          	addi	a2,sp,228
    2c30:	000b8593          	mv	a1,s7
    2c34:	000b0513          	mv	a0,s6
    2c38:	3040a0ef          	jal	ra,cf3c <__sprint_r>
    2c3c:	00050463          	beqz	a0,2c44 <_vfprintf_r+0x1ef4>
    2c40:	fe1fe06f          	j	1c20 <_vfprintf_r+0xed0>
    2c44:	0cc12583          	lw	a1,204(sp)
    2c48:	0ec12703          	lw	a4,236(sp)
    2c4c:	10c10893          	addi	a7,sp,268
    2c50:	af5ff06f          	j	2744 <_vfprintf_r+0x19f4>
    2c54:	000207b7          	lui	a5,0x20
    2c58:	06c78d13          	addi	s10,a5,108 # 2006c <__malloc_trim_threshold+0x34>
    2c5c:	bf5ff06f          	j	2850 <_vfprintf_r+0x1b00>
    2c60:	0e410613          	addi	a2,sp,228
    2c64:	000b8593          	mv	a1,s7
    2c68:	000b0513          	mv	a0,s6
    2c6c:	2d00a0ef          	jal	ra,cf3c <__sprint_r>
    2c70:	00050463          	beqz	a0,2c78 <_vfprintf_r+0x1f28>
    2c74:	fadfe06f          	j	1c20 <_vfprintf_r+0xed0>
    2c78:	0ec12703          	lw	a4,236(sp)
    2c7c:	10c10893          	addi	a7,sp,268
    2c80:	92cff06f          	j	1dac <_vfprintf_r+0x105c>
    2c84:	00600c13          	li	s8,6
    2c88:	d84ff06f          	j	220c <_vfprintf_r+0x14bc>
    2c8c:	02012603          	lw	a2,32(sp)
    2c90:	00cd07b3          	add	a5,s10,a2
    2c94:	40d606b3          	sub	a3,a2,a3
    2c98:	41978ab3          	sub	s5,a5,s9
    2c9c:	9d56d463          	bge	a3,s5,1e64 <_vfprintf_r+0x1114>
    2ca0:	00068a93          	mv	s5,a3
    2ca4:	9c0ff06f          	j	1e64 <_vfprintf_r+0x1114>
    2ca8:	01412783          	lw	a5,20(sp)
    2cac:	00e12a23          	sw	a4,20(sp)
    2cb0:	00c12703          	lw	a4,12(sp)
    2cb4:	0007a783          	lw	a5,0(a5)
    2cb8:	00040d13          	mv	s10,s0
    2cbc:	00e79023          	sh	a4,0(a5)
    2cc0:	be4fe06f          	j	10a4 <_vfprintf_r+0x354>
    2cc4:	0ff9f993          	zext.b	s3,s3
    2cc8:	00000a93          	li	s5,0
    2ccc:	ca4ff06f          	j	2170 <_vfprintf_r+0x1420>
    2cd0:	0ff9f993          	zext.b	s3,s3
    2cd4:	00000a93          	li	s5,0
    2cd8:	aa9fe06f          	j	1780 <_vfprintf_r+0xa30>
    2cdc:	01899993          	slli	s3,s3,0x18
    2ce0:	4189d993          	srai	s3,s3,0x18
    2ce4:	41f9da93          	srai	s5,s3,0x1f
    2ce8:	000a8793          	mv	a5,s5
    2cec:	b19fe06f          	j	1804 <_vfprintf_r+0xab4>
    2cf0:	02d00793          	li	a5,45
    2cf4:	0cf103a3          	sb	a5,199(sp)
    2cf8:	02d00713          	li	a4,45
    2cfc:	c61ff06f          	j	295c <_vfprintf_r+0x1c0c>
    2d00:	0e410613          	addi	a2,sp,228
    2d04:	000b8593          	mv	a1,s7
    2d08:	000b0513          	mv	a0,s6
    2d0c:	2300a0ef          	jal	ra,cf3c <__sprint_r>
    2d10:	ba8fe06f          	j	10b8 <_vfprintf_r+0x368>
    2d14:	00012823          	sw	zero,16(sp)
    2d18:	00070913          	mv	s2,a4
    2d1c:	80000737          	lui	a4,0x80000
    2d20:	02d00793          	li	a5,45
    2d24:	01574ab3          	xor	s5,a4,s5
    2d28:	04f12c23          	sw	a5,88(sp)
    2d2c:	da8ff06f          	j	22d4 <_vfprintf_r+0x1584>
    2d30:	0e410613          	addi	a2,sp,228
    2d34:	000b8593          	mv	a1,s7
    2d38:	000b0513          	mv	a0,s6
    2d3c:	2000a0ef          	jal	ra,cf3c <__sprint_r>
    2d40:	00050463          	beqz	a0,2d48 <_vfprintf_r+0x1ff8>
    2d44:	eddfe06f          	j	1c20 <_vfprintf_r+0xed0>
    2d48:	0cc12583          	lw	a1,204(sp)
    2d4c:	0ec12703          	lw	a4,236(sp)
    2d50:	0e812683          	lw	a3,232(sp)
    2d54:	10c10893          	addi	a7,sp,268
    2d58:	bb9ff06f          	j	2910 <_vfprintf_r+0x1bc0>
    2d5c:	00130593          	addi	a1,t1,1
    2d60:	000b0513          	mv	a0,s6
    2d64:	01112e23          	sw	a7,28(sp)
    2d68:	00612823          	sw	t1,16(sp)
    2d6c:	5e1040ef          	jal	ra,7b4c <_malloc_r>
    2d70:	01012303          	lw	t1,16(sp)
    2d74:	01c12883          	lw	a7,28(sp)
    2d78:	00050d13          	mv	s10,a0
    2d7c:	18050ae3          	beqz	a0,3710 <_vfprintf_r+0x29c0>
    2d80:	00a12823          	sw	a0,16(sp)
    2d84:	d2cff06f          	j	22b0 <_vfprintf_r+0x1560>
    2d88:	0a010c13          	addi	s8,sp,160
    2d8c:	e0cff06f          	j	2398 <_vfprintf_r+0x1648>
    2d90:	00130693          	addi	a3,t1,1
    2d94:	00200613          	li	a2,2
    2d98:	d74ff06f          	j	230c <_vfprintf_r+0x15bc>
    2d9c:	00030693          	mv	a3,t1
    2da0:	00300613          	li	a2,3
    2da4:	d68ff06f          	j	230c <_vfprintf_r+0x15bc>
    2da8:	0b010993          	addi	s3,sp,176
    2dac:	00098513          	mv	a0,s3
    2db0:	05112e23          	sw	a7,92(sp)
    2db4:	04612a23          	sw	t1,84(sp)
    2db8:	0bd12a23          	sw	t4,180(sp)
    2dbc:	0be12c23          	sw	t5,184(sp)
    2dc0:	0b512e23          	sw	s5,188(sp)
    2dc4:	0b412823          	sw	s4,176(sp)
    2dc8:	248110ef          	jal	ra,14010 <__trunctfdf2>
    2dcc:	0cc10613          	addi	a2,sp,204
    2dd0:	16c070ef          	jal	ra,9f3c <frexp>
    2dd4:	00058613          	mv	a2,a1
    2dd8:	00050593          	mv	a1,a0
    2ddc:	00098513          	mv	a0,s3
    2de0:	034110ef          	jal	ra,13e14 <__extenddftf2>
    2de4:	0b012703          	lw	a4,176(sp)
    2de8:	0a010c13          	addi	s8,sp,160
    2dec:	09010a93          	addi	s5,sp,144
    2df0:	08e12823          	sw	a4,144(sp)
    2df4:	0b412703          	lw	a4,180(sp)
    2df8:	08010613          	addi	a2,sp,128
    2dfc:	000a8593          	mv	a1,s5
    2e00:	08e12a23          	sw	a4,148(sp)
    2e04:	0b812703          	lw	a4,184(sp)
    2e08:	000c0513          	mv	a0,s8
    2e0c:	04c12223          	sw	a2,68(sp)
    2e10:	08e12c23          	sw	a4,152(sp)
    2e14:	0bc12703          	lw	a4,188(sp)
    2e18:	08012023          	sw	zero,128(sp)
    2e1c:	08012223          	sw	zero,132(sp)
    2e20:	08e12e23          	sw	a4,156(sp)
    2e24:	3ffc0737          	lui	a4,0x3ffc0
    2e28:	08e12623          	sw	a4,140(sp)
    2e2c:	08012423          	sw	zero,136(sp)
    2e30:	09d0e0ef          	jal	ra,116cc <__multf3>
    2e34:	0a012783          	lw	a5,160(sp)
    2e38:	0a412803          	lw	a6,164(sp)
    2e3c:	0a812e83          	lw	t4,168(sp)
    2e40:	0ac12f03          	lw	t5,172(sp)
    2e44:	000c0593          	mv	a1,s8
    2e48:	00098513          	mv	a0,s3
    2e4c:	0af12823          	sw	a5,176(sp)
    2e50:	04f12823          	sw	a5,80(sp)
    2e54:	0b012a23          	sw	a6,180(sp)
    2e58:	03012223          	sw	a6,36(sp)
    2e5c:	0bd12c23          	sw	t4,184(sp)
    2e60:	03d12023          	sw	t4,32(sp)
    2e64:	0be12e23          	sw	t5,188(sp)
    2e68:	01e12e23          	sw	t5,28(sp)
    2e6c:	0a012023          	sw	zero,160(sp)
    2e70:	0a012223          	sw	zero,164(sp)
    2e74:	0a012423          	sw	zero,168(sp)
    2e78:	0a012623          	sw	zero,172(sp)
    2e7c:	4fc0e0ef          	jal	ra,11378 <__eqtf2>
    2e80:	01c12f03          	lw	t5,28(sp)
    2e84:	02012e83          	lw	t4,32(sp)
    2e88:	02412803          	lw	a6,36(sp)
    2e8c:	05012783          	lw	a5,80(sp)
    2e90:	05412303          	lw	t1,84(sp)
    2e94:	05c12883          	lw	a7,92(sp)
    2e98:	00051663          	bnez	a0,2ea4 <_vfprintf_r+0x2154>
    2e9c:	00100713          	li	a4,1
    2ea0:	0ce12623          	sw	a4,204(sp)
    2ea4:	00020737          	lui	a4,0x20
    2ea8:	09070713          	addi	a4,a4,144 # 20090 <__malloc_trim_threshold+0x58>
    2eac:	02e12223          	sw	a4,36(sp)
    2eb0:	fff30d93          	addi	s11,t1,-1
    2eb4:	07212223          	sw	s2,100(sp)
    2eb8:	06912423          	sw	s1,104(sp)
    2ebc:	07612a23          	sw	s6,116(sp)
    2ec0:	07712c23          	sw	s7,120(sp)
    2ec4:	000d8b13          	mv	s6,s11
    2ec8:	000d0b93          	mv	s7,s10
    2ecc:	07a12e23          	sw	s10,124(sp)
    2ed0:	04812e23          	sw	s0,92(sp)
    2ed4:	07912023          	sw	s9,96(sp)
    2ed8:	06612623          	sw	t1,108(sp)
    2edc:	07112823          	sw	a7,112(sp)
    2ee0:	00078d13          	mv	s10,a5
    2ee4:	00080d93          	mv	s11,a6
    2ee8:	000e8493          	mv	s1,t4
    2eec:	000f0913          	mv	s2,t5
    2ef0:	0480006f          	j	2f38 <_vfprintf_r+0x21e8>
    2ef4:	000c0593          	mv	a1,s8
    2ef8:	00098513          	mv	a0,s3
    2efc:	02c12023          	sw	a2,32(sp)
    2f00:	01f12e23          	sw	t6,28(sp)
    2f04:	0bf12c23          	sw	t6,184(sp)
    2f08:	0ac12e23          	sw	a2,188(sp)
    2f0c:	0b412823          	sw	s4,176(sp)
    2f10:	0b912a23          	sw	s9,180(sp)
    2f14:	0a012023          	sw	zero,160(sp)
    2f18:	0a012223          	sw	zero,164(sp)
    2f1c:	0a012423          	sw	zero,168(sp)
    2f20:	0a012623          	sw	zero,172(sp)
    2f24:	4540e0ef          	jal	ra,11378 <__eqtf2>
    2f28:	fffb0b13          	addi	s6,s6,-1
    2f2c:	00048f93          	mv	t6,s1
    2f30:	00090613          	mv	a2,s2
    2f34:	0e050263          	beqz	a0,3018 <_vfprintf_r+0x22c8>
    2f38:	400307b7          	lui	a5,0x40030
    2f3c:	000a8613          	mv	a2,s5
    2f40:	000c0593          	mv	a1,s8
    2f44:	00098513          	mv	a0,s3
    2f48:	08f12e23          	sw	a5,156(sp)
    2f4c:	0ba12023          	sw	s10,160(sp)
    2f50:	0bb12223          	sw	s11,164(sp)
    2f54:	0a912423          	sw	s1,168(sp)
    2f58:	0b212623          	sw	s2,172(sp)
    2f5c:	08012823          	sw	zero,144(sp)
    2f60:	08012a23          	sw	zero,148(sp)
    2f64:	08012c23          	sw	zero,152(sp)
    2f68:	7640e0ef          	jal	ra,116cc <__multf3>
    2f6c:	00098513          	mv	a0,s3
    2f70:	43d100ef          	jal	ra,13bac <__fixtfsi>
    2f74:	00050593          	mv	a1,a0
    2f78:	00050413          	mv	s0,a0
    2f7c:	00098513          	mv	a0,s3
    2f80:	0b012c83          	lw	s9,176(sp)
    2f84:	0b412903          	lw	s2,180(sp)
    2f88:	0b812a03          	lw	s4,184(sp)
    2f8c:	0bc12483          	lw	s1,188(sp)
    2f90:	531100ef          	jal	ra,13cc0 <__floatsitf>
    2f94:	0b012783          	lw	a5,176(sp)
    2f98:	04412603          	lw	a2,68(sp)
    2f9c:	000a8593          	mv	a1,s5
    2fa0:	08f12023          	sw	a5,128(sp)
    2fa4:	0b412783          	lw	a5,180(sp)
    2fa8:	000c0513          	mv	a0,s8
    2fac:	09912823          	sw	s9,144(sp)
    2fb0:	08f12223          	sw	a5,132(sp)
    2fb4:	0b812783          	lw	a5,184(sp)
    2fb8:	09212a23          	sw	s2,148(sp)
    2fbc:	09412c23          	sw	s4,152(sp)
    2fc0:	08f12423          	sw	a5,136(sp)
    2fc4:	0bc12783          	lw	a5,188(sp)
    2fc8:	08912e23          	sw	s1,156(sp)
    2fcc:	08f12623          	sw	a5,140(sp)
    2fd0:	73c0f0ef          	jal	ra,1270c <__subtf3>
    2fd4:	02412783          	lw	a5,36(sp)
    2fd8:	0a012a03          	lw	s4,160(sp)
    2fdc:	0a412c83          	lw	s9,164(sp)
    2fe0:	008787b3          	add	a5,a5,s0
    2fe4:	0007c783          	lbu	a5,0(a5) # 40030000 <_stack+0x3fff0000>
    2fe8:	0a812f83          	lw	t6,168(sp)
    2fec:	0ac12603          	lw	a2,172(sp)
    2ff0:	05712a23          	sw	s7,84(sp)
    2ff4:	00fb8023          	sb	a5,0(s7)
    2ff8:	05612823          	sw	s6,80(sp)
    2ffc:	fff00793          	li	a5,-1
    3000:	001b8b93          	addi	s7,s7,1
    3004:	000a0d13          	mv	s10,s4
    3008:	000c8d93          	mv	s11,s9
    300c:	000f8493          	mv	s1,t6
    3010:	00060913          	mv	s2,a2
    3014:	eefb10e3          	bne	s6,a5,2ef4 <_vfprintf_r+0x21a4>
    3018:	06c12303          	lw	t1,108(sp)
    301c:	07012883          	lw	a7,112(sp)
    3020:	000a0393          	mv	t2,s4
    3024:	000c8293          	mv	t0,s9
    3028:	3ffe0ab7          	lui	s5,0x3ffe0
    302c:	000c0593          	mv	a1,s8
    3030:	00098513          	mv	a0,s3
    3034:	02612023          	sw	t1,32(sp)
    3038:	01112e23          	sw	a7,28(sp)
    303c:	06412903          	lw	s2,100(sp)
    3040:	06012c83          	lw	s9,96(sp)
    3044:	00040d93          	mv	s11,s0
    3048:	0a712823          	sw	t2,176(sp)
    304c:	05c12403          	lw	s0,92(sp)
    3050:	06712223          	sw	t2,100(sp)
    3054:	0a512a23          	sw	t0,180(sp)
    3058:	06512023          	sw	t0,96(sp)
    305c:	0bf12c23          	sw	t6,184(sp)
    3060:	05f12e23          	sw	t6,92(sp)
    3064:	0ac12e23          	sw	a2,188(sp)
    3068:	04c12223          	sw	a2,68(sp)
    306c:	0a012023          	sw	zero,160(sp)
    3070:	0a012223          	sw	zero,164(sp)
    3074:	0a012423          	sw	zero,168(sp)
    3078:	0b512623          	sw	s5,172(sp)
    307c:	3c80e0ef          	jal	ra,11444 <__getf2>
    3080:	000b8a13          	mv	s4,s7
    3084:	06812483          	lw	s1,104(sp)
    3088:	07412b03          	lw	s6,116(sp)
    308c:	07c12d03          	lw	s10,124(sp)
    3090:	07812b83          	lw	s7,120(sp)
    3094:	01c12883          	lw	a7,28(sp)
    3098:	02012303          	lw	t1,32(sp)
    309c:	30a04663          	bgtz	a0,33a8 <_vfprintf_r+0x2658>
    30a0:	000c0593          	mv	a1,s8
    30a4:	00098513          	mv	a0,s3
    30a8:	03112023          	sw	a7,32(sp)
    30ac:	00612e23          	sw	t1,28(sp)
    30b0:	2c80e0ef          	jal	ra,11378 <__eqtf2>
    30b4:	01c12303          	lw	t1,28(sp)
    30b8:	02012883          	lw	a7,32(sp)
    30bc:	00051663          	bnez	a0,30c8 <_vfprintf_r+0x2378>
    30c0:	001dfa93          	andi	s5,s11,1
    30c4:	2e0a9263          	bnez	s5,33a8 <_vfprintf_r+0x2658>
    30c8:	05012783          	lw	a5,80(sp)
    30cc:	03000613          	li	a2,48
    30d0:	00178693          	addi	a3,a5,1
    30d4:	00da06b3          	add	a3,s4,a3
    30d8:	0007c863          	bltz	a5,30e8 <_vfprintf_r+0x2398>
    30dc:	001a0a13          	addi	s4,s4,1
    30e0:	feca0fa3          	sb	a2,-1(s4)
    30e4:	ff469ce3          	bne	a3,s4,30dc <_vfprintf_r+0x238c>
    30e8:	41aa07b3          	sub	a5,s4,s10
    30ec:	02f12023          	sw	a5,32(sp)
    30f0:	b1cff06f          	j	240c <_vfprintf_r+0x16bc>
    30f4:	02812d03          	lw	s10,40(sp)
    30f8:	02012783          	lw	a5,32(sp)
    30fc:	02812e23          	sw	s0,60(sp)
    3100:	04012903          	lw	s2,64(sp)
    3104:	00fd06b3          	add	a3,s10,a5
    3108:	01c12403          	lw	s0,28(sp)
    310c:	04412483          	lw	s1,68(sp)
    3110:	02412983          	lw	s3,36(sp)
    3114:	0196e463          	bltu	a3,s9,311c <_vfprintf_r+0x23cc>
    3118:	cbdfe06f          	j	1dd4 <_vfprintf_r+0x1084>
    311c:	00068c93          	mv	s9,a3
    3120:	cb5fe06f          	j	1dd4 <_vfprintf_r+0x1084>
    3124:	01c12783          	lw	a5,28(sp)
    3128:	ffd00713          	li	a4,-3
    312c:	00e7c463          	blt	a5,a4,3134 <_vfprintf_r+0x23e4>
    3130:	02f35463          	bge	t1,a5,3158 <_vfprintf_r+0x2408>
    3134:	ffec8c93          	addi	s9,s9,-2
    3138:	fdfcf793          	andi	a5,s9,-33
    313c:	02f12423          	sw	a5,40(sp)
    3140:	aecff06f          	j	242c <_vfprintf_r+0x16dc>
    3144:	0c714703          	lbu	a4,199(sp)
    3148:	00000313          	li	t1,0
    314c:	00070463          	beqz	a4,3154 <_vfprintf_r+0x2404>
    3150:	c3cfe06f          	j	158c <_vfprintf_r+0x83c>
    3154:	e3dfd06f          	j	f90 <_vfprintf_r+0x240>
    3158:	02012783          	lw	a5,32(sp)
    315c:	01c12703          	lw	a4,28(sp)
    3160:	1af74063          	blt	a4,a5,3300 <_vfprintf_r+0x25b0>
    3164:	04012783          	lw	a5,64(sp)
    3168:	0017f713          	andi	a4,a5,1
    316c:	01c12783          	lw	a5,28(sp)
    3170:	00078c13          	mv	s8,a5
    3174:	00070663          	beqz	a4,3180 <_vfprintf_r+0x2430>
    3178:	02c12703          	lw	a4,44(sp)
    317c:	00e78c33          	add	s8,a5,a4
    3180:	04012783          	lw	a5,64(sp)
    3184:	4007f713          	andi	a4,a5,1024
    3188:	00070663          	beqz	a4,3194 <_vfprintf_r+0x2444>
    318c:	01c12783          	lw	a5,28(sp)
    3190:	2ef04663          	bgtz	a5,347c <_vfprintf_r+0x272c>
    3194:	fffc4993          	not	s3,s8
    3198:	41f9d993          	srai	s3,s3,0x1f
    319c:	013c79b3          	and	s3,s8,s3
    31a0:	06700c93          	li	s9,103
    31a4:	02012423          	sw	zero,40(sp)
    31a8:	02012223          	sw	zero,36(sp)
    31ac:	b94ff06f          	j	2540 <_vfprintf_r+0x17f0>
    31b0:	04012783          	lw	a5,64(sp)
    31b4:	00d50633          	add	a2,a0,a3
    31b8:	0017f713          	andi	a4,a5,1
    31bc:	bc0716e3          	bnez	a4,2d88 <_vfprintf_r+0x2038>
    31c0:	0dc12783          	lw	a5,220(sp)
    31c4:	a40ff06f          	j	2404 <_vfprintf_r+0x16b4>
    31c8:	0e410613          	addi	a2,sp,228
    31cc:	000b8593          	mv	a1,s7
    31d0:	000b0513          	mv	a0,s6
    31d4:	569090ef          	jal	ra,cf3c <__sprint_r>
    31d8:	00050463          	beqz	a0,31e0 <_vfprintf_r+0x2490>
    31dc:	a45fe06f          	j	1c20 <_vfprintf_r+0xed0>
    31e0:	00044683          	lbu	a3,0(s0)
    31e4:	0ec12703          	lw	a4,236(sp)
    31e8:	10c10893          	addi	a7,sp,268
    31ec:	00dc8cb3          	add	s9,s9,a3
    31f0:	949ff06f          	j	2b38 <_vfprintf_r+0x1de8>
    31f4:	0e410613          	addi	a2,sp,228
    31f8:	000b8593          	mv	a1,s7
    31fc:	000b0513          	mv	a0,s6
    3200:	53d090ef          	jal	ra,cf3c <__sprint_r>
    3204:	00050463          	beqz	a0,320c <_vfprintf_r+0x24bc>
    3208:	a19fe06f          	j	1c20 <_vfprintf_r+0xed0>
    320c:	0cc12683          	lw	a3,204(sp)
    3210:	0ec12703          	lw	a4,236(sp)
    3214:	10c10893          	addi	a7,sp,268
    3218:	c05fe06f          	j	1e1c <_vfprintf_r+0x10cc>
    321c:	02d00793          	li	a5,45
    3220:	0cf103a3          	sb	a5,199(sp)
    3224:	02d00713          	li	a4,45
    3228:	e18ff06f          	j	2840 <_vfprintf_r+0x1af0>
    322c:	0c714703          	lbu	a4,199(sp)
    3230:	01412a23          	sw	s4,20(sp)
    3234:	02012423          	sw	zero,40(sp)
    3238:	02012223          	sw	zero,36(sp)
    323c:	00012e23          	sw	zero,28(sp)
    3240:	00030993          	mv	s3,t1
    3244:	00030c13          	mv	s8,t1
    3248:	00000313          	li	t1,0
    324c:	00070463          	beqz	a4,3254 <_vfprintf_r+0x2504>
    3250:	b3cfe06f          	j	158c <_vfprintf_r+0x83c>
    3254:	d3dfd06f          	j	f90 <_vfprintf_r+0x240>
    3258:	000207b7          	lui	a5,0x20
    325c:	07478d13          	addi	s10,a5,116 # 20074 <__malloc_trim_threshold+0x3c>
    3260:	df0ff06f          	j	2850 <_vfprintf_r+0x1b00>
    3264:	0e410613          	addi	a2,sp,228
    3268:	000b8593          	mv	a1,s7
    326c:	000b0513          	mv	a0,s6
    3270:	4cd090ef          	jal	ra,cf3c <__sprint_r>
    3274:	00050463          	beqz	a0,327c <_vfprintf_r+0x252c>
    3278:	9a9fe06f          	j	1c20 <_vfprintf_r+0xed0>
    327c:	0cc12683          	lw	a3,204(sp)
    3280:	02012783          	lw	a5,32(sp)
    3284:	0ec12703          	lw	a4,236(sp)
    3288:	10c10893          	addi	a7,sp,268
    328c:	40d786b3          	sub	a3,a5,a3
    3290:	bd5fe06f          	j	1e64 <_vfprintf_r+0x1114>
    3294:	ff000613          	li	a2,-16
    3298:	40b00ab3          	neg	s5,a1
    329c:	16c5d663          	bge	a1,a2,3408 <_vfprintf_r+0x26b8>
    32a0:	01000c13          	li	s8,16
    32a4:	00700c93          	li	s9,7
    32a8:	00c0006f          	j	32b4 <_vfprintf_r+0x2564>
    32ac:	ff0a8a93          	addi	s5,s5,-16 # 3ffdfff0 <_stack+0x3ff9fff0>
    32b0:	155c5c63          	bge	s8,s5,3408 <_vfprintf_r+0x26b8>
    32b4:	00812783          	lw	a5,8(sp)
    32b8:	01070713          	addi	a4,a4,16
    32bc:	00168693          	addi	a3,a3,1
    32c0:	00f8a023          	sw	a5,0(a7)
    32c4:	0188a223          	sw	s8,4(a7)
    32c8:	0ee12623          	sw	a4,236(sp)
    32cc:	0ed12423          	sw	a3,232(sp)
    32d0:	00888893          	addi	a7,a7,8
    32d4:	fcdcdce3          	bge	s9,a3,32ac <_vfprintf_r+0x255c>
    32d8:	0e410613          	addi	a2,sp,228
    32dc:	000b8593          	mv	a1,s7
    32e0:	000b0513          	mv	a0,s6
    32e4:	459090ef          	jal	ra,cf3c <__sprint_r>
    32e8:	00050463          	beqz	a0,32f0 <_vfprintf_r+0x25a0>
    32ec:	935fe06f          	j	1c20 <_vfprintf_r+0xed0>
    32f0:	0ec12703          	lw	a4,236(sp)
    32f4:	0e812683          	lw	a3,232(sp)
    32f8:	10c10893          	addi	a7,sp,268
    32fc:	fb1ff06f          	j	32ac <_vfprintf_r+0x255c>
    3300:	02012783          	lw	a5,32(sp)
    3304:	02c12703          	lw	a4,44(sp)
    3308:	06700c93          	li	s9,103
    330c:	00e78c33          	add	s8,a5,a4
    3310:	01c12783          	lw	a5,28(sp)
    3314:	36f05663          	blez	a5,3680 <_vfprintf_r+0x2930>
    3318:	04012783          	lw	a5,64(sp)
    331c:	4007f713          	andi	a4,a5,1024
    3320:	16071063          	bnez	a4,3480 <_vfprintf_r+0x2730>
    3324:	fffc4993          	not	s3,s8
    3328:	41f9d993          	srai	s3,s3,0x1f
    332c:	013c79b3          	and	s3,s8,s3
    3330:	e75ff06f          	j	31a4 <_vfprintf_r+0x2454>
    3334:	04012783          	lw	a5,64(sp)
    3338:	0017f713          	andi	a4,a5,1
    333c:	01c12783          	lw	a5,28(sp)
    3340:	00676733          	or	a4,a4,t1
    3344:	36f05a63          	blez	a5,36b8 <_vfprintf_r+0x2968>
    3348:	34071863          	bnez	a4,3698 <_vfprintf_r+0x2948>
    334c:	01c12c03          	lw	s8,28(sp)
    3350:	06600c93          	li	s9,102
    3354:	fc5ff06f          	j	3318 <_vfprintf_r+0x25c8>
    3358:	fff00793          	li	a5,-1
    335c:	00f12623          	sw	a5,12(sp)
    3360:	d69fd06f          	j	10c8 <_vfprintf_r+0x378>
    3364:	000206b7          	lui	a3,0x20
    3368:	2b468d93          	addi	s11,a3,692 # 202b4 <blanks.1>
    336c:	924fe06f          	j	1490 <_vfprintf_r+0x740>
    3370:	0d610693          	addi	a3,sp,214
    3374:	00061863          	bnez	a2,3384 <_vfprintf_r+0x2634>
    3378:	03000693          	li	a3,48
    337c:	0cd10b23          	sb	a3,214(sp)
    3380:	0d710693          	addi	a3,sp,215
    3384:	1b010793          	addi	a5,sp,432
    3388:	40f68633          	sub	a2,a3,a5
    338c:	03070713          	addi	a4,a4,48
    3390:	0dd60793          	addi	a5,a2,221
    3394:	00e68023          	sb	a4,0(a3)
    3398:	02f12c23          	sw	a5,56(sp)
    339c:	964ff06f          	j	2500 <_vfprintf_r+0x17b0>
    33a0:	00090d93          	mv	s11,s2
    33a4:	ca0fe06f          	j	1844 <_vfprintf_r+0xaf4>
    33a8:	05412783          	lw	a5,84(sp)
    33ac:	000a0693          	mv	a3,s4
    33b0:	0cf12e23          	sw	a5,220(sp)
    33b4:	02412783          	lw	a5,36(sp)
    33b8:	fffa4603          	lbu	a2,-1(s4)
    33bc:	00f7c583          	lbu	a1,15(a5)
    33c0:	02c59063          	bne	a1,a2,33e0 <_vfprintf_r+0x2690>
    33c4:	03000513          	li	a0,48
    33c8:	fea68fa3          	sb	a0,-1(a3)
    33cc:	0dc12683          	lw	a3,220(sp)
    33d0:	fff68793          	addi	a5,a3,-1
    33d4:	0cf12e23          	sw	a5,220(sp)
    33d8:	fff6c603          	lbu	a2,-1(a3)
    33dc:	fec586e3          	beq	a1,a2,33c8 <_vfprintf_r+0x2678>
    33e0:	00160593          	addi	a1,a2,1
    33e4:	03900513          	li	a0,57
    33e8:	0ff5f593          	zext.b	a1,a1
    33ec:	00a60663          	beq	a2,a0,33f8 <_vfprintf_r+0x26a8>
    33f0:	feb68fa3          	sb	a1,-1(a3)
    33f4:	cf5ff06f          	j	30e8 <_vfprintf_r+0x2398>
    33f8:	02412783          	lw	a5,36(sp)
    33fc:	00a7c583          	lbu	a1,10(a5)
    3400:	feb68fa3          	sb	a1,-1(a3)
    3404:	ce5ff06f          	j	30e8 <_vfprintf_r+0x2398>
    3408:	00812783          	lw	a5,8(sp)
    340c:	01570733          	add	a4,a4,s5
    3410:	00168693          	addi	a3,a3,1
    3414:	00f8a023          	sw	a5,0(a7)
    3418:	0158a223          	sw	s5,4(a7)
    341c:	0ee12623          	sw	a4,236(sp)
    3420:	0ed12423          	sw	a3,232(sp)
    3424:	00700613          	li	a2,7
    3428:	b6d65063          	bge	a2,a3,2788 <_vfprintf_r+0x1a38>
    342c:	0e410613          	addi	a2,sp,228
    3430:	000b8593          	mv	a1,s7
    3434:	000b0513          	mv	a0,s6
    3438:	305090ef          	jal	ra,cf3c <__sprint_r>
    343c:	00050463          	beqz	a0,3444 <_vfprintf_r+0x26f4>
    3440:	fe0fe06f          	j	1c20 <_vfprintf_r+0xed0>
    3444:	0ec12703          	lw	a4,236(sp)
    3448:	0e812683          	lw	a3,232(sp)
    344c:	10c10893          	addi	a7,sp,268
    3450:	cc4ff06f          	j	2914 <_vfprintf_r+0x1bc4>
    3454:	00030463          	beqz	t1,345c <_vfprintf_r+0x270c>
    3458:	e45fd06f          	j	129c <_vfprintf_r+0x54c>
    345c:	00100313          	li	t1,1
    3460:	e3dfd06f          	j	129c <_vfprintf_r+0x54c>
    3464:	00600313          	li	t1,6
    3468:	e35fd06f          	j	129c <_vfprintf_r+0x54c>
    346c:	04012783          	lw	a5,64(sp)
    3470:	0017f713          	andi	a4,a5,1
    3474:	8a070463          	beqz	a4,251c <_vfprintf_r+0x17cc>
    3478:	89cff06f          	j	2514 <_vfprintf_r+0x17c4>
    347c:	06700c93          	li	s9,103
    3480:	03c12603          	lw	a2,60(sp)
    3484:	0ff00693          	li	a3,255
    3488:	00064703          	lbu	a4,0(a2)
    348c:	28d70a63          	beq	a4,a3,3720 <_vfprintf_r+0x29d0>
    3490:	01c12783          	lw	a5,28(sp)
    3494:	00000513          	li	a0,0
    3498:	00000593          	li	a1,0
    349c:	00f75e63          	bge	a4,a5,34b8 <_vfprintf_r+0x2768>
    34a0:	40e787b3          	sub	a5,a5,a4
    34a4:	00164703          	lbu	a4,1(a2)
    34a8:	04070463          	beqz	a4,34f0 <_vfprintf_r+0x27a0>
    34ac:	00158593          	addi	a1,a1,1
    34b0:	00160613          	addi	a2,a2,1
    34b4:	fed714e3          	bne	a4,a3,349c <_vfprintf_r+0x274c>
    34b8:	02c12e23          	sw	a2,60(sp)
    34bc:	00f12e23          	sw	a5,28(sp)
    34c0:	02b12223          	sw	a1,36(sp)
    34c4:	02a12423          	sw	a0,40(sp)
    34c8:	02812783          	lw	a5,40(sp)
    34cc:	02412703          	lw	a4,36(sp)
    34d0:	00e78733          	add	a4,a5,a4
    34d4:	04812783          	lw	a5,72(sp)
    34d8:	02f70733          	mul	a4,a4,a5
    34dc:	01870c33          	add	s8,a4,s8
    34e0:	fffc4993          	not	s3,s8
    34e4:	41f9d993          	srai	s3,s3,0x1f
    34e8:	013c79b3          	and	s3,s8,s3
    34ec:	854ff06f          	j	2540 <_vfprintf_r+0x17f0>
    34f0:	00064703          	lbu	a4,0(a2)
    34f4:	00150513          	addi	a0,a0,1
    34f8:	fbdff06f          	j	34b4 <_vfprintf_r+0x2764>
    34fc:	0b010993          	addi	s3,sp,176
    3500:	00098513          	mv	a0,s3
    3504:	05112e23          	sw	a7,92(sp)
    3508:	04612a23          	sw	t1,84(sp)
    350c:	0bd12a23          	sw	t4,180(sp)
    3510:	0be12c23          	sw	t5,184(sp)
    3514:	0b512e23          	sw	s5,188(sp)
    3518:	0b412823          	sw	s4,176(sp)
    351c:	2f5100ef          	jal	ra,14010 <__trunctfdf2>
    3520:	0cc10613          	addi	a2,sp,204
    3524:	219060ef          	jal	ra,9f3c <frexp>
    3528:	00058613          	mv	a2,a1
    352c:	00050593          	mv	a1,a0
    3530:	00098513          	mv	a0,s3
    3534:	0e1100ef          	jal	ra,13e14 <__extenddftf2>
    3538:	0b012703          	lw	a4,176(sp)
    353c:	0a010c13          	addi	s8,sp,160
    3540:	09010a93          	addi	s5,sp,144
    3544:	08e12823          	sw	a4,144(sp)
    3548:	0b412703          	lw	a4,180(sp)
    354c:	08010613          	addi	a2,sp,128
    3550:	000a8593          	mv	a1,s5
    3554:	08e12a23          	sw	a4,148(sp)
    3558:	0b812703          	lw	a4,184(sp)
    355c:	000c0513          	mv	a0,s8
    3560:	04c12223          	sw	a2,68(sp)
    3564:	08e12c23          	sw	a4,152(sp)
    3568:	0bc12703          	lw	a4,188(sp)
    356c:	08012023          	sw	zero,128(sp)
    3570:	08012223          	sw	zero,132(sp)
    3574:	08e12e23          	sw	a4,156(sp)
    3578:	3ffc0737          	lui	a4,0x3ffc0
    357c:	08e12623          	sw	a4,140(sp)
    3580:	08012423          	sw	zero,136(sp)
    3584:	1480e0ef          	jal	ra,116cc <__multf3>
    3588:	0a012783          	lw	a5,160(sp)
    358c:	0a412803          	lw	a6,164(sp)
    3590:	0a812e83          	lw	t4,168(sp)
    3594:	0ac12f03          	lw	t5,172(sp)
    3598:	000c0593          	mv	a1,s8
    359c:	00098513          	mv	a0,s3
    35a0:	0af12823          	sw	a5,176(sp)
    35a4:	04f12823          	sw	a5,80(sp)
    35a8:	0b012a23          	sw	a6,180(sp)
    35ac:	03012223          	sw	a6,36(sp)
    35b0:	0bd12c23          	sw	t4,184(sp)
    35b4:	03d12023          	sw	t4,32(sp)
    35b8:	0be12e23          	sw	t5,188(sp)
    35bc:	01e12e23          	sw	t5,28(sp)
    35c0:	0a012023          	sw	zero,160(sp)
    35c4:	0a012223          	sw	zero,164(sp)
    35c8:	0a012423          	sw	zero,168(sp)
    35cc:	0a012623          	sw	zero,172(sp)
    35d0:	5a90d0ef          	jal	ra,11378 <__eqtf2>
    35d4:	01c12f03          	lw	t5,28(sp)
    35d8:	02012e83          	lw	t4,32(sp)
    35dc:	02412803          	lw	a6,36(sp)
    35e0:	05012783          	lw	a5,80(sp)
    35e4:	05412303          	lw	t1,84(sp)
    35e8:	05c12883          	lw	a7,92(sp)
    35ec:	00051663          	bnez	a0,35f8 <_vfprintf_r+0x28a8>
    35f0:	00100713          	li	a4,1
    35f4:	0ce12623          	sw	a4,204(sp)
    35f8:	00020737          	lui	a4,0x20
    35fc:	07c70713          	addi	a4,a4,124 # 2007c <__malloc_trim_threshold+0x44>
    3600:	02e12223          	sw	a4,36(sp)
    3604:	8adff06f          	j	2eb0 <_vfprintf_r+0x2160>
    3608:	0a010c13          	addi	s8,sp,160
    360c:	000c0593          	mv	a1,s8
    3610:	00098513          	mv	a0,s3
    3614:	05112a23          	sw	a7,84(sp)
    3618:	04c12823          	sw	a2,80(sp)
    361c:	02612223          	sw	t1,36(sp)
    3620:	0bd12a23          	sw	t4,180(sp)
    3624:	03d12023          	sw	t4,32(sp)
    3628:	0be12c23          	sw	t5,184(sp)
    362c:	01e12e23          	sw	t5,28(sp)
    3630:	04d12223          	sw	a3,68(sp)
    3634:	0b412823          	sw	s4,176(sp)
    3638:	0b512e23          	sw	s5,188(sp)
    363c:	0a012023          	sw	zero,160(sp)
    3640:	0a012223          	sw	zero,164(sp)
    3644:	0a012423          	sw	zero,168(sp)
    3648:	0a012623          	sw	zero,172(sp)
    364c:	52d0d0ef          	jal	ra,11378 <__eqtf2>
    3650:	01c12f03          	lw	t5,28(sp)
    3654:	02012e83          	lw	t4,32(sp)
    3658:	02412303          	lw	t1,36(sp)
    365c:	05012603          	lw	a2,80(sp)
    3660:	05412883          	lw	a7,84(sp)
    3664:	00051463          	bnez	a0,366c <_vfprintf_r+0x291c>
    3668:	d29fe06f          	j	2390 <_vfprintf_r+0x1640>
    366c:	04412683          	lw	a3,68(sp)
    3670:	00100713          	li	a4,1
    3674:	40d70733          	sub	a4,a4,a3
    3678:	0ce12623          	sw	a4,204(sp)
    367c:	d19fe06f          	j	2394 <_vfprintf_r+0x1644>
    3680:	40fc0c33          	sub	s8,s8,a5
    3684:	001c0c13          	addi	s8,s8,1
    3688:	fffc4993          	not	s3,s8
    368c:	41f9d993          	srai	s3,s3,0x1f
    3690:	013c79b3          	and	s3,s8,s3
    3694:	b11ff06f          	j	31a4 <_vfprintf_r+0x2454>
    3698:	02c12703          	lw	a4,44(sp)
    369c:	06600c93          	li	s9,102
    36a0:	00e78c33          	add	s8,a5,a4
    36a4:	006c0c33          	add	s8,s8,t1
    36a8:	c71ff06f          	j	3318 <_vfprintf_r+0x25c8>
    36ac:	00200793          	li	a5,2
    36b0:	02f12c23          	sw	a5,56(sp)
    36b4:	e4dfe06f          	j	2500 <_vfprintf_r+0x17b0>
    36b8:	00071a63          	bnez	a4,36cc <_vfprintf_r+0x297c>
    36bc:	00100993          	li	s3,1
    36c0:	06600c93          	li	s9,102
    36c4:	00100c13          	li	s8,1
    36c8:	addff06f          	j	31a4 <_vfprintf_r+0x2454>
    36cc:	02c12783          	lw	a5,44(sp)
    36d0:	06600c93          	li	s9,102
    36d4:	00178c13          	addi	s8,a5,1
    36d8:	006c0c33          	add	s8,s8,t1
    36dc:	fffc4993          	not	s3,s8
    36e0:	41f9d993          	srai	s3,s3,0x1f
    36e4:	013c79b3          	and	s3,s8,s3
    36e8:	abdff06f          	j	31a4 <_vfprintf_r+0x2454>
    36ec:	01412783          	lw	a5,20(sp)
    36f0:	0007aa03          	lw	s4,0(a5)
    36f4:	00478793          	addi	a5,a5,4
    36f8:	000a5463          	bgez	s4,3700 <_vfprintf_r+0x29b0>
    36fc:	fff00a13          	li	s4,-1
    3700:	00144e03          	lbu	t3,1(s0)
    3704:	00f12a23          	sw	a5,20(sp)
    3708:	00070413          	mv	s0,a4
    370c:	801fd06f          	j	f0c <_vfprintf_r+0x1bc>
    3710:	00cbd783          	lhu	a5,12(s7)
    3714:	0407e793          	ori	a5,a5,64
    3718:	00fb9623          	sh	a5,12(s7)
    371c:	99dfd06f          	j	10b8 <_vfprintf_r+0x368>
    3720:	02012423          	sw	zero,40(sp)
    3724:	02012223          	sw	zero,36(sp)
    3728:	da1ff06f          	j	34c8 <_vfprintf_r+0x2778>

0000372c <vfprintf>:
    372c:	00020737          	lui	a4,0x20
    3730:	00050793          	mv	a5,a0
    3734:	03072503          	lw	a0,48(a4) # 20030 <_impure_ptr>
    3738:	00060693          	mv	a3,a2
    373c:	00058613          	mv	a2,a1
    3740:	00078593          	mv	a1,a5
    3744:	e0cfd06f          	j	d50 <_vfprintf_r>

00003748 <__sbprintf>:
    3748:	00c5d783          	lhu	a5,12(a1)
    374c:	0645ae03          	lw	t3,100(a1)
    3750:	00e5d303          	lhu	t1,14(a1)
    3754:	01c5a883          	lw	a7,28(a1)
    3758:	0245a803          	lw	a6,36(a1)
    375c:	b8010113          	addi	sp,sp,-1152
    3760:	ffd7f793          	andi	a5,a5,-3
    3764:	40000713          	li	a4,1024
    3768:	46812c23          	sw	s0,1144(sp)
    376c:	00f11a23          	sh	a5,20(sp)
    3770:	00058413          	mv	s0,a1
    3774:	07010793          	addi	a5,sp,112
    3778:	00810593          	addi	a1,sp,8
    377c:	46912a23          	sw	s1,1140(sp)
    3780:	47212823          	sw	s2,1136(sp)
    3784:	46112e23          	sw	ra,1148(sp)
    3788:	00050913          	mv	s2,a0
    378c:	07c12623          	sw	t3,108(sp)
    3790:	00611b23          	sh	t1,22(sp)
    3794:	03112223          	sw	a7,36(sp)
    3798:	03012623          	sw	a6,44(sp)
    379c:	00f12423          	sw	a5,8(sp)
    37a0:	00f12c23          	sw	a5,24(sp)
    37a4:	00e12823          	sw	a4,16(sp)
    37a8:	00e12e23          	sw	a4,28(sp)
    37ac:	02012023          	sw	zero,32(sp)
    37b0:	da0fd0ef          	jal	ra,d50 <_vfprintf_r>
    37b4:	00050493          	mv	s1,a0
    37b8:	02055c63          	bgez	a0,37f0 <__sbprintf+0xa8>
    37bc:	01415783          	lhu	a5,20(sp)
    37c0:	0407f793          	andi	a5,a5,64
    37c4:	00078863          	beqz	a5,37d4 <__sbprintf+0x8c>
    37c8:	00c45783          	lhu	a5,12(s0)
    37cc:	0407e793          	ori	a5,a5,64
    37d0:	00f41623          	sh	a5,12(s0)
    37d4:	47c12083          	lw	ra,1148(sp)
    37d8:	47812403          	lw	s0,1144(sp)
    37dc:	47012903          	lw	s2,1136(sp)
    37e0:	00048513          	mv	a0,s1
    37e4:	47412483          	lw	s1,1140(sp)
    37e8:	48010113          	addi	sp,sp,1152
    37ec:	00008067          	ret
    37f0:	00810593          	addi	a1,sp,8
    37f4:	00090513          	mv	a0,s2
    37f8:	580000ef          	jal	ra,3d78 <_fflush_r>
    37fc:	fc0500e3          	beqz	a0,37bc <__sbprintf+0x74>
    3800:	fff00493          	li	s1,-1
    3804:	fb9ff06f          	j	37bc <__sbprintf+0x74>

00003808 <__swbuf_r>:
    3808:	fe010113          	addi	sp,sp,-32
    380c:	00812c23          	sw	s0,24(sp)
    3810:	00912a23          	sw	s1,20(sp)
    3814:	01212823          	sw	s2,16(sp)
    3818:	00112e23          	sw	ra,28(sp)
    381c:	01312623          	sw	s3,12(sp)
    3820:	00050913          	mv	s2,a0
    3824:	00058493          	mv	s1,a1
    3828:	00060413          	mv	s0,a2
    382c:	00050663          	beqz	a0,3838 <__swbuf_r+0x30>
    3830:	03852783          	lw	a5,56(a0)
    3834:	14078a63          	beqz	a5,3988 <__swbuf_r+0x180>
    3838:	00c41703          	lh	a4,12(s0)
    383c:	01842683          	lw	a3,24(s0)
    3840:	00877793          	andi	a5,a4,8
    3844:	00d42423          	sw	a3,8(s0)
    3848:	01071693          	slli	a3,a4,0x10
    384c:	0106d693          	srli	a3,a3,0x10
    3850:	08078463          	beqz	a5,38d8 <__swbuf_r+0xd0>
    3854:	01042783          	lw	a5,16(s0)
    3858:	08078063          	beqz	a5,38d8 <__swbuf_r+0xd0>
    385c:	00002637          	lui	a2,0x2
    3860:	00c6f6b3          	and	a3,a3,a2
    3864:	0ff4f993          	zext.b	s3,s1
    3868:	0ff4f493          	zext.b	s1,s1
    386c:	0a068063          	beqz	a3,390c <__swbuf_r+0x104>
    3870:	00042703          	lw	a4,0(s0)
    3874:	01442683          	lw	a3,20(s0)
    3878:	40f707b3          	sub	a5,a4,a5
    387c:	0ad7de63          	bge	a5,a3,3938 <__swbuf_r+0x130>
    3880:	00842683          	lw	a3,8(s0)
    3884:	00170613          	addi	a2,a4,1
    3888:	00c42023          	sw	a2,0(s0)
    388c:	fff68693          	addi	a3,a3,-1
    3890:	00d42423          	sw	a3,8(s0)
    3894:	01370023          	sb	s3,0(a4)
    3898:	01442703          	lw	a4,20(s0)
    389c:	00178793          	addi	a5,a5,1
    38a0:	0cf70863          	beq	a4,a5,3970 <__swbuf_r+0x168>
    38a4:	00c45783          	lhu	a5,12(s0)
    38a8:	0017f793          	andi	a5,a5,1
    38ac:	00078663          	beqz	a5,38b8 <__swbuf_r+0xb0>
    38b0:	00a00793          	li	a5,10
    38b4:	0af48e63          	beq	s1,a5,3970 <__swbuf_r+0x168>
    38b8:	01c12083          	lw	ra,28(sp)
    38bc:	01812403          	lw	s0,24(sp)
    38c0:	01012903          	lw	s2,16(sp)
    38c4:	00c12983          	lw	s3,12(sp)
    38c8:	00048513          	mv	a0,s1
    38cc:	01412483          	lw	s1,20(sp)
    38d0:	02010113          	addi	sp,sp,32
    38d4:	00008067          	ret
    38d8:	00040593          	mv	a1,s0
    38dc:	00090513          	mv	a0,s2
    38e0:	0c8000ef          	jal	ra,39a8 <__swsetup_r>
    38e4:	08051e63          	bnez	a0,3980 <__swbuf_r+0x178>
    38e8:	00c41703          	lh	a4,12(s0)
    38ec:	00002637          	lui	a2,0x2
    38f0:	0ff4f993          	zext.b	s3,s1
    38f4:	01071693          	slli	a3,a4,0x10
    38f8:	0106d693          	srli	a3,a3,0x10
    38fc:	00c6f6b3          	and	a3,a3,a2
    3900:	01042783          	lw	a5,16(s0)
    3904:	0ff4f493          	zext.b	s1,s1
    3908:	f60694e3          	bnez	a3,3870 <__swbuf_r+0x68>
    390c:	06442683          	lw	a3,100(s0)
    3910:	00c76733          	or	a4,a4,a2
    3914:	ffffe637          	lui	a2,0xffffe
    3918:	fff60613          	addi	a2,a2,-1 # ffffdfff <_stack+0xfffbdfff>
    391c:	00c6f6b3          	and	a3,a3,a2
    3920:	00e41623          	sh	a4,12(s0)
    3924:	00042703          	lw	a4,0(s0)
    3928:	06d42223          	sw	a3,100(s0)
    392c:	01442683          	lw	a3,20(s0)
    3930:	40f707b3          	sub	a5,a4,a5
    3934:	f4d7c6e3          	blt	a5,a3,3880 <__swbuf_r+0x78>
    3938:	00040593          	mv	a1,s0
    393c:	00090513          	mv	a0,s2
    3940:	438000ef          	jal	ra,3d78 <_fflush_r>
    3944:	02051e63          	bnez	a0,3980 <__swbuf_r+0x178>
    3948:	00042703          	lw	a4,0(s0)
    394c:	00842683          	lw	a3,8(s0)
    3950:	00100793          	li	a5,1
    3954:	00170613          	addi	a2,a4,1
    3958:	fff68693          	addi	a3,a3,-1
    395c:	00c42023          	sw	a2,0(s0)
    3960:	00d42423          	sw	a3,8(s0)
    3964:	01370023          	sb	s3,0(a4)
    3968:	01442703          	lw	a4,20(s0)
    396c:	f2f71ce3          	bne	a4,a5,38a4 <__swbuf_r+0x9c>
    3970:	00040593          	mv	a1,s0
    3974:	00090513          	mv	a0,s2
    3978:	400000ef          	jal	ra,3d78 <_fflush_r>
    397c:	f2050ee3          	beqz	a0,38b8 <__swbuf_r+0xb0>
    3980:	fff00493          	li	s1,-1
    3984:	f35ff06f          	j	38b8 <__swbuf_r+0xb0>
    3988:	02d000ef          	jal	ra,41b4 <__sinit>
    398c:	eadff06f          	j	3838 <__swbuf_r+0x30>

00003990 <__swbuf>:
    3990:	00020737          	lui	a4,0x20
    3994:	00050793          	mv	a5,a0
    3998:	03072503          	lw	a0,48(a4) # 20030 <_impure_ptr>
    399c:	00058613          	mv	a2,a1
    39a0:	00078593          	mv	a1,a5
    39a4:	e65ff06f          	j	3808 <__swbuf_r>

000039a8 <__swsetup_r>:
    39a8:	000207b7          	lui	a5,0x20
    39ac:	0307a783          	lw	a5,48(a5) # 20030 <_impure_ptr>
    39b0:	ff010113          	addi	sp,sp,-16
    39b4:	00812423          	sw	s0,8(sp)
    39b8:	00912223          	sw	s1,4(sp)
    39bc:	00112623          	sw	ra,12(sp)
    39c0:	00050493          	mv	s1,a0
    39c4:	00058413          	mv	s0,a1
    39c8:	00078663          	beqz	a5,39d4 <__swsetup_r+0x2c>
    39cc:	0387a703          	lw	a4,56(a5)
    39d0:	08070463          	beqz	a4,3a58 <__swsetup_r+0xb0>
    39d4:	00c41703          	lh	a4,12(s0)
    39d8:	01071793          	slli	a5,a4,0x10
    39dc:	00877693          	andi	a3,a4,8
    39e0:	0107d793          	srli	a5,a5,0x10
    39e4:	08068863          	beqz	a3,3a74 <__swsetup_r+0xcc>
    39e8:	01042683          	lw	a3,16(s0)
    39ec:	0a068863          	beqz	a3,3a9c <__swsetup_r+0xf4>
    39f0:	0017f613          	andi	a2,a5,1
    39f4:	02060863          	beqz	a2,3a24 <__swsetup_r+0x7c>
    39f8:	01442603          	lw	a2,20(s0)
    39fc:	00042423          	sw	zero,8(s0)
    3a00:	00000513          	li	a0,0
    3a04:	40c00633          	neg	a2,a2
    3a08:	00c42c23          	sw	a2,24(s0)
    3a0c:	02068a63          	beqz	a3,3a40 <__swsetup_r+0x98>
    3a10:	00c12083          	lw	ra,12(sp)
    3a14:	00812403          	lw	s0,8(sp)
    3a18:	00412483          	lw	s1,4(sp)
    3a1c:	01010113          	addi	sp,sp,16
    3a20:	00008067          	ret
    3a24:	0027f613          	andi	a2,a5,2
    3a28:	00000593          	li	a1,0
    3a2c:	00061463          	bnez	a2,3a34 <__swsetup_r+0x8c>
    3a30:	01442583          	lw	a1,20(s0)
    3a34:	00b42423          	sw	a1,8(s0)
    3a38:	00000513          	li	a0,0
    3a3c:	fc069ae3          	bnez	a3,3a10 <__swsetup_r+0x68>
    3a40:	0807f793          	andi	a5,a5,128
    3a44:	fc0786e3          	beqz	a5,3a10 <__swsetup_r+0x68>
    3a48:	04076713          	ori	a4,a4,64
    3a4c:	00e41623          	sh	a4,12(s0)
    3a50:	fff00513          	li	a0,-1
    3a54:	fbdff06f          	j	3a10 <__swsetup_r+0x68>
    3a58:	00078513          	mv	a0,a5
    3a5c:	758000ef          	jal	ra,41b4 <__sinit>
    3a60:	00c41703          	lh	a4,12(s0)
    3a64:	01071793          	slli	a5,a4,0x10
    3a68:	00877693          	andi	a3,a4,8
    3a6c:	0107d793          	srli	a5,a5,0x10
    3a70:	f6069ce3          	bnez	a3,39e8 <__swsetup_r+0x40>
    3a74:	0107f693          	andi	a3,a5,16
    3a78:	08068263          	beqz	a3,3afc <__swsetup_r+0x154>
    3a7c:	0047f793          	andi	a5,a5,4
    3a80:	04079463          	bnez	a5,3ac8 <__swsetup_r+0x120>
    3a84:	01042683          	lw	a3,16(s0)
    3a88:	00876713          	ori	a4,a4,8
    3a8c:	01071793          	slli	a5,a4,0x10
    3a90:	00e41623          	sh	a4,12(s0)
    3a94:	0107d793          	srli	a5,a5,0x10
    3a98:	f4069ce3          	bnez	a3,39f0 <__swsetup_r+0x48>
    3a9c:	2807f613          	andi	a2,a5,640
    3aa0:	20000593          	li	a1,512
    3aa4:	f4b606e3          	beq	a2,a1,39f0 <__swsetup_r+0x48>
    3aa8:	00040593          	mv	a1,s0
    3aac:	00048513          	mv	a0,s1
    3ab0:	631030ef          	jal	ra,78e0 <__smakebuf_r>
    3ab4:	00c41703          	lh	a4,12(s0)
    3ab8:	01042683          	lw	a3,16(s0)
    3abc:	01071793          	slli	a5,a4,0x10
    3ac0:	0107d793          	srli	a5,a5,0x10
    3ac4:	f2dff06f          	j	39f0 <__swsetup_r+0x48>
    3ac8:	03042583          	lw	a1,48(s0)
    3acc:	00058e63          	beqz	a1,3ae8 <__swsetup_r+0x140>
    3ad0:	04040793          	addi	a5,s0,64
    3ad4:	00f58863          	beq	a1,a5,3ae4 <__swsetup_r+0x13c>
    3ad8:	00048513          	mv	a0,s1
    3adc:	061000ef          	jal	ra,433c <_free_r>
    3ae0:	00c41703          	lh	a4,12(s0)
    3ae4:	02042823          	sw	zero,48(s0)
    3ae8:	01042683          	lw	a3,16(s0)
    3aec:	fdb77713          	andi	a4,a4,-37
    3af0:	00042223          	sw	zero,4(s0)
    3af4:	00d42023          	sw	a3,0(s0)
    3af8:	f91ff06f          	j	3a88 <__swsetup_r+0xe0>
    3afc:	00900793          	li	a5,9
    3b00:	00f4a023          	sw	a5,0(s1)
    3b04:	04076713          	ori	a4,a4,64
    3b08:	00e41623          	sh	a4,12(s0)
    3b0c:	fff00513          	li	a0,-1
    3b10:	f01ff06f          	j	3a10 <__swsetup_r+0x68>

00003b14 <__sflush_r>:
    3b14:	00c59783          	lh	a5,12(a1)
    3b18:	fe010113          	addi	sp,sp,-32
    3b1c:	00812c23          	sw	s0,24(sp)
    3b20:	01312623          	sw	s3,12(sp)
    3b24:	00112e23          	sw	ra,28(sp)
    3b28:	00912a23          	sw	s1,20(sp)
    3b2c:	01212823          	sw	s2,16(sp)
    3b30:	0087f693          	andi	a3,a5,8
    3b34:	00058413          	mv	s0,a1
    3b38:	00050993          	mv	s3,a0
    3b3c:	10069c63          	bnez	a3,3c54 <__sflush_r+0x140>
    3b40:	00001737          	lui	a4,0x1
    3b44:	80070713          	addi	a4,a4,-2048 # 800 <qsort+0x3ac>
    3b48:	0045a683          	lw	a3,4(a1)
    3b4c:	00e7e7b3          	or	a5,a5,a4
    3b50:	00f59623          	sh	a5,12(a1)
    3b54:	18d05663          	blez	a3,3ce0 <__sflush_r+0x1cc>
    3b58:	02842703          	lw	a4,40(s0)
    3b5c:	0c070c63          	beqz	a4,3c34 <__sflush_r+0x120>
    3b60:	01079793          	slli	a5,a5,0x10
    3b64:	0107d793          	srli	a5,a5,0x10
    3b68:	000016b7          	lui	a3,0x1
    3b6c:	0009a483          	lw	s1,0(s3)
    3b70:	00d7f6b3          	and	a3,a5,a3
    3b74:	0009a023          	sw	zero,0(s3)
    3b78:	01c42583          	lw	a1,28(s0)
    3b7c:	16069863          	bnez	a3,3cec <__sflush_r+0x1d8>
    3b80:	00100693          	li	a3,1
    3b84:	00000613          	li	a2,0
    3b88:	00098513          	mv	a0,s3
    3b8c:	000700e7          	jalr	a4
    3b90:	fff00793          	li	a5,-1
    3b94:	18f50e63          	beq	a0,a5,3d30 <__sflush_r+0x21c>
    3b98:	00c45783          	lhu	a5,12(s0)
    3b9c:	02842703          	lw	a4,40(s0)
    3ba0:	01c42583          	lw	a1,28(s0)
    3ba4:	0047f793          	andi	a5,a5,4
    3ba8:	00078e63          	beqz	a5,3bc4 <__sflush_r+0xb0>
    3bac:	00442683          	lw	a3,4(s0)
    3bb0:	03042783          	lw	a5,48(s0)
    3bb4:	40d50533          	sub	a0,a0,a3
    3bb8:	00078663          	beqz	a5,3bc4 <__sflush_r+0xb0>
    3bbc:	03c42783          	lw	a5,60(s0)
    3bc0:	40f50533          	sub	a0,a0,a5
    3bc4:	00050613          	mv	a2,a0
    3bc8:	00000693          	li	a3,0
    3bcc:	00098513          	mv	a0,s3
    3bd0:	000700e7          	jalr	a4
    3bd4:	fff00793          	li	a5,-1
    3bd8:	10f51e63          	bne	a0,a5,3cf4 <__sflush_r+0x1e0>
    3bdc:	0009a703          	lw	a4,0(s3)
    3be0:	00c41783          	lh	a5,12(s0)
    3be4:	16070a63          	beqz	a4,3d58 <__sflush_r+0x244>
    3be8:	01d00693          	li	a3,29
    3bec:	00d70663          	beq	a4,a3,3bf8 <__sflush_r+0xe4>
    3bf0:	01600693          	li	a3,22
    3bf4:	0cd71463          	bne	a4,a3,3cbc <__sflush_r+0x1a8>
    3bf8:	01042683          	lw	a3,16(s0)
    3bfc:	fffff737          	lui	a4,0xfffff
    3c00:	7ff70713          	addi	a4,a4,2047 # fffff7ff <_stack+0xfffbf7ff>
    3c04:	00e7f7b3          	and	a5,a5,a4
    3c08:	00f41623          	sh	a5,12(s0)
    3c0c:	00042223          	sw	zero,4(s0)
    3c10:	00d42023          	sw	a3,0(s0)
    3c14:	03042583          	lw	a1,48(s0)
    3c18:	0099a023          	sw	s1,0(s3)
    3c1c:	00058c63          	beqz	a1,3c34 <__sflush_r+0x120>
    3c20:	04040793          	addi	a5,s0,64
    3c24:	00f58663          	beq	a1,a5,3c30 <__sflush_r+0x11c>
    3c28:	00098513          	mv	a0,s3
    3c2c:	710000ef          	jal	ra,433c <_free_r>
    3c30:	02042823          	sw	zero,48(s0)
    3c34:	00000513          	li	a0,0
    3c38:	01c12083          	lw	ra,28(sp)
    3c3c:	01812403          	lw	s0,24(sp)
    3c40:	01412483          	lw	s1,20(sp)
    3c44:	01012903          	lw	s2,16(sp)
    3c48:	00c12983          	lw	s3,12(sp)
    3c4c:	02010113          	addi	sp,sp,32
    3c50:	00008067          	ret
    3c54:	0105a903          	lw	s2,16(a1)
    3c58:	fc090ee3          	beqz	s2,3c34 <__sflush_r+0x120>
    3c5c:	0005a483          	lw	s1,0(a1)
    3c60:	01079713          	slli	a4,a5,0x10
    3c64:	01075713          	srli	a4,a4,0x10
    3c68:	00377713          	andi	a4,a4,3
    3c6c:	0125a023          	sw	s2,0(a1)
    3c70:	412484b3          	sub	s1,s1,s2
    3c74:	00000793          	li	a5,0
    3c78:	00071463          	bnez	a4,3c80 <__sflush_r+0x16c>
    3c7c:	0145a783          	lw	a5,20(a1)
    3c80:	00f42423          	sw	a5,8(s0)
    3c84:	00904863          	bgtz	s1,3c94 <__sflush_r+0x180>
    3c88:	fadff06f          	j	3c34 <__sflush_r+0x120>
    3c8c:	00a90933          	add	s2,s2,a0
    3c90:	fa9052e3          	blez	s1,3c34 <__sflush_r+0x120>
    3c94:	02442783          	lw	a5,36(s0)
    3c98:	01c42583          	lw	a1,28(s0)
    3c9c:	00048693          	mv	a3,s1
    3ca0:	00090613          	mv	a2,s2
    3ca4:	00098513          	mv	a0,s3
    3ca8:	000780e7          	jalr	a5
    3cac:	40a484b3          	sub	s1,s1,a0
    3cb0:	fca04ee3          	bgtz	a0,3c8c <__sflush_r+0x178>
    3cb4:	00c45783          	lhu	a5,12(s0)
    3cb8:	fff00513          	li	a0,-1
    3cbc:	0407e793          	ori	a5,a5,64
    3cc0:	01c12083          	lw	ra,28(sp)
    3cc4:	00f41623          	sh	a5,12(s0)
    3cc8:	01812403          	lw	s0,24(sp)
    3ccc:	01412483          	lw	s1,20(sp)
    3cd0:	01012903          	lw	s2,16(sp)
    3cd4:	00c12983          	lw	s3,12(sp)
    3cd8:	02010113          	addi	sp,sp,32
    3cdc:	00008067          	ret
    3ce0:	03c5a703          	lw	a4,60(a1)
    3ce4:	e6e04ae3          	bgtz	a4,3b58 <__sflush_r+0x44>
    3ce8:	f4dff06f          	j	3c34 <__sflush_r+0x120>
    3cec:	05042503          	lw	a0,80(s0)
    3cf0:	eb5ff06f          	j	3ba4 <__sflush_r+0x90>
    3cf4:	00c45783          	lhu	a5,12(s0)
    3cf8:	fffff737          	lui	a4,0xfffff
    3cfc:	7ff70713          	addi	a4,a4,2047 # fffff7ff <_stack+0xfffbf7ff>
    3d00:	00e7f7b3          	and	a5,a5,a4
    3d04:	01042683          	lw	a3,16(s0)
    3d08:	01079793          	slli	a5,a5,0x10
    3d0c:	4107d793          	srai	a5,a5,0x10
    3d10:	00c7d713          	srli	a4,a5,0xc
    3d14:	00f41623          	sh	a5,12(s0)
    3d18:	00042223          	sw	zero,4(s0)
    3d1c:	00d42023          	sw	a3,0(s0)
    3d20:	00177793          	andi	a5,a4,1
    3d24:	ee0788e3          	beqz	a5,3c14 <__sflush_r+0x100>
    3d28:	04a42823          	sw	a0,80(s0)
    3d2c:	ee9ff06f          	j	3c14 <__sflush_r+0x100>
    3d30:	0009a783          	lw	a5,0(s3)
    3d34:	e60782e3          	beqz	a5,3b98 <__sflush_r+0x84>
    3d38:	01d00713          	li	a4,29
    3d3c:	02e78863          	beq	a5,a4,3d6c <__sflush_r+0x258>
    3d40:	01600713          	li	a4,22
    3d44:	02e78463          	beq	a5,a4,3d6c <__sflush_r+0x258>
    3d48:	00c45783          	lhu	a5,12(s0)
    3d4c:	0407e793          	ori	a5,a5,64
    3d50:	00f41623          	sh	a5,12(s0)
    3d54:	ee5ff06f          	j	3c38 <__sflush_r+0x124>
    3d58:	fffff737          	lui	a4,0xfffff
    3d5c:	7ff70713          	addi	a4,a4,2047 # fffff7ff <_stack+0xfffbf7ff>
    3d60:	01042683          	lw	a3,16(s0)
    3d64:	00e7f7b3          	and	a5,a5,a4
    3d68:	fa9ff06f          	j	3d10 <__sflush_r+0x1fc>
    3d6c:	0099a023          	sw	s1,0(s3)
    3d70:	00000513          	li	a0,0
    3d74:	ec5ff06f          	j	3c38 <__sflush_r+0x124>

00003d78 <_fflush_r>:
    3d78:	fe010113          	addi	sp,sp,-32
    3d7c:	00812c23          	sw	s0,24(sp)
    3d80:	00112e23          	sw	ra,28(sp)
    3d84:	00050413          	mv	s0,a0
    3d88:	00050663          	beqz	a0,3d94 <_fflush_r+0x1c>
    3d8c:	03852783          	lw	a5,56(a0)
    3d90:	02078063          	beqz	a5,3db0 <_fflush_r+0x38>
    3d94:	00c59783          	lh	a5,12(a1)
    3d98:	02079663          	bnez	a5,3dc4 <_fflush_r+0x4c>
    3d9c:	01c12083          	lw	ra,28(sp)
    3da0:	01812403          	lw	s0,24(sp)
    3da4:	00000513          	li	a0,0
    3da8:	02010113          	addi	sp,sp,32
    3dac:	00008067          	ret
    3db0:	00b12623          	sw	a1,12(sp)
    3db4:	400000ef          	jal	ra,41b4 <__sinit>
    3db8:	00c12583          	lw	a1,12(sp)
    3dbc:	00c59783          	lh	a5,12(a1)
    3dc0:	fc078ee3          	beqz	a5,3d9c <_fflush_r+0x24>
    3dc4:	00040513          	mv	a0,s0
    3dc8:	01812403          	lw	s0,24(sp)
    3dcc:	01c12083          	lw	ra,28(sp)
    3dd0:	02010113          	addi	sp,sp,32
    3dd4:	d41ff06f          	j	3b14 <__sflush_r>

00003dd8 <fflush>:
    3dd8:	06050863          	beqz	a0,3e48 <fflush+0x70>
    3ddc:	fe010113          	addi	sp,sp,-32
    3de0:	000207b7          	lui	a5,0x20
    3de4:	00812c23          	sw	s0,24(sp)
    3de8:	00050413          	mv	s0,a0
    3dec:	0307a503          	lw	a0,48(a5) # 20030 <_impure_ptr>
    3df0:	00112e23          	sw	ra,28(sp)
    3df4:	00050663          	beqz	a0,3e00 <fflush+0x28>
    3df8:	03852783          	lw	a5,56(a0)
    3dfc:	02078a63          	beqz	a5,3e30 <fflush+0x58>
    3e00:	00c41783          	lh	a5,12(s0)
    3e04:	00079c63          	bnez	a5,3e1c <fflush+0x44>
    3e08:	01c12083          	lw	ra,28(sp)
    3e0c:	01812403          	lw	s0,24(sp)
    3e10:	00000513          	li	a0,0
    3e14:	02010113          	addi	sp,sp,32
    3e18:	00008067          	ret
    3e1c:	00040593          	mv	a1,s0
    3e20:	01812403          	lw	s0,24(sp)
    3e24:	01c12083          	lw	ra,28(sp)
    3e28:	02010113          	addi	sp,sp,32
    3e2c:	ce9ff06f          	j	3b14 <__sflush_r>
    3e30:	00a12623          	sw	a0,12(sp)
    3e34:	380000ef          	jal	ra,41b4 <__sinit>
    3e38:	00c41783          	lh	a5,12(s0)
    3e3c:	00c12503          	lw	a0,12(sp)
    3e40:	fc0784e3          	beqz	a5,3e08 <fflush+0x30>
    3e44:	fd9ff06f          	j	3e1c <fflush+0x44>
    3e48:	000207b7          	lui	a5,0x20
    3e4c:	0107a503          	lw	a0,16(a5) # 20010 <_global_impure_ptr>
    3e50:	000045b7          	lui	a1,0x4
    3e54:	d7858593          	addi	a1,a1,-648 # 3d78 <_fflush_r>
    3e58:	54d0006f          	j	4ba4 <_fwalk_reent>

00003e5c <__fp_lock>:
    3e5c:	00000513          	li	a0,0
    3e60:	00008067          	ret

00003e64 <_cleanup_r>:
    3e64:	0000e5b7          	lui	a1,0xe
    3e68:	54c58593          	addi	a1,a1,1356 # e54c <_fclose_r>
    3e6c:	5390006f          	j	4ba4 <_fwalk_reent>

00003e70 <__fp_unlock>:
    3e70:	00000513          	li	a0,0
    3e74:	00008067          	ret

00003e78 <__sinit.part.0>:
    3e78:	fe010113          	addi	sp,sp,-32
    3e7c:	000047b7          	lui	a5,0x4
    3e80:	00112e23          	sw	ra,28(sp)
    3e84:	00812c23          	sw	s0,24(sp)
    3e88:	00912a23          	sw	s1,20(sp)
    3e8c:	01212823          	sw	s2,16(sp)
    3e90:	01312623          	sw	s3,12(sp)
    3e94:	01412423          	sw	s4,8(sp)
    3e98:	01512223          	sw	s5,4(sp)
    3e9c:	01612023          	sw	s6,0(sp)
    3ea0:	00452403          	lw	s0,4(a0)
    3ea4:	e6478793          	addi	a5,a5,-412 # 3e64 <_cleanup_r>
    3ea8:	02f52e23          	sw	a5,60(a0)
    3eac:	2ec50713          	addi	a4,a0,748
    3eb0:	00300793          	li	a5,3
    3eb4:	2ee52423          	sw	a4,744(a0)
    3eb8:	2ef52223          	sw	a5,740(a0)
    3ebc:	2e052023          	sw	zero,736(a0)
    3ec0:	00400793          	li	a5,4
    3ec4:	00050913          	mv	s2,a0
    3ec8:	00f42623          	sw	a5,12(s0)
    3ecc:	00800613          	li	a2,8
    3ed0:	00000593          	li	a1,0
    3ed4:	06042223          	sw	zero,100(s0)
    3ed8:	00042023          	sw	zero,0(s0)
    3edc:	00042223          	sw	zero,4(s0)
    3ee0:	00042423          	sw	zero,8(s0)
    3ee4:	00042823          	sw	zero,16(s0)
    3ee8:	00042a23          	sw	zero,20(s0)
    3eec:	00042c23          	sw	zero,24(s0)
    3ef0:	05c40513          	addi	a0,s0,92
    3ef4:	7a8040ef          	jal	ra,869c <memset>
    3ef8:	0000ab37          	lui	s6,0xa
    3efc:	00892483          	lw	s1,8(s2)
    3f00:	0000aab7          	lui	s5,0xa
    3f04:	0000aa37          	lui	s4,0xa
    3f08:	0000a9b7          	lui	s3,0xa
    3f0c:	0d0b0b13          	addi	s6,s6,208 # a0d0 <__sread>
    3f10:	134a8a93          	addi	s5,s5,308 # a134 <__swrite>
    3f14:	1bca0a13          	addi	s4,s4,444 # a1bc <__sseek>
    3f18:	22498993          	addi	s3,s3,548 # a224 <__sclose>
    3f1c:	000107b7          	lui	a5,0x10
    3f20:	03642023          	sw	s6,32(s0)
    3f24:	03542223          	sw	s5,36(s0)
    3f28:	03442423          	sw	s4,40(s0)
    3f2c:	03342623          	sw	s3,44(s0)
    3f30:	00842e23          	sw	s0,28(s0)
    3f34:	00978793          	addi	a5,a5,9 # 10009 <_signal_r+0x89>
    3f38:	00f4a623          	sw	a5,12(s1)
    3f3c:	00800613          	li	a2,8
    3f40:	00000593          	li	a1,0
    3f44:	0604a223          	sw	zero,100(s1)
    3f48:	0004a023          	sw	zero,0(s1)
    3f4c:	0004a223          	sw	zero,4(s1)
    3f50:	0004a423          	sw	zero,8(s1)
    3f54:	0004a823          	sw	zero,16(s1)
    3f58:	0004aa23          	sw	zero,20(s1)
    3f5c:	0004ac23          	sw	zero,24(s1)
    3f60:	05c48513          	addi	a0,s1,92
    3f64:	738040ef          	jal	ra,869c <memset>
    3f68:	00c92403          	lw	s0,12(s2)
    3f6c:	000207b7          	lui	a5,0x20
    3f70:	0364a023          	sw	s6,32(s1)
    3f74:	0354a223          	sw	s5,36(s1)
    3f78:	0344a423          	sw	s4,40(s1)
    3f7c:	0334a623          	sw	s3,44(s1)
    3f80:	0094ae23          	sw	s1,28(s1)
    3f84:	01278793          	addi	a5,a5,18 # 20012 <_global_impure_ptr+0x2>
    3f88:	00f42623          	sw	a5,12(s0)
    3f8c:	06042223          	sw	zero,100(s0)
    3f90:	00042023          	sw	zero,0(s0)
    3f94:	00042223          	sw	zero,4(s0)
    3f98:	00042423          	sw	zero,8(s0)
    3f9c:	00042823          	sw	zero,16(s0)
    3fa0:	00042a23          	sw	zero,20(s0)
    3fa4:	00042c23          	sw	zero,24(s0)
    3fa8:	05c40513          	addi	a0,s0,92
    3fac:	00800613          	li	a2,8
    3fb0:	00000593          	li	a1,0
    3fb4:	6e8040ef          	jal	ra,869c <memset>
    3fb8:	01c12083          	lw	ra,28(sp)
    3fbc:	03642023          	sw	s6,32(s0)
    3fc0:	03542223          	sw	s5,36(s0)
    3fc4:	03442423          	sw	s4,40(s0)
    3fc8:	03342623          	sw	s3,44(s0)
    3fcc:	00842e23          	sw	s0,28(s0)
    3fd0:	01812403          	lw	s0,24(sp)
    3fd4:	00100793          	li	a5,1
    3fd8:	02f92c23          	sw	a5,56(s2)
    3fdc:	01412483          	lw	s1,20(sp)
    3fe0:	01012903          	lw	s2,16(sp)
    3fe4:	00c12983          	lw	s3,12(sp)
    3fe8:	00812a03          	lw	s4,8(sp)
    3fec:	00412a83          	lw	s5,4(sp)
    3ff0:	00012b03          	lw	s6,0(sp)
    3ff4:	02010113          	addi	sp,sp,32
    3ff8:	00008067          	ret

00003ffc <__sfmoreglue>:
    3ffc:	ff010113          	addi	sp,sp,-16
    4000:	00912223          	sw	s1,4(sp)
    4004:	06800793          	li	a5,104
    4008:	fff58493          	addi	s1,a1,-1
    400c:	02f484b3          	mul	s1,s1,a5
    4010:	01212023          	sw	s2,0(sp)
    4014:	00058913          	mv	s2,a1
    4018:	00812423          	sw	s0,8(sp)
    401c:	00112623          	sw	ra,12(sp)
    4020:	07448593          	addi	a1,s1,116
    4024:	329030ef          	jal	ra,7b4c <_malloc_r>
    4028:	00050413          	mv	s0,a0
    402c:	02050063          	beqz	a0,404c <__sfmoreglue+0x50>
    4030:	00c50513          	addi	a0,a0,12
    4034:	00042023          	sw	zero,0(s0)
    4038:	01242223          	sw	s2,4(s0)
    403c:	00a42423          	sw	a0,8(s0)
    4040:	06848613          	addi	a2,s1,104
    4044:	00000593          	li	a1,0
    4048:	654040ef          	jal	ra,869c <memset>
    404c:	00c12083          	lw	ra,12(sp)
    4050:	00040513          	mv	a0,s0
    4054:	00812403          	lw	s0,8(sp)
    4058:	00412483          	lw	s1,4(sp)
    405c:	00012903          	lw	s2,0(sp)
    4060:	01010113          	addi	sp,sp,16
    4064:	00008067          	ret

00004068 <__sfp>:
    4068:	fe010113          	addi	sp,sp,-32
    406c:	000207b7          	lui	a5,0x20
    4070:	01212823          	sw	s2,16(sp)
    4074:	0107a903          	lw	s2,16(a5) # 20010 <_global_impure_ptr>
    4078:	01312623          	sw	s3,12(sp)
    407c:	00112e23          	sw	ra,28(sp)
    4080:	03892783          	lw	a5,56(s2)
    4084:	00812c23          	sw	s0,24(sp)
    4088:	00912a23          	sw	s1,20(sp)
    408c:	01412423          	sw	s4,8(sp)
    4090:	00050993          	mv	s3,a0
    4094:	0a078a63          	beqz	a5,4148 <__sfp+0xe0>
    4098:	2e090913          	addi	s2,s2,736
    409c:	fff00493          	li	s1,-1
    40a0:	00400a13          	li	s4,4
    40a4:	00492783          	lw	a5,4(s2)
    40a8:	00892403          	lw	s0,8(s2)
    40ac:	fff78793          	addi	a5,a5,-1
    40b0:	0007d863          	bgez	a5,40c0 <__sfp+0x58>
    40b4:	0840006f          	j	4138 <__sfp+0xd0>
    40b8:	06840413          	addi	s0,s0,104
    40bc:	06978e63          	beq	a5,s1,4138 <__sfp+0xd0>
    40c0:	00c41703          	lh	a4,12(s0)
    40c4:	fff78793          	addi	a5,a5,-1
    40c8:	fe0718e3          	bnez	a4,40b8 <__sfp+0x50>
    40cc:	ffff07b7          	lui	a5,0xffff0
    40d0:	00178793          	addi	a5,a5,1 # ffff0001 <_stack+0xfffb0001>
    40d4:	06042223          	sw	zero,100(s0)
    40d8:	00042023          	sw	zero,0(s0)
    40dc:	00042223          	sw	zero,4(s0)
    40e0:	00042423          	sw	zero,8(s0)
    40e4:	00f42623          	sw	a5,12(s0)
    40e8:	00042823          	sw	zero,16(s0)
    40ec:	00042a23          	sw	zero,20(s0)
    40f0:	00042c23          	sw	zero,24(s0)
    40f4:	00800613          	li	a2,8
    40f8:	00000593          	li	a1,0
    40fc:	05c40513          	addi	a0,s0,92
    4100:	59c040ef          	jal	ra,869c <memset>
    4104:	02042823          	sw	zero,48(s0)
    4108:	02042a23          	sw	zero,52(s0)
    410c:	04042223          	sw	zero,68(s0)
    4110:	04042423          	sw	zero,72(s0)
    4114:	01c12083          	lw	ra,28(sp)
    4118:	00040513          	mv	a0,s0
    411c:	01812403          	lw	s0,24(sp)
    4120:	01412483          	lw	s1,20(sp)
    4124:	01012903          	lw	s2,16(sp)
    4128:	00c12983          	lw	s3,12(sp)
    412c:	00812a03          	lw	s4,8(sp)
    4130:	02010113          	addi	sp,sp,32
    4134:	00008067          	ret
    4138:	00092403          	lw	s0,0(s2)
    413c:	00040c63          	beqz	s0,4154 <__sfp+0xec>
    4140:	00040913          	mv	s2,s0
    4144:	f61ff06f          	j	40a4 <__sfp+0x3c>
    4148:	00090513          	mv	a0,s2
    414c:	d2dff0ef          	jal	ra,3e78 <__sinit.part.0>
    4150:	f49ff06f          	j	4098 <__sfp+0x30>
    4154:	1ac00593          	li	a1,428
    4158:	00098513          	mv	a0,s3
    415c:	1f1030ef          	jal	ra,7b4c <_malloc_r>
    4160:	00050413          	mv	s0,a0
    4164:	02050663          	beqz	a0,4190 <__sfp+0x128>
    4168:	00c50513          	addi	a0,a0,12
    416c:	00042023          	sw	zero,0(s0)
    4170:	01442223          	sw	s4,4(s0)
    4174:	00a42423          	sw	a0,8(s0)
    4178:	1a000613          	li	a2,416
    417c:	00000593          	li	a1,0
    4180:	51c040ef          	jal	ra,869c <memset>
    4184:	00892023          	sw	s0,0(s2)
    4188:	00040913          	mv	s2,s0
    418c:	f19ff06f          	j	40a4 <__sfp+0x3c>
    4190:	00092023          	sw	zero,0(s2)
    4194:	00c00793          	li	a5,12
    4198:	00f9a023          	sw	a5,0(s3)
    419c:	f79ff06f          	j	4114 <__sfp+0xac>

000041a0 <_cleanup>:
    41a0:	000207b7          	lui	a5,0x20
    41a4:	0107a503          	lw	a0,16(a5) # 20010 <_global_impure_ptr>
    41a8:	0000e5b7          	lui	a1,0xe
    41ac:	54c58593          	addi	a1,a1,1356 # e54c <_fclose_r>
    41b0:	1f50006f          	j	4ba4 <_fwalk_reent>

000041b4 <__sinit>:
    41b4:	03852783          	lw	a5,56(a0)
    41b8:	00078463          	beqz	a5,41c0 <__sinit+0xc>
    41bc:	00008067          	ret
    41c0:	cb9ff06f          	j	3e78 <__sinit.part.0>

000041c4 <__sfp_lock_acquire>:
    41c4:	00008067          	ret

000041c8 <__sfp_lock_release>:
    41c8:	00008067          	ret

000041cc <__sinit_lock_acquire>:
    41cc:	00008067          	ret

000041d0 <__sinit_lock_release>:
    41d0:	00008067          	ret

000041d4 <__fp_lock_all>:
    41d4:	000207b7          	lui	a5,0x20
    41d8:	0307a503          	lw	a0,48(a5) # 20030 <_impure_ptr>
    41dc:	000045b7          	lui	a1,0x4
    41e0:	e5c58593          	addi	a1,a1,-420 # 3e5c <__fp_lock>
    41e4:	11d0006f          	j	4b00 <_fwalk>

000041e8 <__fp_unlock_all>:
    41e8:	000207b7          	lui	a5,0x20
    41ec:	0307a503          	lw	a0,48(a5) # 20030 <_impure_ptr>
    41f0:	000045b7          	lui	a1,0x4
    41f4:	e7058593          	addi	a1,a1,-400 # 3e70 <__fp_unlock>
    41f8:	1090006f          	j	4b00 <_fwalk>

000041fc <_malloc_trim_r>:
    41fc:	fe010113          	addi	sp,sp,-32
    4200:	01312623          	sw	s3,12(sp)
    4204:	000219b7          	lui	s3,0x21
    4208:	00812c23          	sw	s0,24(sp)
    420c:	00912a23          	sw	s1,20(sp)
    4210:	01212823          	sw	s2,16(sp)
    4214:	01412423          	sw	s4,8(sp)
    4218:	00112e23          	sw	ra,28(sp)
    421c:	00058a13          	mv	s4,a1
    4220:	00050913          	mv	s2,a0
    4224:	4d498993          	addi	s3,s3,1236 # 214d4 <__malloc_av_>
    4228:	550040ef          	jal	ra,8778 <__malloc_lock>
    422c:	0089a703          	lw	a4,8(s3)
    4230:	000017b7          	lui	a5,0x1
    4234:	fef78413          	addi	s0,a5,-17 # fef <_vfprintf_r+0x29f>
    4238:	00472483          	lw	s1,4(a4)
    423c:	41440433          	sub	s0,s0,s4
    4240:	ffc4f493          	andi	s1,s1,-4
    4244:	00940433          	add	s0,s0,s1
    4248:	00c45413          	srli	s0,s0,0xc
    424c:	fff40413          	addi	s0,s0,-1
    4250:	00c41413          	slli	s0,s0,0xc
    4254:	00f44e63          	blt	s0,a5,4270 <_malloc_trim_r+0x74>
    4258:	00000593          	li	a1,0
    425c:	00090513          	mv	a0,s2
    4260:	47d050ef          	jal	ra,9edc <_sbrk_r>
    4264:	0089a783          	lw	a5,8(s3)
    4268:	009787b3          	add	a5,a5,s1
    426c:	02f50863          	beq	a0,a5,429c <_malloc_trim_r+0xa0>
    4270:	00090513          	mv	a0,s2
    4274:	508040ef          	jal	ra,877c <__malloc_unlock>
    4278:	01c12083          	lw	ra,28(sp)
    427c:	01812403          	lw	s0,24(sp)
    4280:	01412483          	lw	s1,20(sp)
    4284:	01012903          	lw	s2,16(sp)
    4288:	00c12983          	lw	s3,12(sp)
    428c:	00812a03          	lw	s4,8(sp)
    4290:	00000513          	li	a0,0
    4294:	02010113          	addi	sp,sp,32
    4298:	00008067          	ret
    429c:	408005b3          	neg	a1,s0
    42a0:	00090513          	mv	a0,s2
    42a4:	439050ef          	jal	ra,9edc <_sbrk_r>
    42a8:	fff00793          	li	a5,-1
    42ac:	04f50a63          	beq	a0,a5,4300 <_malloc_trim_r+0x104>
    42b0:	000227b7          	lui	a5,0x22
    42b4:	8f478793          	addi	a5,a5,-1804 # 218f4 <__malloc_current_mallinfo>
    42b8:	0007a703          	lw	a4,0(a5)
    42bc:	0089a683          	lw	a3,8(s3)
    42c0:	408484b3          	sub	s1,s1,s0
    42c4:	0014e493          	ori	s1,s1,1
    42c8:	40870733          	sub	a4,a4,s0
    42cc:	00090513          	mv	a0,s2
    42d0:	0096a223          	sw	s1,4(a3) # 1004 <_vfprintf_r+0x2b4>
    42d4:	00e7a023          	sw	a4,0(a5)
    42d8:	4a4040ef          	jal	ra,877c <__malloc_unlock>
    42dc:	01c12083          	lw	ra,28(sp)
    42e0:	01812403          	lw	s0,24(sp)
    42e4:	01412483          	lw	s1,20(sp)
    42e8:	01012903          	lw	s2,16(sp)
    42ec:	00c12983          	lw	s3,12(sp)
    42f0:	00812a03          	lw	s4,8(sp)
    42f4:	00100513          	li	a0,1
    42f8:	02010113          	addi	sp,sp,32
    42fc:	00008067          	ret
    4300:	00000593          	li	a1,0
    4304:	00090513          	mv	a0,s2
    4308:	3d5050ef          	jal	ra,9edc <_sbrk_r>
    430c:	0089a703          	lw	a4,8(s3)
    4310:	00f00693          	li	a3,15
    4314:	40e507b3          	sub	a5,a0,a4
    4318:	f4f6dce3          	bge	a3,a5,4270 <_malloc_trim_r+0x74>
    431c:	000206b7          	lui	a3,0x20
    4320:	0346a683          	lw	a3,52(a3) # 20034 <__malloc_sbrk_base>
    4324:	0017e793          	ori	a5,a5,1
    4328:	00f72223          	sw	a5,4(a4)
    432c:	40d50533          	sub	a0,a0,a3
    4330:	000226b7          	lui	a3,0x22
    4334:	8ea6aa23          	sw	a0,-1804(a3) # 218f4 <__malloc_current_mallinfo>
    4338:	f39ff06f          	j	4270 <_malloc_trim_r+0x74>

0000433c <_free_r>:
    433c:	12058a63          	beqz	a1,4470 <_free_r+0x134>
    4340:	ff010113          	addi	sp,sp,-16
    4344:	00812423          	sw	s0,8(sp)
    4348:	00912223          	sw	s1,4(sp)
    434c:	00058413          	mv	s0,a1
    4350:	00050493          	mv	s1,a0
    4354:	00112623          	sw	ra,12(sp)
    4358:	420040ef          	jal	ra,8778 <__malloc_lock>
    435c:	ffc42803          	lw	a6,-4(s0)
    4360:	ff840713          	addi	a4,s0,-8
    4364:	000215b7          	lui	a1,0x21
    4368:	ffe87793          	andi	a5,a6,-2
    436c:	00f70633          	add	a2,a4,a5
    4370:	4d458593          	addi	a1,a1,1236 # 214d4 <__malloc_av_>
    4374:	00462683          	lw	a3,4(a2)
    4378:	0085a503          	lw	a0,8(a1)
    437c:	ffc6f693          	andi	a3,a3,-4
    4380:	1ac50a63          	beq	a0,a2,4534 <_free_r+0x1f8>
    4384:	00d62223          	sw	a3,4(a2)
    4388:	00187813          	andi	a6,a6,1
    438c:	00d60533          	add	a0,a2,a3
    4390:	0a081063          	bnez	a6,4430 <_free_r+0xf4>
    4394:	ff842303          	lw	t1,-8(s0)
    4398:	00452803          	lw	a6,4(a0)
    439c:	00021537          	lui	a0,0x21
    43a0:	40670733          	sub	a4,a4,t1
    43a4:	00872883          	lw	a7,8(a4)
    43a8:	4dc50513          	addi	a0,a0,1244 # 214dc <__malloc_av_+0x8>
    43ac:	006787b3          	add	a5,a5,t1
    43b0:	00187813          	andi	a6,a6,1
    43b4:	14a88063          	beq	a7,a0,44f4 <_free_r+0x1b8>
    43b8:	00c72303          	lw	t1,12(a4)
    43bc:	0068a623          	sw	t1,12(a7)
    43c0:	01132423          	sw	a7,8(t1)
    43c4:	1e080463          	beqz	a6,45ac <_free_r+0x270>
    43c8:	0017e693          	ori	a3,a5,1
    43cc:	00d72223          	sw	a3,4(a4)
    43d0:	00f62023          	sw	a5,0(a2)
    43d4:	1ff00693          	li	a3,511
    43d8:	0af6e863          	bltu	a3,a5,4488 <_free_r+0x14c>
    43dc:	ff87f693          	andi	a3,a5,-8
    43e0:	00868693          	addi	a3,a3,8
    43e4:	0045a503          	lw	a0,4(a1)
    43e8:	00d586b3          	add	a3,a1,a3
    43ec:	0006a603          	lw	a2,0(a3)
    43f0:	0057d813          	srli	a6,a5,0x5
    43f4:	00100793          	li	a5,1
    43f8:	010797b3          	sll	a5,a5,a6
    43fc:	00a7e7b3          	or	a5,a5,a0
    4400:	ff868513          	addi	a0,a3,-8
    4404:	00a72623          	sw	a0,12(a4)
    4408:	00c72423          	sw	a2,8(a4)
    440c:	00f5a223          	sw	a5,4(a1)
    4410:	00e6a023          	sw	a4,0(a3)
    4414:	00e62623          	sw	a4,12(a2)
    4418:	00812403          	lw	s0,8(sp)
    441c:	00c12083          	lw	ra,12(sp)
    4420:	00048513          	mv	a0,s1
    4424:	00412483          	lw	s1,4(sp)
    4428:	01010113          	addi	sp,sp,16
    442c:	3500406f          	j	877c <__malloc_unlock>
    4430:	00452503          	lw	a0,4(a0)
    4434:	00157513          	andi	a0,a0,1
    4438:	02051e63          	bnez	a0,4474 <_free_r+0x138>
    443c:	00021537          	lui	a0,0x21
    4440:	00d787b3          	add	a5,a5,a3
    4444:	4dc50513          	addi	a0,a0,1244 # 214dc <__malloc_av_+0x8>
    4448:	00862683          	lw	a3,8(a2)
    444c:	0017e893          	ori	a7,a5,1
    4450:	00f70833          	add	a6,a4,a5
    4454:	16a68863          	beq	a3,a0,45c4 <_free_r+0x288>
    4458:	00c62603          	lw	a2,12(a2)
    445c:	00c6a623          	sw	a2,12(a3)
    4460:	00d62423          	sw	a3,8(a2)
    4464:	01172223          	sw	a7,4(a4)
    4468:	00f82023          	sw	a5,0(a6)
    446c:	f69ff06f          	j	43d4 <_free_r+0x98>
    4470:	00008067          	ret
    4474:	0017e693          	ori	a3,a5,1
    4478:	fed42e23          	sw	a3,-4(s0)
    447c:	00f62023          	sw	a5,0(a2)
    4480:	1ff00693          	li	a3,511
    4484:	f4f6fce3          	bgeu	a3,a5,43dc <_free_r+0xa0>
    4488:	0097d693          	srli	a3,a5,0x9
    448c:	00400613          	li	a2,4
    4490:	0ed66c63          	bltu	a2,a3,4588 <_free_r+0x24c>
    4494:	0067d693          	srli	a3,a5,0x6
    4498:	03968813          	addi	a6,a3,57
    449c:	03868613          	addi	a2,a3,56
    44a0:	00381813          	slli	a6,a6,0x3
    44a4:	01058833          	add	a6,a1,a6
    44a8:	00082683          	lw	a3,0(a6)
    44ac:	ff880813          	addi	a6,a6,-8
    44b0:	12d80863          	beq	a6,a3,45e0 <_free_r+0x2a4>
    44b4:	0046a603          	lw	a2,4(a3)
    44b8:	ffc67613          	andi	a2,a2,-4
    44bc:	00c7f663          	bgeu	a5,a2,44c8 <_free_r+0x18c>
    44c0:	0086a683          	lw	a3,8(a3)
    44c4:	fed818e3          	bne	a6,a3,44b4 <_free_r+0x178>
    44c8:	00c6a803          	lw	a6,12(a3)
    44cc:	01072623          	sw	a6,12(a4)
    44d0:	00d72423          	sw	a3,8(a4)
    44d4:	00812403          	lw	s0,8(sp)
    44d8:	00c12083          	lw	ra,12(sp)
    44dc:	00e82423          	sw	a4,8(a6)
    44e0:	00048513          	mv	a0,s1
    44e4:	00412483          	lw	s1,4(sp)
    44e8:	00e6a623          	sw	a4,12(a3)
    44ec:	01010113          	addi	sp,sp,16
    44f0:	28c0406f          	j	877c <__malloc_unlock>
    44f4:	14081663          	bnez	a6,4640 <_free_r+0x304>
    44f8:	00c62583          	lw	a1,12(a2)
    44fc:	00862603          	lw	a2,8(a2)
    4500:	00f686b3          	add	a3,a3,a5
    4504:	00812403          	lw	s0,8(sp)
    4508:	00b62623          	sw	a1,12(a2)
    450c:	00c5a423          	sw	a2,8(a1)
    4510:	0016e793          	ori	a5,a3,1
    4514:	00c12083          	lw	ra,12(sp)
    4518:	00f72223          	sw	a5,4(a4)
    451c:	00048513          	mv	a0,s1
    4520:	00d70733          	add	a4,a4,a3
    4524:	00412483          	lw	s1,4(sp)
    4528:	00d72023          	sw	a3,0(a4)
    452c:	01010113          	addi	sp,sp,16
    4530:	24c0406f          	j	877c <__malloc_unlock>
    4534:	00187813          	andi	a6,a6,1
    4538:	00d786b3          	add	a3,a5,a3
    453c:	02081063          	bnez	a6,455c <_free_r+0x220>
    4540:	ff842503          	lw	a0,-8(s0)
    4544:	40a70733          	sub	a4,a4,a0
    4548:	00c72783          	lw	a5,12(a4)
    454c:	00872603          	lw	a2,8(a4)
    4550:	00a686b3          	add	a3,a3,a0
    4554:	00f62623          	sw	a5,12(a2)
    4558:	00c7a423          	sw	a2,8(a5)
    455c:	000207b7          	lui	a5,0x20
    4560:	0016e613          	ori	a2,a3,1
    4564:	0387a783          	lw	a5,56(a5) # 20038 <__malloc_trim_threshold>
    4568:	00c72223          	sw	a2,4(a4)
    456c:	00e5a423          	sw	a4,8(a1)
    4570:	eaf6e4e3          	bltu	a3,a5,4418 <_free_r+0xdc>
    4574:	000227b7          	lui	a5,0x22
    4578:	8e87a583          	lw	a1,-1816(a5) # 218e8 <__malloc_top_pad>
    457c:	00048513          	mv	a0,s1
    4580:	c7dff0ef          	jal	ra,41fc <_malloc_trim_r>
    4584:	e95ff06f          	j	4418 <_free_r+0xdc>
    4588:	01400613          	li	a2,20
    458c:	02d67463          	bgeu	a2,a3,45b4 <_free_r+0x278>
    4590:	05400613          	li	a2,84
    4594:	06d66463          	bltu	a2,a3,45fc <_free_r+0x2c0>
    4598:	00c7d693          	srli	a3,a5,0xc
    459c:	06f68813          	addi	a6,a3,111
    45a0:	06e68613          	addi	a2,a3,110
    45a4:	00381813          	slli	a6,a6,0x3
    45a8:	efdff06f          	j	44a4 <_free_r+0x168>
    45ac:	00d787b3          	add	a5,a5,a3
    45b0:	e99ff06f          	j	4448 <_free_r+0x10c>
    45b4:	05c68813          	addi	a6,a3,92
    45b8:	05b68613          	addi	a2,a3,91
    45bc:	00381813          	slli	a6,a6,0x3
    45c0:	ee5ff06f          	j	44a4 <_free_r+0x168>
    45c4:	00e5aa23          	sw	a4,20(a1)
    45c8:	00e5a823          	sw	a4,16(a1)
    45cc:	00a72623          	sw	a0,12(a4)
    45d0:	00a72423          	sw	a0,8(a4)
    45d4:	01172223          	sw	a7,4(a4)
    45d8:	00f82023          	sw	a5,0(a6)
    45dc:	e3dff06f          	j	4418 <_free_r+0xdc>
    45e0:	0045a503          	lw	a0,4(a1)
    45e4:	40265613          	srai	a2,a2,0x2
    45e8:	00100793          	li	a5,1
    45ec:	00c797b3          	sll	a5,a5,a2
    45f0:	00a7e7b3          	or	a5,a5,a0
    45f4:	00f5a223          	sw	a5,4(a1)
    45f8:	ed5ff06f          	j	44cc <_free_r+0x190>
    45fc:	15400613          	li	a2,340
    4600:	00d66c63          	bltu	a2,a3,4618 <_free_r+0x2dc>
    4604:	00f7d693          	srli	a3,a5,0xf
    4608:	07868813          	addi	a6,a3,120
    460c:	07768613          	addi	a2,a3,119
    4610:	00381813          	slli	a6,a6,0x3
    4614:	e91ff06f          	j	44a4 <_free_r+0x168>
    4618:	55400613          	li	a2,1364
    461c:	00d66c63          	bltu	a2,a3,4634 <_free_r+0x2f8>
    4620:	0127d693          	srli	a3,a5,0x12
    4624:	07d68813          	addi	a6,a3,125
    4628:	07c68613          	addi	a2,a3,124
    462c:	00381813          	slli	a6,a6,0x3
    4630:	e75ff06f          	j	44a4 <_free_r+0x168>
    4634:	3f800813          	li	a6,1016
    4638:	07e00613          	li	a2,126
    463c:	e69ff06f          	j	44a4 <_free_r+0x168>
    4640:	0017e693          	ori	a3,a5,1
    4644:	00d72223          	sw	a3,4(a4)
    4648:	00f62023          	sw	a5,0(a2)
    464c:	dcdff06f          	j	4418 <_free_r+0xdc>

00004650 <__sfvwrite_r>:
    4650:	00862783          	lw	a5,8(a2)
    4654:	32078063          	beqz	a5,4974 <__sfvwrite_r+0x324>
    4658:	00c5d683          	lhu	a3,12(a1)
    465c:	fd010113          	addi	sp,sp,-48
    4660:	02812423          	sw	s0,40(sp)
    4664:	01412c23          	sw	s4,24(sp)
    4668:	01712623          	sw	s7,12(sp)
    466c:	02112623          	sw	ra,44(sp)
    4670:	02912223          	sw	s1,36(sp)
    4674:	03212023          	sw	s2,32(sp)
    4678:	01312e23          	sw	s3,28(sp)
    467c:	01512a23          	sw	s5,20(sp)
    4680:	01612823          	sw	s6,16(sp)
    4684:	01812423          	sw	s8,8(sp)
    4688:	01912223          	sw	s9,4(sp)
    468c:	01a12023          	sw	s10,0(sp)
    4690:	0086f793          	andi	a5,a3,8
    4694:	00060b93          	mv	s7,a2
    4698:	00050a13          	mv	s4,a0
    469c:	00058413          	mv	s0,a1
    46a0:	08078663          	beqz	a5,472c <__sfvwrite_r+0xdc>
    46a4:	0105a783          	lw	a5,16(a1)
    46a8:	08078263          	beqz	a5,472c <__sfvwrite_r+0xdc>
    46ac:	0026f793          	andi	a5,a3,2
    46b0:	000ba483          	lw	s1,0(s7)
    46b4:	08078c63          	beqz	a5,474c <__sfvwrite_r+0xfc>
    46b8:	02442783          	lw	a5,36(s0)
    46bc:	01c42583          	lw	a1,28(s0)
    46c0:	80000ab7          	lui	s5,0x80000
    46c4:	00000993          	li	s3,0
    46c8:	00000913          	li	s2,0
    46cc:	c00aca93          	xori	s5,s5,-1024
    46d0:	00098613          	mv	a2,s3
    46d4:	000a0513          	mv	a0,s4
    46d8:	04090263          	beqz	s2,471c <__sfvwrite_r+0xcc>
    46dc:	00090693          	mv	a3,s2
    46e0:	012af463          	bgeu	s5,s2,46e8 <__sfvwrite_r+0x98>
    46e4:	000a8693          	mv	a3,s5
    46e8:	000780e7          	jalr	a5
    46ec:	26a05a63          	blez	a0,4960 <__sfvwrite_r+0x310>
    46f0:	008ba783          	lw	a5,8(s7)
    46f4:	00a989b3          	add	s3,s3,a0
    46f8:	40a90933          	sub	s2,s2,a0
    46fc:	40a787b3          	sub	a5,a5,a0
    4700:	00fba423          	sw	a5,8(s7)
    4704:	20078863          	beqz	a5,4914 <__sfvwrite_r+0x2c4>
    4708:	02442783          	lw	a5,36(s0)
    470c:	01c42583          	lw	a1,28(s0)
    4710:	00098613          	mv	a2,s3
    4714:	000a0513          	mv	a0,s4
    4718:	fc0912e3          	bnez	s2,46dc <__sfvwrite_r+0x8c>
    471c:	0004a983          	lw	s3,0(s1)
    4720:	0044a903          	lw	s2,4(s1)
    4724:	00848493          	addi	s1,s1,8
    4728:	fa9ff06f          	j	46d0 <__sfvwrite_r+0x80>
    472c:	00040593          	mv	a1,s0
    4730:	000a0513          	mv	a0,s4
    4734:	a74ff0ef          	jal	ra,39a8 <__swsetup_r>
    4738:	3c051063          	bnez	a0,4af8 <__sfvwrite_r+0x4a8>
    473c:	00c45683          	lhu	a3,12(s0)
    4740:	000ba483          	lw	s1,0(s7)
    4744:	0026f793          	andi	a5,a3,2
    4748:	f60798e3          	bnez	a5,46b8 <__sfvwrite_r+0x68>
    474c:	0016f793          	andi	a5,a3,1
    4750:	12079e63          	bnez	a5,488c <__sfvwrite_r+0x23c>
    4754:	00042783          	lw	a5,0(s0)
    4758:	00842703          	lw	a4,8(s0)
    475c:	80000ab7          	lui	s5,0x80000
    4760:	ffeacb13          	xori	s6,s5,-2
    4764:	00000c13          	li	s8,0
    4768:	00000993          	li	s3,0
    476c:	fffaca93          	not	s5,s5
    4770:	00078513          	mv	a0,a5
    4774:	00070c93          	mv	s9,a4
    4778:	10098263          	beqz	s3,487c <__sfvwrite_r+0x22c>
    477c:	2006f613          	andi	a2,a3,512
    4780:	24060e63          	beqz	a2,49dc <__sfvwrite_r+0x38c>
    4784:	00070d13          	mv	s10,a4
    4788:	2ee9e663          	bltu	s3,a4,4a74 <__sfvwrite_r+0x424>
    478c:	4806f713          	andi	a4,a3,1152
    4790:	08070a63          	beqz	a4,4824 <__sfvwrite_r+0x1d4>
    4794:	01442603          	lw	a2,20(s0)
    4798:	01042583          	lw	a1,16(s0)
    479c:	00161713          	slli	a4,a2,0x1
    47a0:	00c70733          	add	a4,a4,a2
    47a4:	40b78933          	sub	s2,a5,a1
    47a8:	01f75c93          	srli	s9,a4,0x1f
    47ac:	00ec8cb3          	add	s9,s9,a4
    47b0:	00190793          	addi	a5,s2,1
    47b4:	401cdc93          	srai	s9,s9,0x1
    47b8:	013787b3          	add	a5,a5,s3
    47bc:	000c8613          	mv	a2,s9
    47c0:	00fcf663          	bgeu	s9,a5,47cc <__sfvwrite_r+0x17c>
    47c4:	00078c93          	mv	s9,a5
    47c8:	00078613          	mv	a2,a5
    47cc:	4006f693          	andi	a3,a3,1024
    47d0:	2c068e63          	beqz	a3,4aac <__sfvwrite_r+0x45c>
    47d4:	00060593          	mv	a1,a2
    47d8:	000a0513          	mv	a0,s4
    47dc:	370030ef          	jal	ra,7b4c <_malloc_r>
    47e0:	00050d13          	mv	s10,a0
    47e4:	30050263          	beqz	a0,4ae8 <__sfvwrite_r+0x498>
    47e8:	01042583          	lw	a1,16(s0)
    47ec:	00090613          	mv	a2,s2
    47f0:	465030ef          	jal	ra,8454 <memcpy>
    47f4:	00c45783          	lhu	a5,12(s0)
    47f8:	b7f7f793          	andi	a5,a5,-1153
    47fc:	0807e793          	ori	a5,a5,128
    4800:	00f41623          	sh	a5,12(s0)
    4804:	012d0533          	add	a0,s10,s2
    4808:	412c87b3          	sub	a5,s9,s2
    480c:	01a42823          	sw	s10,16(s0)
    4810:	01942a23          	sw	s9,20(s0)
    4814:	00a42023          	sw	a0,0(s0)
    4818:	00098c93          	mv	s9,s3
    481c:	00f42423          	sw	a5,8(s0)
    4820:	00098d13          	mv	s10,s3
    4824:	000d0613          	mv	a2,s10
    4828:	000c0593          	mv	a1,s8
    482c:	551030ef          	jal	ra,857c <memmove>
    4830:	00842703          	lw	a4,8(s0)
    4834:	00042783          	lw	a5,0(s0)
    4838:	00098913          	mv	s2,s3
    483c:	41970733          	sub	a4,a4,s9
    4840:	01a787b3          	add	a5,a5,s10
    4844:	00e42423          	sw	a4,8(s0)
    4848:	00f42023          	sw	a5,0(s0)
    484c:	00000993          	li	s3,0
    4850:	008ba783          	lw	a5,8(s7)
    4854:	012c0c33          	add	s8,s8,s2
    4858:	412787b3          	sub	a5,a5,s2
    485c:	00fba423          	sw	a5,8(s7)
    4860:	0a078a63          	beqz	a5,4914 <__sfvwrite_r+0x2c4>
    4864:	00042783          	lw	a5,0(s0)
    4868:	00842703          	lw	a4,8(s0)
    486c:	00c45683          	lhu	a3,12(s0)
    4870:	00078513          	mv	a0,a5
    4874:	00070c93          	mv	s9,a4
    4878:	f00992e3          	bnez	s3,477c <__sfvwrite_r+0x12c>
    487c:	0004ac03          	lw	s8,0(s1)
    4880:	0044a983          	lw	s3,4(s1)
    4884:	00848493          	addi	s1,s1,8
    4888:	ee9ff06f          	j	4770 <__sfvwrite_r+0x120>
    488c:	00000a93          	li	s5,0
    4890:	00000513          	li	a0,0
    4894:	00000c13          	li	s8,0
    4898:	00000993          	li	s3,0
    489c:	0e098063          	beqz	s3,497c <__sfvwrite_r+0x32c>
    48a0:	0e050863          	beqz	a0,4990 <__sfvwrite_r+0x340>
    48a4:	000a8793          	mv	a5,s5
    48a8:	00098b13          	mv	s6,s3
    48ac:	0137f463          	bgeu	a5,s3,48b4 <__sfvwrite_r+0x264>
    48b0:	00078b13          	mv	s6,a5
    48b4:	00042503          	lw	a0,0(s0)
    48b8:	01042783          	lw	a5,16(s0)
    48bc:	00842903          	lw	s2,8(s0)
    48c0:	01442683          	lw	a3,20(s0)
    48c4:	00a7f663          	bgeu	a5,a0,48d0 <__sfvwrite_r+0x280>
    48c8:	00d90933          	add	s2,s2,a3
    48cc:	0f694263          	blt	s2,s6,49b0 <__sfvwrite_r+0x360>
    48d0:	1adb4863          	blt	s6,a3,4a80 <__sfvwrite_r+0x430>
    48d4:	02442783          	lw	a5,36(s0)
    48d8:	01c42583          	lw	a1,28(s0)
    48dc:	000c0613          	mv	a2,s8
    48e0:	000a0513          	mv	a0,s4
    48e4:	000780e7          	jalr	a5
    48e8:	00050913          	mv	s2,a0
    48ec:	06a05a63          	blez	a0,4960 <__sfvwrite_r+0x310>
    48f0:	412a8ab3          	sub	s5,s5,s2
    48f4:	00100513          	li	a0,1
    48f8:	040a8c63          	beqz	s5,4950 <__sfvwrite_r+0x300>
    48fc:	008ba783          	lw	a5,8(s7)
    4900:	012c0c33          	add	s8,s8,s2
    4904:	412989b3          	sub	s3,s3,s2
    4908:	412787b3          	sub	a5,a5,s2
    490c:	00fba423          	sw	a5,8(s7)
    4910:	f80796e3          	bnez	a5,489c <__sfvwrite_r+0x24c>
    4914:	00000513          	li	a0,0
    4918:	02c12083          	lw	ra,44(sp)
    491c:	02812403          	lw	s0,40(sp)
    4920:	02412483          	lw	s1,36(sp)
    4924:	02012903          	lw	s2,32(sp)
    4928:	01c12983          	lw	s3,28(sp)
    492c:	01812a03          	lw	s4,24(sp)
    4930:	01412a83          	lw	s5,20(sp)
    4934:	01012b03          	lw	s6,16(sp)
    4938:	00c12b83          	lw	s7,12(sp)
    493c:	00812c03          	lw	s8,8(sp)
    4940:	00412c83          	lw	s9,4(sp)
    4944:	00012d03          	lw	s10,0(sp)
    4948:	03010113          	addi	sp,sp,48
    494c:	00008067          	ret
    4950:	00040593          	mv	a1,s0
    4954:	000a0513          	mv	a0,s4
    4958:	c20ff0ef          	jal	ra,3d78 <_fflush_r>
    495c:	fa0500e3          	beqz	a0,48fc <__sfvwrite_r+0x2ac>
    4960:	00c41783          	lh	a5,12(s0)
    4964:	0407e793          	ori	a5,a5,64
    4968:	00f41623          	sh	a5,12(s0)
    496c:	fff00513          	li	a0,-1
    4970:	fa9ff06f          	j	4918 <__sfvwrite_r+0x2c8>
    4974:	00000513          	li	a0,0
    4978:	00008067          	ret
    497c:	0044a983          	lw	s3,4(s1)
    4980:	00048793          	mv	a5,s1
    4984:	00848493          	addi	s1,s1,8
    4988:	fe098ae3          	beqz	s3,497c <__sfvwrite_r+0x32c>
    498c:	0007ac03          	lw	s8,0(a5)
    4990:	00098613          	mv	a2,s3
    4994:	00a00593          	li	a1,10
    4998:	000c0513          	mv	a0,s8
    499c:	1f1030ef          	jal	ra,838c <memchr>
    49a0:	12050e63          	beqz	a0,4adc <__sfvwrite_r+0x48c>
    49a4:	00150513          	addi	a0,a0,1
    49a8:	41850ab3          	sub	s5,a0,s8
    49ac:	ef9ff06f          	j	48a4 <__sfvwrite_r+0x254>
    49b0:	000c0593          	mv	a1,s8
    49b4:	00090613          	mv	a2,s2
    49b8:	3c5030ef          	jal	ra,857c <memmove>
    49bc:	00042783          	lw	a5,0(s0)
    49c0:	00040593          	mv	a1,s0
    49c4:	000a0513          	mv	a0,s4
    49c8:	012787b3          	add	a5,a5,s2
    49cc:	00f42023          	sw	a5,0(s0)
    49d0:	ba8ff0ef          	jal	ra,3d78 <_fflush_r>
    49d4:	f0050ee3          	beqz	a0,48f0 <__sfvwrite_r+0x2a0>
    49d8:	f89ff06f          	j	4960 <__sfvwrite_r+0x310>
    49dc:	01042683          	lw	a3,16(s0)
    49e0:	04f6e263          	bltu	a3,a5,4a24 <__sfvwrite_r+0x3d4>
    49e4:	01442803          	lw	a6,20(s0)
    49e8:	0309ee63          	bltu	s3,a6,4a24 <__sfvwrite_r+0x3d4>
    49ec:	00098693          	mv	a3,s3
    49f0:	013b7463          	bgeu	s6,s3,49f8 <__sfvwrite_r+0x3a8>
    49f4:	000a8693          	mv	a3,s5
    49f8:	0306c6b3          	div	a3,a3,a6
    49fc:	02442783          	lw	a5,36(s0)
    4a00:	01c42583          	lw	a1,28(s0)
    4a04:	000c0613          	mv	a2,s8
    4a08:	000a0513          	mv	a0,s4
    4a0c:	030686b3          	mul	a3,a3,a6
    4a10:	000780e7          	jalr	a5
    4a14:	00050913          	mv	s2,a0
    4a18:	f4a054e3          	blez	a0,4960 <__sfvwrite_r+0x310>
    4a1c:	412989b3          	sub	s3,s3,s2
    4a20:	e31ff06f          	j	4850 <__sfvwrite_r+0x200>
    4a24:	00070913          	mv	s2,a4
    4a28:	00e9f463          	bgeu	s3,a4,4a30 <__sfvwrite_r+0x3e0>
    4a2c:	00098913          	mv	s2,s3
    4a30:	00078513          	mv	a0,a5
    4a34:	00090613          	mv	a2,s2
    4a38:	000c0593          	mv	a1,s8
    4a3c:	341030ef          	jal	ra,857c <memmove>
    4a40:	00842703          	lw	a4,8(s0)
    4a44:	00042783          	lw	a5,0(s0)
    4a48:	41270733          	sub	a4,a4,s2
    4a4c:	012787b3          	add	a5,a5,s2
    4a50:	00e42423          	sw	a4,8(s0)
    4a54:	00f42023          	sw	a5,0(s0)
    4a58:	fc0712e3          	bnez	a4,4a1c <__sfvwrite_r+0x3cc>
    4a5c:	00040593          	mv	a1,s0
    4a60:	000a0513          	mv	a0,s4
    4a64:	b14ff0ef          	jal	ra,3d78 <_fflush_r>
    4a68:	ee051ce3          	bnez	a0,4960 <__sfvwrite_r+0x310>
    4a6c:	412989b3          	sub	s3,s3,s2
    4a70:	de1ff06f          	j	4850 <__sfvwrite_r+0x200>
    4a74:	00098c93          	mv	s9,s3
    4a78:	00098d13          	mv	s10,s3
    4a7c:	da9ff06f          	j	4824 <__sfvwrite_r+0x1d4>
    4a80:	000b0613          	mv	a2,s6
    4a84:	000c0593          	mv	a1,s8
    4a88:	2f5030ef          	jal	ra,857c <memmove>
    4a8c:	00842703          	lw	a4,8(s0)
    4a90:	00042783          	lw	a5,0(s0)
    4a94:	000b0913          	mv	s2,s6
    4a98:	41670733          	sub	a4,a4,s6
    4a9c:	016787b3          	add	a5,a5,s6
    4aa0:	00e42423          	sw	a4,8(s0)
    4aa4:	00f42023          	sw	a5,0(s0)
    4aa8:	e49ff06f          	j	48f0 <__sfvwrite_r+0x2a0>
    4aac:	000a0513          	mv	a0,s4
    4ab0:	6d1040ef          	jal	ra,9980 <_realloc_r>
    4ab4:	00050d13          	mv	s10,a0
    4ab8:	d40516e3          	bnez	a0,4804 <__sfvwrite_r+0x1b4>
    4abc:	01042583          	lw	a1,16(s0)
    4ac0:	000a0513          	mv	a0,s4
    4ac4:	879ff0ef          	jal	ra,433c <_free_r>
    4ac8:	00c41783          	lh	a5,12(s0)
    4acc:	00c00713          	li	a4,12
    4ad0:	00ea2023          	sw	a4,0(s4)
    4ad4:	f7f7f793          	andi	a5,a5,-129
    4ad8:	e8dff06f          	j	4964 <__sfvwrite_r+0x314>
    4adc:	00198793          	addi	a5,s3,1
    4ae0:	00078a93          	mv	s5,a5
    4ae4:	dc5ff06f          	j	48a8 <__sfvwrite_r+0x258>
    4ae8:	00c00713          	li	a4,12
    4aec:	00c41783          	lh	a5,12(s0)
    4af0:	00ea2023          	sw	a4,0(s4)
    4af4:	e71ff06f          	j	4964 <__sfvwrite_r+0x314>
    4af8:	fff00513          	li	a0,-1
    4afc:	e1dff06f          	j	4918 <__sfvwrite_r+0x2c8>

00004b00 <_fwalk>:
    4b00:	fe010113          	addi	sp,sp,-32
    4b04:	01212823          	sw	s2,16(sp)
    4b08:	01312623          	sw	s3,12(sp)
    4b0c:	01412423          	sw	s4,8(sp)
    4b10:	01512223          	sw	s5,4(sp)
    4b14:	01612023          	sw	s6,0(sp)
    4b18:	00112e23          	sw	ra,28(sp)
    4b1c:	00812c23          	sw	s0,24(sp)
    4b20:	00912a23          	sw	s1,20(sp)
    4b24:	00058b13          	mv	s6,a1
    4b28:	2e050a93          	addi	s5,a0,736
    4b2c:	00000a13          	li	s4,0
    4b30:	00100993          	li	s3,1
    4b34:	fff00913          	li	s2,-1
    4b38:	004aa483          	lw	s1,4(s5) # 80000004 <_stack+0x7ffc0004>
    4b3c:	008aa403          	lw	s0,8(s5)
    4b40:	fff48493          	addi	s1,s1,-1
    4b44:	0204c663          	bltz	s1,4b70 <_fwalk+0x70>
    4b48:	00c45783          	lhu	a5,12(s0)
    4b4c:	fff48493          	addi	s1,s1,-1
    4b50:	00f9fc63          	bgeu	s3,a5,4b68 <_fwalk+0x68>
    4b54:	00e41783          	lh	a5,14(s0)
    4b58:	00040513          	mv	a0,s0
    4b5c:	01278663          	beq	a5,s2,4b68 <_fwalk+0x68>
    4b60:	000b00e7          	jalr	s6
    4b64:	00aa6a33          	or	s4,s4,a0
    4b68:	06840413          	addi	s0,s0,104
    4b6c:	fd249ee3          	bne	s1,s2,4b48 <_fwalk+0x48>
    4b70:	000aaa83          	lw	s5,0(s5)
    4b74:	fc0a92e3          	bnez	s5,4b38 <_fwalk+0x38>
    4b78:	01c12083          	lw	ra,28(sp)
    4b7c:	01812403          	lw	s0,24(sp)
    4b80:	01412483          	lw	s1,20(sp)
    4b84:	01012903          	lw	s2,16(sp)
    4b88:	00c12983          	lw	s3,12(sp)
    4b8c:	00412a83          	lw	s5,4(sp)
    4b90:	00012b03          	lw	s6,0(sp)
    4b94:	000a0513          	mv	a0,s4
    4b98:	00812a03          	lw	s4,8(sp)
    4b9c:	02010113          	addi	sp,sp,32
    4ba0:	00008067          	ret

00004ba4 <_fwalk_reent>:
    4ba4:	fd010113          	addi	sp,sp,-48
    4ba8:	03212023          	sw	s2,32(sp)
    4bac:	01312e23          	sw	s3,28(sp)
    4bb0:	01412c23          	sw	s4,24(sp)
    4bb4:	01512a23          	sw	s5,20(sp)
    4bb8:	01612823          	sw	s6,16(sp)
    4bbc:	01712623          	sw	s7,12(sp)
    4bc0:	02112623          	sw	ra,44(sp)
    4bc4:	02812423          	sw	s0,40(sp)
    4bc8:	02912223          	sw	s1,36(sp)
    4bcc:	00050a93          	mv	s5,a0
    4bd0:	00058b93          	mv	s7,a1
    4bd4:	2e050b13          	addi	s6,a0,736
    4bd8:	00000a13          	li	s4,0
    4bdc:	00100993          	li	s3,1
    4be0:	fff00913          	li	s2,-1
    4be4:	004b2483          	lw	s1,4(s6)
    4be8:	008b2403          	lw	s0,8(s6)
    4bec:	fff48493          	addi	s1,s1,-1
    4bf0:	0204c863          	bltz	s1,4c20 <_fwalk_reent+0x7c>
    4bf4:	00c45783          	lhu	a5,12(s0)
    4bf8:	fff48493          	addi	s1,s1,-1
    4bfc:	00f9fe63          	bgeu	s3,a5,4c18 <_fwalk_reent+0x74>
    4c00:	00e41783          	lh	a5,14(s0)
    4c04:	00040593          	mv	a1,s0
    4c08:	000a8513          	mv	a0,s5
    4c0c:	01278663          	beq	a5,s2,4c18 <_fwalk_reent+0x74>
    4c10:	000b80e7          	jalr	s7
    4c14:	00aa6a33          	or	s4,s4,a0
    4c18:	06840413          	addi	s0,s0,104
    4c1c:	fd249ce3          	bne	s1,s2,4bf4 <_fwalk_reent+0x50>
    4c20:	000b2b03          	lw	s6,0(s6)
    4c24:	fc0b10e3          	bnez	s6,4be4 <_fwalk_reent+0x40>
    4c28:	02c12083          	lw	ra,44(sp)
    4c2c:	02812403          	lw	s0,40(sp)
    4c30:	02412483          	lw	s1,36(sp)
    4c34:	02012903          	lw	s2,32(sp)
    4c38:	01c12983          	lw	s3,28(sp)
    4c3c:	01412a83          	lw	s5,20(sp)
    4c40:	01012b03          	lw	s6,16(sp)
    4c44:	00c12b83          	lw	s7,12(sp)
    4c48:	000a0513          	mv	a0,s4
    4c4c:	01812a03          	lw	s4,24(sp)
    4c50:	03010113          	addi	sp,sp,48
    4c54:	00008067          	ret

00004c58 <eshdn1>:
    4c58:	00450693          	addi	a3,a0,4
    4c5c:	00000793          	li	a5,0
    4c60:	01a50513          	addi	a0,a0,26
    4c64:	ffff8837          	lui	a6,0xffff8
    4c68:	01c0006f          	j	4c84 <eshdn1+0x2c>
    4c6c:	00179793          	slli	a5,a5,0x1
    4c70:	00e69023          	sh	a4,0(a3)
    4c74:	01079793          	slli	a5,a5,0x10
    4c78:	00268693          	addi	a3,a3,2
    4c7c:	0107d793          	srli	a5,a5,0x10
    4c80:	02d50e63          	beq	a0,a3,4cbc <eshdn1+0x64>
    4c84:	0006d703          	lhu	a4,0(a3)
    4c88:	00177613          	andi	a2,a4,1
    4c8c:	00060463          	beqz	a2,4c94 <eshdn1+0x3c>
    4c90:	0017e793          	ori	a5,a5,1
    4c94:	00175713          	srli	a4,a4,0x1
    4c98:	0027f613          	andi	a2,a5,2
    4c9c:	010765b3          	or	a1,a4,a6
    4ca0:	fc0606e3          	beqz	a2,4c6c <eshdn1+0x14>
    4ca4:	00179793          	slli	a5,a5,0x1
    4ca8:	00b69023          	sh	a1,0(a3)
    4cac:	01079793          	slli	a5,a5,0x10
    4cb0:	00268693          	addi	a3,a3,2
    4cb4:	0107d793          	srli	a5,a5,0x10
    4cb8:	fcd516e3          	bne	a0,a3,4c84 <eshdn1+0x2c>
    4cbc:	00008067          	ret

00004cc0 <eshup1>:
    4cc0:	01850693          	addi	a3,a0,24
    4cc4:	00000713          	li	a4,0
    4cc8:	00250513          	addi	a0,a0,2
    4ccc:	01c0006f          	j	4ce8 <eshup1+0x28>
    4cd0:	00171713          	slli	a4,a4,0x1
    4cd4:	00f69023          	sh	a5,0(a3)
    4cd8:	01071713          	slli	a4,a4,0x10
    4cdc:	ffe68693          	addi	a3,a3,-2
    4ce0:	01075713          	srli	a4,a4,0x10
    4ce4:	04d50463          	beq	a0,a3,4d2c <eshup1+0x6c>
    4ce8:	0006d783          	lhu	a5,0(a3)
    4cec:	01079613          	slli	a2,a5,0x10
    4cf0:	41065613          	srai	a2,a2,0x10
    4cf4:	00179793          	slli	a5,a5,0x1
    4cf8:	00065463          	bgez	a2,4d00 <eshup1+0x40>
    4cfc:	00176713          	ori	a4,a4,1
    4d00:	01079793          	slli	a5,a5,0x10
    4d04:	0107d793          	srli	a5,a5,0x10
    4d08:	00277613          	andi	a2,a4,2
    4d0c:	0017e593          	ori	a1,a5,1
    4d10:	fc0600e3          	beqz	a2,4cd0 <eshup1+0x10>
    4d14:	00171713          	slli	a4,a4,0x1
    4d18:	00b69023          	sh	a1,0(a3)
    4d1c:	01071713          	slli	a4,a4,0x10
    4d20:	ffe68693          	addi	a3,a3,-2
    4d24:	01075713          	srli	a4,a4,0x10
    4d28:	fcd510e3          	bne	a0,a3,4ce8 <eshup1+0x28>
    4d2c:	00008067          	ret

00004d30 <m16m>:
    4d30:	fe010113          	addi	sp,sp,-32
    4d34:	00010e37          	lui	t3,0x10
    4d38:	00011d23          	sh	zero,26(sp)
    4d3c:	00011e23          	sh	zero,28(sp)
    4d40:	01858593          	addi	a1,a1,24
    4d44:	01c10793          	addi	a5,sp,28
    4d48:	00810813          	addi	a6,sp,8
    4d4c:	fffe0e13          	addi	t3,t3,-1 # ffff <_signal_r+0x7f>
    4d50:	0005d703          	lhu	a4,0(a1)
    4d54:	ffe78793          	addi	a5,a5,-2
    4d58:	ffe58593          	addi	a1,a1,-2
    4d5c:	02070a63          	beqz	a4,4d90 <m16m+0x60>
    4d60:	02a70733          	mul	a4,a4,a0
    4d64:	0027d883          	lhu	a7,2(a5)
    4d68:	0007d303          	lhu	t1,0(a5)
    4d6c:	01c776b3          	and	a3,a4,t3
    4d70:	011686b3          	add	a3,a3,a7
    4d74:	01075713          	srli	a4,a4,0x10
    4d78:	0106d893          	srli	a7,a3,0x10
    4d7c:	00670733          	add	a4,a4,t1
    4d80:	01170733          	add	a4,a4,a7
    4d84:	00e79023          	sh	a4,0(a5)
    4d88:	00d79123          	sh	a3,2(a5)
    4d8c:	01075713          	srli	a4,a4,0x10
    4d90:	fee79f23          	sh	a4,-2(a5)
    4d94:	fb079ee3          	bne	a5,a6,4d50 <m16m+0x20>
    4d98:	00460613          	addi	a2,a2,4
    4d9c:	01e10693          	addi	a3,sp,30
    4da0:	0007d703          	lhu	a4,0(a5)
    4da4:	00278793          	addi	a5,a5,2
    4da8:	00260613          	addi	a2,a2,2
    4dac:	fee61f23          	sh	a4,-2(a2)
    4db0:	fed798e3          	bne	a5,a3,4da0 <m16m+0x70>
    4db4:	02010113          	addi	sp,sp,32
    4db8:	00008067          	ret

00004dbc <emovo.constprop.0>:
    4dbc:	00055703          	lhu	a4,0(a0)
    4dc0:	00255783          	lhu	a5,2(a0)
    4dc4:	00070663          	beqz	a4,4dd0 <emovo.constprop.0+0x14>
    4dc8:	00008737          	lui	a4,0x8
    4dcc:	00e7e7b3          	or	a5,a5,a4
    4dd0:	00f59923          	sh	a5,18(a1)
    4dd4:	00255703          	lhu	a4,2(a0)
    4dd8:	000087b7          	lui	a5,0x8
    4ddc:	fff78793          	addi	a5,a5,-1 # 7fff <_malloc_r+0x4b3>
    4de0:	02f70463          	beq	a4,a5,4e08 <emovo.constprop.0+0x4c>
    4de4:	00650793          	addi	a5,a0,6
    4de8:	01058593          	addi	a1,a1,16
    4dec:	01850513          	addi	a0,a0,24
    4df0:	0007d703          	lhu	a4,0(a5)
    4df4:	00278793          	addi	a5,a5,2
    4df8:	ffe58593          	addi	a1,a1,-2
    4dfc:	00e59123          	sh	a4,2(a1)
    4e00:	fea798e3          	bne	a5,a0,4df0 <emovo.constprop.0+0x34>
    4e04:	00008067          	ret
    4e08:	00650793          	addi	a5,a0,6
    4e0c:	01a50513          	addi	a0,a0,26
    4e10:	0007d703          	lhu	a4,0(a5)
    4e14:	00278793          	addi	a5,a5,2
    4e18:	02071a63          	bnez	a4,4e4c <emovo.constprop.0+0x90>
    4e1c:	fea79ae3          	bne	a5,a0,4e10 <emovo.constprop.0+0x54>
    4e20:	01258713          	addi	a4,a1,18
    4e24:	00058793          	mv	a5,a1
    4e28:	00278793          	addi	a5,a5,2
    4e2c:	fe079f23          	sh	zero,-2(a5)
    4e30:	fef71ce3          	bne	a4,a5,4e28 <emovo.constprop.0+0x6c>
    4e34:	0125d783          	lhu	a5,18(a1)
    4e38:	00008737          	lui	a4,0x8
    4e3c:	fff70713          	addi	a4,a4,-1 # 7fff <_malloc_r+0x4b3>
    4e40:	00e7e7b3          	or	a5,a5,a4
    4e44:	00f59923          	sh	a5,18(a1)
    4e48:	00008067          	ret
    4e4c:	01058713          	addi	a4,a1,16
    4e50:	00058793          	mv	a5,a1
    4e54:	00278793          	addi	a5,a5,2
    4e58:	fe079f23          	sh	zero,-2(a5)
    4e5c:	fef71ce3          	bne	a4,a5,4e54 <emovo.constprop.0+0x98>
    4e60:	ffffc7b7          	lui	a5,0xffffc
    4e64:	00f59823          	sh	a5,16(a1)
    4e68:	ffff87b7          	lui	a5,0xffff8
    4e6c:	fff7c793          	not	a5,a5
    4e70:	00f59923          	sh	a5,18(a1)
    4e74:	00008067          	ret

00004e78 <enormlz>:
    4e78:	00455783          	lhu	a5,4(a0)
    4e7c:	ff010113          	addi	sp,sp,-16
    4e80:	00912223          	sw	s1,4(sp)
    4e84:	00112623          	sw	ra,12(sp)
    4e88:	00812423          	sw	s0,8(sp)
    4e8c:	01212023          	sw	s2,0(sp)
    4e90:	00050493          	mv	s1,a0
    4e94:	0c079c63          	bnez	a5,4f6c <enormlz+0xf4>
    4e98:	00655703          	lhu	a4,6(a0)
    4e9c:	00000413          	li	s0,0
    4ea0:	01071793          	slli	a5,a4,0x10
    4ea4:	4107d793          	srai	a5,a5,0x10
    4ea8:	0a07c463          	bltz	a5,4f50 <enormlz+0xd8>
    4eac:	01a50693          	addi	a3,a0,26
    4eb0:	0a000613          	li	a2,160
    4eb4:	02071863          	bnez	a4,4ee4 <enormlz+0x6c>
    4eb8:	00648793          	addi	a5,s1,6
    4ebc:	0080006f          	j	4ec4 <enormlz+0x4c>
    4ec0:	0007d703          	lhu	a4,0(a5) # ffff8000 <_stack+0xfffb8000>
    4ec4:	00278793          	addi	a5,a5,2
    4ec8:	fee79e23          	sh	a4,-4(a5)
    4ecc:	fed79ae3          	bne	a5,a3,4ec0 <enormlz+0x48>
    4ed0:	00049c23          	sh	zero,24(s1)
    4ed4:	01040413          	addi	s0,s0,16
    4ed8:	06c40c63          	beq	s0,a2,4f50 <enormlz+0xd8>
    4edc:	0064d703          	lhu	a4,6(s1)
    4ee0:	fc070ce3          	beqz	a4,4eb8 <enormlz+0x40>
    4ee4:	f0077793          	andi	a5,a4,-256
    4ee8:	04079063          	bnez	a5,4f28 <enormlz+0xb0>
    4eec:	01848513          	addi	a0,s1,24
    4ef0:	00248593          	addi	a1,s1,2
    4ef4:	00000793          	li	a5,0
    4ef8:	00050713          	mv	a4,a0
    4efc:	00075683          	lhu	a3,0(a4)
    4f00:	ffe70713          	addi	a4,a4,-2
    4f04:	00869613          	slli	a2,a3,0x8
    4f08:	00c7e7b3          	or	a5,a5,a2
    4f0c:	00f71123          	sh	a5,2(a4)
    4f10:	0086d793          	srli	a5,a3,0x8
    4f14:	feb714e3          	bne	a4,a1,4efc <enormlz+0x84>
    4f18:	0064d703          	lhu	a4,6(s1)
    4f1c:	00840413          	addi	s0,s0,8
    4f20:	f0077793          	andi	a5,a4,-256
    4f24:	fc0788e3          	beqz	a5,4ef4 <enormlz+0x7c>
    4f28:	0a000913          	li	s2,160
    4f2c:	0140006f          	j	4f40 <enormlz+0xc8>
    4f30:	00140413          	addi	s0,s0,1
    4f34:	d8dff0ef          	jal	ra,4cc0 <eshup1>
    4f38:	00894c63          	blt	s2,s0,4f50 <enormlz+0xd8>
    4f3c:	0064d703          	lhu	a4,6(s1)
    4f40:	01071713          	slli	a4,a4,0x10
    4f44:	41075713          	srai	a4,a4,0x10
    4f48:	00048513          	mv	a0,s1
    4f4c:	fe0752e3          	bgez	a4,4f30 <enormlz+0xb8>
    4f50:	00c12083          	lw	ra,12(sp)
    4f54:	00040513          	mv	a0,s0
    4f58:	00812403          	lw	s0,8(sp)
    4f5c:	00412483          	lw	s1,4(sp)
    4f60:	00012903          	lw	s2,0(sp)
    4f64:	01010113          	addi	sp,sp,16
    4f68:	00008067          	ret
    4f6c:	f007f713          	andi	a4,a5,-256
    4f70:	00000413          	li	s0,0
    4f74:	04071063          	bnez	a4,4fb4 <enormlz+0x13c>
    4f78:	f6f00913          	li	s2,-145
    4f7c:	0140006f          	j	4f90 <enormlz+0x118>
    4f80:	fff40413          	addi	s0,s0,-1
    4f84:	cd5ff0ef          	jal	ra,4c58 <eshdn1>
    4f88:	fd2404e3          	beq	s0,s2,4f50 <enormlz+0xd8>
    4f8c:	0044d783          	lhu	a5,4(s1)
    4f90:	00048513          	mv	a0,s1
    4f94:	fe0796e3          	bnez	a5,4f80 <enormlz+0x108>
    4f98:	00c12083          	lw	ra,12(sp)
    4f9c:	00040513          	mv	a0,s0
    4fa0:	00812403          	lw	s0,8(sp)
    4fa4:	00412483          	lw	s1,4(sp)
    4fa8:	00012903          	lw	s2,0(sp)
    4fac:	01010113          	addi	sp,sp,16
    4fb0:	00008067          	ret
    4fb4:	00450693          	addi	a3,a0,4
    4fb8:	01a50593          	addi	a1,a0,26
    4fbc:	00000713          	li	a4,0
    4fc0:	0080006f          	j	4fc8 <enormlz+0x150>
    4fc4:	0006d783          	lhu	a5,0(a3)
    4fc8:	0087d613          	srli	a2,a5,0x8
    4fcc:	00c76733          	or	a4,a4,a2
    4fd0:	00879793          	slli	a5,a5,0x8
    4fd4:	00e69023          	sh	a4,0(a3)
    4fd8:	01079713          	slli	a4,a5,0x10
    4fdc:	00268693          	addi	a3,a3,2
    4fe0:	01075713          	srli	a4,a4,0x10
    4fe4:	fed590e3          	bne	a1,a3,4fc4 <enormlz+0x14c>
    4fe8:	0044d783          	lhu	a5,4(s1)
    4fec:	ff800413          	li	s0,-8
    4ff0:	f89ff06f          	j	4f78 <enormlz+0x100>

00004ff4 <eshift.part.0>:
    4ff4:	fe010113          	addi	sp,sp,-32
    4ff8:	00812c23          	sw	s0,24(sp)
    4ffc:	00912a23          	sw	s1,20(sp)
    5000:	00112e23          	sw	ra,28(sp)
    5004:	01212823          	sw	s2,16(sp)
    5008:	01312623          	sw	s3,12(sp)
    500c:	00058493          	mv	s1,a1
    5010:	00050413          	mv	s0,a0
    5014:	0a05c463          	bltz	a1,50bc <eshift.part.0+0xc8>
    5018:	00f00793          	li	a5,15
    501c:	00058613          	mv	a2,a1
    5020:	00450513          	addi	a0,a0,4
    5024:	01840693          	addi	a3,s0,24
    5028:	00f00593          	li	a1,15
    502c:	0297d463          	bge	a5,s1,5054 <eshift.part.0+0x60>
    5030:	00050793          	mv	a5,a0
    5034:	0027d703          	lhu	a4,2(a5)
    5038:	00278793          	addi	a5,a5,2
    503c:	fee79f23          	sh	a4,-2(a5)
    5040:	fef69ae3          	bne	a3,a5,5034 <eshift.part.0+0x40>
    5044:	00041c23          	sh	zero,24(s0)
    5048:	ff060613          	addi	a2,a2,-16
    504c:	fec5c2e3          	blt	a1,a2,5030 <eshift.part.0+0x3c>
    5050:	00f4f493          	andi	s1,s1,15
    5054:	00700793          	li	a5,7
    5058:	0297d863          	bge	a5,s1,5088 <eshift.part.0+0x94>
    505c:	01840713          	addi	a4,s0,24
    5060:	00240593          	addi	a1,s0,2
    5064:	00000793          	li	a5,0
    5068:	00075683          	lhu	a3,0(a4)
    506c:	ffe70713          	addi	a4,a4,-2
    5070:	00869613          	slli	a2,a3,0x8
    5074:	00c7e7b3          	or	a5,a5,a2
    5078:	00f71123          	sh	a5,2(a4)
    507c:	0086d793          	srli	a5,a3,0x8
    5080:	fee594e3          	bne	a1,a4,5068 <eshift.part.0+0x74>
    5084:	ff848493          	addi	s1,s1,-8
    5088:	00048a63          	beqz	s1,509c <eshift.part.0+0xa8>
    508c:	fff48493          	addi	s1,s1,-1
    5090:	00040513          	mv	a0,s0
    5094:	c2dff0ef          	jal	ra,4cc0 <eshup1>
    5098:	fe049ae3          	bnez	s1,508c <eshift.part.0+0x98>
    509c:	01c12083          	lw	ra,28(sp)
    50a0:	01812403          	lw	s0,24(sp)
    50a4:	01412483          	lw	s1,20(sp)
    50a8:	01012903          	lw	s2,16(sp)
    50ac:	00c12983          	lw	s3,12(sp)
    50b0:	00000513          	li	a0,0
    50b4:	02010113          	addi	sp,sp,32
    50b8:	00008067          	ret
    50bc:	ff100793          	li	a5,-15
    50c0:	40b00933          	neg	s2,a1
    50c4:	08f5de63          	bge	a1,a5,5160 <eshift.part.0+0x16c>
    50c8:	01850593          	addi	a1,a0,24
    50cc:	00000993          	li	s3,0
    50d0:	00450693          	addi	a3,a0,4
    50d4:	00f00613          	li	a2,15
    50d8:	01845703          	lhu	a4,24(s0)
    50dc:	00058793          	mv	a5,a1
    50e0:	00e9e9b3          	or	s3,s3,a4
    50e4:	ffe7d703          	lhu	a4,-2(a5)
    50e8:	ffe78793          	addi	a5,a5,-2
    50ec:	00e79123          	sh	a4,2(a5)
    50f0:	fed79ae3          	bne	a5,a3,50e4 <eshift.part.0+0xf0>
    50f4:	00041223          	sh	zero,4(s0)
    50f8:	ff090913          	addi	s2,s2,-16
    50fc:	fd264ee3          	blt	a2,s2,50d8 <eshift.part.0+0xe4>
    5100:	ff000913          	li	s2,-16
    5104:	ff100713          	li	a4,-15
    5108:	40990933          	sub	s2,s2,s1
    510c:	00000793          	li	a5,0
    5110:	08e4ce63          	blt	s1,a4,51ac <eshift.part.0+0x1b8>
    5114:	00f90933          	add	s2,s2,a5
    5118:	00700793          	li	a5,7
    511c:	0527ca63          	blt	a5,s2,5170 <eshift.part.0+0x17c>
    5120:	02090063          	beqz	s2,5140 <eshift.part.0+0x14c>
    5124:	01845783          	lhu	a5,24(s0)
    5128:	fff90913          	addi	s2,s2,-1
    512c:	00040513          	mv	a0,s0
    5130:	0017f793          	andi	a5,a5,1
    5134:	00f9e9b3          	or	s3,s3,a5
    5138:	b21ff0ef          	jal	ra,4c58 <eshdn1>
    513c:	fe0914e3          	bnez	s2,5124 <eshift.part.0+0x130>
    5140:	01c12083          	lw	ra,28(sp)
    5144:	01812403          	lw	s0,24(sp)
    5148:	01412483          	lw	s1,20(sp)
    514c:	01012903          	lw	s2,16(sp)
    5150:	01303533          	snez	a0,s3
    5154:	00c12983          	lw	s3,12(sp)
    5158:	02010113          	addi	sp,sp,32
    515c:	00008067          	ret
    5160:	ff900793          	li	a5,-7
    5164:	00000993          	li	s3,0
    5168:	00450693          	addi	a3,a0,4
    516c:	faf5dce3          	bge	a1,a5,5124 <eshift.part.0+0x130>
    5170:	01844783          	lbu	a5,24(s0)
    5174:	01a40593          	addi	a1,s0,26
    5178:	00f9e9b3          	or	s3,s3,a5
    517c:	00000793          	li	a5,0
    5180:	0006d703          	lhu	a4,0(a3)
    5184:	00268693          	addi	a3,a3,2
    5188:	00875613          	srli	a2,a4,0x8
    518c:	00c7e7b3          	or	a5,a5,a2
    5190:	00871713          	slli	a4,a4,0x8
    5194:	fef69f23          	sh	a5,-2(a3)
    5198:	01071793          	slli	a5,a4,0x10
    519c:	0107d793          	srli	a5,a5,0x10
    51a0:	feb690e3          	bne	a3,a1,5180 <eshift.part.0+0x18c>
    51a4:	ff890913          	addi	s2,s2,-8
    51a8:	f79ff06f          	j	5120 <eshift.part.0+0x12c>
    51ac:	ff097793          	andi	a5,s2,-16
    51b0:	40f007b3          	neg	a5,a5
    51b4:	00f90933          	add	s2,s2,a5
    51b8:	00700793          	li	a5,7
    51bc:	f727d2e3          	bge	a5,s2,5120 <eshift.part.0+0x12c>
    51c0:	fb1ff06f          	j	5170 <eshift.part.0+0x17c>

000051c4 <emovi>:
    51c4:	01255783          	lhu	a5,18(a0)
    51c8:	00008637          	lui	a2,0x8
    51cc:	fff60613          	addi	a2,a2,-1 # 7fff <_malloc_r+0x4b3>
    51d0:	00f7d793          	srli	a5,a5,0xf
    51d4:	40f007b3          	neg	a5,a5
    51d8:	00f59023          	sh	a5,0(a1)
    51dc:	01255683          	lhu	a3,18(a0)
    51e0:	01050793          	addi	a5,a0,16
    51e4:	00458713          	addi	a4,a1,4
    51e8:	00c6f6b3          	and	a3,a3,a2
    51ec:	00d59123          	sh	a3,2(a1)
    51f0:	02c68663          	beq	a3,a2,521c <emovi+0x58>
    51f4:	00658713          	addi	a4,a1,6
    51f8:	00059223          	sh	zero,4(a1)
    51fc:	ffe50513          	addi	a0,a0,-2
    5200:	0007d683          	lhu	a3,0(a5)
    5204:	ffe78793          	addi	a5,a5,-2
    5208:	00270713          	addi	a4,a4,2
    520c:	fed71f23          	sh	a3,-2(a4)
    5210:	fef518e3          	bne	a0,a5,5200 <emovi+0x3c>
    5214:	00059c23          	sh	zero,24(a1)
    5218:	00008067          	ret
    521c:	01255603          	lhu	a2,18(a0)
    5220:	00d67633          	and	a2,a2,a3
    5224:	00d61e63          	bne	a2,a3,5240 <emovi+0x7c>
    5228:	01250813          	addi	a6,a0,18
    522c:	00050693          	mv	a3,a0
    5230:	0006d603          	lhu	a2,0(a3)
    5234:	00268693          	addi	a3,a3,2
    5238:	00061e63          	bnez	a2,5254 <emovi+0x90>
    523c:	ff069ae3          	bne	a3,a6,5230 <emovi+0x6c>
    5240:	01a58593          	addi	a1,a1,26
    5244:	00270713          	addi	a4,a4,2
    5248:	fe071f23          	sh	zero,-2(a4)
    524c:	fee59ce3          	bne	a1,a4,5244 <emovi+0x80>
    5250:	00008067          	ret
    5254:	00658713          	addi	a4,a1,6
    5258:	00059223          	sh	zero,4(a1)
    525c:	ffc50513          	addi	a0,a0,-4
    5260:	0007d683          	lhu	a3,0(a5)
    5264:	ffe78793          	addi	a5,a5,-2
    5268:	00270713          	addi	a4,a4,2
    526c:	fed71f23          	sh	a3,-2(a4)
    5270:	fea798e3          	bne	a5,a0,5260 <emovi+0x9c>
    5274:	00008067          	ret

00005278 <ecmp>:
    5278:	01255783          	lhu	a5,18(a0)
    527c:	fb010113          	addi	sp,sp,-80
    5280:	04812423          	sw	s0,72(sp)
    5284:	fff7c793          	not	a5,a5
    5288:	04112623          	sw	ra,76(sp)
    528c:	01179713          	slli	a4,a5,0x11
    5290:	00058413          	mv	s0,a1
    5294:	00071e63          	bnez	a4,52b0 <ecmp+0x38>
    5298:	01250693          	addi	a3,a0,18
    529c:	00050793          	mv	a5,a0
    52a0:	0007d703          	lhu	a4,0(a5)
    52a4:	00278793          	addi	a5,a5,2
    52a8:	08071c63          	bnez	a4,5340 <ecmp+0xc8>
    52ac:	fed79ae3          	bne	a5,a3,52a0 <ecmp+0x28>
    52b0:	01245783          	lhu	a5,18(s0)
    52b4:	fff7c793          	not	a5,a5
    52b8:	01179713          	slli	a4,a5,0x11
    52bc:	06070063          	beqz	a4,531c <ecmp+0xa4>
    52c0:	00810593          	addi	a1,sp,8
    52c4:	f01ff0ef          	jal	ra,51c4 <emovi>
    52c8:	02410593          	addi	a1,sp,36
    52cc:	00040513          	mv	a0,s0
    52d0:	ef5ff0ef          	jal	ra,51c4 <emovi>
    52d4:	00815583          	lhu	a1,8(sp)
    52d8:	02415503          	lhu	a0,36(sp)
    52dc:	06b50c63          	beq	a0,a1,5354 <ecmp+0xdc>
    52e0:	00a10793          	addi	a5,sp,10
    52e4:	02610713          	addi	a4,sp,38
    52e8:	02010613          	addi	a2,sp,32
    52ec:	0007d683          	lhu	a3,0(a5)
    52f0:	00278793          	addi	a5,a5,2
    52f4:	0a069863          	bnez	a3,53a4 <ecmp+0x12c>
    52f8:	00075683          	lhu	a3,0(a4)
    52fc:	00270713          	addi	a4,a4,2
    5300:	0a069263          	bnez	a3,53a4 <ecmp+0x12c>
    5304:	fef614e3          	bne	a2,a5,52ec <ecmp+0x74>
    5308:	00000513          	li	a0,0
    530c:	04c12083          	lw	ra,76(sp)
    5310:	04812403          	lw	s0,72(sp)
    5314:	05010113          	addi	sp,sp,80
    5318:	00008067          	ret
    531c:	00040793          	mv	a5,s0
    5320:	0007d703          	lhu	a4,0(a5)
    5324:	01240693          	addi	a3,s0,18
    5328:	00278793          	addi	a5,a5,2
    532c:	00071a63          	bnez	a4,5340 <ecmp+0xc8>
    5330:	f8d788e3          	beq	a5,a3,52c0 <ecmp+0x48>
    5334:	0007d703          	lhu	a4,0(a5)
    5338:	00278793          	addi	a5,a5,2
    533c:	fe070ae3          	beqz	a4,5330 <ecmp+0xb8>
    5340:	04c12083          	lw	ra,76(sp)
    5344:	04812403          	lw	s0,72(sp)
    5348:	ffe00513          	li	a0,-2
    534c:	05010113          	addi	sp,sp,80
    5350:	00008067          	ret
    5354:	00a15603          	lhu	a2,10(sp)
    5358:	02615683          	lhu	a3,38(sp)
    535c:	00153513          	seqz	a0,a0
    5360:	00a10713          	addi	a4,sp,10
    5364:	02610793          	addi	a5,sp,38
    5368:	00151513          	slli	a0,a0,0x1
    536c:	fff50513          	addi	a0,a0,-1
    5370:	03c10593          	addi	a1,sp,60
    5374:	00278793          	addi	a5,a5,2
    5378:	00270713          	addi	a4,a4,2
    537c:	00d61e63          	bne	a2,a3,5398 <ecmp+0x120>
    5380:	f8b784e3          	beq	a5,a1,5308 <ecmp+0x90>
    5384:	00075603          	lhu	a2,0(a4)
    5388:	0007d683          	lhu	a3,0(a5)
    538c:	00270713          	addi	a4,a4,2
    5390:	00278793          	addi	a5,a5,2
    5394:	fed606e3          	beq	a2,a3,5380 <ecmp+0x108>
    5398:	f6c6eae3          	bltu	a3,a2,530c <ecmp+0x94>
    539c:	40a00533          	neg	a0,a0
    53a0:	f6dff06f          	j	530c <ecmp+0x94>
    53a4:	00100513          	li	a0,1
    53a8:	f60582e3          	beqz	a1,530c <ecmp+0x94>
    53ac:	fff00513          	li	a0,-1
    53b0:	f5dff06f          	j	530c <ecmp+0x94>

000053b4 <emdnorm>:
    53b4:	fd010113          	addi	sp,sp,-48
    53b8:	02812423          	sw	s0,40(sp)
    53bc:	03212023          	sw	s2,32(sp)
    53c0:	01312e23          	sw	s3,28(sp)
    53c4:	01412c23          	sw	s4,24(sp)
    53c8:	01512a23          	sw	s5,20(sp)
    53cc:	01712623          	sw	s7,12(sp)
    53d0:	00078913          	mv	s2,a5
    53d4:	00068b93          	mv	s7,a3
    53d8:	02112623          	sw	ra,44(sp)
    53dc:	02912223          	sw	s1,36(sp)
    53e0:	01612823          	sw	s6,16(sp)
    53e4:	00050413          	mv	s0,a0
    53e8:	00058993          	mv	s3,a1
    53ec:	00060a13          	mv	s4,a2
    53f0:	00070a93          	mv	s5,a4
    53f4:	a85ff0ef          	jal	ra,4e78 <enormlz>
    53f8:	09000793          	li	a5,144
    53fc:	40ab8bb3          	sub	s7,s7,a0
    5400:	14a7d463          	bge	a5,a0,5548 <emdnorm+0x194>
    5404:	000087b7          	lui	a5,0x8
    5408:	ffe78793          	addi	a5,a5,-2 # 7ffe <_malloc_r+0x4b2>
    540c:	2777d263          	bge	a5,s7,5670 <emdnorm+0x2bc>
    5410:	220a8c63          	beqz	s5,5648 <emdnorm+0x294>
    5414:	00492a83          	lw	s5,4(s2)
    5418:	00092683          	lw	a3,0(s2)
    541c:	01a90713          	addi	a4,s2,26
    5420:	03490793          	addi	a5,s2,52
    5424:	2ada8063          	beq	s5,a3,56c4 <emdnorm+0x310>
    5428:	00270713          	addi	a4,a4,2
    542c:	fe071f23          	sh	zero,-2(a4)
    5430:	fee79ce3          	bne	a5,a4,5428 <emdnorm+0x74>
    5434:	03800793          	li	a5,56
    5438:	32fa8263          	beq	s5,a5,575c <emdnorm+0x3a8>
    543c:	1357d863          	bge	a5,s5,556c <emdnorm+0x1b8>
    5440:	04000793          	li	a5,64
    5444:	2afa8863          	beq	s5,a5,56f4 <emdnorm+0x340>
    5448:	07100793          	li	a5,113
    544c:	32fa9663          	bne	s5,a5,5778 <emdnorm+0x3c4>
    5450:	00008737          	lui	a4,0x8
    5454:	fff70713          	addi	a4,a4,-1 # 7fff <_malloc_r+0x4b3>
    5458:	000045b7          	lui	a1,0x4
    545c:	01400b13          	li	s6,20
    5460:	00a00493          	li	s1,10
    5464:	000087b7          	lui	a5,0x8
    5468:	00a00613          	li	a2,10
    546c:	00860693          	addi	a3,a2,8
    5470:	00169693          	slli	a3,a3,0x1
    5474:	00e91a23          	sh	a4,20(s2)
    5478:	00992423          	sw	s1,8(s2)
    547c:	00b91b23          	sh	a1,22(s2)
    5480:	00f91c23          	sh	a5,24(s2)
    5484:	00c92623          	sw	a2,12(s2)
    5488:	00d90733          	add	a4,s2,a3
    548c:	00f71523          	sh	a5,10(a4)
    5490:	01592023          	sw	s5,0(s2)
    5494:	01640b33          	add	s6,s0,s6
    5498:	23705e63          	blez	s7,56d4 <emdnorm+0x320>
    549c:	000b5783          	lhu	a5,0(s6)
    54a0:	01495703          	lhu	a4,20(s2)
    54a4:	08f00693          	li	a3,143
    54a8:	00e7f633          	and	a2,a5,a4
    54ac:	0356cc63          	blt	a3,s5,54e4 <emdnorm+0x130>
    54b0:	00b00693          	li	a3,11
    54b4:	0296c863          	blt	a3,s1,54e4 <emdnorm+0x130>
    54b8:	00149713          	slli	a4,s1,0x1
    54bc:	00e40733          	add	a4,s0,a4
    54c0:	01840693          	addi	a3,s0,24
    54c4:	00275783          	lhu	a5,2(a4)
    54c8:	00078463          	beqz	a5,54d0 <emdnorm+0x11c>
    54cc:	00166613          	ori	a2,a2,1
    54d0:	00071123          	sh	zero,2(a4)
    54d4:	00270713          	addi	a4,a4,2
    54d8:	fee696e3          	bne	a3,a4,54c4 <emdnorm+0x110>
    54dc:	000b5783          	lhu	a5,0(s6)
    54e0:	01495703          	lhu	a4,20(s2)
    54e4:	fff74713          	not	a4,a4
    54e8:	00e7f7b3          	and	a5,a5,a4
    54ec:	00fb1023          	sh	a5,0(s6)
    54f0:	01695783          	lhu	a5,22(s2)
    54f4:	00c7f733          	and	a4,a5,a2
    54f8:	0c071463          	bnez	a4,55c0 <emdnorm+0x20c>
    54fc:	13705263          	blez	s7,5620 <emdnorm+0x26c>
    5500:	00445783          	lhu	a5,4(s0)
    5504:	22079663          	bnez	a5,5730 <emdnorm+0x37c>
    5508:	000087b7          	lui	a5,0x8
    550c:	00041c23          	sh	zero,24(s0)
    5510:	ffe78793          	addi	a5,a5,-2 # 7ffe <_malloc_r+0x4b2>
    5514:	1377cc63          	blt	a5,s7,564c <emdnorm+0x298>
    5518:	01741123          	sh	s7,2(s0)
    551c:	02c12083          	lw	ra,44(sp)
    5520:	02812403          	lw	s0,40(sp)
    5524:	02412483          	lw	s1,36(sp)
    5528:	02012903          	lw	s2,32(sp)
    552c:	01c12983          	lw	s3,28(sp)
    5530:	01812a03          	lw	s4,24(sp)
    5534:	01412a83          	lw	s5,20(sp)
    5538:	01012b03          	lw	s6,16(sp)
    553c:	00c12b83          	lw	s7,12(sp)
    5540:	03010113          	addi	sp,sp,48
    5544:	00008067          	ret
    5548:	160bd263          	bgez	s7,56ac <emdnorm+0x2f8>
    554c:	f7000793          	li	a5,-144
    5550:	12fbdc63          	bge	s7,a5,5688 <emdnorm+0x2d4>
    5554:	00240793          	addi	a5,s0,2
    5558:	01a40413          	addi	s0,s0,26
    555c:	00278793          	addi	a5,a5,2
    5560:	fe079f23          	sh	zero,-2(a5)
    5564:	fe879ce3          	bne	a5,s0,555c <emdnorm+0x1a8>
    5568:	fb5ff06f          	j	551c <emdnorm+0x168>
    556c:	01800793          	li	a5,24
    5570:	1afa8263          	beq	s5,a5,5714 <emdnorm+0x360>
    5574:	03500793          	li	a5,53
    5578:	20fa9063          	bne	s5,a5,5778 <emdnorm+0x3c4>
    557c:	000017b7          	lui	a5,0x1
    5580:	7ff00713          	li	a4,2047
    5584:	40000593          	li	a1,1024
    5588:	00c00b13          	li	s6,12
    558c:	00600493          	li	s1,6
    5590:	80078793          	addi	a5,a5,-2048 # 800 <qsort+0x3ac>
    5594:	00600613          	li	a2,6
    5598:	ed5ff06f          	j	546c <emdnorm+0xb8>
    559c:	01495703          	lhu	a4,20(s2)
    55a0:	000b5603          	lhu	a2,0(s6)
    55a4:	fff74793          	not	a5,a4
    55a8:	00f677b3          	and	a5,a2,a5
    55ac:	00fb1023          	sh	a5,0(s6)
    55b0:	01695783          	lhu	a5,22(s2)
    55b4:	00e67633          	and	a2,a2,a4
    55b8:	00c7f733          	and	a4,a5,a2
    55bc:	06070a63          	beqz	a4,5630 <emdnorm+0x27c>
    55c0:	02c79263          	bne	a5,a2,55e4 <emdnorm+0x230>
    55c4:	18099863          	bnez	s3,5754 <emdnorm+0x3a0>
    55c8:	00c92783          	lw	a5,12(s2)
    55cc:	01895703          	lhu	a4,24(s2)
    55d0:	00179793          	slli	a5,a5,0x1
    55d4:	00f407b3          	add	a5,s0,a5
    55d8:	0007d783          	lhu	a5,0(a5)
    55dc:	00e7f7b3          	and	a5,a5,a4
    55e0:	f0078ee3          	beqz	a5,54fc <emdnorm+0x148>
    55e4:	03290513          	addi	a0,s2,50
    55e8:	01840613          	addi	a2,s0,24
