
hello.elf:     file format elf32-littleriscv


Disassembly of section .text:

00000000 <_start>:
   0:	00000297          	auipc	t0,0x0
   4:	04028293          	addi	t0,t0,64 # 40 <trap_handler>
   8:	30529073          	csrw	mtvec,t0
   c:	3050e073          	csrsi	mtvec,1
  10:	00020297          	auipc	t0,0x20
  14:	00028293          	mv	t0,t0
  18:	00020317          	auipc	t1,0x20
  1c:	ffc30313          	addi	t1,t1,-4 # 20014 <_bss_end>

00000020 <_bss_clear>:
  20:	0002a023          	sw	zero,0(t0) # 20010 <heap_ptr>
  24:	0291                	addi	t0,t0,4
  26:	fe62ede3          	bltu	t0,t1,20 <_bss_clear>
  2a:	00040117          	auipc	sp,0x40
  2e:	fd610113          	addi	sp,sp,-42 # 40000 <_stack>
  32:	2011                	jal	36 <main>
  34:	a429                	j	23e <exit>

00000036 <main>:
  36:	831a                	mv	t1,t1
  38:	8082                	ret
  3a:	0000                	unimp
  3c:	0000                	unimp
	...

00000040 <trap_handler>:
  40:	0400006f          	j	80 <_trap_handler>
  44:	03c0006f          	j	80 <_trap_handler>
  48:	0380006f          	j	80 <_trap_handler>
  4c:	1040006f          	j	150 <_trap_ebreak>
  50:	0300006f          	j	80 <_trap_handler>
  54:	02c0006f          	j	80 <_trap_handler>
  58:	0280006f          	j	80 <_trap_handler>
  5c:	0240006f          	j	80 <_trap_handler>
  60:	0000006f          	j	60 <trap_handler+0x20>
  64:	0000006f          	j	64 <trap_handler+0x24>
  68:	0000006f          	j	68 <trap_handler+0x28>
  6c:	07c0006f          	j	e8 <_trap_ecall>
  70:	0000006f          	j	70 <trap_handler+0x30>
  74:	0000006f          	j	74 <trap_handler+0x34>
  78:	0000006f          	j	78 <trap_handler+0x38>
  7c:	0000006f          	j	7c <trap_handler+0x3c>

00000080 <_trap_handler>:
  80:	715d                	addi	sp,sp,-80
  82:	c686                	sw	ra,76(sp)
  84:	c496                	sw	t0,72(sp)
  86:	c29a                	sw	t1,68(sp)
  88:	c09e                	sw	t2,64(sp)
  8a:	de22                	sw	s0,60(sp)
  8c:	dc2a                	sw	a0,56(sp)
  8e:	da2e                	sw	a1,52(sp)
  90:	d832                	sw	a2,48(sp)
  92:	d636                	sw	a3,44(sp)
  94:	d43a                	sw	a4,40(sp)
  96:	d23e                	sw	a5,36(sp)
  98:	d042                	sw	a6,32(sp)
  9a:	ce46                	sw	a7,28(sp)
  9c:	cc72                	sw	t3,24(sp)
  9e:	ca76                	sw	t4,20(sp)
  a0:	c87a                	sw	t5,16(sp)
  a2:	c67e                	sw	t6,12(sp)
  a4:	0880                	addi	s0,sp,80
  a6:	00000793          	li	a5,0
  aa:	c791                	beqz	a5,b6 <_trap_handler+0x36>
  ac:	00000097          	auipc	ra,0x0
  b0:	000000e7          	jalr	zero # 0 <_start>
  b4:	a031                	j	c0 <_trap_handler+0x40>
  b6:	34102f73          	csrr	t5,mepc
  ba:	0f11                	addi	t5,t5,4
  bc:	341f1073          	csrw	mepc,t5
  c0:	40b6                	lw	ra,76(sp)
  c2:	42a6                	lw	t0,72(sp)
  c4:	4316                	lw	t1,68(sp)
  c6:	4386                	lw	t2,64(sp)
  c8:	5472                	lw	s0,60(sp)
  ca:	5562                	lw	a0,56(sp)
  cc:	55d2                	lw	a1,52(sp)
  ce:	5642                	lw	a2,48(sp)
  d0:	56b2                	lw	a3,44(sp)
  d2:	5722                	lw	a4,40(sp)
  d4:	5792                	lw	a5,36(sp)
  d6:	5802                	lw	a6,32(sp)
  d8:	48f2                	lw	a7,28(sp)
  da:	4e62                	lw	t3,24(sp)
  dc:	4ed2                	lw	t4,20(sp)
  de:	4f42                	lw	t5,16(sp)
  e0:	4fb2                	lw	t6,12(sp)
  e2:	6161                	addi	sp,sp,80
  e4:	30200073          	mret

000000e8 <_trap_ecall>:
  e8:	715d                	addi	sp,sp,-80
  ea:	c686                	sw	ra,76(sp)
  ec:	c496                	sw	t0,72(sp)
  ee:	c29a                	sw	t1,68(sp)
  f0:	c09e                	sw	t2,64(sp)
  f2:	de22                	sw	s0,60(sp)
  f4:	dc2a                	sw	a0,56(sp)
  f6:	da2e                	sw	a1,52(sp)
  f8:	d832                	sw	a2,48(sp)
  fa:	d636                	sw	a3,44(sp)
  fc:	d43a                	sw	a4,40(sp)
  fe:	d23e                	sw	a5,36(sp)
 100:	d042                	sw	a6,32(sp)
 102:	ce46                	sw	a7,28(sp)
 104:	cc72                	sw	t3,24(sp)
 106:	ca76                	sw	t4,20(sp)
 108:	c87a                	sw	t5,16(sp)
 10a:	c67e                	sw	t6,12(sp)
 10c:	0880                	addi	s0,sp,80
 10e:	00000793          	li	a5,0
 112:	c791                	beqz	a5,11e <_trap_ecall+0x36>
 114:	00000097          	auipc	ra,0x0
 118:	000000e7          	jalr	zero # 0 <_start>
 11c:	a031                	j	128 <_trap_ecall+0x40>
 11e:	34102f73          	csrr	t5,mepc
 122:	0f11                	addi	t5,t5,4
 124:	341f1073          	csrw	mepc,t5
 128:	40b6                	lw	ra,76(sp)
 12a:	42a6                	lw	t0,72(sp)
 12c:	4316                	lw	t1,68(sp)
 12e:	4386                	lw	t2,64(sp)
 130:	5472                	lw	s0,60(sp)
 132:	5562                	lw	a0,56(sp)
 134:	55d2                	lw	a1,52(sp)
 136:	5642                	lw	a2,48(sp)
 138:	56b2                	lw	a3,44(sp)
 13a:	5722                	lw	a4,40(sp)
 13c:	5792                	lw	a5,36(sp)
 13e:	5802                	lw	a6,32(sp)
 140:	48f2                	lw	a7,28(sp)
 142:	4e62                	lw	t3,24(sp)
 144:	4ed2                	lw	t4,20(sp)
 146:	4f42                	lw	t5,16(sp)
 148:	4fb2                	lw	t6,12(sp)
 14a:	6161                	addi	sp,sp,80
 14c:	30200073          	mret

00000150 <_trap_ebreak>:
 150:	715d                	addi	sp,sp,-80
 152:	c686                	sw	ra,76(sp)
 154:	c496                	sw	t0,72(sp)
 156:	c29a                	sw	t1,68(sp)
 158:	c09e                	sw	t2,64(sp)
 15a:	de22                	sw	s0,60(sp)
 15c:	dc2a                	sw	a0,56(sp)
 15e:	da2e                	sw	a1,52(sp)
 160:	d832                	sw	a2,48(sp)
 162:	d636                	sw	a3,44(sp)
 164:	d43a                	sw	a4,40(sp)
 166:	d23e                	sw	a5,36(sp)
 168:	d042                	sw	a6,32(sp)
 16a:	ce46                	sw	a7,28(sp)
 16c:	cc72                	sw	t3,24(sp)
 16e:	ca76                	sw	t4,20(sp)
 170:	c87a                	sw	t5,16(sp)
 172:	c67e                	sw	t6,12(sp)
 174:	0880                	addi	s0,sp,80
 176:	00000793          	li	a5,0
 17a:	c791                	beqz	a5,186 <_trap_ebreak+0x36>
 17c:	00000097          	auipc	ra,0x0
 180:	000000e7          	jalr	zero # 0 <_start>
 184:	a031                	j	190 <_trap_ebreak+0x40>
 186:	34102f73          	csrr	t5,mepc
 18a:	0f11                	addi	t5,t5,4
 18c:	341f1073          	csrw	mepc,t5
 190:	40b6                	lw	ra,76(sp)
 192:	42a6                	lw	t0,72(sp)
 194:	4316                	lw	t1,68(sp)
 196:	4386                	lw	t2,64(sp)
 198:	5472                	lw	s0,60(sp)
 19a:	5562                	lw	a0,56(sp)
 19c:	55d2                	lw	a1,52(sp)
 19e:	5642                	lw	a2,48(sp)
 1a0:	56b2                	lw	a3,44(sp)
 1a2:	5722                	lw	a4,40(sp)
 1a4:	5792                	lw	a5,36(sp)
 1a6:	5802                	lw	a6,32(sp)
 1a8:	48f2                	lw	a7,28(sp)
 1aa:	4e62                	lw	t3,24(sp)
 1ac:	4ed2                	lw	t4,20(sp)
 1ae:	4f42                	lw	t5,16(sp)
 1b0:	4fb2                	lw	t6,12(sp)
 1b2:	6161                	addi	sp,sp,80
 1b4:	30200073          	mret
	...

000001c6 <_putchar>:
 1c6:	900007b7          	lui	a5,0x90000
 1ca:	00a78e23          	sb	a0,28(a5) # 9000001c <_stack+0x8ffc001c>
 1ce:	4501                	li	a0,0
 1d0:	8082                	ret

000001d2 <_getchar>:
 1d2:	900007b7          	lui	a5,0x90000
 1d6:	0207c503          	lbu	a0,32(a5) # 90000020 <_stack+0x8ffc0020>
 1da:	8082                	ret

000001dc <_open>:
 1dc:	557d                	li	a0,-1
 1de:	8082                	ret

000001e0 <_write>:
 1e0:	8532                	mv	a0,a2
 1e2:	ce01                	beqz	a2,1fa <_write+0x1a>
 1e4:	00c586b3          	add	a3,a1,a2
 1e8:	90000737          	lui	a4,0x90000
 1ec:	0005c783          	lbu	a5,0(a1)
 1f0:	0585                	addi	a1,a1,1
 1f2:	00f70e23          	sb	a5,28(a4) # 9000001c <_stack+0x8ffc001c>
 1f6:	fed59be3          	bne	a1,a3,1ec <_write+0xc>
 1fa:	8082                	ret

000001fc <_fstat>:
 1fc:	557d                	li	a0,-1
 1fe:	8082                	ret

00000200 <_close>:
 200:	557d                	li	a0,-1
 202:	8082                	ret

00000204 <_lseek>:
 204:	557d                	li	a0,-1
 206:	8082                	ret

00000208 <_read>:
 208:	8532                	mv	a0,a2
 20a:	4701                	li	a4,0
 20c:	90000637          	lui	a2,0x90000
 210:	4829                	li	a6,10
 212:	a019                	j	218 <_read+0x10>
 214:	01078d63          	beq	a5,a6,22e <_read+0x26>
 218:	02064783          	lbu	a5,32(a2) # 90000020 <_stack+0x8ffc0020>
 21c:	00e586b3          	add	a3,a1,a4
 220:	0705                	addi	a4,a4,1
 222:	0ff7f793          	zext.b	a5,a5
 226:	00f68023          	sb	a5,0(a3)
 22a:	fea745e3          	blt	a4,a0,214 <_read+0xc>
 22e:	8082                	ret

00000230 <_exit>:
 230:	0ff57793          	zext.b	a5,a0
 234:	90000737          	lui	a4,0x90000
 238:	02f70623          	sb	a5,44(a4) # 9000002c <_stack+0x8ffc002c>
 23c:	a001                	j	23c <_exit+0xc>

0000023e <exit>:
 23e:	0ff57793          	zext.b	a5,a0
 242:	90000737          	lui	a4,0x90000
 246:	02f70623          	sb	a5,44(a4) # 9000002c <_stack+0x8ffc002c>
 24a:	a001                	j	24a <exit+0xc>

0000024c <_isatty>:
 24c:	00353513          	sltiu	a0,a0,3
 250:	8082                	ret

00000252 <_sbrk>:
 252:	000206b7          	lui	a3,0x20
 256:	0106a783          	lw	a5,16(a3) # 20010 <heap_ptr>
 25a:	cf81                	beqz	a5,272 <_sbrk+0x20>
 25c:	00040737          	lui	a4,0x40
 260:	953e                	add	a0,a0,a5
 262:	00070713          	mv	a4,a4
 266:	02e55563          	bge	a0,a4,290 <_sbrk+0x3e>
 26a:	00a6a823          	sw	a0,16(a3)
 26e:	853e                	mv	a0,a5
 270:	8082                	ret
 272:	000207b7          	lui	a5,0x20
 276:	01478713          	addi	a4,a5,20 # 20014 <_bss_end>
 27a:	00e6a823          	sw	a4,16(a3)
 27e:	01478793          	addi	a5,a5,20
 282:	00040737          	lui	a4,0x40
 286:	953e                	add	a0,a0,a5
 288:	00070713          	mv	a4,a4
 28c:	fce54fe3          	blt	a0,a4,26a <_sbrk+0x18>
 290:	4781                	li	a5,0
 292:	853e                	mv	a0,a5
 294:	8082                	ret

00000296 <_kill>:
 296:	557d                	li	a0,-1
 298:	8082                	ret

0000029a <_getpid>:
 29a:	4501                	li	a0,0
 29c:	8082                	ret
