
hello.elf:     file format elf32-littleriscv


Disassembly of section .text:

00000000 <_start>:
       0:	00003297          	auipc	t0,0x3
       4:	ef028293          	addi	t0,t0,-272 # 2ef0 <trap_handler>
       8:	30529073          	csrw	mtvec,t0
       c:	3050e073          	csrsi	mtvec,1
      10:	00021297          	auipc	t0,0x21
      14:	85828293          	addi	t0,t0,-1960 # 20868 <__malloc_max_sbrked_mem>
      18:	00021317          	auipc	t1,0x21
      1c:	88c30313          	addi	t1,t1,-1908 # 208a4 <_bss_end>

00000020 <_bss_clear>:
      20:	0002a023          	sw	zero,0(t0)
      24:	00428293          	addi	t0,t0,4
      28:	fe62ece3          	bltu	t0,t1,20 <_bss_clear>
      2c:	00040117          	auipc	sp,0x40
      30:	fd410113          	addi	sp,sp,-44 # 40000 <_stack>
      34:	008000ef          	jal	ra,3c <main>
      38:	1c40306f          	j	31fc <exit>

0000003c <main>:
      3c:	1141                	addi	sp,sp,-16
      3e:	c606                	sw	ra,12(sp)
      40:	c422                	sw	s0,8(sp)
      42:	0800                	addi	s0,sp,16
      44:	000207b7          	lui	a5,0x20
      48:	02078513          	addi	a0,a5,32 # 20020 <__malloc_trim_threshold+0x4>
      4c:	28f1                	jal	128 <puts>
      4e:	4781                	li	a5,0
      50:	853e                	mv	a0,a5
      52:	40b2                	lw	ra,12(sp)
      54:	4422                	lw	s0,8(sp)
      56:	0141                	addi	sp,sp,16
      58:	8082                	ret
	...

0000005c <_puts_r>:
      5c:	fc010113          	addi	sp,sp,-64
      60:	02812c23          	sw	s0,56(sp)
      64:	00050413          	mv	s0,a0
      68:	00058513          	mv	a0,a1
      6c:	02912a23          	sw	s1,52(sp)
      70:	02112e23          	sw	ra,60(sp)
      74:	00058493          	mv	s1,a1
      78:	0c0000ef          	jal	ra,138 <strlen>
      7c:	000207b7          	lui	a5,0x20
      80:	03078793          	addi	a5,a5,48 # 20030 <__malloc_trim_threshold+0x14>
      84:	02f12423          	sw	a5,40(sp)
      88:	00100793          	li	a5,1
      8c:	02f12623          	sw	a5,44(sp)
      90:	03842703          	lw	a4,56(s0)
      94:	02010793          	addi	a5,sp,32
      98:	00150693          	addi	a3,a0,1
      9c:	00f12a23          	sw	a5,20(sp)
      a0:	00200793          	li	a5,2
      a4:	02912023          	sw	s1,32(sp)
      a8:	02a12223          	sw	a0,36(sp)
      ac:	00d12e23          	sw	a3,28(sp)
      b0:	00f12c23          	sw	a5,24(sp)
      b4:	00842583          	lw	a1,8(s0)
      b8:	04070e63          	beqz	a4,114 <_puts_r+0xb8>
      bc:	00c59783          	lh	a5,12(a1)
      c0:	01279713          	slli	a4,a5,0x12
      c4:	02074263          	bltz	a4,e8 <_puts_r+0x8c>
      c8:	0645a703          	lw	a4,100(a1)
      cc:	000026b7          	lui	a3,0x2
      d0:	00d7e7b3          	or	a5,a5,a3
      d4:	ffffe6b7          	lui	a3,0xffffe
      d8:	fff68693          	addi	a3,a3,-1 # ffffdfff <_stack+0xfffbdfff>
      dc:	00d77733          	and	a4,a4,a3
      e0:	00f59623          	sh	a5,12(a1)
      e4:	06e5a223          	sw	a4,100(a1)
      e8:	01410613          	addi	a2,sp,20
      ec:	00040513          	mv	a0,s0
      f0:	468000ef          	jal	ra,558 <__sfvwrite_r>
      f4:	03c12083          	lw	ra,60(sp)
      f8:	03812403          	lw	s0,56(sp)
      fc:	00a03533          	snez	a0,a0
     100:	40a00533          	neg	a0,a0
     104:	03412483          	lw	s1,52(sp)
     108:	00a56513          	ori	a0,a0,10
     10c:	04010113          	addi	sp,sp,64
     110:	00008067          	ret
     114:	00040513          	mv	a0,s0
     118:	00b12623          	sw	a1,12(sp)
     11c:	3fc000ef          	jal	ra,518 <__sinit>
     120:	00c12583          	lw	a1,12(sp)
     124:	f99ff06f          	j	bc <_puts_r+0x60>

00000128 <puts>:
     128:	000207b7          	lui	a5,0x20
     12c:	00050593          	mv	a1,a0
     130:	0147a503          	lw	a0,20(a5) # 20014 <_impure_ptr>
     134:	f29ff06f          	j	5c <_puts_r>

00000138 <strlen>:
     138:	00357793          	andi	a5,a0,3
     13c:	00050713          	mv	a4,a0
     140:	04079c63          	bnez	a5,198 <strlen+0x60>
     144:	7f7f86b7          	lui	a3,0x7f7f8
     148:	f7f68693          	addi	a3,a3,-129 # 7f7f7f7f <_stack+0x7f7b7f7f>
     14c:	fff00593          	li	a1,-1
     150:	00072603          	lw	a2,0(a4)
     154:	00470713          	addi	a4,a4,4
     158:	00d677b3          	and	a5,a2,a3
     15c:	00d787b3          	add	a5,a5,a3
     160:	00c7e7b3          	or	a5,a5,a2
     164:	00d7e7b3          	or	a5,a5,a3
     168:	feb784e3          	beq	a5,a1,150 <strlen+0x18>
     16c:	ffc74683          	lbu	a3,-4(a4)
     170:	40a707b3          	sub	a5,a4,a0
     174:	04068463          	beqz	a3,1bc <strlen+0x84>
     178:	ffd74683          	lbu	a3,-3(a4)
     17c:	02068c63          	beqz	a3,1b4 <strlen+0x7c>
     180:	ffe74503          	lbu	a0,-2(a4)
     184:	00a03533          	snez	a0,a0
     188:	00f50533          	add	a0,a0,a5
     18c:	ffe50513          	addi	a0,a0,-2
     190:	00008067          	ret
     194:	fa0688e3          	beqz	a3,144 <strlen+0xc>
     198:	00074783          	lbu	a5,0(a4)
     19c:	00170713          	addi	a4,a4,1
     1a0:	00377693          	andi	a3,a4,3
     1a4:	fe0798e3          	bnez	a5,194 <strlen+0x5c>
     1a8:	40a70733          	sub	a4,a4,a0
     1ac:	fff70513          	addi	a0,a4,-1
     1b0:	00008067          	ret
     1b4:	ffd78513          	addi	a0,a5,-3
     1b8:	00008067          	ret
     1bc:	ffc78513          	addi	a0,a5,-4
     1c0:	00008067          	ret

000001c4 <__fp_lock>:
     1c4:	00000513          	li	a0,0
     1c8:	00008067          	ret

000001cc <_cleanup_r>:
     1cc:	000025b7          	lui	a1,0x2
     1d0:	07058593          	addi	a1,a1,112 # 2070 <_fclose_r>
     1d4:	0d90006f          	j	aac <_fwalk_reent>

000001d8 <__fp_unlock>:
     1d8:	00000513          	li	a0,0
     1dc:	00008067          	ret

000001e0 <__sinit.part.0>:
     1e0:	fe010113          	addi	sp,sp,-32
     1e4:	00112e23          	sw	ra,28(sp)
     1e8:	00812c23          	sw	s0,24(sp)
     1ec:	00912a23          	sw	s1,20(sp)
     1f0:	01212823          	sw	s2,16(sp)
     1f4:	01312623          	sw	s3,12(sp)
     1f8:	01412423          	sw	s4,8(sp)
     1fc:	01512223          	sw	s5,4(sp)
     200:	01612023          	sw	s6,0(sp)
     204:	00452403          	lw	s0,4(a0)
     208:	1cc00793          	li	a5,460
     20c:	02f52e23          	sw	a5,60(a0)
     210:	2ec50713          	addi	a4,a0,748
     214:	00300793          	li	a5,3
     218:	2ee52423          	sw	a4,744(a0)
     21c:	2ef52223          	sw	a5,740(a0)
     220:	2e052023          	sw	zero,736(a0)
     224:	00400793          	li	a5,4
     228:	00050913          	mv	s2,a0
     22c:	00f42623          	sw	a5,12(s0)
     230:	00800613          	li	a2,8
     234:	00000593          	li	a1,0
     238:	06042223          	sw	zero,100(s0)
     23c:	00042023          	sw	zero,0(s0)
     240:	00042223          	sw	zero,4(s0)
     244:	00042423          	sw	zero,8(s0)
     248:	00042823          	sw	zero,16(s0)
     24c:	00042a23          	sw	zero,20(s0)
     250:	00042c23          	sw	zero,24(s0)
     254:	05c40513          	addi	a0,s0,92
     258:	3e4010ef          	jal	ra,163c <memset>
     25c:	00002b37          	lui	s6,0x2
     260:	00892483          	lw	s1,8(s2)
     264:	00002ab7          	lui	s5,0x2
     268:	00002a37          	lui	s4,0x2
     26c:	000029b7          	lui	s3,0x2
     270:	cdcb0b13          	addi	s6,s6,-804 # 1cdc <__sread>
     274:	d40a8a93          	addi	s5,s5,-704 # 1d40 <__swrite>
     278:	dc8a0a13          	addi	s4,s4,-568 # 1dc8 <__sseek>
     27c:	e3098993          	addi	s3,s3,-464 # 1e30 <__sclose>
     280:	000107b7          	lui	a5,0x10
     284:	03642023          	sw	s6,32(s0)
     288:	03542223          	sw	s5,36(s0)
     28c:	03442423          	sw	s4,40(s0)
     290:	03342623          	sw	s3,44(s0)
     294:	00842e23          	sw	s0,28(s0)
     298:	00978793          	addi	a5,a5,9 # 10009 <_text_end+0xcd91>
     29c:	00f4a623          	sw	a5,12(s1)
     2a0:	00800613          	li	a2,8
     2a4:	00000593          	li	a1,0
     2a8:	0604a223          	sw	zero,100(s1)
     2ac:	0004a023          	sw	zero,0(s1)
     2b0:	0004a223          	sw	zero,4(s1)
     2b4:	0004a423          	sw	zero,8(s1)
     2b8:	0004a823          	sw	zero,16(s1)
     2bc:	0004aa23          	sw	zero,20(s1)
     2c0:	0004ac23          	sw	zero,24(s1)
     2c4:	05c48513          	addi	a0,s1,92
     2c8:	374010ef          	jal	ra,163c <memset>
     2cc:	00c92403          	lw	s0,12(s2)
     2d0:	000207b7          	lui	a5,0x20
     2d4:	0364a023          	sw	s6,32(s1)
     2d8:	0354a223          	sw	s5,36(s1)
     2dc:	0344a423          	sw	s4,40(s1)
     2e0:	0334a623          	sw	s3,44(s1)
     2e4:	0094ae23          	sw	s1,28(s1)
     2e8:	01278793          	addi	a5,a5,18 # 20012 <_global_impure_ptr+0x2>
     2ec:	00f42623          	sw	a5,12(s0)
     2f0:	06042223          	sw	zero,100(s0)
     2f4:	00042023          	sw	zero,0(s0)
     2f8:	00042223          	sw	zero,4(s0)
     2fc:	00042423          	sw	zero,8(s0)
     300:	00042823          	sw	zero,16(s0)
     304:	00042a23          	sw	zero,20(s0)
     308:	00042c23          	sw	zero,24(s0)
     30c:	05c40513          	addi	a0,s0,92
     310:	00800613          	li	a2,8
     314:	00000593          	li	a1,0
     318:	324010ef          	jal	ra,163c <memset>
     31c:	01c12083          	lw	ra,28(sp)
     320:	03642023          	sw	s6,32(s0)
     324:	03542223          	sw	s5,36(s0)
     328:	03442423          	sw	s4,40(s0)
     32c:	03342623          	sw	s3,44(s0)
     330:	00842e23          	sw	s0,28(s0)
     334:	01812403          	lw	s0,24(sp)
     338:	00100793          	li	a5,1
     33c:	02f92c23          	sw	a5,56(s2)
     340:	01412483          	lw	s1,20(sp)
     344:	01012903          	lw	s2,16(sp)
     348:	00c12983          	lw	s3,12(sp)
     34c:	00812a03          	lw	s4,8(sp)
     350:	00412a83          	lw	s5,4(sp)
     354:	00012b03          	lw	s6,0(sp)
     358:	02010113          	addi	sp,sp,32
     35c:	00008067          	ret

00000360 <__sfmoreglue>:
     360:	ff010113          	addi	sp,sp,-16
     364:	00912223          	sw	s1,4(sp)
     368:	06800793          	li	a5,104
     36c:	fff58493          	addi	s1,a1,-1
     370:	02f484b3          	mul	s1,s1,a5
     374:	01212023          	sw	s2,0(sp)
     378:	00058913          	mv	s2,a1
     37c:	00812423          	sw	s0,8(sp)
     380:	00112623          	sw	ra,12(sp)
     384:	07448593          	addi	a1,s1,116
     388:	7d8000ef          	jal	ra,b60 <_malloc_r>
     38c:	00050413          	mv	s0,a0
     390:	02050063          	beqz	a0,3b0 <__sfmoreglue+0x50>
     394:	00c50513          	addi	a0,a0,12
     398:	00042023          	sw	zero,0(s0)
     39c:	01242223          	sw	s2,4(s0)
     3a0:	00a42423          	sw	a0,8(s0)
     3a4:	06848613          	addi	a2,s1,104
     3a8:	00000593          	li	a1,0
     3ac:	290010ef          	jal	ra,163c <memset>
     3b0:	00c12083          	lw	ra,12(sp)
     3b4:	00040513          	mv	a0,s0
     3b8:	00812403          	lw	s0,8(sp)
     3bc:	00412483          	lw	s1,4(sp)
     3c0:	00012903          	lw	s2,0(sp)
     3c4:	01010113          	addi	sp,sp,16
     3c8:	00008067          	ret

000003cc <__sfp>:
     3cc:	fe010113          	addi	sp,sp,-32
     3d0:	000207b7          	lui	a5,0x20
     3d4:	01212823          	sw	s2,16(sp)
     3d8:	0107a903          	lw	s2,16(a5) # 20010 <_global_impure_ptr>
     3dc:	01312623          	sw	s3,12(sp)
     3e0:	00112e23          	sw	ra,28(sp)
     3e4:	03892783          	lw	a5,56(s2)
     3e8:	00812c23          	sw	s0,24(sp)
     3ec:	00912a23          	sw	s1,20(sp)
     3f0:	01412423          	sw	s4,8(sp)
     3f4:	00050993          	mv	s3,a0
     3f8:	0a078a63          	beqz	a5,4ac <__sfp+0xe0>
     3fc:	2e090913          	addi	s2,s2,736
     400:	fff00493          	li	s1,-1
     404:	00400a13          	li	s4,4
     408:	00492783          	lw	a5,4(s2)
     40c:	00892403          	lw	s0,8(s2)
     410:	fff78793          	addi	a5,a5,-1
     414:	0007d863          	bgez	a5,424 <__sfp+0x58>
     418:	0840006f          	j	49c <__sfp+0xd0>
     41c:	06840413          	addi	s0,s0,104
     420:	06978e63          	beq	a5,s1,49c <__sfp+0xd0>
     424:	00c41703          	lh	a4,12(s0)
     428:	fff78793          	addi	a5,a5,-1
     42c:	fe0718e3          	bnez	a4,41c <__sfp+0x50>
     430:	ffff07b7          	lui	a5,0xffff0
     434:	00178793          	addi	a5,a5,1 # ffff0001 <_stack+0xfffb0001>
     438:	06042223          	sw	zero,100(s0)
     43c:	00042023          	sw	zero,0(s0)
     440:	00042223          	sw	zero,4(s0)
     444:	00042423          	sw	zero,8(s0)
     448:	00f42623          	sw	a5,12(s0)
     44c:	00042823          	sw	zero,16(s0)
     450:	00042a23          	sw	zero,20(s0)
     454:	00042c23          	sw	zero,24(s0)
     458:	00800613          	li	a2,8
     45c:	00000593          	li	a1,0
     460:	05c40513          	addi	a0,s0,92
     464:	1d8010ef          	jal	ra,163c <memset>
     468:	02042823          	sw	zero,48(s0)
     46c:	02042a23          	sw	zero,52(s0)
     470:	04042223          	sw	zero,68(s0)
     474:	04042423          	sw	zero,72(s0)
     478:	01c12083          	lw	ra,28(sp)
     47c:	00040513          	mv	a0,s0
     480:	01812403          	lw	s0,24(sp)
     484:	01412483          	lw	s1,20(sp)
     488:	01012903          	lw	s2,16(sp)
     48c:	00c12983          	lw	s3,12(sp)
     490:	00812a03          	lw	s4,8(sp)
     494:	02010113          	addi	sp,sp,32
     498:	00008067          	ret
     49c:	00092403          	lw	s0,0(s2)
     4a0:	00040c63          	beqz	s0,4b8 <__sfp+0xec>
     4a4:	00040913          	mv	s2,s0
     4a8:	f61ff06f          	j	408 <__sfp+0x3c>
     4ac:	00090513          	mv	a0,s2
     4b0:	d31ff0ef          	jal	ra,1e0 <__sinit.part.0>
     4b4:	f49ff06f          	j	3fc <__sfp+0x30>
     4b8:	1ac00593          	li	a1,428
     4bc:	00098513          	mv	a0,s3
     4c0:	6a0000ef          	jal	ra,b60 <_malloc_r>
     4c4:	00050413          	mv	s0,a0
     4c8:	02050663          	beqz	a0,4f4 <__sfp+0x128>
     4cc:	00c50513          	addi	a0,a0,12
     4d0:	00042023          	sw	zero,0(s0)
     4d4:	01442223          	sw	s4,4(s0)
     4d8:	00a42423          	sw	a0,8(s0)
     4dc:	1a000613          	li	a2,416
     4e0:	00000593          	li	a1,0
     4e4:	158010ef          	jal	ra,163c <memset>
     4e8:	00892023          	sw	s0,0(s2)
     4ec:	00040913          	mv	s2,s0
     4f0:	f19ff06f          	j	408 <__sfp+0x3c>
     4f4:	00092023          	sw	zero,0(s2)
     4f8:	00c00793          	li	a5,12
     4fc:	00f9a023          	sw	a5,0(s3)
     500:	f79ff06f          	j	478 <__sfp+0xac>

00000504 <_cleanup>:
     504:	000207b7          	lui	a5,0x20
     508:	0107a503          	lw	a0,16(a5) # 20010 <_global_impure_ptr>
     50c:	000025b7          	lui	a1,0x2
     510:	07058593          	addi	a1,a1,112 # 2070 <_fclose_r>
     514:	5980006f          	j	aac <_fwalk_reent>

00000518 <__sinit>:
     518:	03852783          	lw	a5,56(a0)
     51c:	00078463          	beqz	a5,524 <__sinit+0xc>
     520:	00008067          	ret
     524:	cbdff06f          	j	1e0 <__sinit.part.0>

00000528 <__sfp_lock_acquire>:
     528:	00008067          	ret

0000052c <__sfp_lock_release>:
     52c:	00008067          	ret

00000530 <__sinit_lock_acquire>:
     530:	00008067          	ret

00000534 <__sinit_lock_release>:
     534:	00008067          	ret

00000538 <__fp_lock_all>:
     538:	000207b7          	lui	a5,0x20
     53c:	0147a503          	lw	a0,20(a5) # 20014 <_impure_ptr>
     540:	1c400593          	li	a1,452
     544:	4c40006f          	j	a08 <_fwalk>

00000548 <__fp_unlock_all>:
     548:	000207b7          	lui	a5,0x20
     54c:	0147a503          	lw	a0,20(a5) # 20014 <_impure_ptr>
     550:	1d800593          	li	a1,472
     554:	4b40006f          	j	a08 <_fwalk>

00000558 <__sfvwrite_r>:
     558:	00862783          	lw	a5,8(a2)
     55c:	32078063          	beqz	a5,87c <__sfvwrite_r+0x324>
     560:	00c5d683          	lhu	a3,12(a1)
     564:	fd010113          	addi	sp,sp,-48
     568:	02812423          	sw	s0,40(sp)
     56c:	01412c23          	sw	s4,24(sp)
     570:	01712623          	sw	s7,12(sp)
     574:	02112623          	sw	ra,44(sp)
     578:	02912223          	sw	s1,36(sp)
     57c:	03212023          	sw	s2,32(sp)
     580:	01312e23          	sw	s3,28(sp)
     584:	01512a23          	sw	s5,20(sp)
     588:	01612823          	sw	s6,16(sp)
     58c:	01812423          	sw	s8,8(sp)
     590:	01912223          	sw	s9,4(sp)
     594:	01a12023          	sw	s10,0(sp)
     598:	0086f793          	andi	a5,a3,8
     59c:	00060b93          	mv	s7,a2
     5a0:	00050a13          	mv	s4,a0
     5a4:	00058413          	mv	s0,a1
     5a8:	08078663          	beqz	a5,634 <__sfvwrite_r+0xdc>
     5ac:	0105a783          	lw	a5,16(a1)
     5b0:	08078263          	beqz	a5,634 <__sfvwrite_r+0xdc>
     5b4:	0026f793          	andi	a5,a3,2
     5b8:	000ba483          	lw	s1,0(s7)
     5bc:	08078c63          	beqz	a5,654 <__sfvwrite_r+0xfc>
     5c0:	02442783          	lw	a5,36(s0)
     5c4:	01c42583          	lw	a1,28(s0)
     5c8:	80000ab7          	lui	s5,0x80000
     5cc:	00000993          	li	s3,0
     5d0:	00000913          	li	s2,0
     5d4:	c00aca93          	xori	s5,s5,-1024
     5d8:	00098613          	mv	a2,s3
     5dc:	000a0513          	mv	a0,s4
     5e0:	04090263          	beqz	s2,624 <__sfvwrite_r+0xcc>
     5e4:	00090693          	mv	a3,s2
     5e8:	012af463          	bgeu	s5,s2,5f0 <__sfvwrite_r+0x98>
     5ec:	000a8693          	mv	a3,s5
     5f0:	000780e7          	jalr	a5
     5f4:	26a05a63          	blez	a0,868 <__sfvwrite_r+0x310>
     5f8:	008ba783          	lw	a5,8(s7)
     5fc:	00a989b3          	add	s3,s3,a0
     600:	40a90933          	sub	s2,s2,a0
     604:	40a787b3          	sub	a5,a5,a0
     608:	00fba423          	sw	a5,8(s7)
     60c:	20078863          	beqz	a5,81c <__sfvwrite_r+0x2c4>
     610:	02442783          	lw	a5,36(s0)
     614:	01c42583          	lw	a1,28(s0)
     618:	00098613          	mv	a2,s3
     61c:	000a0513          	mv	a0,s4
     620:	fc0912e3          	bnez	s2,5e4 <__sfvwrite_r+0x8c>
     624:	0004a983          	lw	s3,0(s1)
     628:	0044a903          	lw	s2,4(s1)
     62c:	00848493          	addi	s1,s1,8
     630:	fa9ff06f          	j	5d8 <__sfvwrite_r+0x80>
     634:	00040593          	mv	a1,s0
     638:	000a0513          	mv	a0,s4
     63c:	069010ef          	jal	ra,1ea4 <__swsetup_r>
     640:	3c051063          	bnez	a0,a00 <__sfvwrite_r+0x4a8>
     644:	00c45683          	lhu	a3,12(s0)
     648:	000ba483          	lw	s1,0(s7)
     64c:	0026f793          	andi	a5,a3,2
     650:	f60798e3          	bnez	a5,5c0 <__sfvwrite_r+0x68>
     654:	0016f793          	andi	a5,a3,1
     658:	12079e63          	bnez	a5,794 <__sfvwrite_r+0x23c>
     65c:	00042783          	lw	a5,0(s0)
     660:	00842703          	lw	a4,8(s0)
     664:	80000ab7          	lui	s5,0x80000
     668:	ffeacb13          	xori	s6,s5,-2
     66c:	00000c13          	li	s8,0
     670:	00000993          	li	s3,0
     674:	fffaca93          	not	s5,s5
     678:	00078513          	mv	a0,a5
     67c:	00070c93          	mv	s9,a4
     680:	10098263          	beqz	s3,784 <__sfvwrite_r+0x22c>
     684:	2006f613          	andi	a2,a3,512
     688:	24060e63          	beqz	a2,8e4 <__sfvwrite_r+0x38c>
     68c:	00070d13          	mv	s10,a4
     690:	2ee9e663          	bltu	s3,a4,97c <__sfvwrite_r+0x424>
     694:	4806f713          	andi	a4,a3,1152
     698:	08070a63          	beqz	a4,72c <__sfvwrite_r+0x1d4>
     69c:	01442603          	lw	a2,20(s0)
     6a0:	01042583          	lw	a1,16(s0)
     6a4:	00161713          	slli	a4,a2,0x1
     6a8:	00c70733          	add	a4,a4,a2
     6ac:	40b78933          	sub	s2,a5,a1
     6b0:	01f75c93          	srli	s9,a4,0x1f
     6b4:	00ec8cb3          	add	s9,s9,a4
     6b8:	00190793          	addi	a5,s2,1
     6bc:	401cdc93          	srai	s9,s9,0x1
     6c0:	013787b3          	add	a5,a5,s3
     6c4:	000c8613          	mv	a2,s9
     6c8:	00fcf663          	bgeu	s9,a5,6d4 <__sfvwrite_r+0x17c>
     6cc:	00078c93          	mv	s9,a5
     6d0:	00078613          	mv	a2,a5
     6d4:	4006f693          	andi	a3,a3,1024
     6d8:	2c068e63          	beqz	a3,9b4 <__sfvwrite_r+0x45c>
     6dc:	00060593          	mv	a1,a2
     6e0:	000a0513          	mv	a0,s4
     6e4:	47c000ef          	jal	ra,b60 <_malloc_r>
     6e8:	00050d13          	mv	s10,a0
     6ec:	30050263          	beqz	a0,9f0 <__sfvwrite_r+0x498>
     6f0:	01042583          	lw	a1,16(s0)
     6f4:	00090613          	mv	a2,s2
     6f8:	4fd000ef          	jal	ra,13f4 <memcpy>
     6fc:	00c45783          	lhu	a5,12(s0)
     700:	b7f7f793          	andi	a5,a5,-1153
     704:	0807e793          	ori	a5,a5,128
     708:	00f41623          	sh	a5,12(s0)
     70c:	012d0533          	add	a0,s10,s2
     710:	412c87b3          	sub	a5,s9,s2
     714:	01a42823          	sw	s10,16(s0)
     718:	01942a23          	sw	s9,20(s0)
     71c:	00a42023          	sw	a0,0(s0)
     720:	00098c93          	mv	s9,s3
     724:	00f42423          	sw	a5,8(s0)
     728:	00098d13          	mv	s10,s3
     72c:	000d0613          	mv	a2,s10
     730:	000c0593          	mv	a1,s8
     734:	5e9000ef          	jal	ra,151c <memmove>
     738:	00842703          	lw	a4,8(s0)
     73c:	00042783          	lw	a5,0(s0)
     740:	00098913          	mv	s2,s3
     744:	41970733          	sub	a4,a4,s9
     748:	01a787b3          	add	a5,a5,s10
     74c:	00e42423          	sw	a4,8(s0)
     750:	00f42023          	sw	a5,0(s0)
     754:	00000993          	li	s3,0
     758:	008ba783          	lw	a5,8(s7)
     75c:	012c0c33          	add	s8,s8,s2
     760:	412787b3          	sub	a5,a5,s2
     764:	00fba423          	sw	a5,8(s7)
     768:	0a078a63          	beqz	a5,81c <__sfvwrite_r+0x2c4>
     76c:	00042783          	lw	a5,0(s0)
     770:	00842703          	lw	a4,8(s0)
     774:	00c45683          	lhu	a3,12(s0)
     778:	00078513          	mv	a0,a5
     77c:	00070c93          	mv	s9,a4
     780:	f00992e3          	bnez	s3,684 <__sfvwrite_r+0x12c>
     784:	0004ac03          	lw	s8,0(s1)
     788:	0044a983          	lw	s3,4(s1)
     78c:	00848493          	addi	s1,s1,8
     790:	ee9ff06f          	j	678 <__sfvwrite_r+0x120>
     794:	00000a93          	li	s5,0
     798:	00000513          	li	a0,0
     79c:	00000c13          	li	s8,0
     7a0:	00000993          	li	s3,0
     7a4:	0e098063          	beqz	s3,884 <__sfvwrite_r+0x32c>
     7a8:	0e050863          	beqz	a0,898 <__sfvwrite_r+0x340>
     7ac:	000a8793          	mv	a5,s5
     7b0:	00098b13          	mv	s6,s3
     7b4:	0137f463          	bgeu	a5,s3,7bc <__sfvwrite_r+0x264>
     7b8:	00078b13          	mv	s6,a5
     7bc:	00042503          	lw	a0,0(s0)
     7c0:	01042783          	lw	a5,16(s0)
     7c4:	00842903          	lw	s2,8(s0)
     7c8:	01442683          	lw	a3,20(s0)
     7cc:	00a7f663          	bgeu	a5,a0,7d8 <__sfvwrite_r+0x280>
     7d0:	00d90933          	add	s2,s2,a3
     7d4:	0f694263          	blt	s2,s6,8b8 <__sfvwrite_r+0x360>
     7d8:	1adb4863          	blt	s6,a3,988 <__sfvwrite_r+0x430>
     7dc:	02442783          	lw	a5,36(s0)
     7e0:	01c42583          	lw	a1,28(s0)
     7e4:	000c0613          	mv	a2,s8
     7e8:	000a0513          	mv	a0,s4
     7ec:	000780e7          	jalr	a5
     7f0:	00050913          	mv	s2,a0
     7f4:	06a05a63          	blez	a0,868 <__sfvwrite_r+0x310>
     7f8:	412a8ab3          	sub	s5,s5,s2
     7fc:	00100513          	li	a0,1
     800:	040a8c63          	beqz	s5,858 <__sfvwrite_r+0x300>
     804:	008ba783          	lw	a5,8(s7)
     808:	012c0c33          	add	s8,s8,s2
     80c:	412989b3          	sub	s3,s3,s2
     810:	412787b3          	sub	a5,a5,s2
     814:	00fba423          	sw	a5,8(s7)
     818:	f80796e3          	bnez	a5,7a4 <__sfvwrite_r+0x24c>
     81c:	00000513          	li	a0,0
     820:	02c12083          	lw	ra,44(sp)
     824:	02812403          	lw	s0,40(sp)
     828:	02412483          	lw	s1,36(sp)
     82c:	02012903          	lw	s2,32(sp)
     830:	01c12983          	lw	s3,28(sp)
     834:	01812a03          	lw	s4,24(sp)
     838:	01412a83          	lw	s5,20(sp)
     83c:	01012b03          	lw	s6,16(sp)
     840:	00c12b83          	lw	s7,12(sp)
     844:	00812c03          	lw	s8,8(sp)
     848:	00412c83          	lw	s9,4(sp)
     84c:	00012d03          	lw	s10,0(sp)
     850:	03010113          	addi	sp,sp,48
     854:	00008067          	ret
     858:	00040593          	mv	a1,s0
     85c:	000a0513          	mv	a0,s4
     860:	395010ef          	jal	ra,23f4 <_fflush_r>
     864:	fa0500e3          	beqz	a0,804 <__sfvwrite_r+0x2ac>
     868:	00c41783          	lh	a5,12(s0)
     86c:	0407e793          	ori	a5,a5,64
     870:	00f41623          	sh	a5,12(s0)
     874:	fff00513          	li	a0,-1
     878:	fa9ff06f          	j	820 <__sfvwrite_r+0x2c8>
     87c:	00000513          	li	a0,0
     880:	00008067          	ret
     884:	0044a983          	lw	s3,4(s1)
     888:	00048793          	mv	a5,s1
     88c:	00848493          	addi	s1,s1,8
     890:	fe098ae3          	beqz	s3,884 <__sfvwrite_r+0x32c>
     894:	0007ac03          	lw	s8,0(a5)
     898:	00098613          	mv	a2,s3
     89c:	00a00593          	li	a1,10
     8a0:	000c0513          	mv	a0,s8
     8a4:	289000ef          	jal	ra,132c <memchr>
     8a8:	12050e63          	beqz	a0,9e4 <__sfvwrite_r+0x48c>
     8ac:	00150513          	addi	a0,a0,1
     8b0:	41850ab3          	sub	s5,a0,s8
     8b4:	ef9ff06f          	j	7ac <__sfvwrite_r+0x254>
     8b8:	000c0593          	mv	a1,s8
     8bc:	00090613          	mv	a2,s2
     8c0:	45d000ef          	jal	ra,151c <memmove>
     8c4:	00042783          	lw	a5,0(s0)
     8c8:	00040593          	mv	a1,s0
     8cc:	000a0513          	mv	a0,s4
     8d0:	012787b3          	add	a5,a5,s2
     8d4:	00f42023          	sw	a5,0(s0)
     8d8:	31d010ef          	jal	ra,23f4 <_fflush_r>
     8dc:	f0050ee3          	beqz	a0,7f8 <__sfvwrite_r+0x2a0>
     8e0:	f89ff06f          	j	868 <__sfvwrite_r+0x310>
     8e4:	01042683          	lw	a3,16(s0)
     8e8:	04f6e263          	bltu	a3,a5,92c <__sfvwrite_r+0x3d4>
     8ec:	01442803          	lw	a6,20(s0)
     8f0:	0309ee63          	bltu	s3,a6,92c <__sfvwrite_r+0x3d4>
     8f4:	00098693          	mv	a3,s3
     8f8:	013b7463          	bgeu	s6,s3,900 <__sfvwrite_r+0x3a8>
     8fc:	000a8693          	mv	a3,s5
     900:	0306c6b3          	div	a3,a3,a6
     904:	02442783          	lw	a5,36(s0)
     908:	01c42583          	lw	a1,28(s0)
     90c:	000c0613          	mv	a2,s8
     910:	000a0513          	mv	a0,s4
     914:	030686b3          	mul	a3,a3,a6
     918:	000780e7          	jalr	a5
     91c:	00050913          	mv	s2,a0
     920:	f4a054e3          	blez	a0,868 <__sfvwrite_r+0x310>
     924:	412989b3          	sub	s3,s3,s2
     928:	e31ff06f          	j	758 <__sfvwrite_r+0x200>
     92c:	00070913          	mv	s2,a4
     930:	00e9f463          	bgeu	s3,a4,938 <__sfvwrite_r+0x3e0>
     934:	00098913          	mv	s2,s3
     938:	00078513          	mv	a0,a5
     93c:	00090613          	mv	a2,s2
     940:	000c0593          	mv	a1,s8
     944:	3d9000ef          	jal	ra,151c <memmove>
     948:	00842703          	lw	a4,8(s0)
     94c:	00042783          	lw	a5,0(s0)
     950:	41270733          	sub	a4,a4,s2
     954:	012787b3          	add	a5,a5,s2
     958:	00e42423          	sw	a4,8(s0)
     95c:	00f42023          	sw	a5,0(s0)
     960:	fc0712e3          	bnez	a4,924 <__sfvwrite_r+0x3cc>
     964:	00040593          	mv	a1,s0
     968:	000a0513          	mv	a0,s4
     96c:	289010ef          	jal	ra,23f4 <_fflush_r>
     970:	ee051ce3          	bnez	a0,868 <__sfvwrite_r+0x310>
     974:	412989b3          	sub	s3,s3,s2
     978:	de1ff06f          	j	758 <__sfvwrite_r+0x200>
     97c:	00098c93          	mv	s9,s3
     980:	00098d13          	mv	s10,s3
     984:	da9ff06f          	j	72c <__sfvwrite_r+0x1d4>
     988:	000b0613          	mv	a2,s6
     98c:	000c0593          	mv	a1,s8
     990:	38d000ef          	jal	ra,151c <memmove>
     994:	00842703          	lw	a4,8(s0)
     998:	00042783          	lw	a5,0(s0)
     99c:	000b0913          	mv	s2,s6
     9a0:	41670733          	sub	a4,a4,s6
     9a4:	016787b3          	add	a5,a5,s6
     9a8:	00e42423          	sw	a4,8(s0)
     9ac:	00f42023          	sw	a5,0(s0)
     9b0:	e49ff06f          	j	7f8 <__sfvwrite_r+0x2a0>
     9b4:	000a0513          	mv	a0,s4
     9b8:	569000ef          	jal	ra,1720 <_realloc_r>
     9bc:	00050d13          	mv	s10,a0
     9c0:	d40516e3          	bnez	a0,70c <__sfvwrite_r+0x1b4>
     9c4:	01042583          	lw	a1,16(s0)
     9c8:	000a0513          	mv	a0,s4
     9cc:	44d010ef          	jal	ra,2618 <_free_r>
     9d0:	00c41783          	lh	a5,12(s0)
     9d4:	00c00713          	li	a4,12
     9d8:	00ea2023          	sw	a4,0(s4)
     9dc:	f7f7f793          	andi	a5,a5,-129
     9e0:	e8dff06f          	j	86c <__sfvwrite_r+0x314>
     9e4:	00198793          	addi	a5,s3,1
     9e8:	00078a93          	mv	s5,a5
     9ec:	dc5ff06f          	j	7b0 <__sfvwrite_r+0x258>
     9f0:	00c00713          	li	a4,12
     9f4:	00c41783          	lh	a5,12(s0)
     9f8:	00ea2023          	sw	a4,0(s4)
     9fc:	e71ff06f          	j	86c <__sfvwrite_r+0x314>
     a00:	fff00513          	li	a0,-1
     a04:	e1dff06f          	j	820 <__sfvwrite_r+0x2c8>

00000a08 <_fwalk>:
     a08:	fe010113          	addi	sp,sp,-32
     a0c:	01212823          	sw	s2,16(sp)
     a10:	01312623          	sw	s3,12(sp)
     a14:	01412423          	sw	s4,8(sp)
     a18:	01512223          	sw	s5,4(sp)
     a1c:	01612023          	sw	s6,0(sp)
     a20:	00112e23          	sw	ra,28(sp)
     a24:	00812c23          	sw	s0,24(sp)
     a28:	00912a23          	sw	s1,20(sp)
     a2c:	00058b13          	mv	s6,a1
     a30:	2e050a93          	addi	s5,a0,736
     a34:	00000a13          	li	s4,0
     a38:	00100993          	li	s3,1
     a3c:	fff00913          	li	s2,-1
     a40:	004aa483          	lw	s1,4(s5) # 80000004 <_stack+0x7ffc0004>
     a44:	008aa403          	lw	s0,8(s5)
     a48:	fff48493          	addi	s1,s1,-1
     a4c:	0204c663          	bltz	s1,a78 <_fwalk+0x70>
     a50:	00c45783          	lhu	a5,12(s0)
     a54:	fff48493          	addi	s1,s1,-1
     a58:	00f9fc63          	bgeu	s3,a5,a70 <_fwalk+0x68>
     a5c:	00e41783          	lh	a5,14(s0)
     a60:	00040513          	mv	a0,s0
     a64:	01278663          	beq	a5,s2,a70 <_fwalk+0x68>
     a68:	000b00e7          	jalr	s6
     a6c:	00aa6a33          	or	s4,s4,a0
     a70:	06840413          	addi	s0,s0,104
     a74:	fd249ee3          	bne	s1,s2,a50 <_fwalk+0x48>
     a78:	000aaa83          	lw	s5,0(s5)
     a7c:	fc0a92e3          	bnez	s5,a40 <_fwalk+0x38>
     a80:	01c12083          	lw	ra,28(sp)
     a84:	01812403          	lw	s0,24(sp)
     a88:	01412483          	lw	s1,20(sp)
     a8c:	01012903          	lw	s2,16(sp)
     a90:	00c12983          	lw	s3,12(sp)
     a94:	00412a83          	lw	s5,4(sp)
     a98:	00012b03          	lw	s6,0(sp)
     a9c:	000a0513          	mv	a0,s4
     aa0:	00812a03          	lw	s4,8(sp)
     aa4:	02010113          	addi	sp,sp,32
     aa8:	00008067          	ret

00000aac <_fwalk_reent>:
     aac:	fd010113          	addi	sp,sp,-48
     ab0:	03212023          	sw	s2,32(sp)
     ab4:	01312e23          	sw	s3,28(sp)
     ab8:	01412c23          	sw	s4,24(sp)
     abc:	01512a23          	sw	s5,20(sp)
     ac0:	01612823          	sw	s6,16(sp)
     ac4:	01712623          	sw	s7,12(sp)
     ac8:	02112623          	sw	ra,44(sp)
     acc:	02812423          	sw	s0,40(sp)
     ad0:	02912223          	sw	s1,36(sp)
     ad4:	00050a93          	mv	s5,a0
     ad8:	00058b93          	mv	s7,a1
     adc:	2e050b13          	addi	s6,a0,736
     ae0:	00000a13          	li	s4,0
     ae4:	00100993          	li	s3,1
     ae8:	fff00913          	li	s2,-1
     aec:	004b2483          	lw	s1,4(s6)
     af0:	008b2403          	lw	s0,8(s6)
     af4:	fff48493          	addi	s1,s1,-1
     af8:	0204c863          	bltz	s1,b28 <_fwalk_reent+0x7c>
     afc:	00c45783          	lhu	a5,12(s0)
     b00:	fff48493          	addi	s1,s1,-1
     b04:	00f9fe63          	bgeu	s3,a5,b20 <_fwalk_reent+0x74>
     b08:	00e41783          	lh	a5,14(s0)
     b0c:	00040593          	mv	a1,s0
     b10:	000a8513          	mv	a0,s5
     b14:	01278663          	beq	a5,s2,b20 <_fwalk_reent+0x74>
     b18:	000b80e7          	jalr	s7
     b1c:	00aa6a33          	or	s4,s4,a0
     b20:	06840413          	addi	s0,s0,104
     b24:	fd249ce3          	bne	s1,s2,afc <_fwalk_reent+0x50>
     b28:	000b2b03          	lw	s6,0(s6)
     b2c:	fc0b10e3          	bnez	s6,aec <_fwalk_reent+0x40>
     b30:	02c12083          	lw	ra,44(sp)
     b34:	02812403          	lw	s0,40(sp)
     b38:	02412483          	lw	s1,36(sp)
     b3c:	02012903          	lw	s2,32(sp)
     b40:	01c12983          	lw	s3,28(sp)
     b44:	01412a83          	lw	s5,20(sp)
     b48:	01012b03          	lw	s6,16(sp)
     b4c:	00c12b83          	lw	s7,12(sp)
     b50:	000a0513          	mv	a0,s4
     b54:	01812a03          	lw	s4,24(sp)
     b58:	03010113          	addi	sp,sp,48
     b5c:	00008067          	ret

00000b60 <_malloc_r>:
     b60:	fd010113          	addi	sp,sp,-48
     b64:	01312e23          	sw	s3,28(sp)
     b68:	02112623          	sw	ra,44(sp)
     b6c:	02812423          	sw	s0,40(sp)
     b70:	02912223          	sw	s1,36(sp)
     b74:	03212023          	sw	s2,32(sp)
     b78:	01412c23          	sw	s4,24(sp)
     b7c:	01512a23          	sw	s5,20(sp)
     b80:	01612823          	sw	s6,16(sp)
     b84:	01712623          	sw	s7,12(sp)
     b88:	01812423          	sw	s8,8(sp)
     b8c:	01912223          	sw	s9,4(sp)
     b90:	01a12023          	sw	s10,0(sp)
     b94:	00b58793          	addi	a5,a1,11
     b98:	01600713          	li	a4,22
     b9c:	00050993          	mv	s3,a0
     ba0:	06f76663          	bltu	a4,a5,c0c <_malloc_r+0xac>
     ba4:	01000793          	li	a5,16
     ba8:	1eb7e663          	bltu	a5,a1,d94 <_malloc_r+0x234>
     bac:	36d000ef          	jal	ra,1718 <__malloc_lock>
     bb0:	01000493          	li	s1,16
     bb4:	01800793          	li	a5,24
     bb8:	00200613          	li	a2,2
     bbc:	00020937          	lui	s2,0x20
     bc0:	46090913          	addi	s2,s2,1120 # 20460 <__malloc_av_>
     bc4:	00f907b3          	add	a5,s2,a5
     bc8:	0047a403          	lw	s0,4(a5)
     bcc:	ff878713          	addi	a4,a5,-8
     bd0:	20e40c63          	beq	s0,a4,de8 <_malloc_r+0x288>
     bd4:	00442783          	lw	a5,4(s0)
     bd8:	00c42683          	lw	a3,12(s0)
     bdc:	00842603          	lw	a2,8(s0)
     be0:	ffc7f793          	andi	a5,a5,-4
     be4:	00f407b3          	add	a5,s0,a5
     be8:	0047a703          	lw	a4,4(a5)
     bec:	00d62623          	sw	a3,12(a2)
     bf0:	00c6a423          	sw	a2,8(a3)
     bf4:	00176713          	ori	a4,a4,1
     bf8:	00098513          	mv	a0,s3
     bfc:	00e7a223          	sw	a4,4(a5)
     c00:	31d000ef          	jal	ra,171c <__malloc_unlock>
     c04:	00840513          	addi	a0,s0,8
     c08:	1980006f          	j	da0 <_malloc_r+0x240>
     c0c:	ff87f493          	andi	s1,a5,-8
     c10:	1807c263          	bltz	a5,d94 <_malloc_r+0x234>
     c14:	18b4e063          	bltu	s1,a1,d94 <_malloc_r+0x234>
     c18:	301000ef          	jal	ra,1718 <__malloc_lock>
     c1c:	1f700793          	li	a5,503
     c20:	4697fe63          	bgeu	a5,s1,109c <_malloc_r+0x53c>
     c24:	0094d793          	srli	a5,s1,0x9
     c28:	1a078863          	beqz	a5,dd8 <_malloc_r+0x278>
     c2c:	00400713          	li	a4,4
     c30:	3ef76463          	bltu	a4,a5,1018 <_malloc_r+0x4b8>
     c34:	0064d793          	srli	a5,s1,0x6
     c38:	03978613          	addi	a2,a5,57
     c3c:	03878513          	addi	a0,a5,56
     c40:	00361693          	slli	a3,a2,0x3
     c44:	00020937          	lui	s2,0x20
     c48:	46090913          	addi	s2,s2,1120 # 20460 <__malloc_av_>
     c4c:	00d906b3          	add	a3,s2,a3
     c50:	0046a403          	lw	s0,4(a3)
     c54:	ff868693          	addi	a3,a3,-8
     c58:	02868663          	beq	a3,s0,c84 <_malloc_r+0x124>
     c5c:	00f00593          	li	a1,15
     c60:	0100006f          	j	c70 <_malloc_r+0x110>
     c64:	34075463          	bgez	a4,fac <_malloc_r+0x44c>
     c68:	00c42403          	lw	s0,12(s0)
     c6c:	00868c63          	beq	a3,s0,c84 <_malloc_r+0x124>
     c70:	00442783          	lw	a5,4(s0)
     c74:	ffc7f793          	andi	a5,a5,-4
     c78:	40978733          	sub	a4,a5,s1
     c7c:	fee5d4e3          	bge	a1,a4,c64 <_malloc_r+0x104>
     c80:	00050613          	mv	a2,a0
     c84:	01092403          	lw	s0,16(s2)
     c88:	00890893          	addi	a7,s2,8
     c8c:	17140a63          	beq	s0,a7,e00 <_malloc_r+0x2a0>
     c90:	00442583          	lw	a1,4(s0)
     c94:	00f00713          	li	a4,15
     c98:	ffc5f593          	andi	a1,a1,-4
     c9c:	409587b3          	sub	a5,a1,s1
     ca0:	42f74463          	blt	a4,a5,10c8 <_malloc_r+0x568>
     ca4:	01192a23          	sw	a7,20(s2)
     ca8:	01192823          	sw	a7,16(s2)
     cac:	3e07de63          	bgez	a5,10a8 <_malloc_r+0x548>
     cb0:	1ff00793          	li	a5,511
     cb4:	30b7e263          	bltu	a5,a1,fb8 <_malloc_r+0x458>
     cb8:	ff85f793          	andi	a5,a1,-8
     cbc:	00878793          	addi	a5,a5,8
     cc0:	00492503          	lw	a0,4(s2)
     cc4:	00f907b3          	add	a5,s2,a5
     cc8:	0007a683          	lw	a3,0(a5)
     ccc:	0055d593          	srli	a1,a1,0x5
     cd0:	00100713          	li	a4,1
     cd4:	00b71733          	sll	a4,a4,a1
     cd8:	00a76733          	or	a4,a4,a0
     cdc:	ff878593          	addi	a1,a5,-8
     ce0:	00b42623          	sw	a1,12(s0)
     ce4:	00d42423          	sw	a3,8(s0)
     ce8:	00e92223          	sw	a4,4(s2)
     cec:	0087a023          	sw	s0,0(a5)
     cf0:	0086a623          	sw	s0,12(a3)
     cf4:	40265793          	srai	a5,a2,0x2
     cf8:	00100593          	li	a1,1
     cfc:	00f595b3          	sll	a1,a1,a5
     d00:	10b76a63          	bltu	a4,a1,e14 <_malloc_r+0x2b4>
     d04:	00e5f7b3          	and	a5,a1,a4
     d08:	02079463          	bnez	a5,d30 <_malloc_r+0x1d0>
     d0c:	00159593          	slli	a1,a1,0x1
     d10:	ffc67613          	andi	a2,a2,-4
     d14:	00e5f7b3          	and	a5,a1,a4
     d18:	00460613          	addi	a2,a2,4
     d1c:	00079a63          	bnez	a5,d30 <_malloc_r+0x1d0>
     d20:	00159593          	slli	a1,a1,0x1
     d24:	00e5f7b3          	and	a5,a1,a4
     d28:	00460613          	addi	a2,a2,4
     d2c:	fe078ae3          	beqz	a5,d20 <_malloc_r+0x1c0>
     d30:	00f00813          	li	a6,15
     d34:	00361313          	slli	t1,a2,0x3
     d38:	00690333          	add	t1,s2,t1
     d3c:	00030513          	mv	a0,t1
     d40:	00c52783          	lw	a5,12(a0)
     d44:	00060e13          	mv	t3,a2
     d48:	2ef50a63          	beq	a0,a5,103c <_malloc_r+0x4dc>
     d4c:	0047a703          	lw	a4,4(a5)
     d50:	00078413          	mv	s0,a5
     d54:	00c7a783          	lw	a5,12(a5)
     d58:	ffc77713          	andi	a4,a4,-4
     d5c:	409706b3          	sub	a3,a4,s1
     d60:	2ed84a63          	blt	a6,a3,1054 <_malloc_r+0x4f4>
     d64:	fe06c2e3          	bltz	a3,d48 <_malloc_r+0x1e8>
     d68:	00e40733          	add	a4,s0,a4
     d6c:	00472683          	lw	a3,4(a4)
     d70:	00842603          	lw	a2,8(s0)
     d74:	00098513          	mv	a0,s3
     d78:	0016e693          	ori	a3,a3,1
     d7c:	00d72223          	sw	a3,4(a4)
     d80:	00f62623          	sw	a5,12(a2)
     d84:	00c7a423          	sw	a2,8(a5)
     d88:	195000ef          	jal	ra,171c <__malloc_unlock>
     d8c:	00840513          	addi	a0,s0,8
     d90:	0100006f          	j	da0 <_malloc_r+0x240>
     d94:	00c00793          	li	a5,12
     d98:	00f9a023          	sw	a5,0(s3)
     d9c:	00000513          	li	a0,0
     da0:	02c12083          	lw	ra,44(sp)
     da4:	02812403          	lw	s0,40(sp)
     da8:	02412483          	lw	s1,36(sp)
     dac:	02012903          	lw	s2,32(sp)
     db0:	01c12983          	lw	s3,28(sp)
     db4:	01812a03          	lw	s4,24(sp)
     db8:	01412a83          	lw	s5,20(sp)
     dbc:	01012b03          	lw	s6,16(sp)
     dc0:	00c12b83          	lw	s7,12(sp)
     dc4:	00812c03          	lw	s8,8(sp)
     dc8:	00412c83          	lw	s9,4(sp)
     dcc:	00012d03          	lw	s10,0(sp)
     dd0:	03010113          	addi	sp,sp,48
     dd4:	00008067          	ret
     dd8:	20000693          	li	a3,512
     ddc:	04000613          	li	a2,64
     de0:	03f00513          	li	a0,63
     de4:	e61ff06f          	j	c44 <_malloc_r+0xe4>
     de8:	00c7a403          	lw	s0,12(a5)
     dec:	00260613          	addi	a2,a2,2
     df0:	de8792e3          	bne	a5,s0,bd4 <_malloc_r+0x74>
     df4:	01092403          	lw	s0,16(s2)
     df8:	00890893          	addi	a7,s2,8
     dfc:	e9141ae3          	bne	s0,a7,c90 <_malloc_r+0x130>
     e00:	00492703          	lw	a4,4(s2)
     e04:	40265793          	srai	a5,a2,0x2
     e08:	00100593          	li	a1,1
     e0c:	00f595b3          	sll	a1,a1,a5
     e10:	eeb77ae3          	bgeu	a4,a1,d04 <_malloc_r+0x1a4>
     e14:	00892403          	lw	s0,8(s2)
     e18:	00442b03          	lw	s6,4(s0)
     e1c:	ffcb7b13          	andi	s6,s6,-4
     e20:	009b6863          	bltu	s6,s1,e30 <_malloc_r+0x2d0>
     e24:	409b07b3          	sub	a5,s6,s1
     e28:	00f00713          	li	a4,15
     e2c:	14f74c63          	blt	a4,a5,f84 <_malloc_r+0x424>
     e30:	00020c37          	lui	s8,0x20
     e34:	000217b7          	lui	a5,0x21
     e38:	018c0c13          	addi	s8,s8,24 # 20018 <__malloc_sbrk_base>
     e3c:	8707aa83          	lw	s5,-1936(a5) # 20870 <__malloc_top_pad>
     e40:	000c2703          	lw	a4,0(s8)
     e44:	fff00793          	li	a5,-1
     e48:	01640cb3          	add	s9,s0,s6
     e4c:	01548ab3          	add	s5,s1,s5
     e50:	34f70e63          	beq	a4,a5,11ac <_malloc_r+0x64c>
     e54:	000017b7          	lui	a5,0x1
     e58:	00f78793          	addi	a5,a5,15 # 100f <_malloc_r+0x4af>
     e5c:	00fa8ab3          	add	s5,s5,a5
     e60:	fffff7b7          	lui	a5,0xfffff
     e64:	00fafab3          	and	s5,s5,a5
     e68:	000a8593          	mv	a1,s5
     e6c:	00098513          	mv	a0,s3
     e70:	60d000ef          	jal	ra,1c7c <_sbrk_r>
     e74:	fff00793          	li	a5,-1
     e78:	00050b93          	mv	s7,a0
     e7c:	2af50063          	beq	a0,a5,111c <_malloc_r+0x5bc>
     e80:	29956c63          	bltu	a0,s9,1118 <_malloc_r+0x5b8>
     e84:	00021d37          	lui	s10,0x21
     e88:	87cd0d13          	addi	s10,s10,-1924 # 2087c <__malloc_current_mallinfo>
     e8c:	000d2a03          	lw	s4,0(s10)
     e90:	014a8a33          	add	s4,s5,s4
     e94:	014d2023          	sw	s4,0(s10)
     e98:	000a0793          	mv	a5,s4
     e9c:	3aac8863          	beq	s9,a0,124c <_malloc_r+0x6ec>
     ea0:	000c2683          	lw	a3,0(s8)
     ea4:	fff00713          	li	a4,-1
     ea8:	3ce68063          	beq	a3,a4,1268 <_malloc_r+0x708>
     eac:	419b8cb3          	sub	s9,s7,s9
     eb0:	00fc87b3          	add	a5,s9,a5
     eb4:	00fd2023          	sw	a5,0(s10)
     eb8:	007bfc13          	andi	s8,s7,7
     ebc:	300c0a63          	beqz	s8,11d0 <_malloc_r+0x670>
     ec0:	000017b7          	lui	a5,0x1
     ec4:	418b8bb3          	sub	s7,s7,s8
     ec8:	00878a13          	addi	s4,a5,8 # 1008 <_malloc_r+0x4a8>
     ecc:	008b8b93          	addi	s7,s7,8
     ed0:	418a0a33          	sub	s4,s4,s8
     ed4:	015b8ab3          	add	s5,s7,s5
     ed8:	fff78793          	addi	a5,a5,-1
     edc:	415a0a33          	sub	s4,s4,s5
     ee0:	00fa7a33          	and	s4,s4,a5
     ee4:	000a0593          	mv	a1,s4
     ee8:	00098513          	mv	a0,s3
     eec:	591000ef          	jal	ra,1c7c <_sbrk_r>
     ef0:	fff00793          	li	a5,-1
     ef4:	3cf50463          	beq	a0,a5,12bc <_malloc_r+0x75c>
     ef8:	41750533          	sub	a0,a0,s7
     efc:	01450ab3          	add	s5,a0,s4
     f00:	000d2783          	lw	a5,0(s10)
     f04:	01792423          	sw	s7,8(s2)
     f08:	001aea93          	ori	s5,s5,1
     f0c:	00fa0a33          	add	s4,s4,a5
     f10:	014d2023          	sw	s4,0(s10)
     f14:	015ba223          	sw	s5,4(s7)
     f18:	35240c63          	beq	s0,s2,1270 <_malloc_r+0x710>
     f1c:	00f00693          	li	a3,15
     f20:	3566fc63          	bgeu	a3,s6,1278 <_malloc_r+0x718>
     f24:	00442703          	lw	a4,4(s0)
     f28:	ff4b0793          	addi	a5,s6,-12
     f2c:	ff87f793          	andi	a5,a5,-8
     f30:	00177713          	andi	a4,a4,1
     f34:	00f76733          	or	a4,a4,a5
     f38:	00e42223          	sw	a4,4(s0)
     f3c:	00500613          	li	a2,5
     f40:	00f40733          	add	a4,s0,a5
     f44:	00c72223          	sw	a2,4(a4)
     f48:	00c72423          	sw	a2,8(a4)
     f4c:	38f6e263          	bltu	a3,a5,12d0 <_malloc_r+0x770>
     f50:	004baa83          	lw	s5,4(s7)
     f54:	000b8413          	mv	s0,s7
     f58:	000217b7          	lui	a5,0x21
     f5c:	86878793          	addi	a5,a5,-1944 # 20868 <__malloc_max_sbrked_mem>
     f60:	0007a703          	lw	a4,0(a5)
     f64:	01477463          	bgeu	a4,s4,f6c <_malloc_r+0x40c>
     f68:	0147a023          	sw	s4,0(a5)
     f6c:	000217b7          	lui	a5,0x21
     f70:	86c78793          	addi	a5,a5,-1940 # 2086c <__malloc_max_total_mem>
     f74:	0007a703          	lw	a4,0(a5)
     f78:	1b477663          	bgeu	a4,s4,1124 <_malloc_r+0x5c4>
     f7c:	0147a023          	sw	s4,0(a5)
     f80:	1a40006f          	j	1124 <_malloc_r+0x5c4>
     f84:	0014e713          	ori	a4,s1,1
     f88:	00e42223          	sw	a4,4(s0)
     f8c:	009404b3          	add	s1,s0,s1
     f90:	00992423          	sw	s1,8(s2)
     f94:	0017e793          	ori	a5,a5,1
     f98:	00098513          	mv	a0,s3
     f9c:	00f4a223          	sw	a5,4(s1)
     fa0:	77c000ef          	jal	ra,171c <__malloc_unlock>
     fa4:	00840513          	addi	a0,s0,8
     fa8:	df9ff06f          	j	da0 <_malloc_r+0x240>
     fac:	00c42683          	lw	a3,12(s0)
     fb0:	00842603          	lw	a2,8(s0)
     fb4:	c31ff06f          	j	be4 <_malloc_r+0x84>
     fb8:	0095d793          	srli	a5,a1,0x9
     fbc:	00400713          	li	a4,4
     fc0:	14f77263          	bgeu	a4,a5,1104 <_malloc_r+0x5a4>
     fc4:	01400713          	li	a4,20
     fc8:	22f76a63          	bltu	a4,a5,11fc <_malloc_r+0x69c>
     fcc:	05c78693          	addi	a3,a5,92
     fd0:	05b78713          	addi	a4,a5,91
     fd4:	00369693          	slli	a3,a3,0x3
     fd8:	00d906b3          	add	a3,s2,a3
     fdc:	0006a783          	lw	a5,0(a3)
     fe0:	ff868693          	addi	a3,a3,-8
     fe4:	1cf68863          	beq	a3,a5,11b4 <_malloc_r+0x654>
     fe8:	0047a703          	lw	a4,4(a5)
     fec:	ffc77713          	andi	a4,a4,-4
     ff0:	00e5f663          	bgeu	a1,a4,ffc <_malloc_r+0x49c>
     ff4:	0087a783          	lw	a5,8(a5)
     ff8:	fef698e3          	bne	a3,a5,fe8 <_malloc_r+0x488>
     ffc:	00c7a683          	lw	a3,12(a5)
    1000:	00492703          	lw	a4,4(s2)
    1004:	00d42623          	sw	a3,12(s0)
    1008:	00f42423          	sw	a5,8(s0)
    100c:	0086a423          	sw	s0,8(a3)
    1010:	0087a623          	sw	s0,12(a5)
    1014:	ce1ff06f          	j	cf4 <_malloc_r+0x194>
    1018:	01400713          	li	a4,20
    101c:	12f77663          	bgeu	a4,a5,1148 <_malloc_r+0x5e8>
    1020:	05400713          	li	a4,84
    1024:	1ef76a63          	bltu	a4,a5,1218 <_malloc_r+0x6b8>
    1028:	00c4d793          	srli	a5,s1,0xc
    102c:	06f78613          	addi	a2,a5,111
    1030:	06e78513          	addi	a0,a5,110
    1034:	00361693          	slli	a3,a2,0x3
    1038:	c0dff06f          	j	c44 <_malloc_r+0xe4>
    103c:	001e0e13          	addi	t3,t3,1
    1040:	003e7793          	andi	a5,t3,3
    1044:	00850513          	addi	a0,a0,8
    1048:	10078e63          	beqz	a5,1164 <_malloc_r+0x604>
    104c:	00c52783          	lw	a5,12(a0)
    1050:	cf9ff06f          	j	d48 <_malloc_r+0x1e8>
    1054:	00842603          	lw	a2,8(s0)
    1058:	0014e593          	ori	a1,s1,1
    105c:	00b42223          	sw	a1,4(s0)
    1060:	00f62623          	sw	a5,12(a2)
    1064:	00c7a423          	sw	a2,8(a5)
    1068:	009404b3          	add	s1,s0,s1
    106c:	00992a23          	sw	s1,20(s2)
    1070:	00992823          	sw	s1,16(s2)
    1074:	0016e793          	ori	a5,a3,1
    1078:	0114a623          	sw	a7,12(s1)
    107c:	0114a423          	sw	a7,8(s1)
    1080:	00f4a223          	sw	a5,4(s1)
    1084:	00e40733          	add	a4,s0,a4
    1088:	00098513          	mv	a0,s3
    108c:	00d72023          	sw	a3,0(a4)
    1090:	68c000ef          	jal	ra,171c <__malloc_unlock>
    1094:	00840513          	addi	a0,s0,8
    1098:	d09ff06f          	j	da0 <_malloc_r+0x240>
    109c:	0034d613          	srli	a2,s1,0x3
    10a0:	00848793          	addi	a5,s1,8
    10a4:	b19ff06f          	j	bbc <_malloc_r+0x5c>
    10a8:	00b405b3          	add	a1,s0,a1
    10ac:	0045a783          	lw	a5,4(a1)
    10b0:	00098513          	mv	a0,s3
    10b4:	0017e793          	ori	a5,a5,1
    10b8:	00f5a223          	sw	a5,4(a1)
    10bc:	660000ef          	jal	ra,171c <__malloc_unlock>
    10c0:	00840513          	addi	a0,s0,8
    10c4:	cddff06f          	j	da0 <_malloc_r+0x240>
    10c8:	0014e713          	ori	a4,s1,1
    10cc:	00e42223          	sw	a4,4(s0)
    10d0:	009404b3          	add	s1,s0,s1
    10d4:	00992a23          	sw	s1,20(s2)
    10d8:	00992823          	sw	s1,16(s2)
    10dc:	0017e713          	ori	a4,a5,1
    10e0:	0114a623          	sw	a7,12(s1)
    10e4:	0114a423          	sw	a7,8(s1)
    10e8:	00e4a223          	sw	a4,4(s1)
    10ec:	00b405b3          	add	a1,s0,a1
    10f0:	00098513          	mv	a0,s3
    10f4:	00f5a023          	sw	a5,0(a1)
    10f8:	624000ef          	jal	ra,171c <__malloc_unlock>
    10fc:	00840513          	addi	a0,s0,8
    1100:	ca1ff06f          	j	da0 <_malloc_r+0x240>
    1104:	0065d793          	srli	a5,a1,0x6
    1108:	03978693          	addi	a3,a5,57
    110c:	03878713          	addi	a4,a5,56
    1110:	00369693          	slli	a3,a3,0x3
    1114:	ec5ff06f          	j	fd8 <_malloc_r+0x478>
    1118:	11240e63          	beq	s0,s2,1234 <_malloc_r+0x6d4>
    111c:	00892403          	lw	s0,8(s2)
    1120:	00442a83          	lw	s5,4(s0)
    1124:	ffcafa93          	andi	s5,s5,-4
    1128:	409a87b3          	sub	a5,s5,s1
    112c:	009ae663          	bltu	s5,s1,1138 <_malloc_r+0x5d8>
    1130:	00f00713          	li	a4,15
    1134:	e4f748e3          	blt	a4,a5,f84 <_malloc_r+0x424>
    1138:	00098513          	mv	a0,s3
    113c:	5e0000ef          	jal	ra,171c <__malloc_unlock>
    1140:	00000513          	li	a0,0
    1144:	c5dff06f          	j	da0 <_malloc_r+0x240>
    1148:	05c78613          	addi	a2,a5,92
    114c:	05b78513          	addi	a0,a5,91
    1150:	00361693          	slli	a3,a2,0x3
    1154:	af1ff06f          	j	c44 <_malloc_r+0xe4>
    1158:	00832783          	lw	a5,8(t1)
    115c:	fff60613          	addi	a2,a2,-1
    1160:	1c679263          	bne	a5,t1,1324 <_malloc_r+0x7c4>
    1164:	00367793          	andi	a5,a2,3
    1168:	ff830313          	addi	t1,t1,-8
    116c:	fe0796e3          	bnez	a5,1158 <_malloc_r+0x5f8>
    1170:	00492703          	lw	a4,4(s2)
    1174:	fff5c793          	not	a5,a1
    1178:	00e7f7b3          	and	a5,a5,a4
    117c:	00f92223          	sw	a5,4(s2)
    1180:	00159593          	slli	a1,a1,0x1
    1184:	c8b7e8e3          	bltu	a5,a1,e14 <_malloc_r+0x2b4>
    1188:	c80586e3          	beqz	a1,e14 <_malloc_r+0x2b4>
    118c:	00f5f733          	and	a4,a1,a5
    1190:	00071a63          	bnez	a4,11a4 <_malloc_r+0x644>
    1194:	00159593          	slli	a1,a1,0x1
    1198:	00f5f733          	and	a4,a1,a5
    119c:	004e0e13          	addi	t3,t3,4
    11a0:	fe070ae3          	beqz	a4,1194 <_malloc_r+0x634>
    11a4:	000e0613          	mv	a2,t3
    11a8:	b8dff06f          	j	d34 <_malloc_r+0x1d4>
    11ac:	010a8a93          	addi	s5,s5,16
    11b0:	cb9ff06f          	j	e68 <_malloc_r+0x308>
    11b4:	00492503          	lw	a0,4(s2)
    11b8:	40275593          	srai	a1,a4,0x2
    11bc:	00100713          	li	a4,1
    11c0:	00b71733          	sll	a4,a4,a1
    11c4:	00a76733          	or	a4,a4,a0
    11c8:	00e92223          	sw	a4,4(s2)
    11cc:	e39ff06f          	j	1004 <_malloc_r+0x4a4>
    11d0:	015b8a33          	add	s4,s7,s5
    11d4:	41400a33          	neg	s4,s4
    11d8:	014a1a13          	slli	s4,s4,0x14
    11dc:	014a5a13          	srli	s4,s4,0x14
    11e0:	000a0593          	mv	a1,s4
    11e4:	00098513          	mv	a0,s3
    11e8:	295000ef          	jal	ra,1c7c <_sbrk_r>
    11ec:	fff00793          	li	a5,-1
    11f0:	d0f514e3          	bne	a0,a5,ef8 <_malloc_r+0x398>
    11f4:	00000a13          	li	s4,0
    11f8:	d09ff06f          	j	f00 <_malloc_r+0x3a0>
    11fc:	05400713          	li	a4,84
    1200:	08f76263          	bltu	a4,a5,1284 <_malloc_r+0x724>
    1204:	00c5d793          	srli	a5,a1,0xc
    1208:	06f78693          	addi	a3,a5,111
    120c:	06e78713          	addi	a4,a5,110
    1210:	00369693          	slli	a3,a3,0x3
    1214:	dc5ff06f          	j	fd8 <_malloc_r+0x478>
    1218:	15400713          	li	a4,340
    121c:	08f76263          	bltu	a4,a5,12a0 <_malloc_r+0x740>
    1220:	00f4d793          	srli	a5,s1,0xf
    1224:	07878613          	addi	a2,a5,120
    1228:	07778513          	addi	a0,a5,119
    122c:	00361693          	slli	a3,a2,0x3
    1230:	a15ff06f          	j	c44 <_malloc_r+0xe4>
    1234:	00021d37          	lui	s10,0x21
    1238:	87cd0d13          	addi	s10,s10,-1924 # 2087c <__malloc_current_mallinfo>
    123c:	000d2783          	lw	a5,0(s10)
    1240:	00fa87b3          	add	a5,s5,a5
    1244:	00fd2023          	sw	a5,0(s10)
    1248:	c59ff06f          	j	ea0 <_malloc_r+0x340>
    124c:	014c9713          	slli	a4,s9,0x14
    1250:	c40718e3          	bnez	a4,ea0 <_malloc_r+0x340>
    1254:	00892403          	lw	s0,8(s2)
    1258:	015b0ab3          	add	s5,s6,s5
    125c:	001aea93          	ori	s5,s5,1
    1260:	01542223          	sw	s5,4(s0)
    1264:	cf5ff06f          	j	f58 <_malloc_r+0x3f8>
    1268:	017c2023          	sw	s7,0(s8)
    126c:	c4dff06f          	j	eb8 <_malloc_r+0x358>
    1270:	000b8413          	mv	s0,s7
    1274:	ce5ff06f          	j	f58 <_malloc_r+0x3f8>
    1278:	00100793          	li	a5,1
    127c:	00fba223          	sw	a5,4(s7)
    1280:	eb9ff06f          	j	1138 <_malloc_r+0x5d8>
    1284:	15400713          	li	a4,340
    1288:	06f76263          	bltu	a4,a5,12ec <_malloc_r+0x78c>
    128c:	00f5d793          	srli	a5,a1,0xf
    1290:	07878693          	addi	a3,a5,120
    1294:	07778713          	addi	a4,a5,119
    1298:	00369693          	slli	a3,a3,0x3
    129c:	d3dff06f          	j	fd8 <_malloc_r+0x478>
    12a0:	55400713          	li	a4,1364
    12a4:	06f76263          	bltu	a4,a5,1308 <_malloc_r+0x7a8>
    12a8:	0124d793          	srli	a5,s1,0x12
    12ac:	07d78613          	addi	a2,a5,125
    12b0:	07c78513          	addi	a0,a5,124
    12b4:	00361693          	slli	a3,a2,0x3
    12b8:	98dff06f          	j	c44 <_malloc_r+0xe4>
    12bc:	ff8c0c13          	addi	s8,s8,-8
    12c0:	018a8ab3          	add	s5,s5,s8
    12c4:	417a8ab3          	sub	s5,s5,s7
    12c8:	00000a13          	li	s4,0
    12cc:	c35ff06f          	j	f00 <_malloc_r+0x3a0>
    12d0:	00840593          	addi	a1,s0,8
    12d4:	00098513          	mv	a0,s3
    12d8:	340010ef          	jal	ra,2618 <_free_r>
    12dc:	00892403          	lw	s0,8(s2)
    12e0:	000d2a03          	lw	s4,0(s10)
    12e4:	00442a83          	lw	s5,4(s0)
    12e8:	c71ff06f          	j	f58 <_malloc_r+0x3f8>
    12ec:	55400713          	li	a4,1364
    12f0:	02f76463          	bltu	a4,a5,1318 <_malloc_r+0x7b8>
    12f4:	0125d793          	srli	a5,a1,0x12
    12f8:	07d78693          	addi	a3,a5,125
    12fc:	07c78713          	addi	a4,a5,124
    1300:	00369693          	slli	a3,a3,0x3
    1304:	cd5ff06f          	j	fd8 <_malloc_r+0x478>
    1308:	3f800693          	li	a3,1016
    130c:	07f00613          	li	a2,127
    1310:	07e00513          	li	a0,126
    1314:	931ff06f          	j	c44 <_malloc_r+0xe4>
    1318:	3f800693          	li	a3,1016
    131c:	07e00713          	li	a4,126
    1320:	cb9ff06f          	j	fd8 <_malloc_r+0x478>
    1324:	00492783          	lw	a5,4(s2)
    1328:	e59ff06f          	j	1180 <_malloc_r+0x620>

0000132c <memchr>:
    132c:	00357793          	andi	a5,a0,3
    1330:	0ff5f693          	zext.b	a3,a1
    1334:	02078a63          	beqz	a5,1368 <memchr+0x3c>
    1338:	fff60793          	addi	a5,a2,-1
    133c:	02060e63          	beqz	a2,1378 <memchr+0x4c>
    1340:	fff00613          	li	a2,-1
    1344:	0180006f          	j	135c <memchr+0x30>
    1348:	00150513          	addi	a0,a0,1
    134c:	00357713          	andi	a4,a0,3
    1350:	00070e63          	beqz	a4,136c <memchr+0x40>
    1354:	fff78793          	addi	a5,a5,-1
    1358:	02c78063          	beq	a5,a2,1378 <memchr+0x4c>
    135c:	00054703          	lbu	a4,0(a0)
    1360:	fed714e3          	bne	a4,a3,1348 <memchr+0x1c>
    1364:	00008067          	ret
    1368:	00060793          	mv	a5,a2
    136c:	00300713          	li	a4,3
    1370:	02f76663          	bltu	a4,a5,139c <memchr+0x70>
    1374:	00079663          	bnez	a5,1380 <memchr+0x54>
    1378:	00000513          	li	a0,0
    137c:	00008067          	ret
    1380:	00f507b3          	add	a5,a0,a5
    1384:	00c0006f          	j	1390 <memchr+0x64>
    1388:	00150513          	addi	a0,a0,1
    138c:	fea786e3          	beq	a5,a0,1378 <memchr+0x4c>
    1390:	00054703          	lbu	a4,0(a0)
    1394:	fed71ae3          	bne	a4,a3,1388 <memchr+0x5c>
    1398:	00008067          	ret
    139c:	0ff5f593          	zext.b	a1,a1
    13a0:	00859713          	slli	a4,a1,0x8
    13a4:	00b76733          	or	a4,a4,a1
    13a8:	01071893          	slli	a7,a4,0x10
    13ac:	feff0837          	lui	a6,0xfeff0
    13b0:	808085b7          	lui	a1,0x80808
    13b4:	00e8e8b3          	or	a7,a7,a4
    13b8:	eff80813          	addi	a6,a6,-257 # fefefeff <_stack+0xfefafeff>
    13bc:	08058593          	addi	a1,a1,128 # 80808080 <_stack+0x807c8080>
    13c0:	00300313          	li	t1,3
    13c4:	00052703          	lw	a4,0(a0)
    13c8:	00e8c733          	xor	a4,a7,a4
    13cc:	01070633          	add	a2,a4,a6
    13d0:	fff74713          	not	a4,a4
    13d4:	00e67733          	and	a4,a2,a4
    13d8:	00b77733          	and	a4,a4,a1
    13dc:	fa0712e3          	bnez	a4,1380 <memchr+0x54>
    13e0:	ffc78793          	addi	a5,a5,-4
    13e4:	00450513          	addi	a0,a0,4
    13e8:	fcf36ee3          	bltu	t1,a5,13c4 <memchr+0x98>
    13ec:	f8079ae3          	bnez	a5,1380 <memchr+0x54>
    13f0:	f89ff06f          	j	1378 <memchr+0x4c>

000013f4 <memcpy>:
    13f4:	00b547b3          	xor	a5,a0,a1
    13f8:	0037f793          	andi	a5,a5,3
    13fc:	00c508b3          	add	a7,a0,a2
    1400:	06079663          	bnez	a5,146c <memcpy+0x78>
    1404:	00300793          	li	a5,3
    1408:	06c7f263          	bgeu	a5,a2,146c <memcpy+0x78>
    140c:	00357793          	andi	a5,a0,3
    1410:	00050713          	mv	a4,a0
    1414:	0c079a63          	bnez	a5,14e8 <memcpy+0xf4>
    1418:	ffc8f613          	andi	a2,a7,-4
    141c:	40e606b3          	sub	a3,a2,a4
    1420:	02000793          	li	a5,32
    1424:	02000293          	li	t0,32
    1428:	06d7c263          	blt	a5,a3,148c <memcpy+0x98>
    142c:	00058693          	mv	a3,a1
    1430:	00070793          	mv	a5,a4
    1434:	02c77863          	bgeu	a4,a2,1464 <memcpy+0x70>
    1438:	0006a803          	lw	a6,0(a3)
    143c:	00478793          	addi	a5,a5,4
    1440:	00468693          	addi	a3,a3,4
    1444:	ff07ae23          	sw	a6,-4(a5)
    1448:	fec7e8e3          	bltu	a5,a2,1438 <memcpy+0x44>
    144c:	fff60793          	addi	a5,a2,-1
    1450:	40e787b3          	sub	a5,a5,a4
    1454:	ffc7f793          	andi	a5,a5,-4
    1458:	00478793          	addi	a5,a5,4
    145c:	00f70733          	add	a4,a4,a5
    1460:	00f585b3          	add	a1,a1,a5
    1464:	01176863          	bltu	a4,a7,1474 <memcpy+0x80>
    1468:	00008067          	ret
    146c:	00050713          	mv	a4,a0
    1470:	ff157ce3          	bgeu	a0,a7,1468 <memcpy+0x74>
    1474:	0005c783          	lbu	a5,0(a1)
    1478:	00170713          	addi	a4,a4,1
    147c:	00158593          	addi	a1,a1,1
    1480:	fef70fa3          	sb	a5,-1(a4)
    1484:	ff1768e3          	bltu	a4,a7,1474 <memcpy+0x80>
    1488:	00008067          	ret
    148c:	0045a683          	lw	a3,4(a1)
    1490:	01c5a783          	lw	a5,28(a1)
    1494:	0005af83          	lw	t6,0(a1)
    1498:	0085af03          	lw	t5,8(a1)
    149c:	00c5ae83          	lw	t4,12(a1)
    14a0:	0105ae03          	lw	t3,16(a1)
    14a4:	0145a303          	lw	t1,20(a1)
    14a8:	0185a803          	lw	a6,24(a1)
    14ac:	00d72223          	sw	a3,4(a4)
    14b0:	0205a683          	lw	a3,32(a1)
    14b4:	01f72023          	sw	t6,0(a4)
    14b8:	01e72423          	sw	t5,8(a4)
    14bc:	01d72623          	sw	t4,12(a4)
    14c0:	01c72823          	sw	t3,16(a4)
    14c4:	00672a23          	sw	t1,20(a4)
    14c8:	01072c23          	sw	a6,24(a4)
    14cc:	00f72e23          	sw	a5,28(a4)
    14d0:	02470713          	addi	a4,a4,36
    14d4:	40e607b3          	sub	a5,a2,a4
    14d8:	fed72e23          	sw	a3,-4(a4)
    14dc:	02458593          	addi	a1,a1,36
    14e0:	faf2c6e3          	blt	t0,a5,148c <memcpy+0x98>
    14e4:	f49ff06f          	j	142c <memcpy+0x38>
    14e8:	0005c683          	lbu	a3,0(a1)
    14ec:	00170713          	addi	a4,a4,1
    14f0:	00377793          	andi	a5,a4,3
    14f4:	fed70fa3          	sb	a3,-1(a4)
    14f8:	00158593          	addi	a1,a1,1
    14fc:	f0078ee3          	beqz	a5,1418 <memcpy+0x24>
    1500:	0005c683          	lbu	a3,0(a1)
    1504:	00170713          	addi	a4,a4,1
    1508:	00377793          	andi	a5,a4,3
    150c:	fed70fa3          	sb	a3,-1(a4)
    1510:	00158593          	addi	a1,a1,1
    1514:	fc079ae3          	bnez	a5,14e8 <memcpy+0xf4>
    1518:	f01ff06f          	j	1418 <memcpy+0x24>

0000151c <memmove>:
    151c:	02a5f663          	bgeu	a1,a0,1548 <memmove+0x2c>
    1520:	00c587b3          	add	a5,a1,a2
    1524:	02f57263          	bgeu	a0,a5,1548 <memmove+0x2c>
    1528:	00c50733          	add	a4,a0,a2
    152c:	0e060a63          	beqz	a2,1620 <memmove+0x104>
    1530:	fff7c683          	lbu	a3,-1(a5)
    1534:	fff78793          	addi	a5,a5,-1
    1538:	fff70713          	addi	a4,a4,-1
    153c:	00d70023          	sb	a3,0(a4)
    1540:	fef598e3          	bne	a1,a5,1530 <memmove+0x14>
    1544:	00008067          	ret
    1548:	00f00793          	li	a5,15
    154c:	02c7e863          	bltu	a5,a2,157c <memmove+0x60>
    1550:	00050793          	mv	a5,a0
    1554:	fff60693          	addi	a3,a2,-1
    1558:	0c060c63          	beqz	a2,1630 <memmove+0x114>
    155c:	00168693          	addi	a3,a3,1
    1560:	00d786b3          	add	a3,a5,a3
    1564:	0005c703          	lbu	a4,0(a1)
    1568:	00178793          	addi	a5,a5,1
    156c:	00158593          	addi	a1,a1,1
    1570:	fee78fa3          	sb	a4,-1(a5)
    1574:	fed798e3          	bne	a5,a3,1564 <memmove+0x48>
    1578:	00008067          	ret
    157c:	00b567b3          	or	a5,a0,a1
    1580:	0037f793          	andi	a5,a5,3
    1584:	0a079063          	bnez	a5,1624 <memmove+0x108>
    1588:	ff060893          	addi	a7,a2,-16
    158c:	ff08f893          	andi	a7,a7,-16
    1590:	01088893          	addi	a7,a7,16
    1594:	01150833          	add	a6,a0,a7
    1598:	00058713          	mv	a4,a1
    159c:	00050793          	mv	a5,a0
    15a0:	00072683          	lw	a3,0(a4)
    15a4:	01070713          	addi	a4,a4,16
    15a8:	01078793          	addi	a5,a5,16
    15ac:	fed7a823          	sw	a3,-16(a5)
    15b0:	ff472683          	lw	a3,-12(a4)
    15b4:	fed7aa23          	sw	a3,-12(a5)
    15b8:	ff872683          	lw	a3,-8(a4)
    15bc:	fed7ac23          	sw	a3,-8(a5)
    15c0:	ffc72683          	lw	a3,-4(a4)
    15c4:	fed7ae23          	sw	a3,-4(a5)
    15c8:	fcf81ce3          	bne	a6,a5,15a0 <memmove+0x84>
    15cc:	00c67713          	andi	a4,a2,12
    15d0:	011585b3          	add	a1,a1,a7
    15d4:	00f67813          	andi	a6,a2,15
    15d8:	04070e63          	beqz	a4,1634 <memmove+0x118>
    15dc:	00058713          	mv	a4,a1
    15e0:	00078893          	mv	a7,a5
    15e4:	00300e13          	li	t3,3
    15e8:	00072303          	lw	t1,0(a4)
    15ec:	00470713          	addi	a4,a4,4
    15f0:	40e806b3          	sub	a3,a6,a4
    15f4:	0068a023          	sw	t1,0(a7)
    15f8:	00d586b3          	add	a3,a1,a3
    15fc:	00488893          	addi	a7,a7,4
    1600:	fede64e3          	bltu	t3,a3,15e8 <memmove+0xcc>
    1604:	ffc80713          	addi	a4,a6,-4
    1608:	ffc77713          	andi	a4,a4,-4
    160c:	00470713          	addi	a4,a4,4
    1610:	00367613          	andi	a2,a2,3
    1614:	00e787b3          	add	a5,a5,a4
    1618:	00e585b3          	add	a1,a1,a4
    161c:	f39ff06f          	j	1554 <memmove+0x38>
    1620:	00008067          	ret
    1624:	fff60693          	addi	a3,a2,-1
    1628:	00050793          	mv	a5,a0
    162c:	f31ff06f          	j	155c <memmove+0x40>
    1630:	00008067          	ret
    1634:	00080613          	mv	a2,a6
    1638:	f1dff06f          	j	1554 <memmove+0x38>

0000163c <memset>:
    163c:	00f00313          	li	t1,15
    1640:	00050713          	mv	a4,a0
    1644:	02c37e63          	bgeu	t1,a2,1680 <memset+0x44>
    1648:	00f77793          	andi	a5,a4,15
    164c:	0a079063          	bnez	a5,16ec <memset+0xb0>
    1650:	08059263          	bnez	a1,16d4 <memset+0x98>
    1654:	ff067693          	andi	a3,a2,-16
    1658:	00f67613          	andi	a2,a2,15
    165c:	00e686b3          	add	a3,a3,a4
    1660:	00b72023          	sw	a1,0(a4)
    1664:	00b72223          	sw	a1,4(a4)
    1668:	00b72423          	sw	a1,8(a4)
    166c:	00b72623          	sw	a1,12(a4)
    1670:	01070713          	addi	a4,a4,16
    1674:	fed766e3          	bltu	a4,a3,1660 <memset+0x24>
    1678:	00061463          	bnez	a2,1680 <memset+0x44>
    167c:	00008067          	ret
    1680:	40c306b3          	sub	a3,t1,a2
    1684:	00269693          	slli	a3,a3,0x2
    1688:	00000297          	auipc	t0,0x0
    168c:	005686b3          	add	a3,a3,t0
    1690:	00c68067          	jr	12(a3)
    1694:	00b70723          	sb	a1,14(a4)
    1698:	00b706a3          	sb	a1,13(a4)
    169c:	00b70623          	sb	a1,12(a4)
    16a0:	00b705a3          	sb	a1,11(a4)
    16a4:	00b70523          	sb	a1,10(a4)
    16a8:	00b704a3          	sb	a1,9(a4)
    16ac:	00b70423          	sb	a1,8(a4)
    16b0:	00b703a3          	sb	a1,7(a4)
    16b4:	00b70323          	sb	a1,6(a4)
    16b8:	00b702a3          	sb	a1,5(a4)
    16bc:	00b70223          	sb	a1,4(a4)
    16c0:	00b701a3          	sb	a1,3(a4)
    16c4:	00b70123          	sb	a1,2(a4)
    16c8:	00b700a3          	sb	a1,1(a4)
    16cc:	00b70023          	sb	a1,0(a4)
    16d0:	00008067          	ret
    16d4:	0ff5f593          	zext.b	a1,a1
    16d8:	00859693          	slli	a3,a1,0x8
    16dc:	00d5e5b3          	or	a1,a1,a3
    16e0:	01059693          	slli	a3,a1,0x10
    16e4:	00d5e5b3          	or	a1,a1,a3
    16e8:	f6dff06f          	j	1654 <memset+0x18>
    16ec:	00279693          	slli	a3,a5,0x2
    16f0:	00000297          	auipc	t0,0x0
    16f4:	005686b3          	add	a3,a3,t0
    16f8:	00008293          	mv	t0,ra
    16fc:	fa0680e7          	jalr	-96(a3)
    1700:	00028093          	mv	ra,t0
    1704:	ff078793          	addi	a5,a5,-16
    1708:	40f70733          	sub	a4,a4,a5
    170c:	00f60633          	add	a2,a2,a5
    1710:	f6c378e3          	bgeu	t1,a2,1680 <memset+0x44>
    1714:	f3dff06f          	j	1650 <memset+0x14>

00001718 <__malloc_lock>:
    1718:	00008067          	ret

0000171c <__malloc_unlock>:
    171c:	00008067          	ret

00001720 <_realloc_r>:
    1720:	fd010113          	addi	sp,sp,-48
    1724:	03212023          	sw	s2,32(sp)
    1728:	02112623          	sw	ra,44(sp)
    172c:	02812423          	sw	s0,40(sp)
    1730:	02912223          	sw	s1,36(sp)
    1734:	01312e23          	sw	s3,28(sp)
    1738:	01412c23          	sw	s4,24(sp)
    173c:	01512a23          	sw	s5,20(sp)
    1740:	01612823          	sw	s6,16(sp)
    1744:	01712623          	sw	s7,12(sp)
    1748:	01812423          	sw	s8,8(sp)
    174c:	00060913          	mv	s2,a2
    1750:	1c058663          	beqz	a1,191c <_realloc_r+0x1fc>
    1754:	00058413          	mv	s0,a1
    1758:	00050993          	mv	s3,a0
    175c:	fbdff0ef          	jal	ra,1718 <__malloc_lock>
    1760:	00b90493          	addi	s1,s2,11
    1764:	01600713          	li	a4,22
    1768:	ffc42783          	lw	a5,-4(s0)
    176c:	0e977c63          	bgeu	a4,s1,1864 <_realloc_r+0x144>
    1770:	ff84f493          	andi	s1,s1,-8
    1774:	00048713          	mv	a4,s1
    1778:	0e04cc63          	bltz	s1,1870 <_realloc_r+0x150>
    177c:	0f24ea63          	bltu	s1,s2,1870 <_realloc_r+0x150>
    1780:	ffc7fa13          	andi	s4,a5,-4
    1784:	ff840a93          	addi	s5,s0,-8
    1788:	12ea5e63          	bge	s4,a4,18c4 <_realloc_r+0x1a4>
    178c:	000206b7          	lui	a3,0x20
    1790:	46068c13          	addi	s8,a3,1120 # 20460 <__malloc_av_>
    1794:	008c2583          	lw	a1,8(s8)
    1798:	014a8633          	add	a2,s5,s4
    179c:	00462683          	lw	a3,4(a2)
    17a0:	1ec58063          	beq	a1,a2,1980 <_realloc_r+0x260>
    17a4:	ffe6f593          	andi	a1,a3,-2
    17a8:	00b605b3          	add	a1,a2,a1
    17ac:	0045a583          	lw	a1,4(a1)
    17b0:	0015f593          	andi	a1,a1,1
    17b4:	14059663          	bnez	a1,1900 <_realloc_r+0x1e0>
    17b8:	ffc6f693          	andi	a3,a3,-4
    17bc:	00da05b3          	add	a1,s4,a3
    17c0:	0ee5d863          	bge	a1,a4,18b0 <_realloc_r+0x190>
    17c4:	0017f793          	andi	a5,a5,1
    17c8:	02079463          	bnez	a5,17f0 <_realloc_r+0xd0>
    17cc:	ff842b83          	lw	s7,-8(s0)
    17d0:	417a8bb3          	sub	s7,s5,s7
    17d4:	004ba783          	lw	a5,4(s7)
    17d8:	ffc7f793          	andi	a5,a5,-4
    17dc:	00d786b3          	add	a3,a5,a3
    17e0:	01468b33          	add	s6,a3,s4
    17e4:	36eb5063          	bge	s6,a4,1b44 <_realloc_r+0x424>
    17e8:	00fa0b33          	add	s6,s4,a5
    17ec:	2ceb5263          	bge	s6,a4,1ab0 <_realloc_r+0x390>
    17f0:	00090593          	mv	a1,s2
    17f4:	00098513          	mv	a0,s3
    17f8:	b68ff0ef          	jal	ra,b60 <_malloc_r>
    17fc:	00050913          	mv	s2,a0
    1800:	04050c63          	beqz	a0,1858 <_realloc_r+0x138>
    1804:	ffc42783          	lw	a5,-4(s0)
    1808:	ff850713          	addi	a4,a0,-8
    180c:	ffe7f793          	andi	a5,a5,-2
    1810:	00fa87b3          	add	a5,s5,a5
    1814:	28e78663          	beq	a5,a4,1aa0 <_realloc_r+0x380>
    1818:	ffca0613          	addi	a2,s4,-4
    181c:	02400793          	li	a5,36
    1820:	30c7ec63          	bltu	a5,a2,1b38 <_realloc_r+0x418>
    1824:	01300713          	li	a4,19
    1828:	22c76063          	bltu	a4,a2,1a48 <_realloc_r+0x328>
    182c:	00050793          	mv	a5,a0
    1830:	00040713          	mv	a4,s0
    1834:	00072683          	lw	a3,0(a4)
    1838:	00d7a023          	sw	a3,0(a5)
    183c:	00472683          	lw	a3,4(a4)
    1840:	00d7a223          	sw	a3,4(a5)
    1844:	00872703          	lw	a4,8(a4)
    1848:	00e7a423          	sw	a4,8(a5)
    184c:	00040593          	mv	a1,s0
    1850:	00098513          	mv	a0,s3
    1854:	5c5000ef          	jal	ra,2618 <_free_r>
    1858:	00098513          	mv	a0,s3
    185c:	ec1ff0ef          	jal	ra,171c <__malloc_unlock>
    1860:	01c0006f          	j	187c <_realloc_r+0x15c>
    1864:	01000493          	li	s1,16
    1868:	01000713          	li	a4,16
    186c:	f124fae3          	bgeu	s1,s2,1780 <_realloc_r+0x60>
    1870:	00c00793          	li	a5,12
    1874:	00f9a023          	sw	a5,0(s3)
    1878:	00000913          	li	s2,0
    187c:	02c12083          	lw	ra,44(sp)
    1880:	02812403          	lw	s0,40(sp)
    1884:	02412483          	lw	s1,36(sp)
    1888:	01c12983          	lw	s3,28(sp)
    188c:	01812a03          	lw	s4,24(sp)
    1890:	01412a83          	lw	s5,20(sp)
    1894:	01012b03          	lw	s6,16(sp)
    1898:	00c12b83          	lw	s7,12(sp)
    189c:	00812c03          	lw	s8,8(sp)
    18a0:	00090513          	mv	a0,s2
    18a4:	02012903          	lw	s2,32(sp)
    18a8:	03010113          	addi	sp,sp,48
    18ac:	00008067          	ret
    18b0:	00c62783          	lw	a5,12(a2)
    18b4:	00862703          	lw	a4,8(a2)
    18b8:	00058a13          	mv	s4,a1
    18bc:	00f72623          	sw	a5,12(a4)
    18c0:	00e7a423          	sw	a4,8(a5)
    18c4:	004aa783          	lw	a5,4(s5)
    18c8:	409a06b3          	sub	a3,s4,s1
    18cc:	00f00613          	li	a2,15
    18d0:	0017f793          	andi	a5,a5,1
    18d4:	014a8733          	add	a4,s5,s4
    18d8:	06d66c63          	bltu	a2,a3,1950 <_realloc_r+0x230>
    18dc:	00fa67b3          	or	a5,s4,a5
    18e0:	00faa223          	sw	a5,4(s5)
    18e4:	00472783          	lw	a5,4(a4)
    18e8:	0017e793          	ori	a5,a5,1
    18ec:	00f72223          	sw	a5,4(a4)
    18f0:	00098513          	mv	a0,s3
    18f4:	e29ff0ef          	jal	ra,171c <__malloc_unlock>
    18f8:	00040913          	mv	s2,s0
    18fc:	f81ff06f          	j	187c <_realloc_r+0x15c>
    1900:	0017f793          	andi	a5,a5,1
    1904:	ee0796e3          	bnez	a5,17f0 <_realloc_r+0xd0>
    1908:	ff842b83          	lw	s7,-8(s0)
    190c:	417a8bb3          	sub	s7,s5,s7
    1910:	004ba783          	lw	a5,4(s7)
    1914:	ffc7f793          	andi	a5,a5,-4
    1918:	ed1ff06f          	j	17e8 <_realloc_r+0xc8>
    191c:	02812403          	lw	s0,40(sp)
    1920:	02c12083          	lw	ra,44(sp)
    1924:	02412483          	lw	s1,36(sp)
    1928:	02012903          	lw	s2,32(sp)
    192c:	01c12983          	lw	s3,28(sp)
    1930:	01812a03          	lw	s4,24(sp)
    1934:	01412a83          	lw	s5,20(sp)
    1938:	01012b03          	lw	s6,16(sp)
    193c:	00c12b83          	lw	s7,12(sp)
    1940:	00812c03          	lw	s8,8(sp)
    1944:	00060593          	mv	a1,a2
    1948:	03010113          	addi	sp,sp,48
    194c:	a14ff06f          	j	b60 <_malloc_r>
    1950:	0097e7b3          	or	a5,a5,s1
    1954:	00faa223          	sw	a5,4(s5)
    1958:	009a85b3          	add	a1,s5,s1
    195c:	0016e693          	ori	a3,a3,1
    1960:	00d5a223          	sw	a3,4(a1)
    1964:	00472783          	lw	a5,4(a4)
    1968:	00858593          	addi	a1,a1,8
    196c:	00098513          	mv	a0,s3
    1970:	0017e793          	ori	a5,a5,1
    1974:	00f72223          	sw	a5,4(a4)
    1978:	4a1000ef          	jal	ra,2618 <_free_r>
    197c:	f75ff06f          	j	18f0 <_realloc_r+0x1d0>
    1980:	ffc6f693          	andi	a3,a3,-4
    1984:	00da0633          	add	a2,s4,a3
    1988:	01048593          	addi	a1,s1,16
    198c:	0eb65063          	bge	a2,a1,1a6c <_realloc_r+0x34c>
    1990:	0017f793          	andi	a5,a5,1
    1994:	e4079ee3          	bnez	a5,17f0 <_realloc_r+0xd0>
    1998:	ff842b83          	lw	s7,-8(s0)
    199c:	417a8bb3          	sub	s7,s5,s7
    19a0:	004ba783          	lw	a5,4(s7)
    19a4:	ffc7f793          	andi	a5,a5,-4
    19a8:	00d786b3          	add	a3,a5,a3
    19ac:	01468b33          	add	s6,a3,s4
    19b0:	e2bb4ce3          	blt	s6,a1,17e8 <_realloc_r+0xc8>
    19b4:	00cba783          	lw	a5,12(s7)
    19b8:	008ba703          	lw	a4,8(s7)
    19bc:	ffca0613          	addi	a2,s4,-4
    19c0:	02400693          	li	a3,36
    19c4:	00f72623          	sw	a5,12(a4)
    19c8:	00e7a423          	sw	a4,8(a5)
    19cc:	008b8913          	addi	s2,s7,8
    19d0:	26c6e063          	bltu	a3,a2,1c30 <_realloc_r+0x510>
    19d4:	01300713          	li	a4,19
    19d8:	00090793          	mv	a5,s2
    19dc:	02c77263          	bgeu	a4,a2,1a00 <_realloc_r+0x2e0>
    19e0:	00042703          	lw	a4,0(s0)
    19e4:	01b00793          	li	a5,27
    19e8:	00eba423          	sw	a4,8(s7)
    19ec:	00442703          	lw	a4,4(s0)
    19f0:	00eba623          	sw	a4,12(s7)
    19f4:	24c7e663          	bltu	a5,a2,1c40 <_realloc_r+0x520>
    19f8:	00840413          	addi	s0,s0,8
    19fc:	010b8793          	addi	a5,s7,16
    1a00:	00042703          	lw	a4,0(s0)
    1a04:	00e7a023          	sw	a4,0(a5)
    1a08:	00442703          	lw	a4,4(s0)
    1a0c:	00e7a223          	sw	a4,4(a5)
    1a10:	00842703          	lw	a4,8(s0)
    1a14:	00e7a423          	sw	a4,8(a5)
    1a18:	009b8733          	add	a4,s7,s1
    1a1c:	409b07b3          	sub	a5,s6,s1
    1a20:	00ec2423          	sw	a4,8(s8)
    1a24:	0017e793          	ori	a5,a5,1
    1a28:	00f72223          	sw	a5,4(a4)
    1a2c:	004ba783          	lw	a5,4(s7)
    1a30:	00098513          	mv	a0,s3
    1a34:	0017f793          	andi	a5,a5,1
    1a38:	0097e7b3          	or	a5,a5,s1
    1a3c:	00fba223          	sw	a5,4(s7)
    1a40:	cddff0ef          	jal	ra,171c <__malloc_unlock>
    1a44:	e39ff06f          	j	187c <_realloc_r+0x15c>
    1a48:	00042683          	lw	a3,0(s0)
    1a4c:	01b00713          	li	a4,27
    1a50:	00d52023          	sw	a3,0(a0)
    1a54:	00442683          	lw	a3,4(s0)
    1a58:	00d52223          	sw	a3,4(a0)
    1a5c:	18c76663          	bltu	a4,a2,1be8 <_realloc_r+0x4c8>
    1a60:	00840713          	addi	a4,s0,8
    1a64:	00850793          	addi	a5,a0,8
    1a68:	dcdff06f          	j	1834 <_realloc_r+0x114>
    1a6c:	009a8ab3          	add	s5,s5,s1
    1a70:	409607b3          	sub	a5,a2,s1
    1a74:	015c2423          	sw	s5,8(s8)
    1a78:	0017e793          	ori	a5,a5,1
    1a7c:	00faa223          	sw	a5,4(s5)
    1a80:	ffc42783          	lw	a5,-4(s0)
    1a84:	00098513          	mv	a0,s3
    1a88:	00040913          	mv	s2,s0
    1a8c:	0017f793          	andi	a5,a5,1
    1a90:	0097e7b3          	or	a5,a5,s1
    1a94:	fef42e23          	sw	a5,-4(s0)
    1a98:	c85ff0ef          	jal	ra,171c <__malloc_unlock>
    1a9c:	de1ff06f          	j	187c <_realloc_r+0x15c>
    1aa0:	ffc52783          	lw	a5,-4(a0)
    1aa4:	ffc7f793          	andi	a5,a5,-4
    1aa8:	00fa0a33          	add	s4,s4,a5
    1aac:	e19ff06f          	j	18c4 <_realloc_r+0x1a4>
    1ab0:	00cba783          	lw	a5,12(s7)
    1ab4:	008ba703          	lw	a4,8(s7)
    1ab8:	ffca0613          	addi	a2,s4,-4
    1abc:	02400693          	li	a3,36
    1ac0:	00f72623          	sw	a5,12(a4)
    1ac4:	00e7a423          	sw	a4,8(a5)
    1ac8:	008b8913          	addi	s2,s7,8
    1acc:	10c6e063          	bltu	a3,a2,1bcc <_realloc_r+0x4ac>
    1ad0:	01300713          	li	a4,19
    1ad4:	00090793          	mv	a5,s2
    1ad8:	02c77c63          	bgeu	a4,a2,1b10 <_realloc_r+0x3f0>
    1adc:	00042703          	lw	a4,0(s0)
    1ae0:	01b00793          	li	a5,27
    1ae4:	00eba423          	sw	a4,8(s7)
    1ae8:	00442703          	lw	a4,4(s0)
    1aec:	00eba623          	sw	a4,12(s7)
    1af0:	10c7fc63          	bgeu	a5,a2,1c08 <_realloc_r+0x4e8>
    1af4:	00842783          	lw	a5,8(s0)
    1af8:	00fba823          	sw	a5,16(s7)
    1afc:	00c42783          	lw	a5,12(s0)
    1b00:	00fbaa23          	sw	a5,20(s7)
    1b04:	0ad60663          	beq	a2,a3,1bb0 <_realloc_r+0x490>
    1b08:	01040413          	addi	s0,s0,16
    1b0c:	018b8793          	addi	a5,s7,24
    1b10:	00042703          	lw	a4,0(s0)
    1b14:	000b0a13          	mv	s4,s6
    1b18:	000b8a93          	mv	s5,s7
    1b1c:	00e7a023          	sw	a4,0(a5)
    1b20:	00442703          	lw	a4,4(s0)
    1b24:	00e7a223          	sw	a4,4(a5)
    1b28:	00842703          	lw	a4,8(s0)
    1b2c:	00090413          	mv	s0,s2
    1b30:	00e7a423          	sw	a4,8(a5)
    1b34:	d91ff06f          	j	18c4 <_realloc_r+0x1a4>
    1b38:	00040593          	mv	a1,s0
    1b3c:	9e1ff0ef          	jal	ra,151c <memmove>
    1b40:	d0dff06f          	j	184c <_realloc_r+0x12c>
    1b44:	00c62783          	lw	a5,12(a2)
    1b48:	00862703          	lw	a4,8(a2)
    1b4c:	02400693          	li	a3,36
    1b50:	ffca0613          	addi	a2,s4,-4
    1b54:	00f72623          	sw	a5,12(a4)
    1b58:	00e7a423          	sw	a4,8(a5)
    1b5c:	008ba703          	lw	a4,8(s7)
    1b60:	00cba783          	lw	a5,12(s7)
    1b64:	008b8913          	addi	s2,s7,8
    1b68:	00f72623          	sw	a5,12(a4)
    1b6c:	00e7a423          	sw	a4,8(a5)
    1b70:	04c6ee63          	bltu	a3,a2,1bcc <_realloc_r+0x4ac>
    1b74:	01300713          	li	a4,19
    1b78:	00090793          	mv	a5,s2
    1b7c:	f8c77ae3          	bgeu	a4,a2,1b10 <_realloc_r+0x3f0>
    1b80:	00042703          	lw	a4,0(s0)
    1b84:	01b00793          	li	a5,27
    1b88:	00eba423          	sw	a4,8(s7)
    1b8c:	00442703          	lw	a4,4(s0)
    1b90:	00eba623          	sw	a4,12(s7)
    1b94:	06c7fa63          	bgeu	a5,a2,1c08 <_realloc_r+0x4e8>
    1b98:	00842703          	lw	a4,8(s0)
    1b9c:	02400793          	li	a5,36
    1ba0:	00eba823          	sw	a4,16(s7)
    1ba4:	00c42703          	lw	a4,12(s0)
    1ba8:	00ebaa23          	sw	a4,20(s7)
    1bac:	f4f61ee3          	bne	a2,a5,1b08 <_realloc_r+0x3e8>
    1bb0:	01042703          	lw	a4,16(s0)
    1bb4:	020b8793          	addi	a5,s7,32
    1bb8:	01840413          	addi	s0,s0,24
    1bbc:	00ebac23          	sw	a4,24(s7)
    1bc0:	ffc42703          	lw	a4,-4(s0)
    1bc4:	00ebae23          	sw	a4,28(s7)
    1bc8:	f49ff06f          	j	1b10 <_realloc_r+0x3f0>
    1bcc:	00040593          	mv	a1,s0
    1bd0:	00090513          	mv	a0,s2
    1bd4:	949ff0ef          	jal	ra,151c <memmove>
    1bd8:	00090413          	mv	s0,s2
    1bdc:	000b0a13          	mv	s4,s6
    1be0:	000b8a93          	mv	s5,s7
    1be4:	ce1ff06f          	j	18c4 <_realloc_r+0x1a4>
    1be8:	00842703          	lw	a4,8(s0)
    1bec:	00e52423          	sw	a4,8(a0)
    1bf0:	00c42703          	lw	a4,12(s0)
    1bf4:	00e52623          	sw	a4,12(a0)
    1bf8:	00f60e63          	beq	a2,a5,1c14 <_realloc_r+0x4f4>
    1bfc:	01040713          	addi	a4,s0,16
    1c00:	01050793          	addi	a5,a0,16
    1c04:	c31ff06f          	j	1834 <_realloc_r+0x114>
    1c08:	00840413          	addi	s0,s0,8
    1c0c:	010b8793          	addi	a5,s7,16
    1c10:	f01ff06f          	j	1b10 <_realloc_r+0x3f0>
    1c14:	01042683          	lw	a3,16(s0)
    1c18:	01840713          	addi	a4,s0,24
    1c1c:	01850793          	addi	a5,a0,24
    1c20:	00d52823          	sw	a3,16(a0)
    1c24:	01442683          	lw	a3,20(s0)
    1c28:	00d52a23          	sw	a3,20(a0)
    1c2c:	c09ff06f          	j	1834 <_realloc_r+0x114>
    1c30:	00040593          	mv	a1,s0
    1c34:	00090513          	mv	a0,s2
    1c38:	8e5ff0ef          	jal	ra,151c <memmove>
    1c3c:	dddff06f          	j	1a18 <_realloc_r+0x2f8>
    1c40:	00842783          	lw	a5,8(s0)
    1c44:	00fba823          	sw	a5,16(s7)
    1c48:	00c42783          	lw	a5,12(s0)
    1c4c:	00fbaa23          	sw	a5,20(s7)
    1c50:	00d60863          	beq	a2,a3,1c60 <_realloc_r+0x540>
    1c54:	01040413          	addi	s0,s0,16
    1c58:	018b8793          	addi	a5,s7,24
    1c5c:	da5ff06f          	j	1a00 <_realloc_r+0x2e0>
    1c60:	01042703          	lw	a4,16(s0)
    1c64:	020b8793          	addi	a5,s7,32
    1c68:	01840413          	addi	s0,s0,24
    1c6c:	00ebac23          	sw	a4,24(s7)
    1c70:	ffc42703          	lw	a4,-4(s0)
    1c74:	00ebae23          	sw	a4,28(s7)
    1c78:	d89ff06f          	j	1a00 <_realloc_r+0x2e0>

00001c7c <_sbrk_r>:
    1c7c:	ff010113          	addi	sp,sp,-16
    1c80:	00812423          	sw	s0,8(sp)
    1c84:	00912223          	sw	s1,4(sp)
    1c88:	00050413          	mv	s0,a0
    1c8c:	000214b7          	lui	s1,0x21
    1c90:	00058513          	mv	a0,a1
    1c94:	00112623          	sw	ra,12(sp)
    1c98:	8604aa23          	sw	zero,-1932(s1) # 20874 <errno>
    1c9c:	578010ef          	jal	ra,3214 <_sbrk>
    1ca0:	fff00793          	li	a5,-1
    1ca4:	00f50c63          	beq	a0,a5,1cbc <_sbrk_r+0x40>
    1ca8:	00c12083          	lw	ra,12(sp)
    1cac:	00812403          	lw	s0,8(sp)
    1cb0:	00412483          	lw	s1,4(sp)
    1cb4:	01010113          	addi	sp,sp,16
    1cb8:	00008067          	ret
    1cbc:	8744a783          	lw	a5,-1932(s1)
    1cc0:	fe0784e3          	beqz	a5,1ca8 <_sbrk_r+0x2c>
    1cc4:	00c12083          	lw	ra,12(sp)
    1cc8:	00f42023          	sw	a5,0(s0)
    1ccc:	00812403          	lw	s0,8(sp)
    1cd0:	00412483          	lw	s1,4(sp)
    1cd4:	01010113          	addi	sp,sp,16
    1cd8:	00008067          	ret

00001cdc <__sread>:
    1cdc:	ff010113          	addi	sp,sp,-16
    1ce0:	00812423          	sw	s0,8(sp)
    1ce4:	00058413          	mv	s0,a1
    1ce8:	00e59583          	lh	a1,14(a1)
    1cec:	00112623          	sw	ra,12(sp)
    1cf0:	711000ef          	jal	ra,2c00 <_read_r>
    1cf4:	02054063          	bltz	a0,1d14 <__sread+0x38>
    1cf8:	05042783          	lw	a5,80(s0)
    1cfc:	00c12083          	lw	ra,12(sp)
    1d00:	00a787b3          	add	a5,a5,a0
    1d04:	04f42823          	sw	a5,80(s0)
    1d08:	00812403          	lw	s0,8(sp)
    1d0c:	01010113          	addi	sp,sp,16
    1d10:	00008067          	ret
    1d14:	00c45783          	lhu	a5,12(s0)
    1d18:	fffff737          	lui	a4,0xfffff
    1d1c:	fff70713          	addi	a4,a4,-1 # ffffefff <_stack+0xfffbefff>
    1d20:	00e7f7b3          	and	a5,a5,a4
    1d24:	00c12083          	lw	ra,12(sp)
    1d28:	00f41623          	sh	a5,12(s0)
    1d2c:	00812403          	lw	s0,8(sp)
    1d30:	01010113          	addi	sp,sp,16
    1d34:	00008067          	ret

00001d38 <__seofread>:
    1d38:	00000513          	li	a0,0
    1d3c:	00008067          	ret

00001d40 <__swrite>:
    1d40:	00c59783          	lh	a5,12(a1)
    1d44:	fe010113          	addi	sp,sp,-32
    1d48:	00812c23          	sw	s0,24(sp)
    1d4c:	00912a23          	sw	s1,20(sp)
    1d50:	01212823          	sw	s2,16(sp)
    1d54:	01312623          	sw	s3,12(sp)
    1d58:	00112e23          	sw	ra,28(sp)
    1d5c:	1007f713          	andi	a4,a5,256
    1d60:	00058413          	mv	s0,a1
    1d64:	00050493          	mv	s1,a0
    1d68:	00060913          	mv	s2,a2
    1d6c:	00068993          	mv	s3,a3
    1d70:	04071063          	bnez	a4,1db0 <__swrite+0x70>
    1d74:	fffff737          	lui	a4,0xfffff
    1d78:	fff70713          	addi	a4,a4,-1 # ffffefff <_stack+0xfffbefff>
    1d7c:	00e7f7b3          	and	a5,a5,a4
    1d80:	00e41583          	lh	a1,14(s0)
    1d84:	00f41623          	sh	a5,12(s0)
    1d88:	01812403          	lw	s0,24(sp)
    1d8c:	01c12083          	lw	ra,28(sp)
    1d90:	00098693          	mv	a3,s3
    1d94:	00090613          	mv	a2,s2
    1d98:	00c12983          	lw	s3,12(sp)
    1d9c:	01012903          	lw	s2,16(sp)
    1da0:	00048513          	mv	a0,s1
    1da4:	01412483          	lw	s1,20(sp)
    1da8:	02010113          	addi	sp,sp,32
    1dac:	08c0006f          	j	1e38 <_write_r>
    1db0:	00e59583          	lh	a1,14(a1)
    1db4:	00200693          	li	a3,2
    1db8:	00000613          	li	a2,0
    1dbc:	371000ef          	jal	ra,292c <_lseek_r>
    1dc0:	00c41783          	lh	a5,12(s0)
    1dc4:	fb1ff06f          	j	1d74 <__swrite+0x34>

00001dc8 <__sseek>:
    1dc8:	ff010113          	addi	sp,sp,-16
    1dcc:	00812423          	sw	s0,8(sp)
    1dd0:	00058413          	mv	s0,a1
    1dd4:	00e59583          	lh	a1,14(a1)
    1dd8:	00112623          	sw	ra,12(sp)
    1ddc:	351000ef          	jal	ra,292c <_lseek_r>
    1de0:	fff00793          	li	a5,-1
    1de4:	02f50463          	beq	a0,a5,1e0c <__sseek+0x44>
    1de8:	00c45783          	lhu	a5,12(s0)
    1dec:	00001737          	lui	a4,0x1
    1df0:	00c12083          	lw	ra,12(sp)
    1df4:	00e7e7b3          	or	a5,a5,a4
    1df8:	04a42823          	sw	a0,80(s0)
    1dfc:	00f41623          	sh	a5,12(s0)
    1e00:	00812403          	lw	s0,8(sp)
    1e04:	01010113          	addi	sp,sp,16
    1e08:	00008067          	ret
    1e0c:	00c45783          	lhu	a5,12(s0)
    1e10:	fffff737          	lui	a4,0xfffff
    1e14:	fff70713          	addi	a4,a4,-1 # ffffefff <_stack+0xfffbefff>
    1e18:	00e7f7b3          	and	a5,a5,a4
    1e1c:	00c12083          	lw	ra,12(sp)
    1e20:	00f41623          	sh	a5,12(s0)
    1e24:	00812403          	lw	s0,8(sp)
    1e28:	01010113          	addi	sp,sp,16
    1e2c:	00008067          	ret

00001e30 <__sclose>:
    1e30:	00e59583          	lh	a1,14(a1)
    1e34:	1dc0006f          	j	2010 <_close_r>

00001e38 <_write_r>:
    1e38:	ff010113          	addi	sp,sp,-16
    1e3c:	00058713          	mv	a4,a1
    1e40:	00812423          	sw	s0,8(sp)
    1e44:	00912223          	sw	s1,4(sp)
    1e48:	00060593          	mv	a1,a2
    1e4c:	00050413          	mv	s0,a0
    1e50:	000214b7          	lui	s1,0x21
    1e54:	00068613          	mv	a2,a3
    1e58:	00070513          	mv	a0,a4
    1e5c:	00112623          	sw	ra,12(sp)
    1e60:	8604aa23          	sw	zero,-1932(s1) # 20874 <errno>
    1e64:	318010ef          	jal	ra,317c <_write>
    1e68:	fff00793          	li	a5,-1
    1e6c:	00f50c63          	beq	a0,a5,1e84 <_write_r+0x4c>
    1e70:	00c12083          	lw	ra,12(sp)
    1e74:	00812403          	lw	s0,8(sp)
    1e78:	00412483          	lw	s1,4(sp)
    1e7c:	01010113          	addi	sp,sp,16
    1e80:	00008067          	ret
    1e84:	8744a783          	lw	a5,-1932(s1)
    1e88:	fe0784e3          	beqz	a5,1e70 <_write_r+0x38>
    1e8c:	00c12083          	lw	ra,12(sp)
    1e90:	00f42023          	sw	a5,0(s0)
    1e94:	00812403          	lw	s0,8(sp)
    1e98:	00412483          	lw	s1,4(sp)
    1e9c:	01010113          	addi	sp,sp,16
    1ea0:	00008067          	ret

00001ea4 <__swsetup_r>:
    1ea4:	000207b7          	lui	a5,0x20
    1ea8:	0147a783          	lw	a5,20(a5) # 20014 <_impure_ptr>
    1eac:	ff010113          	addi	sp,sp,-16
    1eb0:	00812423          	sw	s0,8(sp)
    1eb4:	00912223          	sw	s1,4(sp)
    1eb8:	00112623          	sw	ra,12(sp)
    1ebc:	00050493          	mv	s1,a0
    1ec0:	00058413          	mv	s0,a1
    1ec4:	00078663          	beqz	a5,1ed0 <__swsetup_r+0x2c>
    1ec8:	0387a703          	lw	a4,56(a5)
    1ecc:	08070463          	beqz	a4,1f54 <__swsetup_r+0xb0>
    1ed0:	00c41703          	lh	a4,12(s0)
    1ed4:	01071793          	slli	a5,a4,0x10
    1ed8:	00877693          	andi	a3,a4,8
    1edc:	0107d793          	srli	a5,a5,0x10
    1ee0:	08068863          	beqz	a3,1f70 <__swsetup_r+0xcc>
    1ee4:	01042683          	lw	a3,16(s0)
    1ee8:	0a068863          	beqz	a3,1f98 <__swsetup_r+0xf4>
    1eec:	0017f613          	andi	a2,a5,1
    1ef0:	02060863          	beqz	a2,1f20 <__swsetup_r+0x7c>
    1ef4:	01442603          	lw	a2,20(s0)
    1ef8:	00042423          	sw	zero,8(s0)
    1efc:	00000513          	li	a0,0
    1f00:	40c00633          	neg	a2,a2
    1f04:	00c42c23          	sw	a2,24(s0)
    1f08:	02068a63          	beqz	a3,1f3c <__swsetup_r+0x98>
    1f0c:	00c12083          	lw	ra,12(sp)
    1f10:	00812403          	lw	s0,8(sp)
    1f14:	00412483          	lw	s1,4(sp)
    1f18:	01010113          	addi	sp,sp,16
    1f1c:	00008067          	ret
    1f20:	0027f613          	andi	a2,a5,2
    1f24:	00000593          	li	a1,0
    1f28:	00061463          	bnez	a2,1f30 <__swsetup_r+0x8c>
    1f2c:	01442583          	lw	a1,20(s0)
    1f30:	00b42423          	sw	a1,8(s0)
    1f34:	00000513          	li	a0,0
    1f38:	fc069ae3          	bnez	a3,1f0c <__swsetup_r+0x68>
    1f3c:	0807f793          	andi	a5,a5,128
    1f40:	fc0786e3          	beqz	a5,1f0c <__swsetup_r+0x68>
    1f44:	04076713          	ori	a4,a4,64
    1f48:	00e41623          	sh	a4,12(s0)
    1f4c:	fff00513          	li	a0,-1
    1f50:	fbdff06f          	j	1f0c <__swsetup_r+0x68>
    1f54:	00078513          	mv	a0,a5
    1f58:	dc0fe0ef          	jal	ra,518 <__sinit>
    1f5c:	00c41703          	lh	a4,12(s0)
    1f60:	01071793          	slli	a5,a4,0x10
    1f64:	00877693          	andi	a3,a4,8
    1f68:	0107d793          	srli	a5,a5,0x10
    1f6c:	f6069ce3          	bnez	a3,1ee4 <__swsetup_r+0x40>
    1f70:	0107f693          	andi	a3,a5,16
    1f74:	08068263          	beqz	a3,1ff8 <__swsetup_r+0x154>
    1f78:	0047f793          	andi	a5,a5,4
    1f7c:	04079463          	bnez	a5,1fc4 <__swsetup_r+0x120>
    1f80:	01042683          	lw	a3,16(s0)
    1f84:	00876713          	ori	a4,a4,8
    1f88:	01071793          	slli	a5,a4,0x10
    1f8c:	00e41623          	sh	a4,12(s0)
    1f90:	0107d793          	srli	a5,a5,0x10
    1f94:	f4069ce3          	bnez	a3,1eec <__swsetup_r+0x48>
    1f98:	2807f613          	andi	a2,a5,640
    1f9c:	20000593          	li	a1,512
    1fa0:	f4b606e3          	beq	a2,a1,1eec <__swsetup_r+0x48>
    1fa4:	00040593          	mv	a1,s0
    1fa8:	00048513          	mv	a0,s1
    1fac:	1ed000ef          	jal	ra,2998 <__smakebuf_r>
    1fb0:	00c41703          	lh	a4,12(s0)
    1fb4:	01042683          	lw	a3,16(s0)
    1fb8:	01071793          	slli	a5,a4,0x10
    1fbc:	0107d793          	srli	a5,a5,0x10
    1fc0:	f2dff06f          	j	1eec <__swsetup_r+0x48>
    1fc4:	03042583          	lw	a1,48(s0)
    1fc8:	00058e63          	beqz	a1,1fe4 <__swsetup_r+0x140>
    1fcc:	04040793          	addi	a5,s0,64
    1fd0:	00f58863          	beq	a1,a5,1fe0 <__swsetup_r+0x13c>
    1fd4:	00048513          	mv	a0,s1
    1fd8:	640000ef          	jal	ra,2618 <_free_r>
    1fdc:	00c41703          	lh	a4,12(s0)
    1fe0:	02042823          	sw	zero,48(s0)
    1fe4:	01042683          	lw	a3,16(s0)
    1fe8:	fdb77713          	andi	a4,a4,-37
    1fec:	00042223          	sw	zero,4(s0)
    1ff0:	00d42023          	sw	a3,0(s0)
    1ff4:	f91ff06f          	j	1f84 <__swsetup_r+0xe0>
    1ff8:	00900793          	li	a5,9
    1ffc:	00f4a023          	sw	a5,0(s1)
    2000:	04076713          	ori	a4,a4,64
    2004:	00e41623          	sh	a4,12(s0)
    2008:	fff00513          	li	a0,-1
    200c:	f01ff06f          	j	1f0c <__swsetup_r+0x68>

00002010 <_close_r>:
    2010:	ff010113          	addi	sp,sp,-16
    2014:	00812423          	sw	s0,8(sp)
    2018:	00912223          	sw	s1,4(sp)
    201c:	00050413          	mv	s0,a0
    2020:	000214b7          	lui	s1,0x21
    2024:	00058513          	mv	a0,a1
    2028:	00112623          	sw	ra,12(sp)
    202c:	8604aa23          	sw	zero,-1932(s1) # 20874 <errno>
    2030:	178010ef          	jal	ra,31a8 <_close>
    2034:	fff00793          	li	a5,-1
    2038:	00f50c63          	beq	a0,a5,2050 <_close_r+0x40>
    203c:	00c12083          	lw	ra,12(sp)
    2040:	00812403          	lw	s0,8(sp)
    2044:	00412483          	lw	s1,4(sp)
    2048:	01010113          	addi	sp,sp,16
    204c:	00008067          	ret
    2050:	8744a783          	lw	a5,-1932(s1)
    2054:	fe0784e3          	beqz	a5,203c <_close_r+0x2c>
    2058:	00c12083          	lw	ra,12(sp)
    205c:	00f42023          	sw	a5,0(s0)
    2060:	00812403          	lw	s0,8(sp)
    2064:	00412483          	lw	s1,4(sp)
    2068:	01010113          	addi	sp,sp,16
    206c:	00008067          	ret

00002070 <_fclose_r>:
    2070:	ff010113          	addi	sp,sp,-16
    2074:	00112623          	sw	ra,12(sp)
    2078:	00812423          	sw	s0,8(sp)
    207c:	00912223          	sw	s1,4(sp)
    2080:	01212023          	sw	s2,0(sp)
    2084:	02058063          	beqz	a1,20a4 <_fclose_r+0x34>
    2088:	00058413          	mv	s0,a1
    208c:	00050493          	mv	s1,a0
    2090:	00050663          	beqz	a0,209c <_fclose_r+0x2c>
    2094:	03852783          	lw	a5,56(a0)
    2098:	0a078c63          	beqz	a5,2150 <_fclose_r+0xe0>
    209c:	00c41783          	lh	a5,12(s0)
    20a0:	02079263          	bnez	a5,20c4 <_fclose_r+0x54>
    20a4:	00c12083          	lw	ra,12(sp)
    20a8:	00812403          	lw	s0,8(sp)
    20ac:	00000913          	li	s2,0
    20b0:	00412483          	lw	s1,4(sp)
    20b4:	00090513          	mv	a0,s2
    20b8:	00012903          	lw	s2,0(sp)
    20bc:	01010113          	addi	sp,sp,16
    20c0:	00008067          	ret
    20c4:	00040593          	mv	a1,s0
    20c8:	00048513          	mv	a0,s1
    20cc:	0c4000ef          	jal	ra,2190 <__sflush_r>
    20d0:	02c42783          	lw	a5,44(s0)
    20d4:	00050913          	mv	s2,a0
    20d8:	00078a63          	beqz	a5,20ec <_fclose_r+0x7c>
    20dc:	01c42583          	lw	a1,28(s0)
    20e0:	00048513          	mv	a0,s1
    20e4:	000780e7          	jalr	a5
    20e8:	06054c63          	bltz	a0,2160 <_fclose_r+0xf0>
    20ec:	00c45783          	lhu	a5,12(s0)
    20f0:	0807f793          	andi	a5,a5,128
    20f4:	06079e63          	bnez	a5,2170 <_fclose_r+0x100>
    20f8:	03042583          	lw	a1,48(s0)
    20fc:	00058c63          	beqz	a1,2114 <_fclose_r+0xa4>
    2100:	04040793          	addi	a5,s0,64
    2104:	00f58663          	beq	a1,a5,2110 <_fclose_r+0xa0>
    2108:	00048513          	mv	a0,s1
    210c:	50c000ef          	jal	ra,2618 <_free_r>
    2110:	02042823          	sw	zero,48(s0)
    2114:	04442583          	lw	a1,68(s0)
    2118:	00058863          	beqz	a1,2128 <_fclose_r+0xb8>
    211c:	00048513          	mv	a0,s1
    2120:	4f8000ef          	jal	ra,2618 <_free_r>
    2124:	04042223          	sw	zero,68(s0)
    2128:	c00fe0ef          	jal	ra,528 <__sfp_lock_acquire>
    212c:	00041623          	sh	zero,12(s0)
    2130:	bfcfe0ef          	jal	ra,52c <__sfp_lock_release>
    2134:	00c12083          	lw	ra,12(sp)
    2138:	00812403          	lw	s0,8(sp)
    213c:	00412483          	lw	s1,4(sp)
    2140:	00090513          	mv	a0,s2
    2144:	00012903          	lw	s2,0(sp)
    2148:	01010113          	addi	sp,sp,16
    214c:	00008067          	ret
    2150:	bc8fe0ef          	jal	ra,518 <__sinit>
    2154:	00c41783          	lh	a5,12(s0)
    2158:	f40786e3          	beqz	a5,20a4 <_fclose_r+0x34>
    215c:	f69ff06f          	j	20c4 <_fclose_r+0x54>
    2160:	00c45783          	lhu	a5,12(s0)
    2164:	fff00913          	li	s2,-1
    2168:	0807f793          	andi	a5,a5,128
    216c:	f80786e3          	beqz	a5,20f8 <_fclose_r+0x88>
    2170:	01042583          	lw	a1,16(s0)
    2174:	00048513          	mv	a0,s1
    2178:	4a0000ef          	jal	ra,2618 <_free_r>
    217c:	f7dff06f          	j	20f8 <_fclose_r+0x88>

00002180 <fclose>:
    2180:	000207b7          	lui	a5,0x20
    2184:	00050593          	mv	a1,a0
    2188:	0147a503          	lw	a0,20(a5) # 20014 <_impure_ptr>
    218c:	ee5ff06f          	j	2070 <_fclose_r>

00002190 <__sflush_r>:
    2190:	00c59783          	lh	a5,12(a1)
    2194:	fe010113          	addi	sp,sp,-32
    2198:	00812c23          	sw	s0,24(sp)
    219c:	01312623          	sw	s3,12(sp)
    21a0:	00112e23          	sw	ra,28(sp)
    21a4:	00912a23          	sw	s1,20(sp)
    21a8:	01212823          	sw	s2,16(sp)
    21ac:	0087f693          	andi	a3,a5,8
    21b0:	00058413          	mv	s0,a1
    21b4:	00050993          	mv	s3,a0
    21b8:	10069c63          	bnez	a3,22d0 <__sflush_r+0x140>
    21bc:	00001737          	lui	a4,0x1
    21c0:	80070713          	addi	a4,a4,-2048 # 800 <__sfvwrite_r+0x2a8>
    21c4:	0045a683          	lw	a3,4(a1)
    21c8:	00e7e7b3          	or	a5,a5,a4
    21cc:	00f59623          	sh	a5,12(a1)
    21d0:	18d05663          	blez	a3,235c <__sflush_r+0x1cc>
    21d4:	02842703          	lw	a4,40(s0)
    21d8:	0c070c63          	beqz	a4,22b0 <__sflush_r+0x120>
    21dc:	01079793          	slli	a5,a5,0x10
    21e0:	0107d793          	srli	a5,a5,0x10
    21e4:	000016b7          	lui	a3,0x1
    21e8:	0009a483          	lw	s1,0(s3)
    21ec:	00d7f6b3          	and	a3,a5,a3
    21f0:	0009a023          	sw	zero,0(s3)
    21f4:	01c42583          	lw	a1,28(s0)
    21f8:	16069863          	bnez	a3,2368 <__sflush_r+0x1d8>
    21fc:	00100693          	li	a3,1
    2200:	00000613          	li	a2,0
    2204:	00098513          	mv	a0,s3
    2208:	000700e7          	jalr	a4
    220c:	fff00793          	li	a5,-1
    2210:	18f50e63          	beq	a0,a5,23ac <__sflush_r+0x21c>
    2214:	00c45783          	lhu	a5,12(s0)
    2218:	02842703          	lw	a4,40(s0)
    221c:	01c42583          	lw	a1,28(s0)
    2220:	0047f793          	andi	a5,a5,4
    2224:	00078e63          	beqz	a5,2240 <__sflush_r+0xb0>
    2228:	00442683          	lw	a3,4(s0)
    222c:	03042783          	lw	a5,48(s0)
    2230:	40d50533          	sub	a0,a0,a3
    2234:	00078663          	beqz	a5,2240 <__sflush_r+0xb0>
    2238:	03c42783          	lw	a5,60(s0)
    223c:	40f50533          	sub	a0,a0,a5
    2240:	00050613          	mv	a2,a0
    2244:	00000693          	li	a3,0
    2248:	00098513          	mv	a0,s3
    224c:	000700e7          	jalr	a4
    2250:	fff00793          	li	a5,-1
    2254:	10f51e63          	bne	a0,a5,2370 <__sflush_r+0x1e0>
    2258:	0009a703          	lw	a4,0(s3)
    225c:	00c41783          	lh	a5,12(s0)
    2260:	16070a63          	beqz	a4,23d4 <__sflush_r+0x244>
    2264:	01d00693          	li	a3,29
    2268:	00d70663          	beq	a4,a3,2274 <__sflush_r+0xe4>
    226c:	01600693          	li	a3,22
    2270:	0cd71463          	bne	a4,a3,2338 <__sflush_r+0x1a8>
    2274:	01042683          	lw	a3,16(s0)
    2278:	fffff737          	lui	a4,0xfffff
    227c:	7ff70713          	addi	a4,a4,2047 # fffff7ff <_stack+0xfffbf7ff>
    2280:	00e7f7b3          	and	a5,a5,a4
    2284:	00f41623          	sh	a5,12(s0)
    2288:	00042223          	sw	zero,4(s0)
    228c:	00d42023          	sw	a3,0(s0)
    2290:	03042583          	lw	a1,48(s0)
    2294:	0099a023          	sw	s1,0(s3)
    2298:	00058c63          	beqz	a1,22b0 <__sflush_r+0x120>
    229c:	04040793          	addi	a5,s0,64
    22a0:	00f58663          	beq	a1,a5,22ac <__sflush_r+0x11c>
    22a4:	00098513          	mv	a0,s3
    22a8:	370000ef          	jal	ra,2618 <_free_r>
    22ac:	02042823          	sw	zero,48(s0)
    22b0:	00000513          	li	a0,0
    22b4:	01c12083          	lw	ra,28(sp)
    22b8:	01812403          	lw	s0,24(sp)
    22bc:	01412483          	lw	s1,20(sp)
    22c0:	01012903          	lw	s2,16(sp)
    22c4:	00c12983          	lw	s3,12(sp)
    22c8:	02010113          	addi	sp,sp,32
    22cc:	00008067          	ret
    22d0:	0105a903          	lw	s2,16(a1)
    22d4:	fc090ee3          	beqz	s2,22b0 <__sflush_r+0x120>
    22d8:	0005a483          	lw	s1,0(a1)
    22dc:	01079713          	slli	a4,a5,0x10
    22e0:	01075713          	srli	a4,a4,0x10
    22e4:	00377713          	andi	a4,a4,3
    22e8:	0125a023          	sw	s2,0(a1)
    22ec:	412484b3          	sub	s1,s1,s2
    22f0:	00000793          	li	a5,0
    22f4:	00071463          	bnez	a4,22fc <__sflush_r+0x16c>
    22f8:	0145a783          	lw	a5,20(a1)
    22fc:	00f42423          	sw	a5,8(s0)
    2300:	00904863          	bgtz	s1,2310 <__sflush_r+0x180>
    2304:	fadff06f          	j	22b0 <__sflush_r+0x120>
    2308:	00a90933          	add	s2,s2,a0
    230c:	fa9052e3          	blez	s1,22b0 <__sflush_r+0x120>
    2310:	02442783          	lw	a5,36(s0)
    2314:	01c42583          	lw	a1,28(s0)
    2318:	00048693          	mv	a3,s1
    231c:	00090613          	mv	a2,s2
    2320:	00098513          	mv	a0,s3
    2324:	000780e7          	jalr	a5
    2328:	40a484b3          	sub	s1,s1,a0
    232c:	fca04ee3          	bgtz	a0,2308 <__sflush_r+0x178>
    2330:	00c45783          	lhu	a5,12(s0)
    2334:	fff00513          	li	a0,-1
    2338:	0407e793          	ori	a5,a5,64
    233c:	01c12083          	lw	ra,28(sp)
    2340:	00f41623          	sh	a5,12(s0)
    2344:	01812403          	lw	s0,24(sp)
    2348:	01412483          	lw	s1,20(sp)
    234c:	01012903          	lw	s2,16(sp)
    2350:	00c12983          	lw	s3,12(sp)
    2354:	02010113          	addi	sp,sp,32
    2358:	00008067          	ret
    235c:	03c5a703          	lw	a4,60(a1)
    2360:	e6e04ae3          	bgtz	a4,21d4 <__sflush_r+0x44>
    2364:	f4dff06f          	j	22b0 <__sflush_r+0x120>
    2368:	05042503          	lw	a0,80(s0)
    236c:	eb5ff06f          	j	2220 <__sflush_r+0x90>
    2370:	00c45783          	lhu	a5,12(s0)
    2374:	fffff737          	lui	a4,0xfffff
    2378:	7ff70713          	addi	a4,a4,2047 # fffff7ff <_stack+0xfffbf7ff>
    237c:	00e7f7b3          	and	a5,a5,a4
    2380:	01042683          	lw	a3,16(s0)
    2384:	01079793          	slli	a5,a5,0x10
    2388:	4107d793          	srai	a5,a5,0x10
    238c:	00c7d713          	srli	a4,a5,0xc
    2390:	00f41623          	sh	a5,12(s0)
    2394:	00042223          	sw	zero,4(s0)
    2398:	00d42023          	sw	a3,0(s0)
    239c:	00177793          	andi	a5,a4,1
    23a0:	ee0788e3          	beqz	a5,2290 <__sflush_r+0x100>
    23a4:	04a42823          	sw	a0,80(s0)
    23a8:	ee9ff06f          	j	2290 <__sflush_r+0x100>
    23ac:	0009a783          	lw	a5,0(s3)
    23b0:	e60782e3          	beqz	a5,2214 <__sflush_r+0x84>
    23b4:	01d00713          	li	a4,29
    23b8:	02e78863          	beq	a5,a4,23e8 <__sflush_r+0x258>
    23bc:	01600713          	li	a4,22
    23c0:	02e78463          	beq	a5,a4,23e8 <__sflush_r+0x258>
    23c4:	00c45783          	lhu	a5,12(s0)
    23c8:	0407e793          	ori	a5,a5,64
    23cc:	00f41623          	sh	a5,12(s0)
    23d0:	ee5ff06f          	j	22b4 <__sflush_r+0x124>
    23d4:	fffff737          	lui	a4,0xfffff
    23d8:	7ff70713          	addi	a4,a4,2047 # fffff7ff <_stack+0xfffbf7ff>
    23dc:	01042683          	lw	a3,16(s0)
    23e0:	00e7f7b3          	and	a5,a5,a4
    23e4:	fa9ff06f          	j	238c <__sflush_r+0x1fc>
    23e8:	0099a023          	sw	s1,0(s3)
    23ec:	00000513          	li	a0,0
    23f0:	ec5ff06f          	j	22b4 <__sflush_r+0x124>

000023f4 <_fflush_r>:
    23f4:	fe010113          	addi	sp,sp,-32
    23f8:	00812c23          	sw	s0,24(sp)
    23fc:	00112e23          	sw	ra,28(sp)
    2400:	00050413          	mv	s0,a0
    2404:	00050663          	beqz	a0,2410 <_fflush_r+0x1c>
    2408:	03852783          	lw	a5,56(a0)
    240c:	02078063          	beqz	a5,242c <_fflush_r+0x38>
    2410:	00c59783          	lh	a5,12(a1)
    2414:	02079663          	bnez	a5,2440 <_fflush_r+0x4c>
    2418:	01c12083          	lw	ra,28(sp)
    241c:	01812403          	lw	s0,24(sp)
    2420:	00000513          	li	a0,0
    2424:	02010113          	addi	sp,sp,32
    2428:	00008067          	ret
    242c:	00b12623          	sw	a1,12(sp)
    2430:	8e8fe0ef          	jal	ra,518 <__sinit>
    2434:	00c12583          	lw	a1,12(sp)
    2438:	00c59783          	lh	a5,12(a1)
    243c:	fc078ee3          	beqz	a5,2418 <_fflush_r+0x24>
    2440:	00040513          	mv	a0,s0
    2444:	01812403          	lw	s0,24(sp)
    2448:	01c12083          	lw	ra,28(sp)
    244c:	02010113          	addi	sp,sp,32
    2450:	d41ff06f          	j	2190 <__sflush_r>

00002454 <fflush>:
    2454:	06050863          	beqz	a0,24c4 <fflush+0x70>
    2458:	fe010113          	addi	sp,sp,-32
    245c:	000207b7          	lui	a5,0x20
    2460:	00812c23          	sw	s0,24(sp)
    2464:	00050413          	mv	s0,a0
    2468:	0147a503          	lw	a0,20(a5) # 20014 <_impure_ptr>
    246c:	00112e23          	sw	ra,28(sp)
    2470:	00050663          	beqz	a0,247c <fflush+0x28>
    2474:	03852783          	lw	a5,56(a0)
    2478:	02078a63          	beqz	a5,24ac <fflush+0x58>
    247c:	00c41783          	lh	a5,12(s0)
    2480:	00079c63          	bnez	a5,2498 <fflush+0x44>
    2484:	01c12083          	lw	ra,28(sp)
    2488:	01812403          	lw	s0,24(sp)
    248c:	00000513          	li	a0,0
    2490:	02010113          	addi	sp,sp,32
    2494:	00008067          	ret
    2498:	00040593          	mv	a1,s0
    249c:	01812403          	lw	s0,24(sp)
    24a0:	01c12083          	lw	ra,28(sp)
    24a4:	02010113          	addi	sp,sp,32
    24a8:	ce9ff06f          	j	2190 <__sflush_r>
    24ac:	00a12623          	sw	a0,12(sp)
    24b0:	868fe0ef          	jal	ra,518 <__sinit>
    24b4:	00c41783          	lh	a5,12(s0)
    24b8:	00c12503          	lw	a0,12(sp)
    24bc:	fc0784e3          	beqz	a5,2484 <fflush+0x30>
    24c0:	fd9ff06f          	j	2498 <fflush+0x44>
    24c4:	000207b7          	lui	a5,0x20
    24c8:	0107a503          	lw	a0,16(a5) # 20010 <_global_impure_ptr>
    24cc:	000025b7          	lui	a1,0x2
    24d0:	3f458593          	addi	a1,a1,1012 # 23f4 <_fflush_r>
    24d4:	dd8fe06f          	j	aac <_fwalk_reent>

000024d8 <_malloc_trim_r>:
    24d8:	fe010113          	addi	sp,sp,-32
    24dc:	01312623          	sw	s3,12(sp)
    24e0:	000209b7          	lui	s3,0x20
    24e4:	00812c23          	sw	s0,24(sp)
    24e8:	00912a23          	sw	s1,20(sp)
    24ec:	01212823          	sw	s2,16(sp)
    24f0:	01412423          	sw	s4,8(sp)
    24f4:	00112e23          	sw	ra,28(sp)
    24f8:	00058a13          	mv	s4,a1
    24fc:	00050913          	mv	s2,a0
    2500:	46098993          	addi	s3,s3,1120 # 20460 <__malloc_av_>
    2504:	a14ff0ef          	jal	ra,1718 <__malloc_lock>
    2508:	0089a703          	lw	a4,8(s3)
    250c:	000017b7          	lui	a5,0x1
    2510:	fef78413          	addi	s0,a5,-17 # fef <_malloc_r+0x48f>
    2514:	00472483          	lw	s1,4(a4)
    2518:	41440433          	sub	s0,s0,s4
    251c:	ffc4f493          	andi	s1,s1,-4
    2520:	00940433          	add	s0,s0,s1
    2524:	00c45413          	srli	s0,s0,0xc
    2528:	fff40413          	addi	s0,s0,-1
    252c:	00c41413          	slli	s0,s0,0xc
    2530:	00f44e63          	blt	s0,a5,254c <_malloc_trim_r+0x74>
    2534:	00000593          	li	a1,0
    2538:	00090513          	mv	a0,s2
    253c:	f40ff0ef          	jal	ra,1c7c <_sbrk_r>
    2540:	0089a783          	lw	a5,8(s3)
    2544:	009787b3          	add	a5,a5,s1
    2548:	02f50863          	beq	a0,a5,2578 <_malloc_trim_r+0xa0>
    254c:	00090513          	mv	a0,s2
    2550:	9ccff0ef          	jal	ra,171c <__malloc_unlock>
    2554:	01c12083          	lw	ra,28(sp)
    2558:	01812403          	lw	s0,24(sp)
    255c:	01412483          	lw	s1,20(sp)
    2560:	01012903          	lw	s2,16(sp)
    2564:	00c12983          	lw	s3,12(sp)
    2568:	00812a03          	lw	s4,8(sp)
    256c:	00000513          	li	a0,0
    2570:	02010113          	addi	sp,sp,32
    2574:	00008067          	ret
    2578:	408005b3          	neg	a1,s0
    257c:	00090513          	mv	a0,s2
    2580:	efcff0ef          	jal	ra,1c7c <_sbrk_r>
    2584:	fff00793          	li	a5,-1
    2588:	04f50a63          	beq	a0,a5,25dc <_malloc_trim_r+0x104>
    258c:	000217b7          	lui	a5,0x21
    2590:	87c78793          	addi	a5,a5,-1924 # 2087c <__malloc_current_mallinfo>
    2594:	0007a703          	lw	a4,0(a5)
    2598:	0089a683          	lw	a3,8(s3)
    259c:	408484b3          	sub	s1,s1,s0
    25a0:	0014e493          	ori	s1,s1,1
    25a4:	40870733          	sub	a4,a4,s0
    25a8:	00090513          	mv	a0,s2
    25ac:	0096a223          	sw	s1,4(a3) # 1004 <_malloc_r+0x4a4>
    25b0:	00e7a023          	sw	a4,0(a5)
    25b4:	968ff0ef          	jal	ra,171c <__malloc_unlock>
    25b8:	01c12083          	lw	ra,28(sp)
    25bc:	01812403          	lw	s0,24(sp)
    25c0:	01412483          	lw	s1,20(sp)
    25c4:	01012903          	lw	s2,16(sp)
    25c8:	00c12983          	lw	s3,12(sp)
    25cc:	00812a03          	lw	s4,8(sp)
    25d0:	00100513          	li	a0,1
    25d4:	02010113          	addi	sp,sp,32
    25d8:	00008067          	ret
    25dc:	00000593          	li	a1,0
    25e0:	00090513          	mv	a0,s2
    25e4:	e98ff0ef          	jal	ra,1c7c <_sbrk_r>
    25e8:	0089a703          	lw	a4,8(s3)
    25ec:	00f00693          	li	a3,15
    25f0:	40e507b3          	sub	a5,a0,a4
    25f4:	f4f6dce3          	bge	a3,a5,254c <_malloc_trim_r+0x74>
    25f8:	000206b7          	lui	a3,0x20
    25fc:	0186a683          	lw	a3,24(a3) # 20018 <__malloc_sbrk_base>
    2600:	0017e793          	ori	a5,a5,1
    2604:	00f72223          	sw	a5,4(a4)
    2608:	40d50533          	sub	a0,a0,a3
    260c:	000216b7          	lui	a3,0x21
    2610:	86a6ae23          	sw	a0,-1924(a3) # 2087c <__malloc_current_mallinfo>
    2614:	f39ff06f          	j	254c <_malloc_trim_r+0x74>

00002618 <_free_r>:
    2618:	12058a63          	beqz	a1,274c <_free_r+0x134>
    261c:	ff010113          	addi	sp,sp,-16
    2620:	00812423          	sw	s0,8(sp)
    2624:	00912223          	sw	s1,4(sp)
    2628:	00058413          	mv	s0,a1
    262c:	00050493          	mv	s1,a0
    2630:	00112623          	sw	ra,12(sp)
    2634:	8e4ff0ef          	jal	ra,1718 <__malloc_lock>
    2638:	ffc42803          	lw	a6,-4(s0)
    263c:	ff840713          	addi	a4,s0,-8
    2640:	000205b7          	lui	a1,0x20
    2644:	ffe87793          	andi	a5,a6,-2
    2648:	00f70633          	add	a2,a4,a5
    264c:	46058593          	addi	a1,a1,1120 # 20460 <__malloc_av_>
    2650:	00462683          	lw	a3,4(a2)
    2654:	0085a503          	lw	a0,8(a1)
    2658:	ffc6f693          	andi	a3,a3,-4
    265c:	1ac50a63          	beq	a0,a2,2810 <_free_r+0x1f8>
    2660:	00d62223          	sw	a3,4(a2)
    2664:	00187813          	andi	a6,a6,1
    2668:	00d60533          	add	a0,a2,a3
    266c:	0a081063          	bnez	a6,270c <_free_r+0xf4>
    2670:	ff842303          	lw	t1,-8(s0)
    2674:	00452803          	lw	a6,4(a0)
    2678:	00020537          	lui	a0,0x20
    267c:	40670733          	sub	a4,a4,t1
    2680:	00872883          	lw	a7,8(a4)
    2684:	46850513          	addi	a0,a0,1128 # 20468 <__malloc_av_+0x8>
    2688:	006787b3          	add	a5,a5,t1
    268c:	00187813          	andi	a6,a6,1
    2690:	14a88063          	beq	a7,a0,27d0 <_free_r+0x1b8>
    2694:	00c72303          	lw	t1,12(a4)
    2698:	0068a623          	sw	t1,12(a7)
    269c:	01132423          	sw	a7,8(t1)
    26a0:	1e080463          	beqz	a6,2888 <_free_r+0x270>
    26a4:	0017e693          	ori	a3,a5,1
    26a8:	00d72223          	sw	a3,4(a4)
    26ac:	00f62023          	sw	a5,0(a2)
    26b0:	1ff00693          	li	a3,511
    26b4:	0af6e863          	bltu	a3,a5,2764 <_free_r+0x14c>
    26b8:	ff87f693          	andi	a3,a5,-8
    26bc:	00868693          	addi	a3,a3,8
    26c0:	0045a503          	lw	a0,4(a1)
    26c4:	00d586b3          	add	a3,a1,a3
    26c8:	0006a603          	lw	a2,0(a3)
    26cc:	0057d813          	srli	a6,a5,0x5
    26d0:	00100793          	li	a5,1
    26d4:	010797b3          	sll	a5,a5,a6
    26d8:	00a7e7b3          	or	a5,a5,a0
    26dc:	ff868513          	addi	a0,a3,-8
    26e0:	00a72623          	sw	a0,12(a4)
    26e4:	00c72423          	sw	a2,8(a4)
    26e8:	00f5a223          	sw	a5,4(a1)
    26ec:	00e6a023          	sw	a4,0(a3)
    26f0:	00e62623          	sw	a4,12(a2)
    26f4:	00812403          	lw	s0,8(sp)
    26f8:	00c12083          	lw	ra,12(sp)
    26fc:	00048513          	mv	a0,s1
    2700:	00412483          	lw	s1,4(sp)
    2704:	01010113          	addi	sp,sp,16
    2708:	814ff06f          	j	171c <__malloc_unlock>
    270c:	00452503          	lw	a0,4(a0)
    2710:	00157513          	andi	a0,a0,1
    2714:	02051e63          	bnez	a0,2750 <_free_r+0x138>
    2718:	00020537          	lui	a0,0x20
    271c:	00d787b3          	add	a5,a5,a3
    2720:	46850513          	addi	a0,a0,1128 # 20468 <__malloc_av_+0x8>
    2724:	00862683          	lw	a3,8(a2)
    2728:	0017e893          	ori	a7,a5,1
    272c:	00f70833          	add	a6,a4,a5
    2730:	16a68863          	beq	a3,a0,28a0 <_free_r+0x288>
    2734:	00c62603          	lw	a2,12(a2)
    2738:	00c6a623          	sw	a2,12(a3)
    273c:	00d62423          	sw	a3,8(a2)
    2740:	01172223          	sw	a7,4(a4)
    2744:	00f82023          	sw	a5,0(a6)
    2748:	f69ff06f          	j	26b0 <_free_r+0x98>
    274c:	00008067          	ret
    2750:	0017e693          	ori	a3,a5,1
    2754:	fed42e23          	sw	a3,-4(s0)
    2758:	00f62023          	sw	a5,0(a2)
    275c:	1ff00693          	li	a3,511
    2760:	f4f6fce3          	bgeu	a3,a5,26b8 <_free_r+0xa0>
    2764:	0097d693          	srli	a3,a5,0x9
    2768:	00400613          	li	a2,4
    276c:	0ed66c63          	bltu	a2,a3,2864 <_free_r+0x24c>
    2770:	0067d693          	srli	a3,a5,0x6
    2774:	03968813          	addi	a6,a3,57
    2778:	03868613          	addi	a2,a3,56
    277c:	00381813          	slli	a6,a6,0x3
    2780:	01058833          	add	a6,a1,a6
    2784:	00082683          	lw	a3,0(a6)
    2788:	ff880813          	addi	a6,a6,-8
    278c:	12d80863          	beq	a6,a3,28bc <_free_r+0x2a4>
    2790:	0046a603          	lw	a2,4(a3)
    2794:	ffc67613          	andi	a2,a2,-4
    2798:	00c7f663          	bgeu	a5,a2,27a4 <_free_r+0x18c>
    279c:	0086a683          	lw	a3,8(a3)
    27a0:	fed818e3          	bne	a6,a3,2790 <_free_r+0x178>
    27a4:	00c6a803          	lw	a6,12(a3)
    27a8:	01072623          	sw	a6,12(a4)
    27ac:	00d72423          	sw	a3,8(a4)
    27b0:	00812403          	lw	s0,8(sp)
    27b4:	00c12083          	lw	ra,12(sp)
    27b8:	00e82423          	sw	a4,8(a6)
    27bc:	00048513          	mv	a0,s1
    27c0:	00412483          	lw	s1,4(sp)
    27c4:	00e6a623          	sw	a4,12(a3)
    27c8:	01010113          	addi	sp,sp,16
    27cc:	f51fe06f          	j	171c <__malloc_unlock>
    27d0:	14081663          	bnez	a6,291c <_free_r+0x304>
    27d4:	00c62583          	lw	a1,12(a2)
    27d8:	00862603          	lw	a2,8(a2)
    27dc:	00f686b3          	add	a3,a3,a5
    27e0:	00812403          	lw	s0,8(sp)
    27e4:	00b62623          	sw	a1,12(a2)
    27e8:	00c5a423          	sw	a2,8(a1)
    27ec:	0016e793          	ori	a5,a3,1
    27f0:	00c12083          	lw	ra,12(sp)
    27f4:	00f72223          	sw	a5,4(a4)
    27f8:	00048513          	mv	a0,s1
    27fc:	00d70733          	add	a4,a4,a3
    2800:	00412483          	lw	s1,4(sp)
    2804:	00d72023          	sw	a3,0(a4)
    2808:	01010113          	addi	sp,sp,16
    280c:	f11fe06f          	j	171c <__malloc_unlock>
    2810:	00187813          	andi	a6,a6,1
    2814:	00d786b3          	add	a3,a5,a3
    2818:	02081063          	bnez	a6,2838 <_free_r+0x220>
    281c:	ff842503          	lw	a0,-8(s0)
    2820:	40a70733          	sub	a4,a4,a0
    2824:	00c72783          	lw	a5,12(a4)
    2828:	00872603          	lw	a2,8(a4)
    282c:	00a686b3          	add	a3,a3,a0
    2830:	00f62623          	sw	a5,12(a2)
    2834:	00c7a423          	sw	a2,8(a5)
    2838:	000207b7          	lui	a5,0x20
    283c:	0016e613          	ori	a2,a3,1
    2840:	01c7a783          	lw	a5,28(a5) # 2001c <__malloc_trim_threshold>
    2844:	00c72223          	sw	a2,4(a4)
    2848:	00e5a423          	sw	a4,8(a1)
    284c:	eaf6e4e3          	bltu	a3,a5,26f4 <_free_r+0xdc>
    2850:	000217b7          	lui	a5,0x21
    2854:	8707a583          	lw	a1,-1936(a5) # 20870 <__malloc_top_pad>
    2858:	00048513          	mv	a0,s1
    285c:	c7dff0ef          	jal	ra,24d8 <_malloc_trim_r>
    2860:	e95ff06f          	j	26f4 <_free_r+0xdc>
    2864:	01400613          	li	a2,20
    2868:	02d67463          	bgeu	a2,a3,2890 <_free_r+0x278>
    286c:	05400613          	li	a2,84
    2870:	06d66463          	bltu	a2,a3,28d8 <_free_r+0x2c0>
    2874:	00c7d693          	srli	a3,a5,0xc
    2878:	06f68813          	addi	a6,a3,111
    287c:	06e68613          	addi	a2,a3,110
    2880:	00381813          	slli	a6,a6,0x3
    2884:	efdff06f          	j	2780 <_free_r+0x168>
    2888:	00d787b3          	add	a5,a5,a3
    288c:	e99ff06f          	j	2724 <_free_r+0x10c>
    2890:	05c68813          	addi	a6,a3,92
    2894:	05b68613          	addi	a2,a3,91
    2898:	00381813          	slli	a6,a6,0x3
    289c:	ee5ff06f          	j	2780 <_free_r+0x168>
    28a0:	00e5aa23          	sw	a4,20(a1)
    28a4:	00e5a823          	sw	a4,16(a1)
    28a8:	00a72623          	sw	a0,12(a4)
    28ac:	00a72423          	sw	a0,8(a4)
    28b0:	01172223          	sw	a7,4(a4)
    28b4:	00f82023          	sw	a5,0(a6)
    28b8:	e3dff06f          	j	26f4 <_free_r+0xdc>
    28bc:	0045a503          	lw	a0,4(a1)
    28c0:	40265613          	srai	a2,a2,0x2
    28c4:	00100793          	li	a5,1
    28c8:	00c797b3          	sll	a5,a5,a2
    28cc:	00a7e7b3          	or	a5,a5,a0
    28d0:	00f5a223          	sw	a5,4(a1)
    28d4:	ed5ff06f          	j	27a8 <_free_r+0x190>
    28d8:	15400613          	li	a2,340
    28dc:	00d66c63          	bltu	a2,a3,28f4 <_free_r+0x2dc>
    28e0:	00f7d693          	srli	a3,a5,0xf
    28e4:	07868813          	addi	a6,a3,120
    28e8:	07768613          	addi	a2,a3,119
    28ec:	00381813          	slli	a6,a6,0x3
    28f0:	e91ff06f          	j	2780 <_free_r+0x168>
    28f4:	55400613          	li	a2,1364
    28f8:	00d66c63          	bltu	a2,a3,2910 <_free_r+0x2f8>
    28fc:	0127d693          	srli	a3,a5,0x12
    2900:	07d68813          	addi	a6,a3,125
    2904:	07c68613          	addi	a2,a3,124
    2908:	00381813          	slli	a6,a6,0x3
    290c:	e75ff06f          	j	2780 <_free_r+0x168>
    2910:	3f800813          	li	a6,1016
    2914:	07e00613          	li	a2,126
    2918:	e69ff06f          	j	2780 <_free_r+0x168>
    291c:	0017e693          	ori	a3,a5,1
    2920:	00d72223          	sw	a3,4(a4)
    2924:	00f62023          	sw	a5,0(a2)
    2928:	dcdff06f          	j	26f4 <_free_r+0xdc>

0000292c <_lseek_r>:
    292c:	ff010113          	addi	sp,sp,-16
    2930:	00058713          	mv	a4,a1
    2934:	00812423          	sw	s0,8(sp)
    2938:	00912223          	sw	s1,4(sp)
    293c:	00060593          	mv	a1,a2
    2940:	00050413          	mv	s0,a0
    2944:	000214b7          	lui	s1,0x21
    2948:	00068613          	mv	a2,a3
    294c:	00070513          	mv	a0,a4
    2950:	00112623          	sw	ra,12(sp)
    2954:	8604aa23          	sw	zero,-1932(s1) # 20874 <errno>
    2958:	059000ef          	jal	ra,31b0 <_lseek>
    295c:	fff00793          	li	a5,-1
    2960:	00f50c63          	beq	a0,a5,2978 <_lseek_r+0x4c>
    2964:	00c12083          	lw	ra,12(sp)
    2968:	00812403          	lw	s0,8(sp)
    296c:	00412483          	lw	s1,4(sp)
    2970:	01010113          	addi	sp,sp,16
    2974:	00008067          	ret
    2978:	8744a783          	lw	a5,-1932(s1)
    297c:	fe0784e3          	beqz	a5,2964 <_lseek_r+0x38>
    2980:	00c12083          	lw	ra,12(sp)
    2984:	00f42023          	sw	a5,0(s0)
    2988:	00812403          	lw	s0,8(sp)
    298c:	00412483          	lw	s1,4(sp)
    2990:	01010113          	addi	sp,sp,16
    2994:	00008067          	ret

00002998 <__smakebuf_r>:
    2998:	00c5d783          	lhu	a5,12(a1)
    299c:	f8010113          	addi	sp,sp,-128
    29a0:	06812c23          	sw	s0,120(sp)
    29a4:	06112e23          	sw	ra,124(sp)
    29a8:	06912a23          	sw	s1,116(sp)
    29ac:	07212823          	sw	s2,112(sp)
    29b0:	07312623          	sw	s3,108(sp)
    29b4:	07412423          	sw	s4,104(sp)
    29b8:	0027f713          	andi	a4,a5,2
    29bc:	00058413          	mv	s0,a1
    29c0:	02070c63          	beqz	a4,29f8 <__smakebuf_r+0x60>
    29c4:	04358793          	addi	a5,a1,67
    29c8:	00f5a023          	sw	a5,0(a1)
    29cc:	00f5a823          	sw	a5,16(a1)
    29d0:	00100793          	li	a5,1
    29d4:	00f5aa23          	sw	a5,20(a1)
    29d8:	07c12083          	lw	ra,124(sp)
    29dc:	07812403          	lw	s0,120(sp)
    29e0:	07412483          	lw	s1,116(sp)
    29e4:	07012903          	lw	s2,112(sp)
    29e8:	06c12983          	lw	s3,108(sp)
    29ec:	06812a03          	lw	s4,104(sp)
    29f0:	08010113          	addi	sp,sp,128
    29f4:	00008067          	ret
    29f8:	00e59583          	lh	a1,14(a1)
    29fc:	00050493          	mv	s1,a0
    2a00:	0805ca63          	bltz	a1,2a94 <__smakebuf_r+0xfc>
    2a04:	00810613          	addi	a2,sp,8
    2a08:	418000ef          	jal	ra,2e20 <_fstat_r>
    2a0c:	08054263          	bltz	a0,2a90 <__smakebuf_r+0xf8>
    2a10:	00c12783          	lw	a5,12(sp)
    2a14:	0000f937          	lui	s2,0xf
    2a18:	000019b7          	lui	s3,0x1
    2a1c:	00f97933          	and	s2,s2,a5
    2a20:	ffffe7b7          	lui	a5,0xffffe
    2a24:	00f90933          	add	s2,s2,a5
    2a28:	00193913          	seqz	s2,s2
    2a2c:	40000a13          	li	s4,1024
    2a30:	80098993          	addi	s3,s3,-2048 # 800 <__sfvwrite_r+0x2a8>
    2a34:	000a0593          	mv	a1,s4
    2a38:	00048513          	mv	a0,s1
    2a3c:	924fe0ef          	jal	ra,b60 <_malloc_r>
    2a40:	00c41783          	lh	a5,12(s0)
    2a44:	06050c63          	beqz	a0,2abc <__smakebuf_r+0x124>
    2a48:	1cc00713          	li	a4,460
    2a4c:	02e4ae23          	sw	a4,60(s1)
    2a50:	0807e793          	ori	a5,a5,128
    2a54:	00f41623          	sh	a5,12(s0)
    2a58:	00a42023          	sw	a0,0(s0)
    2a5c:	00a42823          	sw	a0,16(s0)
    2a60:	01442a23          	sw	s4,20(s0)
    2a64:	08091863          	bnez	s2,2af4 <__smakebuf_r+0x15c>
    2a68:	0137e7b3          	or	a5,a5,s3
    2a6c:	07c12083          	lw	ra,124(sp)
    2a70:	00f41623          	sh	a5,12(s0)
    2a74:	07812403          	lw	s0,120(sp)
    2a78:	07412483          	lw	s1,116(sp)
    2a7c:	07012903          	lw	s2,112(sp)
    2a80:	06c12983          	lw	s3,108(sp)
    2a84:	06812a03          	lw	s4,104(sp)
    2a88:	08010113          	addi	sp,sp,128
    2a8c:	00008067          	ret
    2a90:	00c45783          	lhu	a5,12(s0)
    2a94:	0807f793          	andi	a5,a5,128
    2a98:	00000913          	li	s2,0
    2a9c:	04078663          	beqz	a5,2ae8 <__smakebuf_r+0x150>
    2aa0:	04000a13          	li	s4,64
    2aa4:	000a0593          	mv	a1,s4
    2aa8:	00048513          	mv	a0,s1
    2aac:	8b4fe0ef          	jal	ra,b60 <_malloc_r>
    2ab0:	00c41783          	lh	a5,12(s0)
    2ab4:	00000993          	li	s3,0
    2ab8:	f80518e3          	bnez	a0,2a48 <__smakebuf_r+0xb0>
    2abc:	2007f713          	andi	a4,a5,512
    2ac0:	f0071ce3          	bnez	a4,29d8 <__smakebuf_r+0x40>
    2ac4:	ffc7f793          	andi	a5,a5,-4
    2ac8:	0027e793          	ori	a5,a5,2
    2acc:	04340713          	addi	a4,s0,67
    2ad0:	00f41623          	sh	a5,12(s0)
    2ad4:	00100793          	li	a5,1
    2ad8:	00e42023          	sw	a4,0(s0)
    2adc:	00e42823          	sw	a4,16(s0)
    2ae0:	00f42a23          	sw	a5,20(s0)
    2ae4:	ef5ff06f          	j	29d8 <__smakebuf_r+0x40>
    2ae8:	40000a13          	li	s4,1024
    2aec:	00000993          	li	s3,0
    2af0:	f45ff06f          	j	2a34 <__smakebuf_r+0x9c>
    2af4:	00e41583          	lh	a1,14(s0)
    2af8:	00048513          	mv	a0,s1
    2afc:	38c000ef          	jal	ra,2e88 <_isatty_r>
    2b00:	00051663          	bnez	a0,2b0c <__smakebuf_r+0x174>
    2b04:	00c41783          	lh	a5,12(s0)
    2b08:	f61ff06f          	j	2a68 <__smakebuf_r+0xd0>
    2b0c:	00c45783          	lhu	a5,12(s0)
    2b10:	ffc7f793          	andi	a5,a5,-4
    2b14:	0017e793          	ori	a5,a5,1
    2b18:	01079793          	slli	a5,a5,0x10
    2b1c:	4107d793          	srai	a5,a5,0x10
    2b20:	f49ff06f          	j	2a68 <__smakebuf_r+0xd0>

00002b24 <__swhatbuf_r>:
    2b24:	f9010113          	addi	sp,sp,-112
    2b28:	06812423          	sw	s0,104(sp)
    2b2c:	00058413          	mv	s0,a1
    2b30:	00e59583          	lh	a1,14(a1)
    2b34:	06912223          	sw	s1,100(sp)
    2b38:	07212023          	sw	s2,96(sp)
    2b3c:	06112623          	sw	ra,108(sp)
    2b40:	00060493          	mv	s1,a2
    2b44:	00068913          	mv	s2,a3
    2b48:	0405ca63          	bltz	a1,2b9c <__swhatbuf_r+0x78>
    2b4c:	00810613          	addi	a2,sp,8
    2b50:	2d0000ef          	jal	ra,2e20 <_fstat_r>
    2b54:	04054463          	bltz	a0,2b9c <__swhatbuf_r+0x78>
    2b58:	00c12703          	lw	a4,12(sp)
    2b5c:	0000f7b7          	lui	a5,0xf
    2b60:	06c12083          	lw	ra,108(sp)
    2b64:	00e7f7b3          	and	a5,a5,a4
    2b68:	ffffe737          	lui	a4,0xffffe
    2b6c:	00e787b3          	add	a5,a5,a4
    2b70:	06812403          	lw	s0,104(sp)
    2b74:	0017b793          	seqz	a5,a5
    2b78:	00f92023          	sw	a5,0(s2) # f000 <_text_end+0xbd88>
    2b7c:	40000713          	li	a4,1024
    2b80:	00e4a023          	sw	a4,0(s1)
    2b84:	00001537          	lui	a0,0x1
    2b88:	06412483          	lw	s1,100(sp)
    2b8c:	06012903          	lw	s2,96(sp)
    2b90:	80050513          	addi	a0,a0,-2048 # 800 <__sfvwrite_r+0x2a8>
    2b94:	07010113          	addi	sp,sp,112
    2b98:	00008067          	ret
    2b9c:	00c45783          	lhu	a5,12(s0)
    2ba0:	0807f793          	andi	a5,a5,128
    2ba4:	02078863          	beqz	a5,2bd4 <__swhatbuf_r+0xb0>
    2ba8:	06c12083          	lw	ra,108(sp)
    2bac:	06812403          	lw	s0,104(sp)
    2bb0:	00000793          	li	a5,0
    2bb4:	00f92023          	sw	a5,0(s2)
    2bb8:	04000713          	li	a4,64
    2bbc:	00e4a023          	sw	a4,0(s1)
    2bc0:	06012903          	lw	s2,96(sp)
    2bc4:	06412483          	lw	s1,100(sp)
    2bc8:	00000513          	li	a0,0
    2bcc:	07010113          	addi	sp,sp,112
    2bd0:	00008067          	ret
    2bd4:	06c12083          	lw	ra,108(sp)
    2bd8:	06812403          	lw	s0,104(sp)
    2bdc:	00000793          	li	a5,0
    2be0:	00f92023          	sw	a5,0(s2)
    2be4:	40000713          	li	a4,1024
    2be8:	00e4a023          	sw	a4,0(s1)
    2bec:	06012903          	lw	s2,96(sp)
    2bf0:	06412483          	lw	s1,100(sp)
    2bf4:	00000513          	li	a0,0
    2bf8:	07010113          	addi	sp,sp,112
    2bfc:	00008067          	ret

00002c00 <_read_r>:
    2c00:	ff010113          	addi	sp,sp,-16
    2c04:	00058713          	mv	a4,a1
    2c08:	00812423          	sw	s0,8(sp)
    2c0c:	00912223          	sw	s1,4(sp)
    2c10:	00060593          	mv	a1,a2
    2c14:	00050413          	mv	s0,a0
    2c18:	000214b7          	lui	s1,0x21
    2c1c:	00068613          	mv	a2,a3
    2c20:	00070513          	mv	a0,a4
    2c24:	00112623          	sw	ra,12(sp)
    2c28:	8604aa23          	sw	zero,-1932(s1) # 20874 <errno>
    2c2c:	58c000ef          	jal	ra,31b8 <_read>
    2c30:	fff00793          	li	a5,-1
    2c34:	00f50c63          	beq	a0,a5,2c4c <_read_r+0x4c>
    2c38:	00c12083          	lw	ra,12(sp)
    2c3c:	00812403          	lw	s0,8(sp)
    2c40:	00412483          	lw	s1,4(sp)
    2c44:	01010113          	addi	sp,sp,16
    2c48:	00008067          	ret
    2c4c:	8744a783          	lw	a5,-1932(s1)
    2c50:	fe0784e3          	beqz	a5,2c38 <_read_r+0x38>
    2c54:	00c12083          	lw	ra,12(sp)
    2c58:	00f42023          	sw	a5,0(s0)
    2c5c:	00812403          	lw	s0,8(sp)
    2c60:	00412483          	lw	s1,4(sp)
    2c64:	01010113          	addi	sp,sp,16
    2c68:	00008067          	ret

00002c6c <cleanup_glue>:
    2c6c:	fe010113          	addi	sp,sp,-32
    2c70:	01212823          	sw	s2,16(sp)
    2c74:	0005a903          	lw	s2,0(a1)
    2c78:	00812c23          	sw	s0,24(sp)
    2c7c:	00912a23          	sw	s1,20(sp)
    2c80:	00112e23          	sw	ra,28(sp)
    2c84:	01312623          	sw	s3,12(sp)
    2c88:	01412423          	sw	s4,8(sp)
    2c8c:	00058413          	mv	s0,a1
    2c90:	00050493          	mv	s1,a0
    2c94:	04090263          	beqz	s2,2cd8 <cleanup_glue+0x6c>
    2c98:	00092983          	lw	s3,0(s2)
    2c9c:	02098863          	beqz	s3,2ccc <cleanup_glue+0x60>
    2ca0:	0009aa03          	lw	s4,0(s3)
    2ca4:	000a0e63          	beqz	s4,2cc0 <cleanup_glue+0x54>
    2ca8:	000a2583          	lw	a1,0(s4)
    2cac:	00058463          	beqz	a1,2cb4 <cleanup_glue+0x48>
    2cb0:	fbdff0ef          	jal	ra,2c6c <cleanup_glue>
    2cb4:	000a0593          	mv	a1,s4
    2cb8:	00048513          	mv	a0,s1
    2cbc:	95dff0ef          	jal	ra,2618 <_free_r>
    2cc0:	00098593          	mv	a1,s3
    2cc4:	00048513          	mv	a0,s1
    2cc8:	951ff0ef          	jal	ra,2618 <_free_r>
    2ccc:	00090593          	mv	a1,s2
    2cd0:	00048513          	mv	a0,s1
    2cd4:	945ff0ef          	jal	ra,2618 <_free_r>
    2cd8:	00040593          	mv	a1,s0
    2cdc:	01812403          	lw	s0,24(sp)
    2ce0:	01c12083          	lw	ra,28(sp)
    2ce4:	01012903          	lw	s2,16(sp)
    2ce8:	00c12983          	lw	s3,12(sp)
    2cec:	00812a03          	lw	s4,8(sp)
    2cf0:	00048513          	mv	a0,s1
    2cf4:	01412483          	lw	s1,20(sp)
    2cf8:	02010113          	addi	sp,sp,32
    2cfc:	91dff06f          	j	2618 <_free_r>

00002d00 <_reclaim_reent>:
    2d00:	000207b7          	lui	a5,0x20
    2d04:	0147a783          	lw	a5,20(a5) # 20014 <_impure_ptr>
    2d08:	10a78a63          	beq	a5,a0,2e1c <_reclaim_reent+0x11c>
    2d0c:	04c52583          	lw	a1,76(a0)
    2d10:	fe010113          	addi	sp,sp,-32
    2d14:	00912a23          	sw	s1,20(sp)
    2d18:	00112e23          	sw	ra,28(sp)
    2d1c:	00812c23          	sw	s0,24(sp)
    2d20:	01212823          	sw	s2,16(sp)
    2d24:	01312623          	sw	s3,12(sp)
    2d28:	00050493          	mv	s1,a0
    2d2c:	04058063          	beqz	a1,2d6c <_reclaim_reent+0x6c>
    2d30:	00000913          	li	s2,0
    2d34:	08000993          	li	s3,128
    2d38:	012587b3          	add	a5,a1,s2
    2d3c:	0007a403          	lw	s0,0(a5)
    2d40:	00040e63          	beqz	s0,2d5c <_reclaim_reent+0x5c>
    2d44:	00040593          	mv	a1,s0
    2d48:	00042403          	lw	s0,0(s0)
    2d4c:	00048513          	mv	a0,s1
    2d50:	8c9ff0ef          	jal	ra,2618 <_free_r>
    2d54:	fe0418e3          	bnez	s0,2d44 <_reclaim_reent+0x44>
    2d58:	04c4a583          	lw	a1,76(s1)
    2d5c:	00490913          	addi	s2,s2,4
    2d60:	fd391ce3          	bne	s2,s3,2d38 <_reclaim_reent+0x38>
    2d64:	00048513          	mv	a0,s1
    2d68:	8b1ff0ef          	jal	ra,2618 <_free_r>
    2d6c:	0404a583          	lw	a1,64(s1)
    2d70:	00058663          	beqz	a1,2d7c <_reclaim_reent+0x7c>
    2d74:	00048513          	mv	a0,s1
    2d78:	8a1ff0ef          	jal	ra,2618 <_free_r>
    2d7c:	1484a403          	lw	s0,328(s1)
    2d80:	02040063          	beqz	s0,2da0 <_reclaim_reent+0xa0>
    2d84:	14c48913          	addi	s2,s1,332
    2d88:	01240c63          	beq	s0,s2,2da0 <_reclaim_reent+0xa0>
    2d8c:	00040593          	mv	a1,s0
    2d90:	00042403          	lw	s0,0(s0)
    2d94:	00048513          	mv	a0,s1
    2d98:	881ff0ef          	jal	ra,2618 <_free_r>
    2d9c:	fe8918e3          	bne	s2,s0,2d8c <_reclaim_reent+0x8c>
    2da0:	0544a583          	lw	a1,84(s1)
    2da4:	00058663          	beqz	a1,2db0 <_reclaim_reent+0xb0>
    2da8:	00048513          	mv	a0,s1
    2dac:	86dff0ef          	jal	ra,2618 <_free_r>
    2db0:	0384a783          	lw	a5,56(s1)
    2db4:	04078663          	beqz	a5,2e00 <_reclaim_reent+0x100>
    2db8:	03c4a783          	lw	a5,60(s1)
    2dbc:	00048513          	mv	a0,s1
    2dc0:	000780e7          	jalr	a5
    2dc4:	2e04a403          	lw	s0,736(s1)
    2dc8:	02040c63          	beqz	s0,2e00 <_reclaim_reent+0x100>
    2dcc:	00042583          	lw	a1,0(s0)
    2dd0:	00058663          	beqz	a1,2ddc <_reclaim_reent+0xdc>
    2dd4:	00048513          	mv	a0,s1
    2dd8:	e95ff0ef          	jal	ra,2c6c <cleanup_glue>
    2ddc:	00040593          	mv	a1,s0
    2de0:	01812403          	lw	s0,24(sp)
    2de4:	01c12083          	lw	ra,28(sp)
    2de8:	01012903          	lw	s2,16(sp)
    2dec:	00c12983          	lw	s3,12(sp)
    2df0:	00048513          	mv	a0,s1
    2df4:	01412483          	lw	s1,20(sp)
    2df8:	02010113          	addi	sp,sp,32
    2dfc:	81dff06f          	j	2618 <_free_r>
    2e00:	01c12083          	lw	ra,28(sp)
    2e04:	01812403          	lw	s0,24(sp)
    2e08:	01412483          	lw	s1,20(sp)
    2e0c:	01012903          	lw	s2,16(sp)
    2e10:	00c12983          	lw	s3,12(sp)
    2e14:	02010113          	addi	sp,sp,32
    2e18:	00008067          	ret
    2e1c:	00008067          	ret

00002e20 <_fstat_r>:
    2e20:	ff010113          	addi	sp,sp,-16
    2e24:	00058713          	mv	a4,a1
    2e28:	00812423          	sw	s0,8(sp)
    2e2c:	00912223          	sw	s1,4(sp)
    2e30:	00050413          	mv	s0,a0
    2e34:	000214b7          	lui	s1,0x21
    2e38:	00060593          	mv	a1,a2
    2e3c:	00070513          	mv	a0,a4
    2e40:	00112623          	sw	ra,12(sp)
    2e44:	8604aa23          	sw	zero,-1932(s1) # 20874 <errno>
    2e48:	358000ef          	jal	ra,31a0 <_fstat>
    2e4c:	fff00793          	li	a5,-1
    2e50:	00f50c63          	beq	a0,a5,2e68 <_fstat_r+0x48>
    2e54:	00c12083          	lw	ra,12(sp)
    2e58:	00812403          	lw	s0,8(sp)
    2e5c:	00412483          	lw	s1,4(sp)
    2e60:	01010113          	addi	sp,sp,16
    2e64:	00008067          	ret
    2e68:	8744a783          	lw	a5,-1932(s1)
    2e6c:	fe0784e3          	beqz	a5,2e54 <_fstat_r+0x34>
    2e70:	00c12083          	lw	ra,12(sp)
    2e74:	00f42023          	sw	a5,0(s0)
    2e78:	00812403          	lw	s0,8(sp)
    2e7c:	00412483          	lw	s1,4(sp)
    2e80:	01010113          	addi	sp,sp,16
    2e84:	00008067          	ret

00002e88 <_isatty_r>:
    2e88:	ff010113          	addi	sp,sp,-16
    2e8c:	00812423          	sw	s0,8(sp)
    2e90:	00912223          	sw	s1,4(sp)
    2e94:	00050413          	mv	s0,a0
    2e98:	000214b7          	lui	s1,0x21
    2e9c:	00058513          	mv	a0,a1
    2ea0:	00112623          	sw	ra,12(sp)
    2ea4:	8604aa23          	sw	zero,-1932(s1) # 20874 <errno>
    2ea8:	364000ef          	jal	ra,320c <_isatty>
    2eac:	fff00793          	li	a5,-1
    2eb0:	00f50c63          	beq	a0,a5,2ec8 <_isatty_r+0x40>
    2eb4:	00c12083          	lw	ra,12(sp)
    2eb8:	00812403          	lw	s0,8(sp)
    2ebc:	00412483          	lw	s1,4(sp)
    2ec0:	01010113          	addi	sp,sp,16
    2ec4:	00008067          	ret
    2ec8:	8744a783          	lw	a5,-1932(s1)
    2ecc:	fe0784e3          	beqz	a5,2eb4 <_isatty_r+0x2c>
    2ed0:	00c12083          	lw	ra,12(sp)
    2ed4:	00f42023          	sw	a5,0(s0)
    2ed8:	00812403          	lw	s0,8(sp)
    2edc:	00412483          	lw	s1,4(sp)
    2ee0:	01010113          	addi	sp,sp,16
    2ee4:	00008067          	ret
	...

00002ef0 <trap_handler>:
    2ef0:	0400006f          	j	2f30 <_trap_handler>
    2ef4:	03c0006f          	j	2f30 <_trap_handler>
    2ef8:	0380006f          	j	2f30 <_trap_handler>
    2efc:	1a40006f          	j	30a0 <_trap_ebreak>
    2f00:	0300006f          	j	2f30 <_trap_handler>
    2f04:	02c0006f          	j	2f30 <_trap_handler>
    2f08:	0280006f          	j	2f30 <_trap_handler>
    2f0c:	0240006f          	j	2f30 <_trap_handler>
    2f10:	0000006f          	j	2f10 <trap_handler+0x20>
    2f14:	0000006f          	j	2f14 <trap_handler+0x24>
    2f18:	0000006f          	j	2f18 <trap_handler+0x28>
    2f1c:	0cc0006f          	j	2fe8 <_trap_ecall>
    2f20:	0000006f          	j	2f20 <trap_handler+0x30>
    2f24:	0000006f          	j	2f24 <trap_handler+0x34>
    2f28:	0000006f          	j	2f28 <trap_handler+0x38>
    2f2c:	0000006f          	j	2f2c <trap_handler+0x3c>

00002f30 <_trap_handler>:
    2f30:	fb010113          	addi	sp,sp,-80
    2f34:	04112623          	sw	ra,76(sp)
    2f38:	04512423          	sw	t0,72(sp)
    2f3c:	04612223          	sw	t1,68(sp)
    2f40:	04712023          	sw	t2,64(sp)
    2f44:	02812e23          	sw	s0,60(sp)
    2f48:	02a12c23          	sw	a0,56(sp)
    2f4c:	02b12a23          	sw	a1,52(sp)
    2f50:	02c12823          	sw	a2,48(sp)
    2f54:	02d12623          	sw	a3,44(sp)
    2f58:	02e12423          	sw	a4,40(sp)
    2f5c:	02f12223          	sw	a5,36(sp)
    2f60:	03012023          	sw	a6,32(sp)
    2f64:	01112e23          	sw	a7,28(sp)
    2f68:	01c12c23          	sw	t3,24(sp)
    2f6c:	01d12a23          	sw	t4,20(sp)
    2f70:	01e12823          	sw	t5,16(sp)
    2f74:	01f12623          	sw	t6,12(sp)
    2f78:	05010413          	addi	s0,sp,80
    2f7c:	00000793          	li	a5,0
    2f80:	00078863          	beqz	a5,2f90 <_trap_handler+0x60>
    2f84:	00000097          	auipc	ra,0x0
    2f88:	000000e7          	jalr	zero # 0 <_start>
    2f8c:	0100006f          	j	2f9c <_trap_handler+0x6c>
    2f90:	34102f73          	csrr	t5,mepc
    2f94:	004f0f13          	addi	t5,t5,4
    2f98:	341f1073          	csrw	mepc,t5
    2f9c:	04c12083          	lw	ra,76(sp)
    2fa0:	04812283          	lw	t0,72(sp)
    2fa4:	04412303          	lw	t1,68(sp)
    2fa8:	04012383          	lw	t2,64(sp)
    2fac:	03c12403          	lw	s0,60(sp)
    2fb0:	03812503          	lw	a0,56(sp)
    2fb4:	03412583          	lw	a1,52(sp)
    2fb8:	03012603          	lw	a2,48(sp)
    2fbc:	02c12683          	lw	a3,44(sp)
    2fc0:	02812703          	lw	a4,40(sp)
    2fc4:	02412783          	lw	a5,36(sp)
    2fc8:	02012803          	lw	a6,32(sp)
    2fcc:	01c12883          	lw	a7,28(sp)
    2fd0:	01812e03          	lw	t3,24(sp)
    2fd4:	01412e83          	lw	t4,20(sp)
    2fd8:	01012f03          	lw	t5,16(sp)
    2fdc:	00c12f83          	lw	t6,12(sp)
    2fe0:	05010113          	addi	sp,sp,80
    2fe4:	30200073          	mret

00002fe8 <_trap_ecall>:
    2fe8:	fb010113          	addi	sp,sp,-80
    2fec:	04112623          	sw	ra,76(sp)
    2ff0:	04512423          	sw	t0,72(sp)
    2ff4:	04612223          	sw	t1,68(sp)
    2ff8:	04712023          	sw	t2,64(sp)
    2ffc:	02812e23          	sw	s0,60(sp)
    3000:	02a12c23          	sw	a0,56(sp)
    3004:	02b12a23          	sw	a1,52(sp)
    3008:	02c12823          	sw	a2,48(sp)
    300c:	02d12623          	sw	a3,44(sp)
    3010:	02e12423          	sw	a4,40(sp)
    3014:	02f12223          	sw	a5,36(sp)
    3018:	03012023          	sw	a6,32(sp)
    301c:	01112e23          	sw	a7,28(sp)
    3020:	01c12c23          	sw	t3,24(sp)
    3024:	01d12a23          	sw	t4,20(sp)
    3028:	01e12823          	sw	t5,16(sp)
    302c:	01f12623          	sw	t6,12(sp)
    3030:	05010413          	addi	s0,sp,80
    3034:	00000793          	li	a5,0
    3038:	00078863          	beqz	a5,3048 <_trap_ecall+0x60>
    303c:	00000097          	auipc	ra,0x0
    3040:	000000e7          	jalr	zero # 0 <_start>
    3044:	0100006f          	j	3054 <_trap_ecall+0x6c>
    3048:	34102f73          	csrr	t5,mepc
    304c:	004f0f13          	addi	t5,t5,4
    3050:	341f1073          	csrw	mepc,t5
    3054:	04c12083          	lw	ra,76(sp)
    3058:	04812283          	lw	t0,72(sp)
    305c:	04412303          	lw	t1,68(sp)
    3060:	04012383          	lw	t2,64(sp)
    3064:	03c12403          	lw	s0,60(sp)
    3068:	03812503          	lw	a0,56(sp)
    306c:	03412583          	lw	a1,52(sp)
    3070:	03012603          	lw	a2,48(sp)
    3074:	02c12683          	lw	a3,44(sp)
    3078:	02812703          	lw	a4,40(sp)
    307c:	02412783          	lw	a5,36(sp)
    3080:	02012803          	lw	a6,32(sp)
    3084:	01c12883          	lw	a7,28(sp)
    3088:	01812e03          	lw	t3,24(sp)
    308c:	01412e83          	lw	t4,20(sp)
    3090:	01012f03          	lw	t5,16(sp)
    3094:	00c12f83          	lw	t6,12(sp)
    3098:	05010113          	addi	sp,sp,80
    309c:	30200073          	mret

000030a0 <_trap_ebreak>:
    30a0:	fb010113          	addi	sp,sp,-80
    30a4:	04112623          	sw	ra,76(sp)
    30a8:	04512423          	sw	t0,72(sp)
    30ac:	04612223          	sw	t1,68(sp)
    30b0:	04712023          	sw	t2,64(sp)
    30b4:	02812e23          	sw	s0,60(sp)
    30b8:	02a12c23          	sw	a0,56(sp)
    30bc:	02b12a23          	sw	a1,52(sp)
    30c0:	02c12823          	sw	a2,48(sp)
    30c4:	02d12623          	sw	a3,44(sp)
    30c8:	02e12423          	sw	a4,40(sp)
    30cc:	02f12223          	sw	a5,36(sp)
    30d0:	03012023          	sw	a6,32(sp)
    30d4:	01112e23          	sw	a7,28(sp)
    30d8:	01c12c23          	sw	t3,24(sp)
    30dc:	01d12a23          	sw	t4,20(sp)
    30e0:	01e12823          	sw	t5,16(sp)
    30e4:	01f12623          	sw	t6,12(sp)
    30e8:	05010413          	addi	s0,sp,80
    30ec:	00000793          	li	a5,0
    30f0:	00078863          	beqz	a5,3100 <_trap_ebreak+0x60>
    30f4:	00000097          	auipc	ra,0x0
    30f8:	000000e7          	jalr	zero # 0 <_start>
    30fc:	0100006f          	j	310c <_trap_ebreak+0x6c>
    3100:	34102f73          	csrr	t5,mepc
    3104:	004f0f13          	addi	t5,t5,4
    3108:	341f1073          	csrw	mepc,t5
    310c:	04c12083          	lw	ra,76(sp)
    3110:	04812283          	lw	t0,72(sp)
    3114:	04412303          	lw	t1,68(sp)
    3118:	04012383          	lw	t2,64(sp)
    311c:	03c12403          	lw	s0,60(sp)
    3120:	03812503          	lw	a0,56(sp)
    3124:	03412583          	lw	a1,52(sp)
    3128:	03012603          	lw	a2,48(sp)
    312c:	02c12683          	lw	a3,44(sp)
    3130:	02812703          	lw	a4,40(sp)
    3134:	02412783          	lw	a5,36(sp)
    3138:	02012803          	lw	a6,32(sp)
    313c:	01c12883          	lw	a7,28(sp)
    3140:	01812e03          	lw	t3,24(sp)
    3144:	01412e83          	lw	t4,20(sp)
    3148:	01012f03          	lw	t5,16(sp)
    314c:	00c12f83          	lw	t6,12(sp)
    3150:	05010113          	addi	sp,sp,80
    3154:	30200073          	mret

00003158 <_putchar>:
    3158:	900007b7          	lui	a5,0x90000
    315c:	00a78e23          	sb	a0,28(a5) # 9000001c <_stack+0x8ffc001c>
    3160:	00000513          	li	a0,0
    3164:	00008067          	ret

00003168 <_getchar>:
    3168:	900007b7          	lui	a5,0x90000
    316c:	0207c503          	lbu	a0,32(a5) # 90000020 <_stack+0x8ffc0020>
    3170:	00008067          	ret

00003174 <_open>:
    3174:	fff00513          	li	a0,-1
    3178:	00008067          	ret

0000317c <_write>:
    317c:	00060513          	mv	a0,a2
    3180:	00060e63          	beqz	a2,319c <_write+0x20>
    3184:	00c586b3          	add	a3,a1,a2
    3188:	90000737          	lui	a4,0x90000
    318c:	0005c783          	lbu	a5,0(a1)
    3190:	00158593          	addi	a1,a1,1
    3194:	00f70e23          	sb	a5,28(a4) # 9000001c <_stack+0x8ffc001c>
    3198:	fed59ae3          	bne	a1,a3,318c <_write+0x10>
    319c:	00008067          	ret

000031a0 <_fstat>:
    31a0:	fff00513          	li	a0,-1
    31a4:	00008067          	ret

000031a8 <_close>:
    31a8:	fff00513          	li	a0,-1
    31ac:	00008067          	ret

000031b0 <_lseek>:
    31b0:	fff00513          	li	a0,-1
    31b4:	00008067          	ret

000031b8 <_read>:
    31b8:	00060513          	mv	a0,a2
    31bc:	00000713          	li	a4,0
    31c0:	90000637          	lui	a2,0x90000
    31c4:	00a00813          	li	a6,10
    31c8:	0080006f          	j	31d0 <_read+0x18>
    31cc:	01078e63          	beq	a5,a6,31e8 <_read+0x30>
    31d0:	02064783          	lbu	a5,32(a2) # 90000020 <_stack+0x8ffc0020>
    31d4:	00e586b3          	add	a3,a1,a4
    31d8:	00170713          	addi	a4,a4,1
    31dc:	0ff7f793          	zext.b	a5,a5
    31e0:	00f68023          	sb	a5,0(a3)
    31e4:	fea744e3          	blt	a4,a0,31cc <_read+0x14>
    31e8:	00008067          	ret

000031ec <_exit>:
    31ec:	0ff57793          	zext.b	a5,a0
    31f0:	90000737          	lui	a4,0x90000
    31f4:	02f70623          	sb	a5,44(a4) # 9000002c <_stack+0x8ffc002c>
    31f8:	0000006f          	j	31f8 <_exit+0xc>

000031fc <exit>:
    31fc:	0ff57793          	zext.b	a5,a0
    3200:	90000737          	lui	a4,0x90000
    3204:	02f70623          	sb	a5,44(a4) # 9000002c <_stack+0x8ffc002c>
    3208:	0000006f          	j	3208 <exit+0xc>

0000320c <_isatty>:
    320c:	00353513          	sltiu	a0,a0,3
    3210:	00008067          	ret

00003214 <_sbrk>:
    3214:	000216b7          	lui	a3,0x21
    3218:	8786a783          	lw	a5,-1928(a3) # 20878 <heap_ptr>
    321c:	02078063          	beqz	a5,323c <_sbrk+0x28>
    3220:	00040737          	lui	a4,0x40
    3224:	00a78533          	add	a0,a5,a0
    3228:	00070713          	mv	a4,a4
    322c:	02e55863          	bge	a0,a4,325c <_sbrk+0x48>
    3230:	86a6ac23          	sw	a0,-1928(a3)
    3234:	00078513          	mv	a0,a5
    3238:	00008067          	ret
    323c:	000217b7          	lui	a5,0x21
    3240:	8a478713          	addi	a4,a5,-1884 # 208a4 <_bss_end>
    3244:	86e6ac23          	sw	a4,-1928(a3)
    3248:	8a478793          	addi	a5,a5,-1884
    324c:	00040737          	lui	a4,0x40
    3250:	00a78533          	add	a0,a5,a0
    3254:	00070713          	mv	a4,a4
    3258:	fce54ce3          	blt	a0,a4,3230 <_sbrk+0x1c>
    325c:	00000793          	li	a5,0
    3260:	00078513          	mv	a0,a5
    3264:	00008067          	ret

00003268 <_kill>:
    3268:	fff00513          	li	a0,-1
    326c:	00008067          	ret

00003270 <_getpid>:
    3270:	00000513          	li	a0,0
    3274:	00008067          	ret
