
./coremark.elf:     file format elf32-littleriscv


Disassembly of section .text:

00000000 <_start>:
       0:	0001c297          	auipc	t0,0x1c
       4:	39028293          	addi	t0,t0,912 # 1c390 <trap_handler>
       8:	30529073          	csrw	mtvec,t0
       c:	3050e073          	csrsi	mtvec,1
      10:	00022297          	auipc	t0,0x22
      14:	f5c28293          	addi	t0,t0,-164 # 21f6c <stop_time_val>
      18:	00022317          	auipc	t1,0x22
      1c:	fa830313          	addi	t1,t1,-88 # 21fc0 <_bss_end>

00000020 <_bss_clear>:
      20:	0002a023          	sw	zero,0(t0)
      24:	00428293          	addi	t0,t0,4
      28:	fe62ece3          	bltu	t0,t1,20 <_bss_clear>
      2c:	00040117          	auipc	sp,0x40
      30:	fd410113          	addi	sp,sp,-44 # 40000 <_stack>
      34:	4fc010ef          	jal	ra,1530 <main>
      38:	6641c06f          	j	1c69c <exit>
      3c:	0000                	.2byte	0x0
	...

00000040 <calc_func>:
      40:	fe010113          	addi	sp,sp,-32
      44:	00812c23          	sw	s0,24(sp)
      48:	00051403          	lh	s0,0(a0)
      4c:	00112e23          	sw	ra,28(sp)
      50:	00912a23          	sw	s1,20(sp)
      54:	40745793          	srai	a5,s0,0x7
      58:	01212823          	sw	s2,16(sp)
      5c:	01312623          	sw	s3,12(sp)
      60:	0017f793          	andi	a5,a5,1
      64:	02078263          	beqz	a5,88 <calc_func+0x48>
      68:	01c12083          	lw	ra,28(sp)
      6c:	07f47513          	andi	a0,s0,127
      70:	01812403          	lw	s0,24(sp)
      74:	01412483          	lw	s1,20(sp)
      78:	01012903          	lw	s2,16(sp)
      7c:	00c12983          	lw	s3,12(sp)
      80:	02010113          	addi	sp,sp,32
      84:	00008067          	ret
      88:	40345713          	srai	a4,s0,0x3
      8c:	00f77713          	andi	a4,a4,15
      90:	0385d783          	lhu	a5,56(a1)
      94:	00058493          	mv	s1,a1
      98:	00747693          	andi	a3,s0,7
      9c:	00471593          	slli	a1,a4,0x4
      a0:	00050993          	mv	s3,a0
      a4:	00e5e5b3          	or	a1,a1,a4
      a8:	04068c63          	beqz	a3,100 <calc_func+0xc0>
      ac:	00100713          	li	a4,1
      b0:	08e68863          	beq	a3,a4,140 <calc_func+0x100>
      b4:	01041513          	slli	a0,s0,0x10
      b8:	00040913          	mv	s2,s0
      bc:	01055513          	srli	a0,a0,0x10
      c0:	00078593          	mv	a1,a5
      c4:	42d070ef          	jal	ra,7cf0 <crcu16>
      c8:	00050793          	mv	a5,a0
      cc:	f0047413          	andi	s0,s0,-256
      d0:	07f97513          	andi	a0,s2,127
      d4:	00856433          	or	s0,a0,s0
      d8:	02f49c23          	sh	a5,56(s1)
      dc:	08046413          	ori	s0,s0,128
      e0:	00899023          	sh	s0,0(s3)
      e4:	01c12083          	lw	ra,28(sp)
      e8:	01812403          	lw	s0,24(sp)
      ec:	01412483          	lw	s1,20(sp)
      f0:	01012903          	lw	s2,16(sp)
      f4:	00c12983          	lw	s3,12(sp)
      f8:	02010113          	addi	sp,sp,32
      fc:	00008067          	ret
     100:	02200693          	li	a3,34
     104:	00058713          	mv	a4,a1
     108:	00d5d463          	bge	a1,a3,110 <calc_func+0xd0>
     10c:	02200713          	li	a4,34
     110:	00249683          	lh	a3,2(s1)
     114:	00049603          	lh	a2,0(s1)
     118:	0144a583          	lw	a1,20(s1)
     11c:	0184a503          	lw	a0,24(s1)
     120:	0ff77713          	zext.b	a4,a4
     124:	68c060ef          	jal	ra,67b0 <core_bench_state>
     128:	03e4d783          	lhu	a5,62(s1)
     12c:	01051913          	slli	s2,a0,0x10
     130:	41095913          	srai	s2,s2,0x10
     134:	02078863          	beqz	a5,164 <calc_func+0x124>
     138:	0384d783          	lhu	a5,56(s1)
     13c:	f85ff06f          	j	c0 <calc_func+0x80>
     140:	00078613          	mv	a2,a5
     144:	02848513          	addi	a0,s1,40
     148:	779010ef          	jal	ra,20c0 <core_bench_matrix>
     14c:	03c4d783          	lhu	a5,60(s1)
     150:	01051913          	slli	s2,a0,0x10
     154:	41095913          	srai	s2,s2,0x10
     158:	00078c63          	beqz	a5,170 <calc_func+0x130>
     15c:	0384d783          	lhu	a5,56(s1)
     160:	f61ff06f          	j	c0 <calc_func+0x80>
     164:	0384d783          	lhu	a5,56(s1)
     168:	02a49f23          	sh	a0,62(s1)
     16c:	f55ff06f          	j	c0 <calc_func+0x80>
     170:	0384d783          	lhu	a5,56(s1)
     174:	02a49e23          	sh	a0,60(s1)
     178:	f49ff06f          	j	c0 <calc_func+0x80>
     17c:	00000013          	nop

00000180 <cmp_complex>:
     180:	fe010113          	addi	sp,sp,-32
     184:	00912a23          	sw	s1,20(sp)
     188:	00051483          	lh	s1,0(a0)
     18c:	00812c23          	sw	s0,24(sp)
     190:	01212823          	sw	s2,16(sp)
     194:	4074d793          	srai	a5,s1,0x7
     198:	00112e23          	sw	ra,28(sp)
     19c:	01312623          	sw	s3,12(sp)
     1a0:	01412423          	sw	s4,8(sp)
     1a4:	0017f793          	andi	a5,a5,1
     1a8:	00058913          	mv	s2,a1
     1ac:	00060413          	mv	s0,a2
     1b0:	0a078463          	beqz	a5,258 <cmp_complex+0xd8>
     1b4:	07f4fa13          	andi	s4,s1,127
     1b8:	00091483          	lh	s1,0(s2)
     1bc:	4074d793          	srai	a5,s1,0x7
     1c0:	0017f793          	andi	a5,a5,1
     1c4:	02078663          	beqz	a5,1f0 <cmp_complex+0x70>
     1c8:	07f4f993          	andi	s3,s1,127
     1cc:	01c12083          	lw	ra,28(sp)
     1d0:	01812403          	lw	s0,24(sp)
     1d4:	413a0533          	sub	a0,s4,s3
     1d8:	01412483          	lw	s1,20(sp)
     1dc:	01012903          	lw	s2,16(sp)
     1e0:	00c12983          	lw	s3,12(sp)
     1e4:	00812a03          	lw	s4,8(sp)
     1e8:	02010113          	addi	sp,sp,32
     1ec:	00008067          	ret
     1f0:	4034d593          	srai	a1,s1,0x3
     1f4:	00f5f593          	andi	a1,a1,15
     1f8:	00459693          	slli	a3,a1,0x4
     1fc:	0074f713          	andi	a4,s1,7
     200:	03845783          	lhu	a5,56(s0)
     204:	00d5e5b3          	or	a1,a1,a3
     208:	0a070c63          	beqz	a4,2c0 <cmp_complex+0x140>
     20c:	00100693          	li	a3,1
     210:	0ad71063          	bne	a4,a3,2b0 <cmp_complex+0x130>
     214:	00078613          	mv	a2,a5
     218:	02840513          	addi	a0,s0,40
     21c:	6a5010ef          	jal	ra,20c0 <core_bench_matrix>
     220:	03c45783          	lhu	a5,60(s0)
     224:	01051993          	slli	s3,a0,0x10
     228:	4109d993          	srai	s3,s3,0x10
     22c:	12078c63          	beqz	a5,364 <cmp_complex+0x1e4>
     230:	03845783          	lhu	a5,56(s0)
     234:	00078593          	mv	a1,a5
     238:	07f9f993          	andi	s3,s3,127
     23c:	f004f493          	andi	s1,s1,-256
     240:	2b1070ef          	jal	ra,7cf0 <crcu16>
     244:	0099e4b3          	or	s1,s3,s1
     248:	02a41c23          	sh	a0,56(s0)
     24c:	0804e493          	ori	s1,s1,128
     250:	00991023          	sh	s1,0(s2)
     254:	f79ff06f          	j	1cc <cmp_complex+0x4c>
     258:	4034d593          	srai	a1,s1,0x3
     25c:	00f5f593          	andi	a1,a1,15
     260:	00459693          	slli	a3,a1,0x4
     264:	0074f713          	andi	a4,s1,7
     268:	03865783          	lhu	a5,56(a2)
     26c:	00050993          	mv	s3,a0
     270:	00d5e5b3          	or	a1,a1,a3
     274:	0a070863          	beqz	a4,324 <cmp_complex+0x1a4>
     278:	00100693          	li	a3,1
     27c:	08d70263          	beq	a4,a3,300 <cmp_complex+0x180>
     280:	01049513          	slli	a0,s1,0x10
     284:	00048a13          	mv	s4,s1
     288:	01055513          	srli	a0,a0,0x10
     28c:	00078593          	mv	a1,a5
     290:	07fa7a13          	andi	s4,s4,127
     294:	f004f493          	andi	s1,s1,-256
     298:	259070ef          	jal	ra,7cf0 <crcu16>
     29c:	009a64b3          	or	s1,s4,s1
     2a0:	02a41c23          	sh	a0,56(s0)
     2a4:	0804e493          	ori	s1,s1,128
     2a8:	00999023          	sh	s1,0(s3)
     2ac:	f0dff06f          	j	1b8 <cmp_complex+0x38>
     2b0:	01049513          	slli	a0,s1,0x10
     2b4:	00048993          	mv	s3,s1
     2b8:	01055513          	srli	a0,a0,0x10
     2bc:	f79ff06f          	j	234 <cmp_complex+0xb4>
     2c0:	02200693          	li	a3,34
     2c4:	00058713          	mv	a4,a1
     2c8:	00d5d463          	bge	a1,a3,2d0 <cmp_complex+0x150>
     2cc:	02200713          	li	a4,34
     2d0:	00241683          	lh	a3,2(s0)
     2d4:	00041603          	lh	a2,0(s0)
     2d8:	01442583          	lw	a1,20(s0)
     2dc:	01842503          	lw	a0,24(s0)
     2e0:	0ff77713          	zext.b	a4,a4
     2e4:	4cc060ef          	jal	ra,67b0 <core_bench_state>
     2e8:	03e45783          	lhu	a5,62(s0)
     2ec:	01051993          	slli	s3,a0,0x10
     2f0:	4109d993          	srai	s3,s3,0x10
     2f4:	08078463          	beqz	a5,37c <cmp_complex+0x1fc>
     2f8:	03845783          	lhu	a5,56(s0)
     2fc:	f39ff06f          	j	234 <cmp_complex+0xb4>
     300:	00078613          	mv	a2,a5
     304:	02840513          	addi	a0,s0,40
     308:	5b9010ef          	jal	ra,20c0 <core_bench_matrix>
     30c:	03c45783          	lhu	a5,60(s0)
     310:	01051a13          	slli	s4,a0,0x10
     314:	410a5a13          	srai	s4,s4,0x10
     318:	06078863          	beqz	a5,388 <cmp_complex+0x208>
     31c:	03845783          	lhu	a5,56(s0)
     320:	f6dff06f          	j	28c <cmp_complex+0x10c>
     324:	02200693          	li	a3,34
     328:	00058713          	mv	a4,a1
     32c:	00d5d463          	bge	a1,a3,334 <cmp_complex+0x1b4>
     330:	02200713          	li	a4,34
     334:	00241683          	lh	a3,2(s0)
     338:	00041603          	lh	a2,0(s0)
     33c:	01442583          	lw	a1,20(s0)
     340:	01842503          	lw	a0,24(s0)
     344:	0ff77713          	zext.b	a4,a4
     348:	468060ef          	jal	ra,67b0 <core_bench_state>
     34c:	03e45783          	lhu	a5,62(s0)
     350:	01051a13          	slli	s4,a0,0x10
     354:	410a5a13          	srai	s4,s4,0x10
     358:	00078c63          	beqz	a5,370 <cmp_complex+0x1f0>
     35c:	03845783          	lhu	a5,56(s0)
     360:	f2dff06f          	j	28c <cmp_complex+0x10c>
     364:	03845783          	lhu	a5,56(s0)
     368:	02a41e23          	sh	a0,60(s0)
     36c:	ec9ff06f          	j	234 <cmp_complex+0xb4>
     370:	03845783          	lhu	a5,56(s0)
     374:	02a41f23          	sh	a0,62(s0)
     378:	f15ff06f          	j	28c <cmp_complex+0x10c>
     37c:	03845783          	lhu	a5,56(s0)
     380:	02a41f23          	sh	a0,62(s0)
     384:	eb1ff06f          	j	234 <cmp_complex+0xb4>
     388:	03845783          	lhu	a5,56(s0)
     38c:	02a41e23          	sh	a0,60(s0)
     390:	efdff06f          	j	28c <cmp_complex+0x10c>
     394:	00000013          	nop
     398:	00000013          	nop
     39c:	00000013          	nop

000003a0 <cmp_idx>:
     3a0:	00060a63          	beqz	a2,3b4 <cmp_idx+0x14>
     3a4:	00251503          	lh	a0,2(a0)
     3a8:	00259783          	lh	a5,2(a1)
     3ac:	40f50533          	sub	a0,a0,a5
     3b0:	00008067          	ret
     3b4:	00051783          	lh	a5,0(a0)
     3b8:	01079713          	slli	a4,a5,0x10
     3bc:	01075713          	srli	a4,a4,0x10
     3c0:	00875713          	srli	a4,a4,0x8
     3c4:	f007f793          	andi	a5,a5,-256
     3c8:	00e7e7b3          	or	a5,a5,a4
     3cc:	00f51023          	sh	a5,0(a0)
     3d0:	00059783          	lh	a5,0(a1)
     3d4:	00251503          	lh	a0,2(a0)
     3d8:	01079713          	slli	a4,a5,0x10
     3dc:	01075713          	srli	a4,a4,0x10
     3e0:	00875713          	srli	a4,a4,0x8
     3e4:	f007f793          	andi	a5,a5,-256
     3e8:	00e7e7b3          	or	a5,a5,a4
     3ec:	00f59023          	sh	a5,0(a1)
     3f0:	00259783          	lh	a5,2(a1)
     3f4:	40f50533          	sub	a0,a0,a5
     3f8:	00008067          	ret
     3fc:	00000013          	nop

00000400 <copy_info>:
     400:	00059703          	lh	a4,0(a1)
     404:	00259783          	lh	a5,2(a1)
     408:	00e51023          	sh	a4,0(a0)
     40c:	00f51123          	sh	a5,2(a0)
     410:	00008067          	ret
     414:	00000013          	nop
     418:	00000013          	nop
     41c:	00000013          	nop

00000420 <core_bench_list>:
     420:	00451303          	lh	t1,4(a0)
     424:	fa010113          	addi	sp,sp,-96
     428:	04812c23          	sw	s0,88(sp)
     42c:	03a12823          	sw	s10,48(sp)
     430:	04112e23          	sw	ra,92(sp)
     434:	04912a23          	sw	s1,84(sp)
     438:	05212823          	sw	s2,80(sp)
     43c:	05312623          	sw	s3,76(sp)
     440:	05412423          	sw	s4,72(sp)
     444:	05512223          	sw	s5,68(sp)
     448:	05612023          	sw	s6,64(sp)
     44c:	03712e23          	sw	s7,60(sp)
     450:	03812c23          	sw	s8,56(sp)
     454:	03912a23          	sw	s9,52(sp)
     458:	03b12623          	sw	s11,44(sp)
     45c:	00012a23          	sw	zero,20(sp)
     460:	02452403          	lw	s0,36(a0)
     464:	00050d13          	mv	s10,a0
     468:	00058513          	mv	a0,a1
     46c:	7a605663          	blez	t1,c18 <core_bench_list+0x7f8>
     470:	00b12623          	sw	a1,12(sp)
     474:	00000613          	li	a2,0
     478:	00000893          	li	a7,0
     47c:	00000593          	li	a1,0
     480:	00000813          	li	a6,0
     484:	0ff67793          	zext.b	a5,a2
     488:	00f12a23          	sw	a5,20(sp)
     48c:	00c12783          	lw	a5,12(sp)
     490:	3807c663          	bltz	a5,81c <core_bench_list+0x3fc>
     494:	76040c63          	beqz	s0,c0c <core_bench_list+0x7ec>
     498:	00040793          	mv	a5,s0
     49c:	00c0006f          	j	4a8 <core_bench_list+0x88>
     4a0:	0007a783          	lw	a5,0(a5)
     4a4:	00078a63          	beqz	a5,4b8 <core_bench_list+0x98>
     4a8:	0047a703          	lw	a4,4(a5)
     4ac:	00c12683          	lw	a3,12(sp)
     4b0:	00271703          	lh	a4,2(a4)
     4b4:	fed716e3          	bne	a4,a3,4a0 <core_bench_list+0x80>
     4b8:	00000693          	li	a3,0
     4bc:	0080006f          	j	4c4 <core_bench_list+0xa4>
     4c0:	00070413          	mv	s0,a4
     4c4:	00042703          	lw	a4,0(s0)
     4c8:	00d42023          	sw	a3,0(s0)
     4cc:	00040693          	mv	a3,s0
     4d0:	fe0718e3          	bnez	a4,4c0 <core_bench_list+0xa0>
     4d4:	36078a63          	beqz	a5,848 <core_bench_list+0x428>
     4d8:	0047a703          	lw	a4,4(a5)
     4dc:	00158593          	addi	a1,a1,1
     4e0:	01059593          	slli	a1,a1,0x10
     4e4:	00071703          	lh	a4,0(a4)
     4e8:	0105d593          	srli	a1,a1,0x10
     4ec:	00177693          	andi	a3,a4,1
     4f0:	00068c63          	beqz	a3,508 <core_bench_list+0xe8>
     4f4:	40975713          	srai	a4,a4,0x9
     4f8:	00177713          	andi	a4,a4,1
     4fc:	01070733          	add	a4,a4,a6
     500:	01071813          	slli	a6,a4,0x10
     504:	01085813          	srli	a6,a6,0x10
     508:	0007a703          	lw	a4,0(a5)
     50c:	00070c63          	beqz	a4,524 <core_bench_list+0x104>
     510:	00072683          	lw	a3,0(a4)
     514:	00d7a023          	sw	a3,0(a5)
     518:	00042783          	lw	a5,0(s0)
     51c:	00f72023          	sw	a5,0(a4)
     520:	00e42023          	sw	a4,0(s0)
     524:	00c12783          	lw	a5,12(sp)
     528:	0007ca63          	bltz	a5,53c <core_bench_list+0x11c>
     52c:	00178b13          	addi	s6,a5,1
     530:	010b1793          	slli	a5,s6,0x10
     534:	4107d793          	srai	a5,a5,0x10
     538:	00f12623          	sw	a5,12(sp)
     53c:	00160613          	addi	a2,a2,1
     540:	01061613          	slli	a2,a2,0x10
     544:	41065613          	srai	a2,a2,0x10
     548:	f2c31ee3          	bne	t1,a2,484 <core_bench_list+0x64>
     54c:	00259993          	slli	s3,a1,0x2
     550:	411989b3          	sub	s3,s3,a7
     554:	010989b3          	add	s3,s3,a6
     558:	01099793          	slli	a5,s3,0x10
     55c:	0107d793          	srli	a5,a5,0x10
     560:	00f12e23          	sw	a5,28(sp)
     564:	30a04863          	bgtz	a0,874 <core_bench_list+0x454>
     568:	00042783          	lw	a5,0(s0)
     56c:	00040493          	mv	s1,s0
     570:	0007a903          	lw	s2,0(a5)
     574:	0047a703          	lw	a4,4(a5)
     578:	00492603          	lw	a2,4(s2)
     57c:	00092683          	lw	a3,0(s2)
     580:	00c7a223          	sw	a2,4(a5)
     584:	00e92223          	sw	a4,4(s2)
     588:	00d7a023          	sw	a3,0(a5)
     58c:	00c12783          	lw	a5,12(sp)
     590:	00092023          	sw	zero,0(s2)
     594:	2207c463          	bltz	a5,7bc <core_bench_list+0x39c>
     598:	0044a783          	lw	a5,4(s1)
     59c:	00c12683          	lw	a3,12(sp)
     5a0:	00279783          	lh	a5,2(a5)
     5a4:	00d78c63          	beq	a5,a3,5bc <core_bench_list+0x19c>
     5a8:	0004a483          	lw	s1,0(s1)
     5ac:	fe0496e3          	bnez	s1,598 <core_bench_list+0x178>
     5b0:	00042783          	lw	a5,0(s0)
     5b4:	00078493          	mv	s1,a5
     5b8:	02078463          	beqz	a5,5e0 <core_bench_list+0x1c0>
     5bc:	00442783          	lw	a5,4(s0)
     5c0:	01c12583          	lw	a1,28(sp)
     5c4:	00079503          	lh	a0,0(a5)
     5c8:	6c9070ef          	jal	ra,8490 <crc16>
     5cc:	0004a483          	lw	s1,0(s1)
     5d0:	00a12e23          	sw	a0,28(sp)
     5d4:	fe0494e3          	bnez	s1,5bc <core_bench_list+0x19c>
     5d8:	00492703          	lw	a4,4(s2)
     5dc:	00042783          	lw	a5,0(s0)
     5e0:	0047a603          	lw	a2,4(a5)
     5e4:	0007a683          	lw	a3,0(a5)
     5e8:	00100f13          	li	t5,1
     5ec:	00c92223          	sw	a2,4(s2)
     5f0:	00e7a223          	sw	a4,4(a5)
     5f4:	00d92023          	sw	a3,0(s2)
     5f8:	0127a023          	sw	s2,0(a5)
     5fc:	00100293          	li	t0,1
     600:	00040693          	mv	a3,s0
     604:	00000f93          	li	t6,0
     608:	00000613          	li	a2,0
     60c:	00000413          	li	s0,0
     610:	007f7593          	andi	a1,t5,7
     614:	00068713          	mv	a4,a3
     618:	00000793          	li	a5,0
     61c:	001f8f93          	addi	t6,t6,1
     620:	08058463          	beqz	a1,6a8 <core_bench_list+0x288>
     624:	0fe7d663          	bge	a5,t5,710 <core_bench_list+0x2f0>
     628:	0006a703          	lw	a4,0(a3)
     62c:	00200513          	li	a0,2
     630:	00300813          	li	a6,3
     634:	00400893          	li	a7,4
     638:	00100793          	li	a5,1
     63c:	0c070a63          	beqz	a4,710 <core_bench_list+0x2f0>
     640:	06f58463          	beq	a1,a5,6a8 <core_bench_list+0x288>
     644:	04a58c63          	beq	a1,a0,69c <core_bench_list+0x27c>
     648:	05058463          	beq	a1,a6,690 <core_bench_list+0x270>
     64c:	03158c63          	beq	a1,a7,684 <core_bench_list+0x264>
     650:	00500513          	li	a0,5
     654:	02a58263          	beq	a1,a0,678 <core_bench_list+0x258>
     658:	00600513          	li	a0,6
     65c:	00a58863          	beq	a1,a0,66c <core_bench_list+0x24c>
     660:	00072703          	lw	a4,0(a4)
     664:	00200793          	li	a5,2
     668:	0a070463          	beqz	a4,710 <core_bench_list+0x2f0>
     66c:	00072703          	lw	a4,0(a4)
     670:	00178793          	addi	a5,a5,1
     674:	08070e63          	beqz	a4,710 <core_bench_list+0x2f0>
     678:	00072703          	lw	a4,0(a4)
     67c:	00178793          	addi	a5,a5,1
     680:	08070863          	beqz	a4,710 <core_bench_list+0x2f0>
     684:	00072703          	lw	a4,0(a4)
     688:	00178793          	addi	a5,a5,1
     68c:	08070263          	beqz	a4,710 <core_bench_list+0x2f0>
     690:	00072703          	lw	a4,0(a4)
     694:	00178793          	addi	a5,a5,1
     698:	06070c63          	beqz	a4,710 <core_bench_list+0x2f0>
     69c:	00072703          	lw	a4,0(a4)
     6a0:	00178793          	addi	a5,a5,1
     6a4:	06070663          	beqz	a4,710 <core_bench_list+0x2f0>
     6a8:	07e7d463          	bge	a5,t5,710 <core_bench_list+0x2f0>
     6ac:	00072703          	lw	a4,0(a4)
     6b0:	00178793          	addi	a5,a5,1
     6b4:	00078593          	mv	a1,a5
     6b8:	04070c63          	beqz	a4,710 <core_bench_list+0x2f0>
     6bc:	00072703          	lw	a4,0(a4)
     6c0:	00178793          	addi	a5,a5,1
     6c4:	04070663          	beqz	a4,710 <core_bench_list+0x2f0>
     6c8:	00072703          	lw	a4,0(a4)
     6cc:	00258793          	addi	a5,a1,2
     6d0:	04070063          	beqz	a4,710 <core_bench_list+0x2f0>
     6d4:	00072703          	lw	a4,0(a4)
     6d8:	00358793          	addi	a5,a1,3
     6dc:	02070a63          	beqz	a4,710 <core_bench_list+0x2f0>
     6e0:	00072703          	lw	a4,0(a4)
     6e4:	00458793          	addi	a5,a1,4
     6e8:	02070463          	beqz	a4,710 <core_bench_list+0x2f0>
     6ec:	00072703          	lw	a4,0(a4)
     6f0:	00558793          	addi	a5,a1,5
     6f4:	00070e63          	beqz	a4,710 <core_bench_list+0x2f0>
     6f8:	00072703          	lw	a4,0(a4)
     6fc:	00658793          	addi	a5,a1,6
     700:	00070863          	beqz	a4,710 <core_bench_list+0x2f0>
     704:	00072703          	lw	a4,0(a4)
     708:	00758793          	addi	a5,a1,7
     70c:	f8071ee3          	bnez	a4,6a8 <core_bench_list+0x288>
     710:	00068813          	mv	a6,a3
     714:	000f0593          	mv	a1,t5
     718:	00070693          	mv	a3,a4
     71c:	06f05c63          	blez	a5,794 <core_bench_list+0x374>
     720:	0c058263          	beqz	a1,7e4 <core_bench_list+0x3c4>
     724:	0c068063          	beqz	a3,7e4 <core_bench_list+0x3c4>
     728:	00482303          	lw	t1,4(a6)
     72c:	0046a883          	lw	a7,4(a3)
     730:	00031703          	lh	a4,0(t1)
     734:	00289e83          	lh	t4,2(a7)
     738:	00231503          	lh	a0,2(t1)
     73c:	01071e13          	slli	t3,a4,0x10
     740:	010e5e13          	srli	t3,t3,0x10
     744:	f0077713          	andi	a4,a4,-256
     748:	008e5e13          	srli	t3,t3,0x8
     74c:	01c76733          	or	a4,a4,t3
     750:	00e31023          	sh	a4,0(t1)
     754:	00089703          	lh	a4,0(a7)
     758:	41d50533          	sub	a0,a0,t4
     75c:	01071313          	slli	t1,a4,0x10
     760:	01035313          	srli	t1,t1,0x10
     764:	f0077713          	andi	a4,a4,-256
     768:	00835313          	srli	t1,t1,0x8
     76c:	00676733          	or	a4,a4,t1
     770:	00e89023          	sh	a4,0(a7)
     774:	08a05063          	blez	a0,7f4 <core_bench_list+0x3d4>
     778:	00068713          	mv	a4,a3
     77c:	0006a683          	lw	a3,0(a3)
     780:	fff58593          	addi	a1,a1,-1
     784:	02060663          	beqz	a2,7b0 <core_bench_list+0x390>
     788:	00e62023          	sw	a4,0(a2)
     78c:	00070613          	mv	a2,a4
     790:	f8f048e3          	bgtz	a5,720 <core_bench_list+0x300>
     794:	06b05863          	blez	a1,804 <core_bench_list+0x3e4>
     798:	06068863          	beqz	a3,808 <core_bench_list+0x3e8>
     79c:	f80796e3          	bnez	a5,728 <core_bench_list+0x308>
     7a0:	00068713          	mv	a4,a3
     7a4:	fff58593          	addi	a1,a1,-1
     7a8:	0006a683          	lw	a3,0(a3)
     7ac:	fc061ee3          	bnez	a2,788 <core_bench_list+0x368>
     7b0:	00070413          	mv	s0,a4
     7b4:	00070613          	mv	a2,a4
     7b8:	fd9ff06f          	j	790 <core_bench_list+0x370>
     7bc:	0044a783          	lw	a5,4(s1)
     7c0:	01412683          	lw	a3,20(sp)
     7c4:	0007c783          	lbu	a5,0(a5)
     7c8:	ded78ae3          	beq	a5,a3,5bc <core_bench_list+0x19c>
     7cc:	0004a483          	lw	s1,0(s1)
     7d0:	fe0496e3          	bnez	s1,7bc <core_bench_list+0x39c>
     7d4:	00042783          	lw	a5,0(s0)
     7d8:	00078493          	mv	s1,a5
     7dc:	de0790e3          	bnez	a5,5bc <core_bench_list+0x19c>
     7e0:	e01ff06f          	j	5e0 <core_bench_list+0x1c0>
     7e4:	00080713          	mv	a4,a6
     7e8:	fff78793          	addi	a5,a5,-1
     7ec:	00082803          	lw	a6,0(a6)
     7f0:	f95ff06f          	j	784 <core_bench_list+0x364>
     7f4:	00080713          	mv	a4,a6
     7f8:	fff78793          	addi	a5,a5,-1
     7fc:	00082803          	lw	a6,0(a6)
     800:	f85ff06f          	j	784 <core_bench_list+0x364>
     804:	e00696e3          	bnez	a3,610 <core_bench_list+0x1f0>
     808:	00062023          	sw	zero,0(a2)
     80c:	41f2dc63          	bge	t0,t6,c24 <core_bench_list+0x804>
     810:	001f1f13          	slli	t5,t5,0x1
     814:	de0416e3          	bnez	s0,600 <core_bench_list+0x1e0>
     818:	4550006f          	j	146c <core_bench_list.cold+0x10>
     81c:	02040463          	beqz	s0,844 <core_bench_list+0x424>
     820:	00040793          	mv	a5,s0
     824:	00c0006f          	j	830 <core_bench_list+0x410>
     828:	0007a783          	lw	a5,0(a5)
     82c:	c80786e3          	beqz	a5,4b8 <core_bench_list+0x98>
     830:	0047a703          	lw	a4,4(a5)
     834:	01412683          	lw	a3,20(sp)
     838:	00074703          	lbu	a4,0(a4)
     83c:	fed716e3          	bne	a4,a3,828 <core_bench_list+0x408>
     840:	c79ff06f          	j	4b8 <core_bench_list+0x98>
     844:	4190006f          	j	145c <core_bench_list.cold>
     848:	00042783          	lw	a5,0(s0)
     84c:	00188893          	addi	a7,a7,1
     850:	01089893          	slli	a7,a7,0x10
     854:	0047a783          	lw	a5,4(a5)
     858:	0108d893          	srli	a7,a7,0x10
     85c:	00178783          	lb	a5,1(a5)
     860:	0017f793          	andi	a5,a5,1
     864:	010787b3          	add	a5,a5,a6
     868:	01079813          	slli	a6,a5,0x10
     86c:	01085813          	srli	a6,a6,0x10
     870:	cb5ff06f          	j	524 <core_bench_list+0x104>
     874:	028d0793          	addi	a5,s10,40
     878:	00100a13          	li	s4,1
     87c:	00f12c23          	sw	a5,24(sp)
     880:	1a040263          	beqz	s0,a24 <core_bench_list+0x604>
     884:	00000c13          	li	s8,0
     888:	00000913          	li	s2,0
     88c:	00012823          	sw	zero,16(sp)
     890:	01012683          	lw	a3,16(sp)
     894:	007a7713          	andi	a4,s4,7
     898:	00040793          	mv	a5,s0
     89c:	00168693          	addi	a3,a3,1
     8a0:	00d12823          	sw	a3,16(sp)
     8a4:	00000993          	li	s3,0
     8a8:	08070463          	beqz	a4,930 <core_bench_list+0x510>
     8ac:	0f49d663          	bge	s3,s4,998 <core_bench_list+0x578>
     8b0:	00042783          	lw	a5,0(s0)
     8b4:	00200693          	li	a3,2
     8b8:	00300613          	li	a2,3
     8bc:	00400593          	li	a1,4
     8c0:	00100993          	li	s3,1
     8c4:	0c078a63          	beqz	a5,998 <core_bench_list+0x578>
     8c8:	07370463          	beq	a4,s3,930 <core_bench_list+0x510>
     8cc:	04d70c63          	beq	a4,a3,924 <core_bench_list+0x504>
     8d0:	04c70463          	beq	a4,a2,918 <core_bench_list+0x4f8>
     8d4:	02b70c63          	beq	a4,a1,90c <core_bench_list+0x4ec>
     8d8:	00500693          	li	a3,5
     8dc:	02d70263          	beq	a4,a3,900 <core_bench_list+0x4e0>
     8e0:	00600693          	li	a3,6
     8e4:	00d70863          	beq	a4,a3,8f4 <core_bench_list+0x4d4>
     8e8:	0007a783          	lw	a5,0(a5)
     8ec:	00200993          	li	s3,2
     8f0:	0a078463          	beqz	a5,998 <core_bench_list+0x578>
     8f4:	0007a783          	lw	a5,0(a5)
     8f8:	00198993          	addi	s3,s3,1
     8fc:	08078e63          	beqz	a5,998 <core_bench_list+0x578>
     900:	0007a783          	lw	a5,0(a5)
     904:	00198993          	addi	s3,s3,1
     908:	08078863          	beqz	a5,998 <core_bench_list+0x578>
     90c:	0007a783          	lw	a5,0(a5)
     910:	00198993          	addi	s3,s3,1
     914:	08078263          	beqz	a5,998 <core_bench_list+0x578>
     918:	0007a783          	lw	a5,0(a5)
     91c:	00198993          	addi	s3,s3,1
     920:	06078c63          	beqz	a5,998 <core_bench_list+0x578>
     924:	0007a783          	lw	a5,0(a5)
     928:	00198993          	addi	s3,s3,1
     92c:	06078663          	beqz	a5,998 <core_bench_list+0x578>
     930:	0749d463          	bge	s3,s4,998 <core_bench_list+0x578>
     934:	0007a783          	lw	a5,0(a5)
     938:	00198993          	addi	s3,s3,1
     93c:	00098713          	mv	a4,s3
     940:	04078c63          	beqz	a5,998 <core_bench_list+0x578>
     944:	0007a783          	lw	a5,0(a5)
     948:	00198993          	addi	s3,s3,1
     94c:	04078663          	beqz	a5,998 <core_bench_list+0x578>
     950:	0007a783          	lw	a5,0(a5)
     954:	00270993          	addi	s3,a4,2
     958:	04078063          	beqz	a5,998 <core_bench_list+0x578>
     95c:	0007a783          	lw	a5,0(a5)
     960:	00370993          	addi	s3,a4,3
     964:	02078a63          	beqz	a5,998 <core_bench_list+0x578>
     968:	0007a783          	lw	a5,0(a5)
     96c:	00470993          	addi	s3,a4,4
     970:	02078463          	beqz	a5,998 <core_bench_list+0x578>
     974:	0007a783          	lw	a5,0(a5)
     978:	00570993          	addi	s3,a4,5
     97c:	00078e63          	beqz	a5,998 <core_bench_list+0x578>
     980:	0007a783          	lw	a5,0(a5)
     984:	00670993          	addi	s3,a4,6
     988:	00078863          	beqz	a5,998 <core_bench_list+0x578>
     98c:	0007a783          	lw	a5,0(a5)
     990:	00770993          	addi	s3,a4,7
     994:	f8079ee3          	bnez	a5,930 <core_bench_list+0x510>
     998:	00040c93          	mv	s9,s0
     99c:	000a0b93          	mv	s7,s4
     9a0:	00078413          	mv	s0,a5
     9a4:	05305c63          	blez	s3,9fc <core_bench_list+0x5dc>
     9a8:	080b8063          	beqz	s7,a28 <core_bench_list+0x608>
     9ac:	06040e63          	beqz	s0,a28 <core_bench_list+0x608>
     9b0:	004caa83          	lw	s5,4(s9)
     9b4:	00442d83          	lw	s11,4(s0)
     9b8:	000a9483          	lh	s1,0(s5)
     9bc:	0804f793          	andi	a5,s1,128
     9c0:	0e078063          	beqz	a5,aa0 <core_bench_list+0x680>
     9c4:	07f4fb13          	andi	s6,s1,127
     9c8:	000d9a83          	lh	s5,0(s11)
     9cc:	080af793          	andi	a5,s5,128
     9d0:	06078463          	beqz	a5,a38 <core_bench_list+0x618>
     9d4:	07faf493          	andi	s1,s5,127
     9d8:	409b04b3          	sub	s1,s6,s1
     9dc:	0a905a63          	blez	s1,a90 <core_bench_list+0x670>
     9e0:	00040793          	mv	a5,s0
     9e4:	00042403          	lw	s0,0(s0)
     9e8:	fffb8b93          	addi	s7,s7,-1
     9ec:	020c0663          	beqz	s8,a18 <core_bench_list+0x5f8>
     9f0:	00fc2023          	sw	a5,0(s8)
     9f4:	00078c13          	mv	s8,a5
     9f8:	fb3048e3          	bgtz	s3,9a8 <core_bench_list+0x588>
     9fc:	0f705c63          	blez	s7,af4 <core_bench_list+0x6d4>
     a00:	0e040c63          	beqz	s0,af8 <core_bench_list+0x6d8>
     a04:	fa0996e3          	bnez	s3,9b0 <core_bench_list+0x590>
     a08:	00040793          	mv	a5,s0
     a0c:	fffb8b93          	addi	s7,s7,-1
     a10:	00042403          	lw	s0,0(s0)
     a14:	fc0c1ee3          	bnez	s8,9f0 <core_bench_list+0x5d0>
     a18:	00078913          	mv	s2,a5
     a1c:	00078c13          	mv	s8,a5
     a20:	fd9ff06f          	j	9f8 <core_bench_list+0x5d8>
     a24:	2410006f          	j	1464 <core_bench_list.cold+0x8>
     a28:	000c8793          	mv	a5,s9
     a2c:	fff98993          	addi	s3,s3,-1
     a30:	000cac83          	lw	s9,0(s9)
     a34:	fb9ff06f          	j	9ec <core_bench_list+0x5cc>
     a38:	403ad593          	srai	a1,s5,0x3
     a3c:	00f5f593          	andi	a1,a1,15
     a40:	00459693          	slli	a3,a1,0x4
     a44:	007af713          	andi	a4,s5,7
     a48:	038d5783          	lhu	a5,56(s10)
     a4c:	00d5e5b3          	or	a1,a1,a3
     a50:	0e070463          	beqz	a4,b38 <core_bench_list+0x718>
     a54:	00100693          	li	a3,1
     a58:	0ad70e63          	beq	a4,a3,b14 <core_bench_list+0x6f4>
     a5c:	010a9513          	slli	a0,s5,0x10
     a60:	000a8493          	mv	s1,s5
     a64:	01055513          	srli	a0,a0,0x10
     a68:	00078593          	mv	a1,a5
     a6c:	284070ef          	jal	ra,7cf0 <crcu16>
     a70:	07f4f493          	andi	s1,s1,127
     a74:	f00afe93          	andi	t4,s5,-256
     a78:	01d4eeb3          	or	t4,s1,t4
     a7c:	02ad1c23          	sh	a0,56(s10)
     a80:	080eee93          	ori	t4,t4,128
     a84:	01dd9023          	sh	t4,0(s11)
     a88:	409b04b3          	sub	s1,s6,s1
     a8c:	f4904ae3          	bgtz	s1,9e0 <core_bench_list+0x5c0>
     a90:	000c8793          	mv	a5,s9
     a94:	fff98993          	addi	s3,s3,-1
     a98:	000cac83          	lw	s9,0(s9)
     a9c:	f51ff06f          	j	9ec <core_bench_list+0x5cc>
     aa0:	4034d593          	srai	a1,s1,0x3
     aa4:	00f5f593          	andi	a1,a1,15
     aa8:	00459693          	slli	a3,a1,0x4
     aac:	0074f713          	andi	a4,s1,7
     ab0:	038d5783          	lhu	a5,56(s10)
     ab4:	00d5e5b3          	or	a1,a1,a3
     ab8:	0e070263          	beqz	a4,b9c <core_bench_list+0x77c>
     abc:	00100693          	li	a3,1
     ac0:	0ad70c63          	beq	a4,a3,b78 <core_bench_list+0x758>
     ac4:	01049513          	slli	a0,s1,0x10
     ac8:	00048b13          	mv	s6,s1
     acc:	01055513          	srli	a0,a0,0x10
     ad0:	00078593          	mv	a1,a5
     ad4:	21c070ef          	jal	ra,7cf0 <crcu16>
     ad8:	07fb7b13          	andi	s6,s6,127
     adc:	f004fe93          	andi	t4,s1,-256
     ae0:	01db6eb3          	or	t4,s6,t4
     ae4:	02ad1c23          	sh	a0,56(s10)
     ae8:	080eee93          	ori	t4,t4,128
     aec:	01da9023          	sh	t4,0(s5)
     af0:	ed9ff06f          	j	9c8 <core_bench_list+0x5a8>
     af4:	d8041ee3          	bnez	s0,890 <core_bench_list+0x470>
     af8:	01012703          	lw	a4,16(sp)
     afc:	000c2023          	sw	zero,0(s8)
     b00:	00100793          	li	a5,1
     b04:	10e7d663          	bge	a5,a4,c10 <core_bench_list+0x7f0>
     b08:	00090413          	mv	s0,s2
     b0c:	001a1a13          	slli	s4,s4,0x1
     b10:	d71ff06f          	j	880 <core_bench_list+0x460>
     b14:	01812503          	lw	a0,24(sp)
     b18:	00078613          	mv	a2,a5
     b1c:	5a4010ef          	jal	ra,20c0 <core_bench_matrix>
     b20:	03cd5783          	lhu	a5,60(s10)
     b24:	01051493          	slli	s1,a0,0x10
     b28:	4104d493          	srai	s1,s1,0x10
     b2c:	0a078863          	beqz	a5,bdc <core_bench_list+0x7bc>
     b30:	038d5783          	lhu	a5,56(s10)
     b34:	f35ff06f          	j	a68 <core_bench_list+0x648>
     b38:	02200693          	li	a3,34
     b3c:	00058713          	mv	a4,a1
     b40:	00d5d463          	bge	a1,a3,b48 <core_bench_list+0x728>
     b44:	02200713          	li	a4,34
     b48:	002d1683          	lh	a3,2(s10)
     b4c:	000d1603          	lh	a2,0(s10)
     b50:	014d2583          	lw	a1,20(s10)
     b54:	018d2503          	lw	a0,24(s10)
     b58:	0ff77713          	zext.b	a4,a4
     b5c:	455050ef          	jal	ra,67b0 <core_bench_state>
     b60:	03ed5783          	lhu	a5,62(s10)
     b64:	01051493          	slli	s1,a0,0x10
     b68:	4104d493          	srai	s1,s1,0x10
     b6c:	08078463          	beqz	a5,bf4 <core_bench_list+0x7d4>
     b70:	038d5783          	lhu	a5,56(s10)
     b74:	ef5ff06f          	j	a68 <core_bench_list+0x648>
     b78:	01812503          	lw	a0,24(sp)
     b7c:	00078613          	mv	a2,a5
     b80:	540010ef          	jal	ra,20c0 <core_bench_matrix>
     b84:	03cd5783          	lhu	a5,60(s10)
     b88:	01051b13          	slli	s6,a0,0x10
     b8c:	410b5b13          	srai	s6,s6,0x10
     b90:	06078863          	beqz	a5,c00 <core_bench_list+0x7e0>
     b94:	038d5783          	lhu	a5,56(s10)
     b98:	f39ff06f          	j	ad0 <core_bench_list+0x6b0>
     b9c:	02200693          	li	a3,34
     ba0:	00058713          	mv	a4,a1
     ba4:	00d5d463          	bge	a1,a3,bac <core_bench_list+0x78c>
     ba8:	02200713          	li	a4,34
     bac:	002d1683          	lh	a3,2(s10)
     bb0:	000d1603          	lh	a2,0(s10)
     bb4:	014d2583          	lw	a1,20(s10)
     bb8:	018d2503          	lw	a0,24(s10)
     bbc:	0ff77713          	zext.b	a4,a4
     bc0:	3f1050ef          	jal	ra,67b0 <core_bench_state>
     bc4:	03ed5783          	lhu	a5,62(s10)
     bc8:	01051b13          	slli	s6,a0,0x10
     bcc:	410b5b13          	srai	s6,s6,0x10
     bd0:	00078c63          	beqz	a5,be8 <core_bench_list+0x7c8>
     bd4:	038d5783          	lhu	a5,56(s10)
     bd8:	ef9ff06f          	j	ad0 <core_bench_list+0x6b0>
     bdc:	038d5783          	lhu	a5,56(s10)
     be0:	02ad1e23          	sh	a0,60(s10)
     be4:	e85ff06f          	j	a68 <core_bench_list+0x648>
     be8:	038d5783          	lhu	a5,56(s10)
     bec:	02ad1f23          	sh	a0,62(s10)
     bf0:	ee1ff06f          	j	ad0 <core_bench_list+0x6b0>
     bf4:	038d5783          	lhu	a5,56(s10)
     bf8:	02ad1f23          	sh	a0,62(s10)
     bfc:	e6dff06f          	j	a68 <core_bench_list+0x648>
     c00:	038d5783          	lhu	a5,56(s10)
     c04:	02ad1e23          	sh	a0,60(s10)
     c08:	ec9ff06f          	j	ad0 <core_bench_list+0x6b0>
     c0c:	0510006f          	j	145c <core_bench_list.cold>
     c10:	00090413          	mv	s0,s2
     c14:	955ff06f          	j	568 <core_bench_list+0x148>
     c18:	00b12623          	sw	a1,12(sp)
     c1c:	00012e23          	sw	zero,28(sp)
     c20:	945ff06f          	j	564 <core_bench_list+0x144>
     c24:	00042483          	lw	s1,0(s0)
     c28:	04048e63          	beqz	s1,c84 <core_bench_list+0x864>
     c2c:	00442783          	lw	a5,4(s0)
     c30:	01c12583          	lw	a1,28(sp)
     c34:	00079503          	lh	a0,0(a5)
     c38:	059070ef          	jal	ra,8490 <crc16>
     c3c:	0004a483          	lw	s1,0(s1)
     c40:	00a12e23          	sw	a0,28(sp)
     c44:	fe0494e3          	bnez	s1,c2c <core_bench_list+0x80c>
     c48:	05c12083          	lw	ra,92(sp)
     c4c:	05812403          	lw	s0,88(sp)
     c50:	05412483          	lw	s1,84(sp)
     c54:	05012903          	lw	s2,80(sp)
     c58:	04c12983          	lw	s3,76(sp)
     c5c:	04812a03          	lw	s4,72(sp)
     c60:	04412a83          	lw	s5,68(sp)
     c64:	04012b03          	lw	s6,64(sp)
     c68:	03c12b83          	lw	s7,60(sp)
     c6c:	03812c03          	lw	s8,56(sp)
     c70:	03412c83          	lw	s9,52(sp)
     c74:	03012d03          	lw	s10,48(sp)
     c78:	02c12d83          	lw	s11,44(sp)
     c7c:	06010113          	addi	sp,sp,96
     c80:	00008067          	ret
     c84:	01c12503          	lw	a0,28(sp)
     c88:	fc1ff06f          	j	c48 <core_bench_list+0x828>
     c8c:	00000013          	nop

00000c90 <core_list_init>:
     c90:	01400793          	li	a5,20
     c94:	02f556b3          	divu	a3,a0,a5
     c98:	0005a023          	sw	zero,0(a1)
     c9c:	00058513          	mv	a0,a1
     ca0:	01058893          	addi	a7,a1,16
     ca4:	00858793          	addi	a5,a1,8
     ca8:	00060313          	mv	t1,a2
     cac:	ffff8737          	lui	a4,0xffff8
     cb0:	08070813          	addi	a6,a4,128 # ffff8080 <_stack+0xfffb8080>
     cb4:	ffe68593          	addi	a1,a3,-2
     cb8:	00359613          	slli	a2,a1,0x3
     cbc:	00c50633          	add	a2,a0,a2
     cc0:	00c52223          	sw	a2,4(a0)
     cc4:	00259e13          	slli	t3,a1,0x2
     cc8:	00061123          	sh	zero,2(a2)
     ccc:	01061023          	sh	a6,0(a2)
     cd0:	01c60e33          	add	t3,a2,t3
     cd4:	00460693          	addi	a3,a2,4
     cd8:	3cc8fe63          	bgeu	a7,a2,10b4 <core_list_init+0x424>
     cdc:	00860e93          	addi	t4,a2,8
     ce0:	3dcef663          	bgeu	t4,t3,10ac <core_list_init+0x41c>
     ce4:	00f52023          	sw	a5,0(a0)
     ce8:	00d52623          	sw	a3,12(a0)
     cec:	00052423          	sw	zero,8(a0)
     cf0:	fff74813          	not	a6,a4
     cf4:	00078713          	mv	a4,a5
     cf8:	00088793          	mv	a5,a7
     cfc:	fff00893          	li	a7,-1
     d00:	000e8693          	mv	a3,t4
     d04:	01161223          	sh	a7,4(a2)
     d08:	01061323          	sh	a6,6(a2)
     d0c:	0c058a63          	beqz	a1,de0 <core_list_init+0x150>
     d10:	01031f93          	slli	t6,t1,0x10
     d14:	ffff8eb7          	lui	t4,0xffff8
     d18:	0015f893          	andi	a7,a1,1
     d1c:	00000813          	li	a6,0
     d20:	010fdf93          	srli	t6,t6,0x10
     d24:	fffece93          	not	t4,t4
     d28:	32089c63          	bnez	a7,1060 <core_list_init+0x3d0>
     d2c:	01081f13          	slli	t5,a6,0x10
     d30:	010f5f13          	srli	t5,t5,0x10
     d34:	01efc8b3          	xor	a7,t6,t5
     d38:	00389893          	slli	a7,a7,0x3
     d3c:	007f7f13          	andi	t5,t5,7
     d40:	0788f893          	andi	a7,a7,120
     d44:	01e8e8b3          	or	a7,a7,t5
     d48:	00889f13          	slli	t5,a7,0x8
     d4c:	00878293          	addi	t0,a5,8
     d50:	011f68b3          	or	a7,t5,a7
     d54:	08c2f663          	bgeu	t0,a2,de0 <core_list_init+0x150>
     d58:	00468f13          	addi	t5,a3,4
     d5c:	03cf7263          	bgeu	t5,t3,d80 <core_list_init+0xf0>
     d60:	00e7a023          	sw	a4,0(a5)
     d64:	00f52023          	sw	a5,0(a0)
     d68:	00d7a223          	sw	a3,4(a5)
     d6c:	00078713          	mv	a4,a5
     d70:	01169023          	sh	a7,0(a3)
     d74:	01d69123          	sh	t4,2(a3)
     d78:	00028793          	mv	a5,t0
     d7c:	000f0693          	mv	a3,t5
     d80:	00180813          	addi	a6,a6,1
     d84:	01081f13          	slli	t5,a6,0x10
     d88:	010f5f13          	srli	t5,t5,0x10
     d8c:	01efc8b3          	xor	a7,t6,t5
     d90:	00389893          	slli	a7,a7,0x3
     d94:	007f7f13          	andi	t5,t5,7
     d98:	0788f893          	andi	a7,a7,120
     d9c:	01e8e8b3          	or	a7,a7,t5
     da0:	00889f13          	slli	t5,a7,0x8
     da4:	00878293          	addi	t0,a5,8
     da8:	011f68b3          	or	a7,t5,a7
     dac:	02c2fa63          	bgeu	t0,a2,de0 <core_list_init+0x150>
     db0:	00468f13          	addi	t5,a3,4
     db4:	03cf7263          	bgeu	t5,t3,dd8 <core_list_init+0x148>
     db8:	00e7a023          	sw	a4,0(a5)
     dbc:	00f52023          	sw	a5,0(a0)
     dc0:	00d7a223          	sw	a3,4(a5)
     dc4:	01169023          	sh	a7,0(a3)
     dc8:	01d69123          	sh	t4,2(a3)
     dcc:	00078713          	mv	a4,a5
     dd0:	000f0693          	mv	a3,t5
     dd4:	00028793          	mv	a5,t0
     dd8:	00180813          	addi	a6,a6,1
     ddc:	f50598e3          	bne	a1,a6,d2c <core_list_init+0x9c>
     de0:	00072603          	lw	a2,0(a4)
     de4:	06060c63          	beqz	a2,e5c <core_list_init+0x1cc>
     de8:	00500893          	li	a7,5
     dec:	00004e37          	lui	t3,0x4
     df0:	0315d8b3          	divu	a7,a1,a7
     df4:	20000793          	li	a5,512
     df8:	00100693          	li	a3,1
     dfc:	fffe0e13          	addi	t3,t3,-1 # 3fff <matrix_test+0x4ff>
     e00:	0280006f          	j	e28 <core_list_init+0x198>
     e04:	00062583          	lw	a1,0(a2)
     e08:	10078793          	addi	a5,a5,256
     e0c:	00d81123          	sh	a3,2(a6)
     e10:	01079793          	slli	a5,a5,0x10
     e14:	00168693          	addi	a3,a3,1
     e18:	0107d793          	srli	a5,a5,0x10
     e1c:	04058063          	beqz	a1,e5c <core_list_init+0x1cc>
     e20:	00060713          	mv	a4,a2
     e24:	00058613          	mv	a2,a1
     e28:	00472803          	lw	a6,4(a4)
     e2c:	fd16ece3          	bltu	a3,a7,e04 <core_list_init+0x174>
     e30:	00d345b3          	xor	a1,t1,a3
     e34:	7007f713          	andi	a4,a5,1792
     e38:	00b76733          	or	a4,a4,a1
     e3c:	00062583          	lw	a1,0(a2)
     e40:	01c77733          	and	a4,a4,t3
     e44:	10078793          	addi	a5,a5,256
     e48:	01079793          	slli	a5,a5,0x10
     e4c:	00e81123          	sh	a4,2(a6)
     e50:	00168693          	addi	a3,a3,1
     e54:	0107d793          	srli	a5,a5,0x10
     e58:	fc0594e3          	bnez	a1,e20 <core_list_init+0x190>
     e5c:	00100f93          	li	t6,1
     e60:	00100393          	li	t2,1
     e64:	00050793          	mv	a5,a0
     e68:	00000293          	li	t0,0
     e6c:	00000813          	li	a6,0
     e70:	00000513          	li	a0,0
     e74:	007ff613          	andi	a2,t6,7
     e78:	00078693          	mv	a3,a5
     e7c:	00000713          	li	a4,0
     e80:	00128293          	addi	t0,t0,1
     e84:	08060463          	beqz	a2,f0c <core_list_init+0x27c>
     e88:	0ff75663          	bge	a4,t6,f74 <core_list_init+0x2e4>
     e8c:	0007a683          	lw	a3,0(a5)
     e90:	00100713          	li	a4,1
     e94:	0e068063          	beqz	a3,f74 <core_list_init+0x2e4>
     e98:	06e60a63          	beq	a2,a4,f0c <core_list_init+0x27c>
     e9c:	00200593          	li	a1,2
     ea0:	06b60063          	beq	a2,a1,f00 <core_list_init+0x270>
     ea4:	00300593          	li	a1,3
     ea8:	04b60663          	beq	a2,a1,ef4 <core_list_init+0x264>
     eac:	00400593          	li	a1,4
     eb0:	02b60c63          	beq	a2,a1,ee8 <core_list_init+0x258>
     eb4:	00500593          	li	a1,5
     eb8:	02b60263          	beq	a2,a1,edc <core_list_init+0x24c>
     ebc:	00600593          	li	a1,6
     ec0:	00b60863          	beq	a2,a1,ed0 <core_list_init+0x240>
     ec4:	0006a683          	lw	a3,0(a3)
     ec8:	00200713          	li	a4,2
     ecc:	0a068463          	beqz	a3,f74 <core_list_init+0x2e4>
     ed0:	0006a683          	lw	a3,0(a3)
     ed4:	00170713          	addi	a4,a4,1
     ed8:	08068e63          	beqz	a3,f74 <core_list_init+0x2e4>
     edc:	0006a683          	lw	a3,0(a3)
     ee0:	00170713          	addi	a4,a4,1
     ee4:	08068863          	beqz	a3,f74 <core_list_init+0x2e4>
     ee8:	0006a683          	lw	a3,0(a3)
     eec:	00170713          	addi	a4,a4,1
     ef0:	08068263          	beqz	a3,f74 <core_list_init+0x2e4>
     ef4:	0006a683          	lw	a3,0(a3)
     ef8:	00170713          	addi	a4,a4,1
     efc:	06068c63          	beqz	a3,f74 <core_list_init+0x2e4>
     f00:	0006a683          	lw	a3,0(a3)
     f04:	00170713          	addi	a4,a4,1
     f08:	06068663          	beqz	a3,f74 <core_list_init+0x2e4>
     f0c:	07f75463          	bge	a4,t6,f74 <core_list_init+0x2e4>
     f10:	0006a683          	lw	a3,0(a3)
     f14:	00170713          	addi	a4,a4,1
     f18:	00070613          	mv	a2,a4
     f1c:	04068c63          	beqz	a3,f74 <core_list_init+0x2e4>
     f20:	0006a683          	lw	a3,0(a3)
     f24:	00170713          	addi	a4,a4,1
     f28:	04068663          	beqz	a3,f74 <core_list_init+0x2e4>
     f2c:	0006a683          	lw	a3,0(a3)
     f30:	00260713          	addi	a4,a2,2
     f34:	04068063          	beqz	a3,f74 <core_list_init+0x2e4>
     f38:	0006a683          	lw	a3,0(a3)
     f3c:	00360713          	addi	a4,a2,3
     f40:	02068a63          	beqz	a3,f74 <core_list_init+0x2e4>
     f44:	0006a683          	lw	a3,0(a3)
     f48:	00460713          	addi	a4,a2,4
     f4c:	02068463          	beqz	a3,f74 <core_list_init+0x2e4>
     f50:	0006a683          	lw	a3,0(a3)
     f54:	00560713          	addi	a4,a2,5
     f58:	00068e63          	beqz	a3,f74 <core_list_init+0x2e4>
     f5c:	0006a683          	lw	a3,0(a3)
     f60:	00660713          	addi	a4,a2,6
     f64:	00068863          	beqz	a3,f74 <core_list_init+0x2e4>
     f68:	0006a683          	lw	a3,0(a3)
     f6c:	00760713          	addi	a4,a2,7
     f70:	f8069ee3          	bnez	a3,f0c <core_list_init+0x27c>
     f74:	00078593          	mv	a1,a5
     f78:	000f8613          	mv	a2,t6
     f7c:	00068793          	mv	a5,a3
     f80:	06e05c63          	blez	a4,ff8 <core_list_init+0x368>
     f84:	08060e63          	beqz	a2,1020 <core_list_init+0x390>
     f88:	08078c63          	beqz	a5,1020 <core_list_init+0x390>
     f8c:	0045ae03          	lw	t3,4(a1)
     f90:	0047a303          	lw	t1,4(a5)
     f94:	000e1683          	lh	a3,0(t3)
     f98:	00231f03          	lh	t5,2(t1)
     f9c:	002e1883          	lh	a7,2(t3)
     fa0:	01069e93          	slli	t4,a3,0x10
     fa4:	010ede93          	srli	t4,t4,0x10
     fa8:	f006f693          	andi	a3,a3,-256
     fac:	008ede93          	srli	t4,t4,0x8
     fb0:	01d6e6b3          	or	a3,a3,t4
     fb4:	00de1023          	sh	a3,0(t3)
     fb8:	00031683          	lh	a3,0(t1)
     fbc:	41e888b3          	sub	a7,a7,t5
     fc0:	01069e13          	slli	t3,a3,0x10
     fc4:	010e5e13          	srli	t3,t3,0x10
     fc8:	f006f693          	andi	a3,a3,-256
     fcc:	008e5e13          	srli	t3,t3,0x8
     fd0:	01c6e6b3          	or	a3,a3,t3
     fd4:	00d31023          	sh	a3,0(t1)
     fd8:	05105c63          	blez	a7,1030 <core_list_init+0x3a0>
     fdc:	00078693          	mv	a3,a5
     fe0:	0007a783          	lw	a5,0(a5)
     fe4:	fff60613          	addi	a2,a2,-1
     fe8:	02080663          	beqz	a6,1014 <core_list_init+0x384>
     fec:	00d82023          	sw	a3,0(a6)
     ff0:	00068813          	mv	a6,a3
     ff4:	f8e048e3          	bgtz	a4,f84 <core_list_init+0x2f4>
     ff8:	04c05463          	blez	a2,1040 <core_list_init+0x3b0>
     ffc:	04078463          	beqz	a5,1044 <core_list_init+0x3b4>
    1000:	f80716e3          	bnez	a4,f8c <core_list_init+0x2fc>
    1004:	00078693          	mv	a3,a5
    1008:	fff60613          	addi	a2,a2,-1
    100c:	0007a783          	lw	a5,0(a5)
    1010:	fc081ee3          	bnez	a6,fec <core_list_init+0x35c>
    1014:	00068513          	mv	a0,a3
    1018:	00068813          	mv	a6,a3
    101c:	fd9ff06f          	j	ff4 <core_list_init+0x364>
    1020:	00058693          	mv	a3,a1
    1024:	fff70713          	addi	a4,a4,-1
    1028:	0005a583          	lw	a1,0(a1)
    102c:	fbdff06f          	j	fe8 <core_list_init+0x358>
    1030:	00058693          	mv	a3,a1
    1034:	fff70713          	addi	a4,a4,-1
    1038:	0005a583          	lw	a1,0(a1)
    103c:	fadff06f          	j	fe8 <core_list_init+0x358>
    1040:	e2079ae3          	bnez	a5,e74 <core_list_init+0x1e4>
    1044:	00082023          	sw	zero,0(a6)
    1048:	0053da63          	bge	t2,t0,105c <core_list_init+0x3cc>
    104c:	001f9f93          	slli	t6,t6,0x1
    1050:	e0051ae3          	bnez	a0,e64 <core_list_init+0x1d4>
    1054:	00002023          	sw	zero,0(zero) # 0 <_start>
    1058:	00100073          	ebreak
    105c:	00008067          	ret
    1060:	003f9813          	slli	a6,t6,0x3
    1064:	07887813          	andi	a6,a6,120
    1068:	00881893          	slli	a7,a6,0x8
    106c:	00878f13          	addi	t5,a5,8
    1070:	0108e833          	or	a6,a7,a6
    1074:	d6cf76e3          	bgeu	t5,a2,de0 <core_list_init+0x150>
    1078:	00468893          	addi	a7,a3,4
    107c:	03c8f263          	bgeu	a7,t3,10a0 <core_list_init+0x410>
    1080:	00e7a023          	sw	a4,0(a5)
    1084:	00f52023          	sw	a5,0(a0)
    1088:	00d7a223          	sw	a3,4(a5)
    108c:	01069023          	sh	a6,0(a3)
    1090:	01d69123          	sh	t4,2(a3)
    1094:	00078713          	mv	a4,a5
    1098:	00088693          	mv	a3,a7
    109c:	000f0793          	mv	a5,t5
    10a0:	00100813          	li	a6,1
    10a4:	c90594e3          	bne	a1,a6,d2c <core_list_init+0x9c>
    10a8:	d39ff06f          	j	de0 <core_list_init+0x150>
    10ac:	00000713          	li	a4,0
    10b0:	c5dff06f          	j	d0c <core_list_init+0x7c>
    10b4:	00000713          	li	a4,0
    10b8:	c55ff06f          	j	d0c <core_list_init+0x7c>
    10bc:	00000013          	nop

000010c0 <core_list_insert_new>:
    10c0:	00062803          	lw	a6,0(a2)
    10c4:	00880893          	addi	a7,a6,8
    10c8:	04e8f663          	bgeu	a7,a4,1114 <core_list_insert_new+0x54>
    10cc:	0006a703          	lw	a4,0(a3)
    10d0:	00470313          	addi	t1,a4,4
    10d4:	04f37663          	bgeu	t1,a5,1120 <core_list_insert_new+0x60>
    10d8:	01162023          	sw	a7,0(a2)
    10dc:	00052783          	lw	a5,0(a0)
    10e0:	00059883          	lh	a7,0(a1)
    10e4:	00259603          	lh	a2,2(a1)
    10e8:	00f82023          	sw	a5,0(a6)
    10ec:	01052023          	sw	a6,0(a0)
    10f0:	00e82223          	sw	a4,4(a6)
    10f4:	0006a783          	lw	a5,0(a3)
    10f8:	00080513          	mv	a0,a6
    10fc:	00478793          	addi	a5,a5,4
    1100:	00f6a023          	sw	a5,0(a3)
    1104:	00482783          	lw	a5,4(a6)
    1108:	01179023          	sh	a7,0(a5)
    110c:	00c79123          	sh	a2,2(a5)
    1110:	00008067          	ret
    1114:	00000813          	li	a6,0
    1118:	00080513          	mv	a0,a6
    111c:	00008067          	ret
    1120:	00000813          	li	a6,0
    1124:	00080513          	mv	a0,a6
    1128:	00008067          	ret
    112c:	00000013          	nop

00001130 <core_list_remove>:
    1130:	00050793          	mv	a5,a0
    1134:	00052503          	lw	a0,0(a0)
    1138:	0047a683          	lw	a3,4(a5)
    113c:	00452603          	lw	a2,4(a0)
    1140:	00052703          	lw	a4,0(a0)
    1144:	00c7a223          	sw	a2,4(a5)
    1148:	00d52223          	sw	a3,4(a0)
    114c:	00e7a023          	sw	a4,0(a5)
    1150:	00052023          	sw	zero,0(a0)
    1154:	00008067          	ret
    1158:	00000013          	nop
    115c:	00000013          	nop

00001160 <core_list_undo_remove>:
    1160:	0045a603          	lw	a2,4(a1)
    1164:	00452683          	lw	a3,4(a0)
    1168:	0005a703          	lw	a4,0(a1)
    116c:	00c52223          	sw	a2,4(a0)
    1170:	00d5a223          	sw	a3,4(a1)
    1174:	00e52023          	sw	a4,0(a0)
    1178:	00a5a023          	sw	a0,0(a1)
    117c:	00008067          	ret

00001180 <core_list_find>:
    1180:	00259703          	lh	a4,2(a1)
    1184:	02074263          	bltz	a4,11a8 <core_list_find+0x28>
    1188:	00051863          	bnez	a0,1198 <core_list_find+0x18>
    118c:	0480006f          	j	11d4 <core_list_find+0x54>
    1190:	00052503          	lw	a0,0(a0)
    1194:	02050c63          	beqz	a0,11cc <core_list_find+0x4c>
    1198:	00452783          	lw	a5,4(a0)
    119c:	00279783          	lh	a5,2(a5)
    11a0:	fee798e3          	bne	a5,a4,1190 <core_list_find+0x10>
    11a4:	00008067          	ret
    11a8:	02050863          	beqz	a0,11d8 <core_list_find+0x58>
    11ac:	00059703          	lh	a4,0(a1)
    11b0:	00c0006f          	j	11bc <core_list_find+0x3c>
    11b4:	00052503          	lw	a0,0(a0)
    11b8:	00050c63          	beqz	a0,11d0 <core_list_find+0x50>
    11bc:	00452783          	lw	a5,4(a0)
    11c0:	0007c783          	lbu	a5,0(a5)
    11c4:	fee798e3          	bne	a5,a4,11b4 <core_list_find+0x34>
    11c8:	00008067          	ret
    11cc:	00000513          	li	a0,0
    11d0:	00008067          	ret
    11d4:	00008067          	ret
    11d8:	00000513          	li	a0,0
    11dc:	00008067          	ret

000011e0 <core_list_reverse>:
    11e0:	02050063          	beqz	a0,1200 <core_list_reverse+0x20>
    11e4:	00000713          	li	a4,0
    11e8:	0080006f          	j	11f0 <core_list_reverse+0x10>
    11ec:	00078513          	mv	a0,a5
    11f0:	00052783          	lw	a5,0(a0)
    11f4:	00e52023          	sw	a4,0(a0)
    11f8:	00050713          	mv	a4,a0
    11fc:	fe0798e3          	bnez	a5,11ec <core_list_reverse+0xc>
    1200:	00008067          	ret
    1204:	00000013          	nop
    1208:	00000013          	nop
    120c:	00000013          	nop

00001210 <core_list_mergesort>:
    1210:	fd010113          	addi	sp,sp,-48
    1214:	02912223          	sw	s1,36(sp)
    1218:	01612823          	sw	s6,16(sp)
    121c:	01712623          	sw	s7,12(sp)
    1220:	01912223          	sw	s9,4(sp)
    1224:	01a12023          	sw	s10,0(sp)
    1228:	02112623          	sw	ra,44(sp)
    122c:	02812423          	sw	s0,40(sp)
    1230:	03212023          	sw	s2,32(sp)
    1234:	01312e23          	sw	s3,28(sp)
    1238:	01412c23          	sw	s4,24(sp)
    123c:	01512a23          	sw	s5,20(sp)
    1240:	01812423          	sw	s8,8(sp)
    1244:	00050493          	mv	s1,a0
    1248:	00058b93          	mv	s7,a1
    124c:	00060d13          	mv	s10,a2
    1250:	00100b13          	li	s6,1
    1254:	00100c93          	li	s9,1
    1258:	1a048c63          	beqz	s1,1410 <core_list_mergesort+0x200>
    125c:	00000c13          	li	s8,0
    1260:	00000913          	li	s2,0
    1264:	00000a93          	li	s5,0
    1268:	007b7713          	andi	a4,s6,7
    126c:	00048793          	mv	a5,s1
    1270:	00000413          	li	s0,0
    1274:	001c0c13          	addi	s8,s8,1
    1278:	08070463          	beqz	a4,1300 <core_list_mergesort+0xf0>
    127c:	0f605663          	blez	s6,1368 <core_list_mergesort+0x158>
    1280:	0004a783          	lw	a5,0(s1)
    1284:	00100413          	li	s0,1
    1288:	0e078063          	beqz	a5,1368 <core_list_mergesort+0x158>
    128c:	06870a63          	beq	a4,s0,1300 <core_list_mergesort+0xf0>
    1290:	00200693          	li	a3,2
    1294:	06d70063          	beq	a4,a3,12f4 <core_list_mergesort+0xe4>
    1298:	00300693          	li	a3,3
    129c:	04d70663          	beq	a4,a3,12e8 <core_list_mergesort+0xd8>
    12a0:	00400693          	li	a3,4
    12a4:	02d70c63          	beq	a4,a3,12dc <core_list_mergesort+0xcc>
    12a8:	00500693          	li	a3,5
    12ac:	02d70263          	beq	a4,a3,12d0 <core_list_mergesort+0xc0>
    12b0:	00600693          	li	a3,6
    12b4:	00d70863          	beq	a4,a3,12c4 <core_list_mergesort+0xb4>
    12b8:	0007a783          	lw	a5,0(a5)
    12bc:	00200413          	li	s0,2
    12c0:	0a078463          	beqz	a5,1368 <core_list_mergesort+0x158>
    12c4:	0007a783          	lw	a5,0(a5)
    12c8:	00140413          	addi	s0,s0,1
    12cc:	08078e63          	beqz	a5,1368 <core_list_mergesort+0x158>
    12d0:	0007a783          	lw	a5,0(a5)
    12d4:	00140413          	addi	s0,s0,1
    12d8:	08078863          	beqz	a5,1368 <core_list_mergesort+0x158>
    12dc:	0007a783          	lw	a5,0(a5)
    12e0:	00140413          	addi	s0,s0,1
    12e4:	08078263          	beqz	a5,1368 <core_list_mergesort+0x158>
    12e8:	0007a783          	lw	a5,0(a5)
    12ec:	00140413          	addi	s0,s0,1
    12f0:	06078c63          	beqz	a5,1368 <core_list_mergesort+0x158>
    12f4:	0007a783          	lw	a5,0(a5)
    12f8:	00140413          	addi	s0,s0,1
    12fc:	06078663          	beqz	a5,1368 <core_list_mergesort+0x158>
    1300:	07645463          	bge	s0,s6,1368 <core_list_mergesort+0x158>
    1304:	0007a783          	lw	a5,0(a5)
    1308:	00140413          	addi	s0,s0,1
    130c:	00040713          	mv	a4,s0
    1310:	04078c63          	beqz	a5,1368 <core_list_mergesort+0x158>
    1314:	0007a783          	lw	a5,0(a5)
    1318:	00140413          	addi	s0,s0,1
    131c:	04078663          	beqz	a5,1368 <core_list_mergesort+0x158>
    1320:	0007a783          	lw	a5,0(a5)
    1324:	00270413          	addi	s0,a4,2
    1328:	04078063          	beqz	a5,1368 <core_list_mergesort+0x158>
    132c:	0007a783          	lw	a5,0(a5)
    1330:	00370413          	addi	s0,a4,3
    1334:	02078a63          	beqz	a5,1368 <core_list_mergesort+0x158>
    1338:	0007a783          	lw	a5,0(a5)
    133c:	00470413          	addi	s0,a4,4
    1340:	02078463          	beqz	a5,1368 <core_list_mergesort+0x158>
    1344:	0007a783          	lw	a5,0(a5)
    1348:	00570413          	addi	s0,a4,5
    134c:	00078e63          	beqz	a5,1368 <core_list_mergesort+0x158>
    1350:	0007a783          	lw	a5,0(a5)
    1354:	00670413          	addi	s0,a4,6
    1358:	00078863          	beqz	a5,1368 <core_list_mergesort+0x158>
    135c:	0007a783          	lw	a5,0(a5)
    1360:	00770413          	addi	s0,a4,7
    1364:	f8079ee3          	bnez	a5,1300 <core_list_mergesort+0xf0>
    1368:	00048a13          	mv	s4,s1
    136c:	000b0993          	mv	s3,s6
    1370:	00078493          	mv	s1,a5
    1374:	02805e63          	blez	s0,13b0 <core_list_mergesort+0x1a0>
    1378:	06098063          	beqz	s3,13d8 <core_list_mergesort+0x1c8>
    137c:	04048e63          	beqz	s1,13d8 <core_list_mergesort+0x1c8>
    1380:	0044a583          	lw	a1,4(s1)
    1384:	004a2503          	lw	a0,4(s4)
    1388:	000d0613          	mv	a2,s10
    138c:	000b80e7          	jalr	s7
    1390:	04a05c63          	blez	a0,13e8 <core_list_mergesort+0x1d8>
    1394:	00048793          	mv	a5,s1
    1398:	0004a483          	lw	s1,0(s1)
    139c:	fff98993          	addi	s3,s3,-1
    13a0:	02090663          	beqz	s2,13cc <core_list_mergesort+0x1bc>
    13a4:	00f92023          	sw	a5,0(s2)
    13a8:	00078913          	mv	s2,a5
    13ac:	fc8046e3          	bgtz	s0,1378 <core_list_mergesort+0x168>
    13b0:	05305463          	blez	s3,13f8 <core_list_mergesort+0x1e8>
    13b4:	04048463          	beqz	s1,13fc <core_list_mergesort+0x1ec>
    13b8:	fc0414e3          	bnez	s0,1380 <core_list_mergesort+0x170>
    13bc:	00048793          	mv	a5,s1
    13c0:	fff98993          	addi	s3,s3,-1
    13c4:	0004a483          	lw	s1,0(s1)
    13c8:	fc091ee3          	bnez	s2,13a4 <core_list_mergesort+0x194>
    13cc:	00078a93          	mv	s5,a5
    13d0:	00078913          	mv	s2,a5
    13d4:	fd9ff06f          	j	13ac <core_list_mergesort+0x19c>
    13d8:	000a0793          	mv	a5,s4
    13dc:	fff40413          	addi	s0,s0,-1
    13e0:	000a2a03          	lw	s4,0(s4)
    13e4:	fbdff06f          	j	13a0 <core_list_mergesort+0x190>
    13e8:	000a0793          	mv	a5,s4
    13ec:	fff40413          	addi	s0,s0,-1
    13f0:	000a2a03          	lw	s4,0(s4)
    13f4:	fadff06f          	j	13a0 <core_list_mergesort+0x190>
    13f8:	e60498e3          	bnez	s1,1268 <core_list_mergesort+0x58>
    13fc:	00092023          	sw	zero,0(s2)
    1400:	018cdc63          	bge	s9,s8,1418 <core_list_mergesort+0x208>
    1404:	000a8493          	mv	s1,s5
    1408:	001b1b13          	slli	s6,s6,0x1
    140c:	e4dff06f          	j	1258 <core_list_mergesort+0x48>
    1410:	00002023          	sw	zero,0(zero) # 0 <_start>
    1414:	00100073          	ebreak
    1418:	02c12083          	lw	ra,44(sp)
    141c:	02812403          	lw	s0,40(sp)
    1420:	02412483          	lw	s1,36(sp)
    1424:	02012903          	lw	s2,32(sp)
    1428:	01c12983          	lw	s3,28(sp)
    142c:	01812a03          	lw	s4,24(sp)
    1430:	01012b03          	lw	s6,16(sp)
    1434:	00c12b83          	lw	s7,12(sp)
    1438:	00812c03          	lw	s8,8(sp)
    143c:	00412c83          	lw	s9,4(sp)
    1440:	00012d03          	lw	s10,0(sp)
    1444:	000a8513          	mv	a0,s5
    1448:	01412a83          	lw	s5,20(sp)
    144c:	03010113          	addi	sp,sp,48
    1450:	00008067          	ret
	...

0000145c <core_bench_list.cold>:
    145c:	00002783          	lw	a5,0(zero) # 0 <_start>
    1460:	00100073          	ebreak
    1464:	00002023          	sw	zero,0(zero) # 0 <_start>
    1468:	00100073          	ebreak
    146c:	00002023          	sw	zero,0(zero) # 0 <_start>
    1470:	00100073          	ebreak
	...

00001480 <iterate>:
    1480:	ff010113          	addi	sp,sp,-16
    1484:	01212023          	sw	s2,0(sp)
    1488:	01c52903          	lw	s2,28(a0)
    148c:	00112623          	sw	ra,12(sp)
    1490:	00812423          	sw	s0,8(sp)
    1494:	00912223          	sw	s1,4(sp)
    1498:	02052c23          	sw	zero,56(a0)
    149c:	02052e23          	sw	zero,60(a0)
    14a0:	04090463          	beqz	s2,14e8 <iterate+0x68>
    14a4:	00050413          	mv	s0,a0
    14a8:	00000493          	li	s1,0
    14ac:	00100593          	li	a1,1
    14b0:	00040513          	mv	a0,s0
    14b4:	f6dfe0ef          	jal	ra,420 <core_bench_list>
    14b8:	03845583          	lhu	a1,56(s0)
    14bc:	035060ef          	jal	ra,7cf0 <crcu16>
    14c0:	02a41c23          	sh	a0,56(s0)
    14c4:	fff00593          	li	a1,-1
    14c8:	00040513          	mv	a0,s0
    14cc:	f55fe0ef          	jal	ra,420 <core_bench_list>
    14d0:	03845583          	lhu	a1,56(s0)
    14d4:	01d060ef          	jal	ra,7cf0 <crcu16>
    14d8:	02a41c23          	sh	a0,56(s0)
    14dc:	02048463          	beqz	s1,1504 <iterate+0x84>
    14e0:	00148493          	addi	s1,s1,1
    14e4:	fc9914e3          	bne	s2,s1,14ac <iterate+0x2c>
    14e8:	00c12083          	lw	ra,12(sp)
    14ec:	00812403          	lw	s0,8(sp)
    14f0:	00412483          	lw	s1,4(sp)
    14f4:	00012903          	lw	s2,0(sp)
    14f8:	00000513          	li	a0,0
    14fc:	01010113          	addi	sp,sp,16
    1500:	00008067          	ret
    1504:	02a41d23          	sh	a0,58(s0)
    1508:	00100793          	li	a5,1
    150c:	fcf90ee3          	beq	s2,a5,14e8 <iterate+0x68>
    1510:	00100493          	li	s1,1
    1514:	f99ff06f          	j	14ac <iterate+0x2c>
	...

00001530 <main>:
    1530:	81010113          	addi	sp,sp,-2032
    1534:	00001737          	lui	a4,0x1
    1538:	7e112623          	sw	ra,2028(sp)
    153c:	7e812423          	sw	s0,2024(sp)
    1540:	7e912223          	sw	s1,2020(sp)
    1544:	7f212023          	sw	s2,2016(sp)
    1548:	7d312e23          	sw	s3,2012(sp)
    154c:	7d412c23          	sw	s4,2008(sp)
    1550:	7d512a23          	sw	s5,2004(sp)
    1554:	7d612823          	sw	s6,2000(sp)
    1558:	7d712623          	sw	s7,1996(sp)
    155c:	7d812423          	sw	s8,1992(sp)
    1560:	7d912223          	sw	s9,1988(sp)
    1564:	7da12023          	sw	s10,1984(sp)
    1568:	7bb12e23          	sw	s11,1980(sp)
    156c:	fffff7b7          	lui	a5,0xfffff
    1570:	f8010113          	addi	sp,sp,-128
    1574:	82070693          	addi	a3,a4,-2016 # 820 <core_bench_list+0x400>
    1578:	7e878613          	addi	a2,a5,2024 # fffff7e8 <_stack+0xfffbf7e8>
    157c:	7e478593          	addi	a1,a5,2020
    1580:	00f686b3          	add	a3,a3,a5
    1584:	01010793          	addi	a5,sp,16
    1588:	00f687b3          	add	a5,a3,a5
    158c:	00f12423          	sw	a5,8(sp)
    1590:	82070793          	addi	a5,a4,-2016
    1594:	01010693          	addi	a3,sp,16
    1598:	00c787b3          	add	a5,a5,a2
    159c:	00d78633          	add	a2,a5,a3
    15a0:	82070793          	addi	a5,a4,-2016
    15a4:	00b787b3          	add	a5,a5,a1
    15a8:	00d785b3          	add	a1,a5,a3
    15ac:	00812783          	lw	a5,8(sp)
    15b0:	05e10513          	addi	a0,sp,94
    15b4:	7e07a223          	sw	zero,2020(a5)
    15b8:	1e8070ef          	jal	ra,87a0 <portable_init>
    15bc:	00100513          	li	a0,1
    15c0:	570060ef          	jal	ra,7b30 <get_seed_32>
    15c4:	00812703          	lw	a4,8(sp)
    15c8:	00050793          	mv	a5,a0
    15cc:	00200513          	li	a0,2
    15d0:	7ef71623          	sh	a5,2028(a4)
    15d4:	55c060ef          	jal	ra,7b30 <get_seed_32>
    15d8:	00812703          	lw	a4,8(sp)
    15dc:	00050793          	mv	a5,a0
    15e0:	00300513          	li	a0,3
    15e4:	7ef71723          	sh	a5,2030(a4)
    15e8:	548060ef          	jal	ra,7b30 <get_seed_32>
    15ec:	00812703          	lw	a4,8(sp)
    15f0:	00050793          	mv	a5,a0
    15f4:	00400513          	li	a0,4
    15f8:	7ef71823          	sh	a5,2032(a4)
    15fc:	534060ef          	jal	ra,7b30 <get_seed_32>
    1600:	00050793          	mv	a5,a0
    1604:	00500513          	li	a0,5
    1608:	02f12c23          	sw	a5,56(sp)
    160c:	524060ef          	jal	ra,7b30 <get_seed_32>
    1610:	060516e3          	bnez	a0,1e7c <main+0x94c>
    1614:	00700793          	li	a5,7
    1618:	000016b7          	lui	a3,0x1
    161c:	fffff737          	lui	a4,0xfffff
    1620:	82068693          	addi	a3,a3,-2016 # 820 <core_bench_list+0x400>
    1624:	00e686b3          	add	a3,a3,a4
    1628:	01010713          	addi	a4,sp,16
    162c:	00e68733          	add	a4,a3,a4
    1630:	00e12423          	sw	a4,8(sp)
    1634:	7ec72703          	lw	a4,2028(a4) # fffff7ec <_stack+0xfffbf7ec>
    1638:	02f12e23          	sw	a5,60(sp)
    163c:	00071863          	bnez	a4,164c <main+0x11c>
    1640:	00812703          	lw	a4,8(sp)
    1644:	7f071703          	lh	a4,2032(a4)
    1648:	0a0704e3          	beqz	a4,1ef0 <main+0x9c0>
    164c:	000016b7          	lui	a3,0x1
    1650:	fffff737          	lui	a4,0xfffff
    1654:	82068693          	addi	a3,a3,-2016 # 820 <core_bench_list+0x400>
    1658:	00e686b3          	add	a3,a3,a4
    165c:	01010713          	addi	a4,sp,16
    1660:	00e68733          	add	a4,a3,a4
    1664:	7ec72683          	lw	a3,2028(a4) # fffff7ec <_stack+0xfffbf7ec>
    1668:	00e12423          	sw	a4,8(sp)
    166c:	00100713          	li	a4,1
    1670:	08e68ce3          	beq	a3,a4,1f08 <main+0x9d8>
    1674:	000015b7          	lui	a1,0x1
    1678:	fffff637          	lui	a2,0xfffff
    167c:	82058593          	addi	a1,a1,-2016 # 820 <core_bench_list+0x400>
    1680:	00c585b3          	add	a1,a1,a2
    1684:	0027f713          	andi	a4,a5,2
    1688:	01010613          	addi	a2,sp,16
    168c:	00c58633          	add	a2,a1,a2
    1690:	0017f893          	andi	a7,a5,1
    1694:	06010593          	addi	a1,sp,96
    1698:	00e036b3          	snez	a3,a4
    169c:	7eb62a23          	sw	a1,2036(a2) # fffff7f4 <_stack+0xfffbf7f4>
    16a0:	00c12423          	sw	a2,8(sp)
    16a4:	00d886b3          	add	a3,a7,a3
    16a8:	04011e23          	sh	zero,92(sp)
    16ac:	0047f593          	andi	a1,a5,4
    16b0:	00088613          	mv	a2,a7
    16b4:	00168813          	addi	a6,a3,1
    16b8:	00059463          	bnez	a1,16c0 <main+0x190>
    16bc:	00068813          	mv	a6,a3
    16c0:	7d000513          	li	a0,2000
    16c4:	03055533          	divu	a0,a0,a6
    16c8:	fffff837          	lui	a6,0xfffff
    16cc:	02a12a23          	sw	a0,52(sp)
    16d0:	7a089a63          	bnez	a7,1e84 <main+0x954>
    16d4:	7c071a63          	bnez	a4,1ea8 <main+0x978>
    16d8:	000590e3          	bnez	a1,1ed8 <main+0x9a8>
    16dc:	32089c63          	bnez	a7,1a14 <main+0x4e4>
    16e0:	36071663          	bnez	a4,1a4c <main+0x51c>
    16e4:	0047f793          	andi	a5,a5,4
    16e8:	02078863          	beqz	a5,1718 <main+0x1e8>
    16ec:	00001737          	lui	a4,0x1
    16f0:	fffff7b7          	lui	a5,0xfffff
    16f4:	82070713          	addi	a4,a4,-2016 # 820 <core_bench_list+0x400>
    16f8:	00f70733          	add	a4,a4,a5
    16fc:	01010793          	addi	a5,sp,16
    1700:	00f707b3          	add	a5,a4,a5
    1704:	03012603          	lw	a2,48(sp)
    1708:	7ec79583          	lh	a1,2028(a5) # fffff7ec <_stack+0xfffbf7ec>
    170c:	03412503          	lw	a0,52(sp)
    1710:	00f12423          	sw	a5,8(sp)
    1714:	66d050ef          	jal	ra,7580 <core_init_state>
    1718:	03812783          	lw	a5,56(sp)
    171c:	0e079663          	bnez	a5,1808 <main+0x2d8>
    1720:	000207b7          	lui	a5,0x20
    1724:	0107a903          	lw	s2,16(a5) # 20010 <__DTOR_END__>
    1728:	0147a983          	lw	s3,20(a5)
    172c:	00100793          	li	a5,1
    1730:	fffffa37          	lui	s4,0xfffff
    1734:	02f12c23          	sw	a5,56(sp)
    1738:	000017b7          	lui	a5,0x1
    173c:	7eca0a13          	addi	s4,s4,2028 # fffff7ec <_stack+0xfffbf7ec>
    1740:	82078793          	addi	a5,a5,-2016 # 820 <core_bench_list+0x400>
    1744:	014787b3          	add	a5,a5,s4
    1748:	01010713          	addi	a4,sp,16
    174c:	00e78a33          	add	s4,a5,a4
    1750:	03812703          	lw	a4,56(sp)
    1754:	00000413          	li	s0,0
    1758:	00271793          	slli	a5,a4,0x2
    175c:	00e787b3          	add	a5,a5,a4
    1760:	00179793          	slli	a5,a5,0x1
    1764:	02f12c23          	sw	a5,56(sp)
    1768:	7c9060ef          	jal	ra,8730 <start_time>
    176c:	03812483          	lw	s1,56(sp)
    1770:	04012a23          	sw	zero,84(sp)
    1774:	04012c23          	sw	zero,88(sp)
    1778:	04048263          	beqz	s1,17bc <main+0x28c>
    177c:	00100593          	li	a1,1
    1780:	000a0513          	mv	a0,s4
    1784:	c9dfe0ef          	jal	ra,420 <core_bench_list>
    1788:	05415583          	lhu	a1,84(sp)
    178c:	564060ef          	jal	ra,7cf0 <crcu16>
    1790:	00050793          	mv	a5,a0
    1794:	fff00593          	li	a1,-1
    1798:	000a0513          	mv	a0,s4
    179c:	04f11a23          	sh	a5,84(sp)
    17a0:	c81fe0ef          	jal	ra,420 <core_bench_list>
    17a4:	05415583          	lhu	a1,84(sp)
    17a8:	548060ef          	jal	ra,7cf0 <crcu16>
    17ac:	04a11a23          	sh	a0,84(sp)
    17b0:	2e040263          	beqz	s0,1a94 <main+0x564>
    17b4:	00140413          	addi	s0,s0,1
    17b8:	fc8492e3          	bne	s1,s0,177c <main+0x24c>
    17bc:	785060ef          	jal	ra,8740 <stop_time>
    17c0:	791060ef          	jal	ra,8750 <get_time>
    17c4:	7ad060ef          	jal	ra,8770 <time_in_secs>
    17c8:	00090613          	mv	a2,s2
    17cc:	00098693          	mv	a3,s3
    17d0:	00050493          	mv	s1,a0
    17d4:	00058413          	mv	s0,a1
    17d8:	2ec170ef          	jal	ra,18ac4 <__ledf2>
    17dc:	f6054ae3          	bltz	a0,1750 <main+0x220>
    17e0:	00048513          	mv	a0,s1
    17e4:	00040593          	mv	a1,s0
    17e8:	1cd170ef          	jal	ra,191b4 <__fixunsdfsi>
    17ec:	70050a63          	beqz	a0,1f00 <main+0x9d0>
    17f0:	00a00793          	li	a5,10
    17f4:	02a7d7b3          	divu	a5,a5,a0
    17f8:	03812703          	lw	a4,56(sp)
    17fc:	00178793          	addi	a5,a5,1
    1800:	02e787b3          	mul	a5,a5,a4
    1804:	02f12c23          	sw	a5,56(sp)
    1808:	729060ef          	jal	ra,8730 <start_time>
    180c:	fffff437          	lui	s0,0xfffff
    1810:	000014b7          	lui	s1,0x1
    1814:	7ec40513          	addi	a0,s0,2028 # fffff7ec <_stack+0xfffbf7ec>
    1818:	82048793          	addi	a5,s1,-2016 # 820 <core_bench_list+0x400>
    181c:	00a787b3          	add	a5,a5,a0
    1820:	01010713          	addi	a4,sp,16
    1824:	00e78533          	add	a0,a5,a4
    1828:	c59ff0ef          	jal	ra,1480 <iterate>
    182c:	715060ef          	jal	ra,8740 <stop_time>
    1830:	721060ef          	jal	ra,8750 <get_time>
    1834:	82048793          	addi	a5,s1,-2016
    1838:	01010713          	addi	a4,sp,16
    183c:	008787b3          	add	a5,a5,s0
    1840:	00e787b3          	add	a5,a5,a4
    1844:	00050a13          	mv	s4,a0
    1848:	7ec79503          	lh	a0,2028(a5)
    184c:	00000593          	li	a1,0
    1850:	00f12423          	sw	a5,8(sp)
    1854:	43d060ef          	jal	ra,8490 <crc16>
    1858:	00812783          	lw	a5,8(sp)
    185c:	00050593          	mv	a1,a0
    1860:	7ee79503          	lh	a0,2030(a5)
    1864:	42d060ef          	jal	ra,8490 <crc16>
    1868:	00812783          	lw	a5,8(sp)
    186c:	00050593          	mv	a1,a0
    1870:	7f079503          	lh	a0,2032(a5)
    1874:	41d060ef          	jal	ra,8490 <crc16>
    1878:	00050593          	mv	a1,a0
    187c:	03411503          	lh	a0,52(sp)
    1880:	411060ef          	jal	ra,8490 <crc16>
    1884:	000087b7          	lui	a5,0x8
    1888:	b0578793          	addi	a5,a5,-1275 # 7b05 <core_state_transition+0x3c5>
    188c:	00050913          	mv	s2,a0
    1890:	7cf50e63          	beq	a0,a5,206c <main+0xb3c>
    1894:	5aa7e063          	bltu	a5,a0,1e34 <main+0x904>
    1898:	000027b7          	lui	a5,0x2
    189c:	8f278793          	addi	a5,a5,-1806 # 18f2 <main+0x3c2>
    18a0:	76f50663          	beq	a0,a5,200c <main+0xadc>
    18a4:	00005b37          	lui	s6,0x5
    18a8:	eafb0793          	addi	a5,s6,-337 # 4eaf <matrix_test+0x13af>
    18ac:	7ef51a63          	bne	a0,a5,20a0 <main+0xb70>
    18b0:	00020537          	lui	a0,0x20
    18b4:	0b050513          	addi	a0,a0,176 # 200b0 <__malloc_trim_threshold+0x5c>
    18b8:	2bc070ef          	jal	ra,8b74 <puts>
    18bc:	608b0b13          	addi	s6,s6,1544
    18c0:	0000e9b7          	lui	s3,0xe
    18c4:	00007ab7          	lui	s5,0x7
    18c8:	00200793          	li	a5,2
    18cc:	5a498993          	addi	s3,s3,1444 # e5a4 <_ldtoa_r+0x260>
    18d0:	000b0c13          	mv	s8,s6
    18d4:	a79a8a93          	addi	s5,s5,-1415 # 6a79 <core_bench_state+0x2c9>
    18d8:	00f12623          	sw	a5,12(sp)
    18dc:	00020bb7          	lui	s7,0x20
    18e0:	040ba783          	lw	a5,64(s7) # 20040 <default_num_contexts>
    18e4:	00000c93          	li	s9,0
    18e8:	00000d93          	li	s11,0
    18ec:	1e078c63          	beqz	a5,1ae4 <main+0x5b4>
    18f0:	00001737          	lui	a4,0x1
    18f4:	fffff7b7          	lui	a5,0xfffff
    18f8:	82070713          	addi	a4,a4,-2016 # 820 <core_bench_list+0x400>
    18fc:	00f70733          	add	a4,a4,a5
    1900:	01010793          	addi	a5,sp,16
    1904:	00f707b3          	add	a5,a4,a5
    1908:	00f12423          	sw	a5,8(sp)
    190c:	00001d37          	lui	s10,0x1
    1910:	03c0006f          	j	194c <main+0x41c>
    1914:	00812783          	lw	a5,8(sp)
    1918:	01b406b3          	add	a3,s0,s11
    191c:	00269693          	slli	a3,a3,0x2
    1920:	00d786b3          	add	a3,a5,a3
    1924:	00dd06b3          	add	a3,s10,a3
    1928:	82c69683          	lh	a3,-2004(a3)
    192c:	001d8593          	addi	a1,s11,1
    1930:	040ba603          	lw	a2,64(s7)
    1934:	00dc86b3          	add	a3,s9,a3
    1938:	01059d93          	slli	s11,a1,0x10
    193c:	01069c93          	slli	s9,a3,0x10
    1940:	010ddd93          	srli	s11,s11,0x10
    1944:	410cdc93          	srai	s9,s9,0x10
    1948:	18cdfe63          	bgeu	s11,a2,1ae4 <main+0x5b4>
    194c:	00812783          	lw	a5,8(sp)
    1950:	004d9413          	slli	s0,s11,0x4
    1954:	01b404b3          	add	s1,s0,s11
    1958:	00249493          	slli	s1,s1,0x2
    195c:	009784b3          	add	s1,a5,s1
    1960:	009d04b3          	add	s1,s10,s1
    1964:	80c4a683          	lw	a3,-2036(s1)
    1968:	82049623          	sh	zero,-2004(s1)
    196c:	0016f693          	andi	a3,a3,1
    1970:	02068663          	beqz	a3,199c <main+0x46c>
    1974:	8264d603          	lhu	a2,-2010(s1)
    1978:	03560263          	beq	a2,s5,199c <main+0x46c>
    197c:	000207b7          	lui	a5,0x20
    1980:	000a8693          	mv	a3,s5
    1984:	000d8593          	mv	a1,s11
    1988:	13878513          	addi	a0,a5,312 # 20138 <__malloc_trim_threshold+0xe4>
    198c:	76d060ef          	jal	ra,88f8 <printf>
    1990:	82c4d683          	lhu	a3,-2004(s1)
    1994:	00168693          	addi	a3,a3,1
    1998:	82d49623          	sh	a3,-2004(s1)
    199c:	00812783          	lw	a5,8(sp)
    19a0:	01b404b3          	add	s1,s0,s11
    19a4:	00249493          	slli	s1,s1,0x2
    19a8:	009784b3          	add	s1,a5,s1
    19ac:	009d04b3          	add	s1,s10,s1
    19b0:	80c4a683          	lw	a3,-2036(s1)
    19b4:	0026f613          	andi	a2,a3,2
    19b8:	02060863          	beqz	a2,19e8 <main+0x4b8>
    19bc:	8284d603          	lhu	a2,-2008(s1)
    19c0:	03860463          	beq	a2,s8,19e8 <main+0x4b8>
    19c4:	000207b7          	lui	a5,0x20
    19c8:	000b0693          	mv	a3,s6
    19cc:	000d8593          	mv	a1,s11
    19d0:	16878513          	addi	a0,a5,360 # 20168 <__malloc_trim_threshold+0x114>
    19d4:	725060ef          	jal	ra,88f8 <printf>
    19d8:	82c4d603          	lhu	a2,-2004(s1)
    19dc:	80c4a683          	lw	a3,-2036(s1)
    19e0:	00160613          	addi	a2,a2,1
    19e4:	82c49623          	sh	a2,-2004(s1)
    19e8:	0046f693          	andi	a3,a3,4
    19ec:	f20684e3          	beqz	a3,1914 <main+0x3e4>
    19f0:	00812783          	lw	a5,8(sp)
    19f4:	01b404b3          	add	s1,s0,s11
    19f8:	00249493          	slli	s1,s1,0x2
    19fc:	009784b3          	add	s1,a5,s1
    1a00:	009d04b3          	add	s1,s10,s1
    1a04:	82a4d603          	lhu	a2,-2006(s1)
    1a08:	0b361063          	bne	a2,s3,1aa8 <main+0x578>
    1a0c:	82c49683          	lh	a3,-2004(s1)
    1a10:	f1dff06f          	j	192c <main+0x3fc>
    1a14:	00001737          	lui	a4,0x1
    1a18:	fffff7b7          	lui	a5,0xfffff
    1a1c:	82070713          	addi	a4,a4,-2016 # 820 <core_bench_list+0x400>
    1a20:	00f70733          	add	a4,a4,a5
    1a24:	01010793          	addi	a5,sp,16
    1a28:	00f707b3          	add	a5,a4,a5
    1a2c:	7ec79603          	lh	a2,2028(a5) # fffff7ec <_stack+0xfffbf7ec>
    1a30:	7f87a583          	lw	a1,2040(a5)
    1a34:	00f12423          	sw	a5,8(sp)
    1a38:	a58ff0ef          	jal	ra,c90 <core_list_init>
    1a3c:	03c12783          	lw	a5,60(sp)
    1a40:	04a12023          	sw	a0,64(sp)
    1a44:	0027f713          	andi	a4,a5,2
    1a48:	c8070ee3          	beqz	a4,16e4 <main+0x1b4>
    1a4c:	00001737          	lui	a4,0x1
    1a50:	fffff7b7          	lui	a5,0xfffff
    1a54:	82070713          	addi	a4,a4,-2016 # 820 <core_bench_list+0x400>
    1a58:	00f70733          	add	a4,a4,a5
    1a5c:	01010793          	addi	a5,sp,16
    1a60:	00f707b3          	add	a5,a4,a5
    1a64:	00f12423          	sw	a5,8(sp)
    1a68:	00812703          	lw	a4,8(sp)
    1a6c:	7ee79783          	lh	a5,2030(a5) # fffff7ee <_stack+0xfffbf7ee>
    1a70:	03412503          	lw	a0,52(sp)
    1a74:	7ec71603          	lh	a2,2028(a4)
    1a78:	7fc72583          	lw	a1,2044(a4)
    1a7c:	01079793          	slli	a5,a5,0x10
    1a80:	00c7e633          	or	a2,a5,a2
    1a84:	04410693          	addi	a3,sp,68
    1a88:	2e9030ef          	jal	ra,5570 <core_init_matrix>
    1a8c:	03c12783          	lw	a5,60(sp)
    1a90:	c55ff06f          	j	16e4 <main+0x1b4>
    1a94:	04a11b23          	sh	a0,86(sp)
    1a98:	00100793          	li	a5,1
    1a9c:	d2f480e3          	beq	s1,a5,17bc <main+0x28c>
    1aa0:	00100413          	li	s0,1
    1aa4:	cd9ff06f          	j	177c <main+0x24c>
    1aa8:	000207b7          	lui	a5,0x20
    1aac:	00098693          	mv	a3,s3
    1ab0:	000d8593          	mv	a1,s11
    1ab4:	19c78513          	addi	a0,a5,412 # 2019c <__malloc_trim_threshold+0x148>
    1ab8:	641060ef          	jal	ra,88f8 <printf>
    1abc:	82c4d683          	lhu	a3,-2004(s1)
    1ac0:	00168693          	addi	a3,a3,1
    1ac4:	01069693          	slli	a3,a3,0x10
    1ac8:	4106d693          	srai	a3,a3,0x10
    1acc:	82d49623          	sh	a3,-2004(s1)
    1ad0:	e5dff06f          	j	192c <main+0x3fc>
    1ad4:	fff00793          	li	a5,-1
    1ad8:	00f12623          	sw	a5,12(sp)
    1adc:	fff00c93          	li	s9,-1
    1ae0:	00020bb7          	lui	s7,0x20
    1ae4:	43d060ef          	jal	ra,8720 <check_data_types>
    1ae8:	03412583          	lw	a1,52(sp)
    1aec:	00ac8433          	add	s0,s9,a0
    1af0:	00020537          	lui	a0,0x20
    1af4:	1cc50513          	addi	a0,a0,460 # 201cc <__malloc_trim_threshold+0x178>
    1af8:	601060ef          	jal	ra,88f8 <printf>
    1afc:	00020537          	lui	a0,0x20
    1b00:	000a0593          	mv	a1,s4
    1b04:	1e450513          	addi	a0,a0,484 # 201e4 <__malloc_trim_threshold+0x190>
    1b08:	5f1060ef          	jal	ra,88f8 <printf>
    1b0c:	000a0513          	mv	a0,s4
    1b10:	461060ef          	jal	ra,8770 <time_in_secs>
    1b14:	00050613          	mv	a2,a0
    1b18:	00020537          	lui	a0,0x20
    1b1c:	00058693          	mv	a3,a1
    1b20:	1fc50513          	addi	a0,a0,508 # 201fc <__malloc_trim_threshold+0x1a8>
    1b24:	5d5060ef          	jal	ra,88f8 <printf>
    1b28:	000a0513          	mv	a0,s4
    1b2c:	445060ef          	jal	ra,8770 <time_in_secs>
    1b30:	01041413          	slli	s0,s0,0x10
    1b34:	00000613          	li	a2,0
    1b38:	00000693          	li	a3,0
    1b3c:	41045413          	srai	s0,s0,0x10
    1b40:	6a1160ef          	jal	ra,189e0 <__gedf2>
    1b44:	04a05663          	blez	a0,1b90 <main+0x660>
    1b48:	040ba783          	lw	a5,64(s7) # 20040 <default_num_contexts>
    1b4c:	03812503          	lw	a0,56(sp)
    1b50:	02f50533          	mul	a0,a0,a5
    1b54:	784170ef          	jal	ra,192d8 <__floatunsidf>
    1b58:	00050993          	mv	s3,a0
    1b5c:	000a0513          	mv	a0,s4
    1b60:	00058493          	mv	s1,a1
    1b64:	40d060ef          	jal	ra,8770 <time_in_secs>
    1b68:	00050613          	mv	a2,a0
    1b6c:	00058693          	mv	a3,a1
    1b70:	00098513          	mv	a0,s3
    1b74:	00048593          	mv	a1,s1
    1b78:	78c160ef          	jal	ra,18304 <__divdf3>
    1b7c:	00050613          	mv	a2,a0
    1b80:	00020537          	lui	a0,0x20
    1b84:	00058693          	mv	a3,a1
    1b88:	21450513          	addi	a0,a0,532 # 20214 <__malloc_trim_threshold+0x1c0>
    1b8c:	56d060ef          	jal	ra,88f8 <printf>
    1b90:	040ba783          	lw	a5,64(s7)
    1b94:	03812583          	lw	a1,56(sp)
    1b98:	00020537          	lui	a0,0x20
    1b9c:	22c50513          	addi	a0,a0,556 # 2022c <__malloc_trim_threshold+0x1d8>
    1ba0:	02f585b3          	mul	a1,a1,a5
    1ba4:	00020b37          	lui	s6,0x20
    1ba8:	00020c37          	lui	s8,0x20
    1bac:	00020ab7          	lui	s5,0x20
    1bb0:	549060ef          	jal	ra,88f8 <printf>
    1bb4:	00020537          	lui	a0,0x20
    1bb8:	244b0593          	addi	a1,s6,580 # 20244 <__malloc_trim_threshold+0x1f0>
    1bbc:	25050513          	addi	a0,a0,592 # 20250 <__malloc_trim_threshold+0x1fc>
    1bc0:	539060ef          	jal	ra,88f8 <printf>
    1bc4:	00020537          	lui	a0,0x20
    1bc8:	268c0593          	addi	a1,s8,616 # 20268 <__malloc_trim_threshold+0x214>
    1bcc:	47050513          	addi	a0,a0,1136 # 20470 <__malloc_trim_threshold+0x41c>
    1bd0:	529060ef          	jal	ra,88f8 <printf>
    1bd4:	00020537          	lui	a0,0x20
    1bd8:	488a8593          	addi	a1,s5,1160 # 20488 <__malloc_trim_threshold+0x434>
    1bdc:	49050513          	addi	a0,a0,1168 # 20490 <__malloc_trim_threshold+0x43c>
    1be0:	519060ef          	jal	ra,88f8 <printf>
    1be4:	00020537          	lui	a0,0x20
    1be8:	00090593          	mv	a1,s2
    1bec:	4a850513          	addi	a0,a0,1192 # 204a8 <__malloc_trim_threshold+0x454>
    1bf0:	509060ef          	jal	ra,88f8 <printf>
    1bf4:	03c12783          	lw	a5,60(sp)
    1bf8:	0017f713          	andi	a4,a5,1
    1bfc:	06070a63          	beqz	a4,1c70 <main+0x740>
    1c00:	040ba703          	lw	a4,64(s7)
    1c04:	06070663          	beqz	a4,1c70 <main+0x740>
    1c08:	00001737          	lui	a4,0x1
    1c0c:	fffff7b7          	lui	a5,0xfffff
    1c10:	82070713          	addi	a4,a4,-2016 # 820 <core_bench_list+0x400>
    1c14:	00f70733          	add	a4,a4,a5
    1c18:	01010793          	addi	a5,sp,16
    1c1c:	00f707b3          	add	a5,a4,a5
    1c20:	00000993          	li	s3,0
    1c24:	00f12423          	sw	a5,8(sp)
    1c28:	00001937          	lui	s2,0x1
    1c2c:	000204b7          	lui	s1,0x20
    1c30:	00812703          	lw	a4,8(sp)
    1c34:	00499793          	slli	a5,s3,0x4
    1c38:	013787b3          	add	a5,a5,s3
    1c3c:	00279793          	slli	a5,a5,0x2
    1c40:	00f707b3          	add	a5,a4,a5
    1c44:	00f907b3          	add	a5,s2,a5
    1c48:	8267d603          	lhu	a2,-2010(a5) # ffffe826 <_stack+0xfffbe826>
    1c4c:	00098593          	mv	a1,s3
    1c50:	4c448513          	addi	a0,s1,1220 # 204c4 <__malloc_trim_threshold+0x470>
    1c54:	4a5060ef          	jal	ra,88f8 <printf>
    1c58:	00198993          	addi	s3,s3,1
    1c5c:	040ba783          	lw	a5,64(s7)
    1c60:	01099993          	slli	s3,s3,0x10
    1c64:	0109d993          	srli	s3,s3,0x10
    1c68:	fcf9e4e3          	bltu	s3,a5,1c30 <main+0x700>
    1c6c:	03c12783          	lw	a5,60(sp)
    1c70:	0027f713          	andi	a4,a5,2
    1c74:	040ba683          	lw	a3,64(s7)
    1c78:	06070863          	beqz	a4,1ce8 <main+0x7b8>
    1c7c:	06068663          	beqz	a3,1ce8 <main+0x7b8>
    1c80:	00001737          	lui	a4,0x1
    1c84:	fffff7b7          	lui	a5,0xfffff
    1c88:	82070713          	addi	a4,a4,-2016 # 820 <core_bench_list+0x400>
    1c8c:	00f70733          	add	a4,a4,a5
    1c90:	01010793          	addi	a5,sp,16
    1c94:	00f707b3          	add	a5,a4,a5
    1c98:	00000993          	li	s3,0
    1c9c:	00f12423          	sw	a5,8(sp)
    1ca0:	00001937          	lui	s2,0x1
    1ca4:	000204b7          	lui	s1,0x20
    1ca8:	00812703          	lw	a4,8(sp)
    1cac:	00499793          	slli	a5,s3,0x4
    1cb0:	013787b3          	add	a5,a5,s3
    1cb4:	00279793          	slli	a5,a5,0x2
    1cb8:	00f707b3          	add	a5,a4,a5
    1cbc:	00f907b3          	add	a5,s2,a5
    1cc0:	8287d603          	lhu	a2,-2008(a5) # ffffe828 <_stack+0xfffbe828>
    1cc4:	00098593          	mv	a1,s3
    1cc8:	4e048513          	addi	a0,s1,1248 # 204e0 <__malloc_trim_threshold+0x48c>
    1ccc:	42d060ef          	jal	ra,88f8 <printf>
    1cd0:	00198993          	addi	s3,s3,1
    1cd4:	040ba783          	lw	a5,64(s7)
    1cd8:	01099993          	slli	s3,s3,0x10
    1cdc:	0109d993          	srli	s3,s3,0x10
    1ce0:	fcf9e4e3          	bltu	s3,a5,1ca8 <main+0x778>
    1ce4:	03c12783          	lw	a5,60(sp)
    1ce8:	0047f793          	andi	a5,a5,4
    1cec:	040ba703          	lw	a4,64(s7)
    1cf0:	06078663          	beqz	a5,1d5c <main+0x82c>
    1cf4:	06070463          	beqz	a4,1d5c <main+0x82c>
    1cf8:	00001737          	lui	a4,0x1
    1cfc:	fffff7b7          	lui	a5,0xfffff
    1d00:	82070713          	addi	a4,a4,-2016 # 820 <core_bench_list+0x400>
    1d04:	00f70733          	add	a4,a4,a5
    1d08:	01010793          	addi	a5,sp,16
    1d0c:	00f707b3          	add	a5,a4,a5
    1d10:	00000993          	li	s3,0
    1d14:	00f12423          	sw	a5,8(sp)
    1d18:	00001937          	lui	s2,0x1
    1d1c:	000204b7          	lui	s1,0x20
    1d20:	00812703          	lw	a4,8(sp)
    1d24:	00499793          	slli	a5,s3,0x4
    1d28:	013787b3          	add	a5,a5,s3
    1d2c:	00279793          	slli	a5,a5,0x2
    1d30:	00f707b3          	add	a5,a4,a5
    1d34:	00f907b3          	add	a5,s2,a5
    1d38:	82a7d603          	lhu	a2,-2006(a5) # ffffe82a <_stack+0xfffbe82a>
    1d3c:	00098593          	mv	a1,s3
    1d40:	4fc48513          	addi	a0,s1,1276 # 204fc <__malloc_trim_threshold+0x4a8>
    1d44:	3b5060ef          	jal	ra,88f8 <printf>
    1d48:	00198993          	addi	s3,s3,1
    1d4c:	040ba783          	lw	a5,64(s7)
    1d50:	01099993          	slli	s3,s3,0x10
    1d54:	0109d993          	srli	s3,s3,0x10
    1d58:	fcf9e4e3          	bltu	s3,a5,1d20 <main+0x7f0>
    1d5c:	00001737          	lui	a4,0x1
    1d60:	040ba783          	lw	a5,64(s7)
    1d64:	fffff4b7          	lui	s1,0xfffff
    1d68:	82070713          	addi	a4,a4,-2016 # 820 <core_bench_list+0x400>
    1d6c:	00970733          	add	a4,a4,s1
    1d70:	01010693          	addi	a3,sp,16
    1d74:	00000c93          	li	s9,0
    1d78:	00d704b3          	add	s1,a4,a3
    1d7c:	000019b7          	lui	s3,0x1
    1d80:	00020937          	lui	s2,0x20
    1d84:	02078e63          	beqz	a5,1dc0 <main+0x890>
    1d88:	004c9793          	slli	a5,s9,0x4
    1d8c:	019787b3          	add	a5,a5,s9
    1d90:	00279793          	slli	a5,a5,0x2
    1d94:	00f487b3          	add	a5,s1,a5
    1d98:	00f987b3          	add	a5,s3,a5
    1d9c:	8247d603          	lhu	a2,-2012(a5)
    1da0:	000c8593          	mv	a1,s9
    1da4:	51890513          	addi	a0,s2,1304 # 20518 <__malloc_trim_threshold+0x4c4>
    1da8:	351060ef          	jal	ra,88f8 <printf>
    1dac:	001c8c93          	addi	s9,s9,1
    1db0:	040ba783          	lw	a5,64(s7)
    1db4:	010c9c93          	slli	s9,s9,0x10
    1db8:	010cdc93          	srli	s9,s9,0x10
    1dbc:	fcfce6e3          	bltu	s9,a5,1d88 <main+0x858>
    1dc0:	16040863          	beqz	s0,1f30 <main+0xa00>
    1dc4:	04805e63          	blez	s0,1e20 <main+0x8f0>
    1dc8:	00020537          	lui	a0,0x20
    1dcc:	5b450513          	addi	a0,a0,1460 # 205b4 <__malloc_trim_threshold+0x560>
    1dd0:	5a5060ef          	jal	ra,8b74 <puts>
    1dd4:	05e10513          	addi	a0,sp,94
    1dd8:	1d9060ef          	jal	ra,87b0 <portable_fini>
    1ddc:	08010113          	addi	sp,sp,128
    1de0:	7ec12083          	lw	ra,2028(sp)
    1de4:	7e812403          	lw	s0,2024(sp)
    1de8:	7e412483          	lw	s1,2020(sp)
    1dec:	7e012903          	lw	s2,2016(sp)
    1df0:	7dc12983          	lw	s3,2012(sp)
    1df4:	7d812a03          	lw	s4,2008(sp)
    1df8:	7d412a83          	lw	s5,2004(sp)
    1dfc:	7d012b03          	lw	s6,2000(sp)
    1e00:	7cc12b83          	lw	s7,1996(sp)
    1e04:	7c812c03          	lw	s8,1992(sp)
    1e08:	7c412c83          	lw	s9,1988(sp)
    1e0c:	7c012d03          	lw	s10,1984(sp)
    1e10:	7bc12d83          	lw	s11,1980(sp)
    1e14:	00000513          	li	a0,0
    1e18:	7f010113          	addi	sp,sp,2032
    1e1c:	00008067          	ret
    1e20:	fa045ae3          	bgez	s0,1dd4 <main+0x8a4>
    1e24:	00020537          	lui	a0,0x20
    1e28:	5c450513          	addi	a0,a0,1476 # 205c4 <__malloc_trim_threshold+0x570>
    1e2c:	549060ef          	jal	ra,8b74 <puts>
    1e30:	fa5ff06f          	j	1dd4 <main+0x8a4>
    1e34:	000099b7          	lui	s3,0x9
    1e38:	a0298793          	addi	a5,s3,-1534 # 8a02 <putc+0xa>
    1e3c:	20f50063          	beq	a0,a5,203c <main+0xb0c>
    1e40:	0000f7b7          	lui	a5,0xf
    1e44:	9f578793          	addi	a5,a5,-1547 # e9f5 <_ldtoa_r+0x6b1>
    1e48:	c8f516e3          	bne	a0,a5,1ad4 <main+0x5a4>
    1e4c:	00020537          	lui	a0,0x20
    1e50:	0e050513          	addi	a0,a0,224 # 200e0 <__malloc_trim_threshold+0x8c>
    1e54:	521060ef          	jal	ra,8b74 <puts>
    1e58:	00002b37          	lui	s6,0x2
    1e5c:	fd7b0b13          	addi	s6,s6,-41 # 1fd7 <main+0xaa7>
    1e60:	0000eab7          	lui	s5,0xe
    1e64:	00300793          	li	a5,3
    1e68:	e3a98993          	addi	s3,s3,-454
    1e6c:	000b0c13          	mv	s8,s6
    1e70:	714a8a93          	addi	s5,s5,1812 # e714 <_ldtoa_r+0x3d0>
    1e74:	00f12623          	sw	a5,12(sp)
    1e78:	a65ff06f          	j	18dc <main+0x3ac>
    1e7c:	00050793          	mv	a5,a0
    1e80:	f98ff06f          	j	1618 <main+0xe8>
    1e84:	00001337          	lui	t1,0x1
    1e88:	82030313          	addi	t1,t1,-2016 # 820 <core_bench_list+0x400>
    1e8c:	01030333          	add	t1,t1,a6
    1e90:	01010813          	addi	a6,sp,16
    1e94:	01030833          	add	a6,t1,a6
    1e98:	06010313          	addi	t1,sp,96
    1e9c:	01012423          	sw	a6,8(sp)
    1ea0:	7e682c23          	sw	t1,2040(a6) # fffff7f8 <_stack+0xfffbf7f8>
    1ea4:	82070ae3          	beqz	a4,16d8 <main+0x1a8>
    1ea8:	02a60633          	mul	a2,a2,a0
    1eac:	06010313          	addi	t1,sp,96
    1eb0:	fffff837          	lui	a6,0xfffff
    1eb4:	00c30633          	add	a2,t1,a2
    1eb8:	00001337          	lui	t1,0x1
    1ebc:	82030313          	addi	t1,t1,-2016 # 820 <core_bench_list+0x400>
    1ec0:	01030333          	add	t1,t1,a6
    1ec4:	01010813          	addi	a6,sp,16
    1ec8:	01030833          	add	a6,t1,a6
    1ecc:	01012423          	sw	a6,8(sp)
    1ed0:	7ec82e23          	sw	a2,2044(a6) # fffff7fc <_stack+0xfffbf7fc>
    1ed4:	800584e3          	beqz	a1,16dc <main+0x1ac>
    1ed8:	02a686b3          	mul	a3,a3,a0
    1edc:	06010613          	addi	a2,sp,96
    1ee0:	00d606b3          	add	a3,a2,a3
    1ee4:	02d12823          	sw	a3,48(sp)
    1ee8:	fe088c63          	beqz	a7,16e0 <main+0x1b0>
    1eec:	b29ff06f          	j	1a14 <main+0x4e4>
    1ef0:	00812683          	lw	a3,8(sp)
    1ef4:	06600713          	li	a4,102
    1ef8:	7ee69823          	sh	a4,2032(a3)
    1efc:	f50ff06f          	j	164c <main+0x11c>
    1f00:	00100513          	li	a0,1
    1f04:	8edff06f          	j	17f0 <main+0x2c0>
    1f08:	00812703          	lw	a4,8(sp)
    1f0c:	7f071703          	lh	a4,2032(a4)
    1f10:	f6071263          	bnez	a4,1674 <main+0x144>
    1f14:	00812683          	lw	a3,8(sp)
    1f18:	34153737          	lui	a4,0x34153
    1f1c:	41570713          	addi	a4,a4,1045 # 34153415 <_stack+0x34113415>
    1f20:	7ee6a623          	sw	a4,2028(a3)
    1f24:	06600713          	li	a4,102
    1f28:	7ee69823          	sh	a4,2032(a3)
    1f2c:	f48ff06f          	j	1674 <main+0x144>
    1f30:	00020537          	lui	a0,0x20
    1f34:	53450513          	addi	a0,a0,1332 # 20534 <__malloc_trim_threshold+0x4e0>
    1f38:	43d060ef          	jal	ra,8b74 <puts>
    1f3c:	00c12703          	lw	a4,12(sp)
    1f40:	00300793          	li	a5,3
    1f44:	e8f718e3          	bne	a4,a5,1dd4 <main+0x8a4>
    1f48:	040ba783          	lw	a5,64(s7)
    1f4c:	03812503          	lw	a0,56(sp)
    1f50:	02f50533          	mul	a0,a0,a5
    1f54:	384170ef          	jal	ra,192d8 <__floatunsidf>
    1f58:	00050493          	mv	s1,a0
    1f5c:	000a0513          	mv	a0,s4
    1f60:	00058413          	mv	s0,a1
    1f64:	00d060ef          	jal	ra,8770 <time_in_secs>
    1f68:	00050613          	mv	a2,a0
    1f6c:	00058693          	mv	a3,a1
    1f70:	00048513          	mv	a0,s1
    1f74:	00040593          	mv	a1,s0
    1f78:	38c160ef          	jal	ra,18304 <__divdf3>
    1f7c:	00050613          	mv	a2,a0
    1f80:	00020537          	lui	a0,0x20
    1f84:	244b0713          	addi	a4,s6,580
    1f88:	00058693          	mv	a3,a1
    1f8c:	268c0793          	addi	a5,s8,616
    1f90:	57c50513          	addi	a0,a0,1404 # 2057c <__malloc_trim_threshold+0x528>
    1f94:	165060ef          	jal	ra,88f8 <printf>
    1f98:	00020537          	lui	a0,0x20
    1f9c:	488a8593          	addi	a1,s5,1160
    1fa0:	59850513          	addi	a0,a0,1432 # 20598 <__malloc_trim_threshold+0x544>
    1fa4:	155060ef          	jal	ra,88f8 <printf>
    1fa8:	00a00513          	li	a0,10
    1fac:	1a5060ef          	jal	ra,8950 <putchar>
    1fb0:	040ba783          	lw	a5,64(s7)
    1fb4:	03812503          	lw	a0,56(sp)
    1fb8:	02f50533          	mul	a0,a0,a5
    1fbc:	31c170ef          	jal	ra,192d8 <__floatunsidf>
    1fc0:	00050493          	mv	s1,a0
    1fc4:	000a0513          	mv	a0,s4
    1fc8:	00058413          	mv	s0,a1
    1fcc:	7a4060ef          	jal	ra,8770 <time_in_secs>
    1fd0:	00050613          	mv	a2,a0
    1fd4:	00058693          	mv	a3,a1
    1fd8:	00048513          	mv	a0,s1
    1fdc:	00040593          	mv	a1,s0
    1fe0:	324160ef          	jal	ra,18304 <__divdf3>
    1fe4:	000207b7          	lui	a5,0x20
    1fe8:	0187a603          	lw	a2,24(a5) # 20018 <__DTOR_END__+0x8>
    1fec:	01c7a683          	lw	a3,28(a5)
    1ff0:	314160ef          	jal	ra,18304 <__divdf3>
    1ff4:	00050613          	mv	a2,a0
    1ff8:	00020537          	lui	a0,0x20
    1ffc:	00058693          	mv	a3,a1
    2000:	5a050513          	addi	a0,a0,1440 # 205a0 <__malloc_trim_threshold+0x54c>
    2004:	0f5060ef          	jal	ra,88f8 <printf>
    2008:	dcdff06f          	j	1dd4 <main+0x8a4>
    200c:	00020537          	lui	a0,0x20
    2010:	10c50513          	addi	a0,a0,268 # 2010c <__malloc_trim_threshold+0xb8>
    2014:	361060ef          	jal	ra,8b74 <puts>
    2018:	000099b7          	lui	s3,0x9
    201c:	0000eab7          	lui	s5,0xe
    2020:	00400793          	li	a5,4
    2024:	d8498993          	addi	s3,s3,-636 # 8d84 <_vfprintf_r+0x174>
    2028:	74700b13          	li	s6,1863
    202c:	74700c13          	li	s8,1863
    2030:	3c1a8a93          	addi	s5,s5,961 # e3c1 <_ldtoa_r+0x7d>
    2034:	00f12623          	sw	a5,12(sp)
    2038:	8a5ff06f          	j	18dc <main+0x3ac>
    203c:	00020537          	lui	a0,0x20
    2040:	0000cb37          	lui	s6,0xc
    2044:	05850513          	addi	a0,a0,88 # 20058 <__malloc_trim_threshold+0x4>
    2048:	e52b0b13          	addi	s6,s6,-430 # be52 <__sinit.part.0+0x11a>
    204c:	000069b7          	lui	s3,0x6
    2050:	0000dab7          	lui	s5,0xd
    2054:	321060ef          	jal	ra,8b74 <puts>
    2058:	e4798993          	addi	s3,s3,-441 # 5e47 <matrix_mul_const+0x1a7>
    205c:	000b0c13          	mv	s8,s6
    2060:	4b0a8a93          	addi	s5,s5,1200 # d4b0 <emdnorm+0x23c>
    2064:	00012623          	sw	zero,12(sp)
    2068:	875ff06f          	j	18dc <main+0x3ac>
    206c:	00020537          	lui	a0,0x20
    2070:	08450513          	addi	a0,a0,132 # 20084 <__malloc_trim_threshold+0x30>
    2074:	301060ef          	jal	ra,8b74 <puts>
    2078:	00001b37          	lui	s6,0x1
    207c:	199b0b13          	addi	s6,s6,409 # 1199 <core_list_find+0x19>
    2080:	000049b7          	lui	s3,0x4
    2084:	00003ab7          	lui	s5,0x3
    2088:	00100793          	li	a5,1
    208c:	9bf98993          	addi	s3,s3,-1601 # 39bf <core_bench_matrix+0x18ff>
    2090:	000b0c13          	mv	s8,s6
    2094:	340a8a93          	addi	s5,s5,832 # 3340 <core_bench_matrix+0x1280>
    2098:	00f12623          	sw	a5,12(sp)
    209c:	841ff06f          	j	18dc <main+0x3ac>
    20a0:	fff00793          	li	a5,-1
    20a4:	00f12623          	sw	a5,12(sp)
    20a8:	fff00c93          	li	s9,-1
    20ac:	00020bb7          	lui	s7,0x20
    20b0:	a35ff06f          	j	1ae4 <main+0x5b4>
	...

000020c0 <core_bench_matrix>:
    20c0:	fa010113          	addi	sp,sp,-96
    20c4:	00452703          	lw	a4,4(a0)
    20c8:	05312623          	sw	s3,76(sp)
    20cc:	00052983          	lw	s3,0(a0)
    20d0:	04812c23          	sw	s0,88(sp)
    20d4:	03a12823          	sw	s10,48(sp)
    20d8:	03b12623          	sw	s11,44(sp)
    20dc:	fffff437          	lui	s0,0xfffff
    20e0:	04112e23          	sw	ra,92(sp)
    20e4:	04912a23          	sw	s1,84(sp)
    20e8:	05212823          	sw	s2,80(sp)
    20ec:	05412423          	sw	s4,72(sp)
    20f0:	05512223          	sw	s5,68(sp)
    20f4:	05612023          	sw	s6,64(sp)
    20f8:	03712e23          	sw	s7,60(sp)
    20fc:	03812c23          	sw	s8,56(sp)
    2100:	03912a23          	sw	s9,52(sp)
    2104:	00e12423          	sw	a4,8(sp)
    2108:	00c12823          	sw	a2,16(sp)
    210c:	00c52d83          	lw	s11,12(a0)
    2110:	00852d03          	lw	s10,8(a0)
    2114:	0085e433          	or	s0,a1,s0
    2118:	00099463          	bnez	s3,2120 <core_bench_matrix+0x60>
    211c:	1ad0106f          	j	3ac8 <core_bench_matrix+0x1a08>
    2120:	413007b3          	neg	a5,s3
    2124:	00199913          	slli	s2,s3,0x1
    2128:	00058493          	mv	s1,a1
    212c:	00f12223          	sw	a5,4(sp)
    2130:	00000313          	li	t1,0
    2134:	012706b3          	add	a3,a4,s2
    2138:	00279e13          	slli	t3,a5,0x2
    213c:	41268633          	sub	a2,a3,s2
    2140:	40c68733          	sub	a4,a3,a2
    2144:	ffe70713          	addi	a4,a4,-2
    2148:	00175713          	srli	a4,a4,0x1
    214c:	00170713          	addi	a4,a4,1
    2150:	00777713          	andi	a4,a4,7
    2154:	00060793          	mv	a5,a2
    2158:	0a070463          	beqz	a4,2200 <core_bench_matrix+0x140>
    215c:	00100593          	li	a1,1
    2160:	08b70663          	beq	a4,a1,21ec <core_bench_matrix+0x12c>
    2164:	00200593          	li	a1,2
    2168:	06b70a63          	beq	a4,a1,21dc <core_bench_matrix+0x11c>
    216c:	00300593          	li	a1,3
    2170:	04b70e63          	beq	a4,a1,21cc <core_bench_matrix+0x10c>
    2174:	00400593          	li	a1,4
    2178:	04b70263          	beq	a4,a1,21bc <core_bench_matrix+0xfc>
    217c:	00500593          	li	a1,5
    2180:	02b70663          	beq	a4,a1,21ac <core_bench_matrix+0xec>
    2184:	00600593          	li	a1,6
    2188:	00b70a63          	beq	a4,a1,219c <core_bench_matrix+0xdc>
    218c:	00065703          	lhu	a4,0(a2)
    2190:	00260793          	addi	a5,a2,2
    2194:	00e48733          	add	a4,s1,a4
    2198:	00e61023          	sh	a4,0(a2)
    219c:	0007d703          	lhu	a4,0(a5)
    21a0:	00278793          	addi	a5,a5,2
    21a4:	00e48733          	add	a4,s1,a4
    21a8:	fee79f23          	sh	a4,-2(a5)
    21ac:	0007d703          	lhu	a4,0(a5)
    21b0:	00278793          	addi	a5,a5,2
    21b4:	00e48733          	add	a4,s1,a4
    21b8:	fee79f23          	sh	a4,-2(a5)
    21bc:	0007d703          	lhu	a4,0(a5)
    21c0:	00278793          	addi	a5,a5,2
    21c4:	00e48733          	add	a4,s1,a4
    21c8:	fee79f23          	sh	a4,-2(a5)
    21cc:	0007d703          	lhu	a4,0(a5)
    21d0:	00278793          	addi	a5,a5,2
    21d4:	00e48733          	add	a4,s1,a4
    21d8:	fee79f23          	sh	a4,-2(a5)
    21dc:	0007d703          	lhu	a4,0(a5)
    21e0:	00278793          	addi	a5,a5,2
    21e4:	00e48733          	add	a4,s1,a4
    21e8:	fee79f23          	sh	a4,-2(a5)
    21ec:	0007d703          	lhu	a4,0(a5)
    21f0:	00278793          	addi	a5,a5,2
    21f4:	00e48733          	add	a4,s1,a4
    21f8:	fee79f23          	sh	a4,-2(a5)
    21fc:	06d78663          	beq	a5,a3,2268 <core_bench_matrix+0x1a8>
    2200:	0007df83          	lhu	t6,0(a5)
    2204:	0027df03          	lhu	t5,2(a5)
    2208:	0047de83          	lhu	t4,4(a5)
    220c:	0067d883          	lhu	a7,6(a5)
    2210:	0087d803          	lhu	a6,8(a5)
    2214:	00a7d503          	lhu	a0,10(a5)
    2218:	00c7d583          	lhu	a1,12(a5)
    221c:	00e7d703          	lhu	a4,14(a5)
    2220:	01f48fb3          	add	t6,s1,t6
    2224:	01e48f33          	add	t5,s1,t5
    2228:	01d48eb3          	add	t4,s1,t4
    222c:	011488b3          	add	a7,s1,a7
    2230:	01048833          	add	a6,s1,a6
    2234:	00a48533          	add	a0,s1,a0
    2238:	00b485b3          	add	a1,s1,a1
    223c:	00e48733          	add	a4,s1,a4
    2240:	01f79023          	sh	t6,0(a5)
    2244:	01e79123          	sh	t5,2(a5)
    2248:	01d79223          	sh	t4,4(a5)
    224c:	01179323          	sh	a7,6(a5)
    2250:	01079423          	sh	a6,8(a5)
    2254:	00a79523          	sh	a0,10(a5)
    2258:	00b79623          	sh	a1,12(a5)
    225c:	00e79723          	sh	a4,14(a5)
    2260:	01078793          	addi	a5,a5,16
    2264:	f8d79ee3          	bne	a5,a3,2200 <core_bench_matrix+0x140>
    2268:	00130313          	addi	t1,t1,1
    226c:	41c606b3          	sub	a3,a2,t3
    2270:	ec6996e3          	bne	s3,t1,213c <core_bench_matrix+0x7c>
    2274:	00412783          	lw	a5,4(sp)
    2278:	00000893          	li	a7,0
    227c:	00000313          	li	t1,0
    2280:	00279e13          	slli	t3,a5,0x2
    2284:	00812783          	lw	a5,8(sp)
    2288:	01278633          	add	a2,a5,s2
    228c:	412605b3          	sub	a1,a2,s2
    2290:	40b60733          	sub	a4,a2,a1
    2294:	ffe70713          	addi	a4,a4,-2
    2298:	00175713          	srli	a4,a4,0x1
    229c:	00170713          	addi	a4,a4,1
    22a0:	00289793          	slli	a5,a7,0x2
    22a4:	00777713          	andi	a4,a4,7
    22a8:	00058693          	mv	a3,a1
    22ac:	00fd87b3          	add	a5,s11,a5
    22b0:	0c070263          	beqz	a4,2374 <core_bench_matrix+0x2b4>
    22b4:	00100513          	li	a0,1
    22b8:	0aa70263          	beq	a4,a0,235c <core_bench_matrix+0x29c>
    22bc:	00200513          	li	a0,2
    22c0:	08a70463          	beq	a4,a0,2348 <core_bench_matrix+0x288>
    22c4:	00300513          	li	a0,3
    22c8:	06a70663          	beq	a4,a0,2334 <core_bench_matrix+0x274>
    22cc:	00400513          	li	a0,4
    22d0:	04a70863          	beq	a4,a0,2320 <core_bench_matrix+0x260>
    22d4:	00500513          	li	a0,5
    22d8:	02a70a63          	beq	a4,a0,230c <core_bench_matrix+0x24c>
    22dc:	00600513          	li	a0,6
    22e0:	00a70c63          	beq	a4,a0,22f8 <core_bench_matrix+0x238>
    22e4:	00059703          	lh	a4,0(a1)
    22e8:	00258693          	addi	a3,a1,2
    22ec:	00478793          	addi	a5,a5,4
    22f0:	02970733          	mul	a4,a4,s1
    22f4:	fee7ae23          	sw	a4,-4(a5)
    22f8:	00069703          	lh	a4,0(a3)
    22fc:	00478793          	addi	a5,a5,4
    2300:	00268693          	addi	a3,a3,2
    2304:	02970733          	mul	a4,a4,s1
    2308:	fee7ae23          	sw	a4,-4(a5)
    230c:	00069703          	lh	a4,0(a3)
    2310:	00478793          	addi	a5,a5,4
    2314:	00268693          	addi	a3,a3,2
    2318:	02970733          	mul	a4,a4,s1
    231c:	fee7ae23          	sw	a4,-4(a5)
    2320:	00069703          	lh	a4,0(a3)
    2324:	00478793          	addi	a5,a5,4
    2328:	00268693          	addi	a3,a3,2
    232c:	02970733          	mul	a4,a4,s1
    2330:	fee7ae23          	sw	a4,-4(a5)
    2334:	00069703          	lh	a4,0(a3)
    2338:	00478793          	addi	a5,a5,4
    233c:	00268693          	addi	a3,a3,2
    2340:	02970733          	mul	a4,a4,s1
    2344:	fee7ae23          	sw	a4,-4(a5)
    2348:	00069703          	lh	a4,0(a3)
    234c:	00478793          	addi	a5,a5,4
    2350:	00268693          	addi	a3,a3,2
    2354:	02970733          	mul	a4,a4,s1
    2358:	fee7ae23          	sw	a4,-4(a5)
    235c:	00069703          	lh	a4,0(a3)
    2360:	00268693          	addi	a3,a3,2
    2364:	00478793          	addi	a5,a5,4
    2368:	02970733          	mul	a4,a4,s1
    236c:	fee7ae23          	sw	a4,-4(a5)
    2370:	06c68863          	beq	a3,a2,23e0 <core_bench_matrix+0x320>
    2374:	00069383          	lh	t2,0(a3)
    2378:	00269283          	lh	t0,2(a3)
    237c:	00469f83          	lh	t6,4(a3)
    2380:	00669f03          	lh	t5,6(a3)
    2384:	00869e83          	lh	t4,8(a3)
    2388:	00a69803          	lh	a6,10(a3)
    238c:	00c69503          	lh	a0,12(a3)
    2390:	00e69703          	lh	a4,14(a3)
    2394:	029383b3          	mul	t2,t2,s1
    2398:	01068693          	addi	a3,a3,16
    239c:	02078793          	addi	a5,a5,32
    23a0:	029282b3          	mul	t0,t0,s1
    23a4:	fe77a023          	sw	t2,-32(a5)
    23a8:	029f8fb3          	mul	t6,t6,s1
    23ac:	fe57a223          	sw	t0,-28(a5)
    23b0:	029f0f33          	mul	t5,t5,s1
    23b4:	fff7a423          	sw	t6,-24(a5)
    23b8:	029e8eb3          	mul	t4,t4,s1
    23bc:	ffe7a623          	sw	t5,-20(a5)
    23c0:	02980833          	mul	a6,a6,s1
    23c4:	ffd7a823          	sw	t4,-16(a5)
    23c8:	02950533          	mul	a0,a0,s1
    23cc:	ff07aa23          	sw	a6,-12(a5)
    23d0:	02970733          	mul	a4,a4,s1
    23d4:	fea7ac23          	sw	a0,-8(a5)
    23d8:	fee7ae23          	sw	a4,-4(a5)
    23dc:	f8c69ce3          	bne	a3,a2,2374 <core_bench_matrix+0x2b4>
    23e0:	00130313          	addi	t1,t1,1
    23e4:	013888b3          	add	a7,a7,s3
    23e8:	41c58633          	sub	a2,a1,t3
    23ec:	ea6990e3          	bne	s3,t1,228c <core_bench_matrix+0x1cc>
    23f0:	00412783          	lw	a5,4(sp)
    23f4:	00299b13          	slli	s6,s3,0x2
    23f8:	00000513          	li	a0,0
    23fc:	00000e13          	li	t3,0
    2400:	00000313          	li	t1,0
    2404:	00000613          	li	a2,0
    2408:	00379813          	slli	a6,a5,0x3
    240c:	016d8733          	add	a4,s11,s6
    2410:	00279593          	slli	a1,a5,0x2
    2414:	00e588b3          	add	a7,a1,a4
    2418:	411707b3          	sub	a5,a4,a7
    241c:	ffc78793          	addi	a5,a5,-4
    2420:	0027d793          	srli	a5,a5,0x2
    2424:	00178793          	addi	a5,a5,1
    2428:	0077f793          	andi	a5,a5,7
    242c:	00088693          	mv	a3,a7
    2430:	620784e3          	beqz	a5,3258 <core_bench_matrix+0x1198>
    2434:	00100e93          	li	t4,1
    2438:	11d78e63          	beq	a5,t4,2554 <core_bench_matrix+0x494>
    243c:	00200e93          	li	t4,2
    2440:	0fd78663          	beq	a5,t4,252c <core_bench_matrix+0x46c>
    2444:	00300e93          	li	t4,3
    2448:	0bd78e63          	beq	a5,t4,2504 <core_bench_matrix+0x444>
    244c:	00400e93          	li	t4,4
    2450:	09d78663          	beq	a5,t4,24dc <core_bench_matrix+0x41c>
    2454:	00500e93          	li	t4,5
    2458:	05d78e63          	beq	a5,t4,24b4 <core_bench_matrix+0x3f4>
    245c:	00600e93          	li	t4,6
    2460:	03d78663          	beq	a5,t4,248c <core_bench_matrix+0x3cc>
    2464:	000e0793          	mv	a5,t3
    2468:	0008ae03          	lw	t3,0(a7)
    246c:	01c30333          	add	t1,t1,t3
    2470:	00645463          	bge	s0,t1,2478 <core_bench_matrix+0x3b8>
    2474:	6400106f          	j	3ab4 <core_bench_matrix+0x19f4>
    2478:	01c7a7b3          	slt	a5,a5,t3
    247c:	00f507b3          	add	a5,a0,a5
    2480:	01079513          	slli	a0,a5,0x10
    2484:	41055513          	srai	a0,a0,0x10
    2488:	00488693          	addi	a3,a7,4
    248c:	000e0793          	mv	a5,t3
    2490:	0006ae03          	lw	t3,0(a3)
    2494:	01c30333          	add	t1,t1,t3
    2498:	00645463          	bge	s0,t1,24a0 <core_bench_matrix+0x3e0>
    249c:	5a00106f          	j	3a3c <core_bench_matrix+0x197c>
    24a0:	01c7a7b3          	slt	a5,a5,t3
    24a4:	00f507b3          	add	a5,a0,a5
    24a8:	01079513          	slli	a0,a5,0x10
    24ac:	41055513          	srai	a0,a0,0x10
    24b0:	00468693          	addi	a3,a3,4
    24b4:	000e0793          	mv	a5,t3
    24b8:	0006ae03          	lw	t3,0(a3)
    24bc:	01c30333          	add	t1,t1,t3
    24c0:	00645463          	bge	s0,t1,24c8 <core_bench_matrix+0x408>
    24c4:	5500106f          	j	3a14 <core_bench_matrix+0x1954>
    24c8:	01c7a7b3          	slt	a5,a5,t3
    24cc:	00f507b3          	add	a5,a0,a5
    24d0:	01079513          	slli	a0,a5,0x10
    24d4:	41055513          	srai	a0,a0,0x10
    24d8:	00468693          	addi	a3,a3,4
    24dc:	000e0793          	mv	a5,t3
    24e0:	0006ae03          	lw	t3,0(a3)
    24e4:	01c30333          	add	t1,t1,t3
    24e8:	00645463          	bge	s0,t1,24f0 <core_bench_matrix+0x430>
    24ec:	4d80106f          	j	39c4 <core_bench_matrix+0x1904>
    24f0:	01c7a7b3          	slt	a5,a5,t3
    24f4:	00f507b3          	add	a5,a0,a5
    24f8:	01079513          	slli	a0,a5,0x10
    24fc:	41055513          	srai	a0,a0,0x10
    2500:	00468693          	addi	a3,a3,4
    2504:	000e0793          	mv	a5,t3
    2508:	0006ae03          	lw	t3,0(a3)
    250c:	01c30333          	add	t1,t1,t3
    2510:	00645463          	bge	s0,t1,2518 <core_bench_matrix+0x458>
    2514:	4380106f          	j	394c <core_bench_matrix+0x188c>
    2518:	01c7a7b3          	slt	a5,a5,t3
    251c:	00f507b3          	add	a5,a0,a5
    2520:	01079513          	slli	a0,a5,0x10
    2524:	41055513          	srai	a0,a0,0x10
    2528:	00468693          	addi	a3,a3,4
    252c:	000e0793          	mv	a5,t3
    2530:	0006ae03          	lw	t3,0(a3)
    2534:	01c30333          	add	t1,t1,t3
    2538:	00645463          	bge	s0,t1,2540 <core_bench_matrix+0x480>
    253c:	3e80106f          	j	3924 <core_bench_matrix+0x1864>
    2540:	01c7a7b3          	slt	a5,a5,t3
    2544:	00f507b3          	add	a5,a0,a5
    2548:	01079513          	slli	a0,a5,0x10
    254c:	41055513          	srai	a0,a0,0x10
    2550:	00468693          	addi	a3,a3,4
    2554:	000e0793          	mv	a5,t3
    2558:	0006ae03          	lw	t3,0(a3)
    255c:	01c30333          	add	t1,t1,t3
    2560:	00645463          	bge	s0,t1,2568 <core_bench_matrix+0x4a8>
    2564:	3340106f          	j	3898 <core_bench_matrix+0x17d8>
    2568:	01c7a7b3          	slt	a5,a5,t3
    256c:	00f507b3          	add	a5,a0,a5
    2570:	01079513          	slli	a0,a5,0x10
    2574:	41055513          	srai	a0,a0,0x10
    2578:	00468693          	addi	a3,a3,4
    257c:	4cd71ee3          	bne	a4,a3,3258 <core_bench_matrix+0x1198>
    2580:	00160613          	addi	a2,a2,1
    2584:	41088733          	sub	a4,a7,a6
    2588:	e8c996e3          	bne	s3,a2,2414 <core_bench_matrix+0x354>
    258c:	00000593          	li	a1,0
    2590:	701050ef          	jal	ra,8490 <crc16>
    2594:	00050793          	mv	a5,a0
    2598:	00000593          	li	a1,0
    259c:	000b0613          	mv	a2,s6
    25a0:	000d8513          	mv	a0,s11
    25a4:	00f12623          	sw	a5,12(sp)
    25a8:	234060ef          	jal	ra,87dc <memset>
    25ac:	00812c83          	lw	s9,8(sp)
    25b0:	00000f93          	li	t6,0
    25b4:	000d8593          	mv	a1,s11
    25b8:	016d8c33          	add	s8,s11,s6
    25bc:	012d02b3          	add	t0,s10,s2
    25c0:	01b12a23          	sw	s11,20(sp)
    25c4:	41a286b3          	sub	a3,t0,s10
    25c8:	ffe68693          	addi	a3,a3,-2
    25cc:	0016d693          	srli	a3,a3,0x1
    25d0:	00168693          	addi	a3,a3,1
    25d4:	001f9793          	slli	a5,t6,0x1
    25d8:	0076f693          	andi	a3,a3,7
    25dc:	000d0613          	mv	a2,s10
    25e0:	00000713          	li	a4,0
    25e4:	00fc87b3          	add	a5,s9,a5
    25e8:	0c068e63          	beqz	a3,26c4 <core_bench_matrix+0x604>
    25ec:	00100513          	li	a0,1
    25f0:	0aa68c63          	beq	a3,a0,26a8 <core_bench_matrix+0x5e8>
    25f4:	00200513          	li	a0,2
    25f8:	08a68c63          	beq	a3,a0,2690 <core_bench_matrix+0x5d0>
    25fc:	00300513          	li	a0,3
    2600:	06a68c63          	beq	a3,a0,2678 <core_bench_matrix+0x5b8>
    2604:	00400513          	li	a0,4
    2608:	04a68c63          	beq	a3,a0,2660 <core_bench_matrix+0x5a0>
    260c:	00500513          	li	a0,5
    2610:	02a68c63          	beq	a3,a0,2648 <core_bench_matrix+0x588>
    2614:	00600513          	li	a0,6
    2618:	00a68c63          	beq	a3,a0,2630 <core_bench_matrix+0x570>
    261c:	00079703          	lh	a4,0(a5)
    2620:	000d1683          	lh	a3,0(s10) # 1000 <core_list_init+0x370>
    2624:	00278793          	addi	a5,a5,2
    2628:	002d0613          	addi	a2,s10,2
    262c:	02d70733          	mul	a4,a4,a3
    2630:	00079683          	lh	a3,0(a5)
    2634:	00061503          	lh	a0,0(a2)
    2638:	00278793          	addi	a5,a5,2
    263c:	00260613          	addi	a2,a2,2
    2640:	02a686b3          	mul	a3,a3,a0
    2644:	00d70733          	add	a4,a4,a3
    2648:	00079683          	lh	a3,0(a5)
    264c:	00061503          	lh	a0,0(a2)
    2650:	00278793          	addi	a5,a5,2
    2654:	00260613          	addi	a2,a2,2
    2658:	02a686b3          	mul	a3,a3,a0
    265c:	00d70733          	add	a4,a4,a3
    2660:	00079683          	lh	a3,0(a5)
    2664:	00061503          	lh	a0,0(a2)
    2668:	00278793          	addi	a5,a5,2
    266c:	00260613          	addi	a2,a2,2
    2670:	02a686b3          	mul	a3,a3,a0
    2674:	00d70733          	add	a4,a4,a3
    2678:	00079683          	lh	a3,0(a5)
    267c:	00061503          	lh	a0,0(a2)
    2680:	00278793          	addi	a5,a5,2
    2684:	00260613          	addi	a2,a2,2
    2688:	02a686b3          	mul	a3,a3,a0
    268c:	00d70733          	add	a4,a4,a3
    2690:	00079683          	lh	a3,0(a5)
    2694:	00061503          	lh	a0,0(a2)
    2698:	00278793          	addi	a5,a5,2
    269c:	00260613          	addi	a2,a2,2
    26a0:	02a686b3          	mul	a3,a3,a0
    26a4:	00d70733          	add	a4,a4,a3
    26a8:	00079683          	lh	a3,0(a5)
    26ac:	00061503          	lh	a0,0(a2)
    26b0:	00260613          	addi	a2,a2,2
    26b4:	00278793          	addi	a5,a5,2
    26b8:	02a686b3          	mul	a3,a3,a0
    26bc:	00d70733          	add	a4,a4,a3
    26c0:	08c28863          	beq	t0,a2,2750 <core_bench_matrix+0x690>
    26c4:	00061503          	lh	a0,0(a2)
    26c8:	00079683          	lh	a3,0(a5)
    26cc:	00261e03          	lh	t3,2(a2)
    26d0:	00279b83          	lh	s7,2(a5)
    26d4:	02a686b3          	mul	a3,a3,a0
    26d8:	00479083          	lh	ra,4(a5)
    26dc:	00461d83          	lh	s11,4(a2)
    26e0:	00679f03          	lh	t5,6(a5)
    26e4:	00661a83          	lh	s5,6(a2)
    26e8:	00879303          	lh	t1,8(a5)
    26ec:	00861a03          	lh	s4,8(a2)
    26f0:	00a79883          	lh	a7,10(a5)
    26f4:	00a61383          	lh	t2,10(a2)
    26f8:	00c79803          	lh	a6,12(a5)
    26fc:	03cb8bb3          	mul	s7,s7,t3
    2700:	00d70733          	add	a4,a4,a3
    2704:	00c61e83          	lh	t4,12(a2)
    2708:	00e79503          	lh	a0,14(a5)
    270c:	00e61e03          	lh	t3,14(a2)
    2710:	01060613          	addi	a2,a2,16
    2714:	01078793          	addi	a5,a5,16
    2718:	03b080b3          	mul	ra,ra,s11
    271c:	01770733          	add	a4,a4,s7
    2720:	035f06b3          	mul	a3,t5,s5
    2724:	00170733          	add	a4,a4,ra
    2728:	03430333          	mul	t1,t1,s4
    272c:	00d70733          	add	a4,a4,a3
    2730:	027886b3          	mul	a3,a7,t2
    2734:	00670733          	add	a4,a4,t1
    2738:	03d80833          	mul	a6,a6,t4
    273c:	00d70733          	add	a4,a4,a3
    2740:	03c506b3          	mul	a3,a0,t3
    2744:	01070733          	add	a4,a4,a6
    2748:	00d70733          	add	a4,a4,a3
    274c:	f6c29ce3          	bne	t0,a2,26c4 <core_bench_matrix+0x604>
    2750:	00e5a023          	sw	a4,0(a1)
    2754:	00458593          	addi	a1,a1,4
    2758:	013f8fb3          	add	t6,t6,s3
    275c:	e6bc14e3          	bne	s8,a1,25c4 <core_bench_matrix+0x504>
    2760:	00412783          	lw	a5,4(sp)
    2764:	01412d83          	lw	s11,20(sp)
    2768:	00000513          	li	a0,0
    276c:	00000e13          	li	t3,0
    2770:	00000313          	li	t1,0
    2774:	00000613          	li	a2,0
    2778:	00379813          	slli	a6,a5,0x3
    277c:	016d8733          	add	a4,s11,s6
    2780:	00279593          	slli	a1,a5,0x2
    2784:	00e588b3          	add	a7,a1,a4
    2788:	411707b3          	sub	a5,a4,a7
    278c:	ffc78793          	addi	a5,a5,-4
    2790:	0027d793          	srli	a5,a5,0x2
    2794:	00178793          	addi	a5,a5,1
    2798:	0077f793          	andi	a5,a5,7
    279c:	00088693          	mv	a3,a7
    27a0:	480780e3          	beqz	a5,3420 <core_bench_matrix+0x1360>
    27a4:	00100e93          	li	t4,1
    27a8:	11d78e63          	beq	a5,t4,28c4 <core_bench_matrix+0x804>
    27ac:	00200e93          	li	t4,2
    27b0:	0fd78663          	beq	a5,t4,289c <core_bench_matrix+0x7dc>
    27b4:	00300e93          	li	t4,3
    27b8:	0bd78e63          	beq	a5,t4,2874 <core_bench_matrix+0x7b4>
    27bc:	00400e93          	li	t4,4
    27c0:	09d78663          	beq	a5,t4,284c <core_bench_matrix+0x78c>
    27c4:	00500e93          	li	t4,5
    27c8:	05d78e63          	beq	a5,t4,2824 <core_bench_matrix+0x764>
    27cc:	00600e93          	li	t4,6
    27d0:	03d78663          	beq	a5,t4,27fc <core_bench_matrix+0x73c>
    27d4:	000e0793          	mv	a5,t3
    27d8:	0008ae03          	lw	t3,0(a7)
    27dc:	01c30333          	add	t1,t1,t3
    27e0:	00645463          	bge	s0,t1,27e8 <core_bench_matrix+0x728>
    27e4:	2a80106f          	j	3a8c <core_bench_matrix+0x19cc>
    27e8:	01c7a7b3          	slt	a5,a5,t3
    27ec:	00f507b3          	add	a5,a0,a5
    27f0:	01079513          	slli	a0,a5,0x10
    27f4:	41055513          	srai	a0,a0,0x10
    27f8:	00488693          	addi	a3,a7,4
    27fc:	000e0793          	mv	a5,t3
    2800:	0006ae03          	lw	t3,0(a3)
    2804:	01c30333          	add	t1,t1,t3
    2808:	00645463          	bge	s0,t1,2810 <core_bench_matrix+0x750>
    280c:	2580106f          	j	3a64 <core_bench_matrix+0x19a4>
    2810:	01c7a7b3          	slt	a5,a5,t3
    2814:	00f507b3          	add	a5,a0,a5
    2818:	01079513          	slli	a0,a5,0x10
    281c:	41055513          	srai	a0,a0,0x10
    2820:	00468693          	addi	a3,a3,4
    2824:	000e0793          	mv	a5,t3
    2828:	0006ae03          	lw	t3,0(a3)
    282c:	01c30333          	add	t1,t1,t3
    2830:	00645463          	bge	s0,t1,2838 <core_bench_matrix+0x778>
    2834:	1cc0106f          	j	3a00 <core_bench_matrix+0x1940>
    2838:	01c7a7b3          	slt	a5,a5,t3
    283c:	00f507b3          	add	a5,a0,a5
    2840:	01079513          	slli	a0,a5,0x10
    2844:	41055513          	srai	a0,a0,0x10
    2848:	00468693          	addi	a3,a3,4
    284c:	000e0793          	mv	a5,t3
    2850:	0006ae03          	lw	t3,0(a3)
    2854:	01c30333          	add	t1,t1,t3
    2858:	00645463          	bge	s0,t1,2860 <core_bench_matrix+0x7a0>
    285c:	1540106f          	j	39b0 <core_bench_matrix+0x18f0>
    2860:	01c7a7b3          	slt	a5,a5,t3
    2864:	00f507b3          	add	a5,a0,a5
    2868:	01079513          	slli	a0,a5,0x10
    286c:	41055513          	srai	a0,a0,0x10
    2870:	00468693          	addi	a3,a3,4
    2874:	000e0793          	mv	a5,t3
    2878:	0006ae03          	lw	t3,0(a3)
    287c:	01c30333          	add	t1,t1,t3
    2880:	00645463          	bge	s0,t1,2888 <core_bench_matrix+0x7c8>
    2884:	0b40106f          	j	3938 <core_bench_matrix+0x1878>
    2888:	01c7a7b3          	slt	a5,a5,t3
    288c:	00f507b3          	add	a5,a0,a5
    2890:	01079513          	slli	a0,a5,0x10
    2894:	41055513          	srai	a0,a0,0x10
    2898:	00468693          	addi	a3,a3,4
    289c:	000e0793          	mv	a5,t3
    28a0:	0006ae03          	lw	t3,0(a3)
    28a4:	01c30333          	add	t1,t1,t3
    28a8:	00645463          	bge	s0,t1,28b0 <core_bench_matrix+0x7f0>
    28ac:	0640106f          	j	3910 <core_bench_matrix+0x1850>
    28b0:	01c7a7b3          	slt	a5,a5,t3
    28b4:	00f507b3          	add	a5,a0,a5
    28b8:	01079513          	slli	a0,a5,0x10
    28bc:	41055513          	srai	a0,a0,0x10
    28c0:	00468693          	addi	a3,a3,4
    28c4:	000e0793          	mv	a5,t3
    28c8:	0006ae03          	lw	t3,0(a3)
    28cc:	01c30333          	add	t1,t1,t3
    28d0:	7c644ee3          	blt	s0,t1,38ac <core_bench_matrix+0x17ec>
    28d4:	01c7a7b3          	slt	a5,a5,t3
    28d8:	00f507b3          	add	a5,a0,a5
    28dc:	01079513          	slli	a0,a5,0x10
    28e0:	41055513          	srai	a0,a0,0x10
    28e4:	00468693          	addi	a3,a3,4
    28e8:	32d71ce3          	bne	a4,a3,3420 <core_bench_matrix+0x1360>
    28ec:	00160613          	addi	a2,a2,1
    28f0:	41088733          	sub	a4,a7,a6
    28f4:	e8c998e3          	bne	s3,a2,2784 <core_bench_matrix+0x6c4>
    28f8:	00c12583          	lw	a1,12(sp)
    28fc:	00000b93          	li	s7,0
    2900:	391050ef          	jal	ra,8490 <crc16>
    2904:	00812783          	lw	a5,8(sp)
    2908:	00a12623          	sw	a0,12(sp)
    290c:	000d8893          	mv	a7,s11
    2910:	00078a13          	mv	s4,a5
    2914:	01278ab3          	add	s5,a5,s2
    2918:	01b12a23          	sw	s11,20(sp)
    291c:	00812c23          	sw	s0,24(sp)
    2920:	00912e23          	sw	s1,28(sp)
    2924:	00000593          	li	a1,0
    2928:	00088513          	mv	a0,a7
    292c:	000b0613          	mv	a2,s6
    2930:	6ad050ef          	jal	ra,87dc <memset>
    2934:	00050893          	mv	a7,a0
    2938:	00050813          	mv	a6,a0
    293c:	000d0593          	mv	a1,s10
    2940:	00000513          	li	a0,0
    2944:	414a87b3          	sub	a5,s5,s4
    2948:	ffe78793          	addi	a5,a5,-2
    294c:	0017d793          	srli	a5,a5,0x1
    2950:	00178793          	addi	a5,a5,1
    2954:	0077f793          	andi	a5,a5,7
    2958:	00058713          	mv	a4,a1
    295c:	000a0693          	mv	a3,s4
    2960:	00000613          	li	a2,0
    2964:	0c078e63          	beqz	a5,2a40 <core_bench_matrix+0x980>
    2968:	00100313          	li	t1,1
    296c:	0a678c63          	beq	a5,t1,2a24 <core_bench_matrix+0x964>
    2970:	00200313          	li	t1,2
    2974:	08678c63          	beq	a5,t1,2a0c <core_bench_matrix+0x94c>
    2978:	00300313          	li	t1,3
    297c:	06678c63          	beq	a5,t1,29f4 <core_bench_matrix+0x934>
    2980:	00400313          	li	t1,4
    2984:	04678c63          	beq	a5,t1,29dc <core_bench_matrix+0x91c>
    2988:	00500313          	li	t1,5
    298c:	02678c63          	beq	a5,t1,29c4 <core_bench_matrix+0x904>
    2990:	00600313          	li	t1,6
    2994:	00678c63          	beq	a5,t1,29ac <core_bench_matrix+0x8ec>
    2998:	000a1603          	lh	a2,0(s4)
    299c:	00059783          	lh	a5,0(a1)
    29a0:	002a0693          	addi	a3,s4,2
    29a4:	01258733          	add	a4,a1,s2
    29a8:	02f60633          	mul	a2,a2,a5
    29ac:	00069783          	lh	a5,0(a3)
    29b0:	00071303          	lh	t1,0(a4)
    29b4:	00268693          	addi	a3,a3,2
    29b8:	01270733          	add	a4,a4,s2
    29bc:	026787b3          	mul	a5,a5,t1
    29c0:	00f60633          	add	a2,a2,a5
    29c4:	00069783          	lh	a5,0(a3)
    29c8:	00071303          	lh	t1,0(a4)
    29cc:	00268693          	addi	a3,a3,2
    29d0:	01270733          	add	a4,a4,s2
    29d4:	026787b3          	mul	a5,a5,t1
    29d8:	00f60633          	add	a2,a2,a5
    29dc:	00069783          	lh	a5,0(a3)
    29e0:	00071303          	lh	t1,0(a4)
    29e4:	00268693          	addi	a3,a3,2
    29e8:	01270733          	add	a4,a4,s2
    29ec:	026787b3          	mul	a5,a5,t1
    29f0:	00f60633          	add	a2,a2,a5
    29f4:	00069783          	lh	a5,0(a3)
    29f8:	00071303          	lh	t1,0(a4)
    29fc:	00268693          	addi	a3,a3,2
    2a00:	01270733          	add	a4,a4,s2
    2a04:	026787b3          	mul	a5,a5,t1
    2a08:	00f60633          	add	a2,a2,a5
    2a0c:	00069783          	lh	a5,0(a3)
    2a10:	00071303          	lh	t1,0(a4)
    2a14:	00268693          	addi	a3,a3,2
    2a18:	01270733          	add	a4,a4,s2
    2a1c:	026787b3          	mul	a5,a5,t1
    2a20:	00f60633          	add	a2,a2,a5
    2a24:	00069783          	lh	a5,0(a3)
    2a28:	00071303          	lh	t1,0(a4)
    2a2c:	00268693          	addi	a3,a3,2
    2a30:	01270733          	add	a4,a4,s2
    2a34:	026787b3          	mul	a5,a5,t1
    2a38:	00f60633          	add	a2,a2,a5
    2a3c:	0ada8663          	beq	s5,a3,2ae8 <core_bench_matrix+0xa28>
    2a40:	00071303          	lh	t1,0(a4)
    2a44:	00069d83          	lh	s11,0(a3)
    2a48:	01270733          	add	a4,a4,s2
    2a4c:	00071783          	lh	a5,0(a4)
    2a50:	00269283          	lh	t0,2(a3)
    2a54:	01270733          	add	a4,a4,s2
    2a58:	00469f83          	lh	t6,4(a3)
    2a5c:	00071c83          	lh	s9,0(a4)
    2a60:	01270733          	add	a4,a4,s2
    2a64:	026d8db3          	mul	s11,s11,t1
    2a68:	00669f03          	lh	t5,6(a3)
    2a6c:	00071c03          	lh	s8,0(a4)
    2a70:	01270733          	add	a4,a4,s2
    2a74:	00869e83          	lh	t4,8(a3)
    2a78:	00071483          	lh	s1,0(a4)
    2a7c:	01270733          	add	a4,a4,s2
    2a80:	00a69e03          	lh	t3,10(a3)
    2a84:	00071403          	lh	s0,0(a4)
    2a88:	01270733          	add	a4,a4,s2
    2a8c:	02f282b3          	mul	t0,t0,a5
    2a90:	00c69303          	lh	t1,12(a3)
    2a94:	00071083          	lh	ra,0(a4)
    2a98:	01270733          	add	a4,a4,s2
    2a9c:	00e69783          	lh	a5,14(a3)
    2aa0:	00071383          	lh	t2,0(a4)
    2aa4:	01b60633          	add	a2,a2,s11
    2aa8:	01068693          	addi	a3,a3,16
    2aac:	01270733          	add	a4,a4,s2
    2ab0:	039f8fb3          	mul	t6,t6,s9
    2ab4:	00560633          	add	a2,a2,t0
    2ab8:	038f0f33          	mul	t5,t5,s8
    2abc:	01f60633          	add	a2,a2,t6
    2ac0:	029e8eb3          	mul	t4,t4,s1
    2ac4:	01e60633          	add	a2,a2,t5
    2ac8:	028e0e33          	mul	t3,t3,s0
    2acc:	01d60633          	add	a2,a2,t4
    2ad0:	02130333          	mul	t1,t1,ra
    2ad4:	01c60633          	add	a2,a2,t3
    2ad8:	027787b3          	mul	a5,a5,t2
    2adc:	00660633          	add	a2,a2,t1
    2ae0:	00f60633          	add	a2,a2,a5
    2ae4:	f4da9ee3          	bne	s5,a3,2a40 <core_bench_matrix+0x980>
    2ae8:	00c82023          	sw	a2,0(a6)
    2aec:	00150513          	addi	a0,a0,1
    2af0:	00480813          	addi	a6,a6,4
    2af4:	00258593          	addi	a1,a1,2
    2af8:	e4a996e3          	bne	s3,a0,2944 <core_bench_matrix+0x884>
    2afc:	001b8b93          	addi	s7,s7,1 # 20001 <__CTOR_LIST__+0x1>
    2b00:	016888b3          	add	a7,a7,s6
    2b04:	012a0a33          	add	s4,s4,s2
    2b08:	012a8ab3          	add	s5,s5,s2
    2b0c:	e1799ce3          	bne	s3,s7,2924 <core_bench_matrix+0x864>
    2b10:	00412783          	lw	a5,4(sp)
    2b14:	01412d83          	lw	s11,20(sp)
    2b18:	01812403          	lw	s0,24(sp)
    2b1c:	01c12483          	lw	s1,28(sp)
    2b20:	00000513          	li	a0,0
    2b24:	00000e13          	li	t3,0
    2b28:	00000313          	li	t1,0
    2b2c:	00000613          	li	a2,0
    2b30:	00379813          	slli	a6,a5,0x3
    2b34:	016d8733          	add	a4,s11,s6
    2b38:	00279593          	slli	a1,a5,0x2
    2b3c:	00e588b3          	add	a7,a1,a4
    2b40:	411707b3          	sub	a5,a4,a7
    2b44:	ffc78793          	addi	a5,a5,-4
    2b48:	0027d793          	srli	a5,a5,0x2
    2b4c:	00178793          	addi	a5,a5,1
    2b50:	0077f793          	andi	a5,a5,7
    2b54:	00088693          	mv	a3,a7
    2b58:	280788e3          	beqz	a5,35e8 <core_bench_matrix+0x1528>
    2b5c:	00100e93          	li	t4,1
    2b60:	11d78263          	beq	a5,t4,2c64 <core_bench_matrix+0xba4>
    2b64:	00200e93          	li	t4,2
    2b68:	0dd78c63          	beq	a5,t4,2c40 <core_bench_matrix+0xb80>
    2b6c:	00300e93          	li	t4,3
    2b70:	0bd78663          	beq	a5,t4,2c1c <core_bench_matrix+0xb5c>
    2b74:	00400e93          	li	t4,4
    2b78:	09d78063          	beq	a5,t4,2bf8 <core_bench_matrix+0xb38>
    2b7c:	00500e93          	li	t4,5
    2b80:	05d78a63          	beq	a5,t4,2bd4 <core_bench_matrix+0xb14>
    2b84:	00600e93          	li	t4,6
    2b88:	03d78463          	beq	a5,t4,2bb0 <core_bench_matrix+0xaf0>
    2b8c:	000e0793          	mv	a5,t3
    2b90:	0008ae03          	lw	t3,0(a7)
    2b94:	01c30333          	add	t1,t1,t3
    2b98:	706444e3          	blt	s0,t1,3aa0 <core_bench_matrix+0x19e0>
    2b9c:	01c7a7b3          	slt	a5,a5,t3
    2ba0:	00f507b3          	add	a5,a0,a5
    2ba4:	01079513          	slli	a0,a5,0x10
    2ba8:	41055513          	srai	a0,a0,0x10
    2bac:	00488693          	addi	a3,a7,4
    2bb0:	000e0793          	mv	a5,t3
    2bb4:	0006ae03          	lw	t3,0(a3)
    2bb8:	01c30333          	add	t1,t1,t3
    2bbc:	666446e3          	blt	s0,t1,3a28 <core_bench_matrix+0x1968>
    2bc0:	01c7a7b3          	slt	a5,a5,t3
    2bc4:	00f507b3          	add	a5,a0,a5
    2bc8:	01079513          	slli	a0,a5,0x10
    2bcc:	41055513          	srai	a0,a0,0x10
    2bd0:	00468693          	addi	a3,a3,4
    2bd4:	000e0793          	mv	a5,t3
    2bd8:	0006ae03          	lw	t3,0(a3)
    2bdc:	01c30333          	add	t1,t1,t3
    2be0:	606446e3          	blt	s0,t1,39ec <core_bench_matrix+0x192c>
    2be4:	01c7a7b3          	slt	a5,a5,t3
    2be8:	00f507b3          	add	a5,a0,a5
    2bec:	01079513          	slli	a0,a5,0x10
    2bf0:	41055513          	srai	a0,a0,0x10
    2bf4:	00468693          	addi	a3,a3,4
    2bf8:	000e0793          	mv	a5,t3
    2bfc:	0006ae03          	lw	t3,0(a3)
    2c00:	01c30333          	add	t1,t1,t3
    2c04:	58644ce3          	blt	s0,t1,399c <core_bench_matrix+0x18dc>
    2c08:	01c7a7b3          	slt	a5,a5,t3
    2c0c:	00f507b3          	add	a5,a0,a5
    2c10:	01079513          	slli	a0,a5,0x10
    2c14:	41055513          	srai	a0,a0,0x10
    2c18:	00468693          	addi	a3,a3,4
    2c1c:	000e0793          	mv	a5,t3
    2c20:	0006ae03          	lw	t3,0(a3)
    2c24:	01c30333          	add	t1,t1,t3
    2c28:	546446e3          	blt	s0,t1,3974 <core_bench_matrix+0x18b4>
    2c2c:	01c7a7b3          	slt	a5,a5,t3
    2c30:	00f507b3          	add	a5,a0,a5
    2c34:	01079513          	slli	a0,a5,0x10
    2c38:	41055513          	srai	a0,a0,0x10
    2c3c:	00468693          	addi	a3,a3,4
    2c40:	000e0793          	mv	a5,t3
    2c44:	0006ae03          	lw	t3,0(a3)
    2c48:	01c30333          	add	t1,t1,t3
    2c4c:	4a6448e3          	blt	s0,t1,38fc <core_bench_matrix+0x183c>
    2c50:	01c7a7b3          	slt	a5,a5,t3
    2c54:	00f507b3          	add	a5,a0,a5
    2c58:	01079513          	slli	a0,a5,0x10
    2c5c:	41055513          	srai	a0,a0,0x10
    2c60:	00468693          	addi	a3,a3,4
    2c64:	000e0793          	mv	a5,t3
    2c68:	0006ae03          	lw	t3,0(a3)
    2c6c:	01c30333          	add	t1,t1,t3
    2c70:	466442e3          	blt	s0,t1,38d4 <core_bench_matrix+0x1814>
    2c74:	01c7a7b3          	slt	a5,a5,t3
    2c78:	00f507b3          	add	a5,a0,a5
    2c7c:	01079513          	slli	a0,a5,0x10
    2c80:	41055513          	srai	a0,a0,0x10
    2c84:	00468693          	addi	a3,a3,4
    2c88:	16d710e3          	bne	a4,a3,35e8 <core_bench_matrix+0x1528>
    2c8c:	00160613          	addi	a2,a2,1
    2c90:	41088733          	sub	a4,a7,a6
    2c94:	eac994e3          	bne	s3,a2,2b3c <core_bench_matrix+0xa7c>
    2c98:	00c12583          	lw	a1,12(sp)
    2c9c:	00000c13          	li	s8,0
    2ca0:	7f0050ef          	jal	ra,8490 <crc16>
    2ca4:	00812783          	lw	a5,8(sp)
    2ca8:	00050a13          	mv	s4,a0
    2cac:	000d8813          	mv	a6,s11
    2cb0:	00078a93          	mv	s5,a5
    2cb4:	01278bb3          	add	s7,a5,s2
    2cb8:	00080513          	mv	a0,a6
    2cbc:	000b0613          	mv	a2,s6
    2cc0:	00000593          	li	a1,0
    2cc4:	319050ef          	jal	ra,87dc <memset>
    2cc8:	00050813          	mv	a6,a0
    2ccc:	00050313          	mv	t1,a0
    2cd0:	00000893          	li	a7,0
    2cd4:	000d0513          	mv	a0,s10
    2cd8:	415b87b3          	sub	a5,s7,s5
    2cdc:	ffe78793          	addi	a5,a5,-2
    2ce0:	0017d793          	srli	a5,a5,0x1
    2ce4:	00178793          	addi	a5,a5,1
    2ce8:	0037f793          	andi	a5,a5,3
    2cec:	00050693          	mv	a3,a0
    2cf0:	000a8593          	mv	a1,s5
    2cf4:	00000713          	li	a4,0
    2cf8:	08078c63          	beqz	a5,2d90 <core_bench_matrix+0xcd0>
    2cfc:	00100613          	li	a2,1
    2d00:	06c78063          	beq	a5,a2,2d60 <core_bench_matrix+0xca0>
    2d04:	00200613          	li	a2,2
    2d08:	02c78663          	beq	a5,a2,2d34 <core_bench_matrix+0xc74>
    2d0c:	00051703          	lh	a4,0(a0)
    2d10:	000a9783          	lh	a5,0(s5)
    2d14:	002a8593          	addi	a1,s5,2
    2d18:	012506b3          	add	a3,a0,s2
    2d1c:	02e787b3          	mul	a5,a5,a4
    2d20:	4027d713          	srai	a4,a5,0x2
    2d24:	4057d793          	srai	a5,a5,0x5
    2d28:	00f77713          	andi	a4,a4,15
    2d2c:	07f7f793          	andi	a5,a5,127
    2d30:	02f70733          	mul	a4,a4,a5
    2d34:	00069603          	lh	a2,0(a3)
    2d38:	00059783          	lh	a5,0(a1)
    2d3c:	012686b3          	add	a3,a3,s2
    2d40:	00258593          	addi	a1,a1,2
    2d44:	02c787b3          	mul	a5,a5,a2
    2d48:	4027d613          	srai	a2,a5,0x2
    2d4c:	4057d793          	srai	a5,a5,0x5
    2d50:	00f67613          	andi	a2,a2,15
    2d54:	07f7f793          	andi	a5,a5,127
    2d58:	02f607b3          	mul	a5,a2,a5
    2d5c:	00f70733          	add	a4,a4,a5
    2d60:	00069603          	lh	a2,0(a3)
    2d64:	00059783          	lh	a5,0(a1)
    2d68:	00258593          	addi	a1,a1,2
    2d6c:	012686b3          	add	a3,a3,s2
    2d70:	02c787b3          	mul	a5,a5,a2
    2d74:	4027d613          	srai	a2,a5,0x2
    2d78:	4057d793          	srai	a5,a5,0x5
    2d7c:	00f67613          	andi	a2,a2,15
    2d80:	07f7f793          	andi	a5,a5,127
    2d84:	02f607b3          	mul	a5,a2,a5
    2d88:	00f70733          	add	a4,a4,a5
    2d8c:	0abb8663          	beq	s7,a1,2e38 <core_bench_matrix+0xd78>
    2d90:	00069603          	lh	a2,0(a3)
    2d94:	00059783          	lh	a5,0(a1)
    2d98:	012686b3          	add	a3,a3,s2
    2d9c:	00259f83          	lh	t6,2(a1)
    2da0:	02c787b3          	mul	a5,a5,a2
    2da4:	00069e03          	lh	t3,0(a3)
    2da8:	012686b3          	add	a3,a3,s2
    2dac:	00459f03          	lh	t5,4(a1)
    2db0:	00069e83          	lh	t4,0(a3)
    2db4:	012686b3          	add	a3,a3,s2
    2db8:	00659283          	lh	t0,6(a1)
    2dbc:	00069603          	lh	a2,0(a3)
    2dc0:	00858593          	addi	a1,a1,8
    2dc4:	012686b3          	add	a3,a3,s2
    2dc8:	03cf8e33          	mul	t3,t6,t3
    2dcc:	4027df93          	srai	t6,a5,0x2
    2dd0:	4057d793          	srai	a5,a5,0x5
    2dd4:	00ffff93          	andi	t6,t6,15
    2dd8:	07f7f793          	andi	a5,a5,127
    2ddc:	03df0eb3          	mul	t4,t5,t4
    2de0:	402e5393          	srai	t2,t3,0x2
    2de4:	405e5e13          	srai	t3,t3,0x5
    2de8:	07fe7f13          	andi	t5,t3,127
    2dec:	00f3f393          	andi	t2,t2,15
    2df0:	02c28633          	mul	a2,t0,a2
    2df4:	405ede13          	srai	t3,t4,0x5
    2df8:	402ed293          	srai	t0,t4,0x2
    2dfc:	00f2fe93          	andi	t4,t0,15
    2e00:	07fe7e13          	andi	t3,t3,127
    2e04:	02ff87b3          	mul	a5,t6,a5
    2e08:	40265f93          	srai	t6,a2,0x2
    2e0c:	40565613          	srai	a2,a2,0x5
    2e10:	00ffff93          	andi	t6,t6,15
    2e14:	07f67613          	andi	a2,a2,127
    2e18:	03e383b3          	mul	t2,t2,t5
    2e1c:	00f707b3          	add	a5,a4,a5
    2e20:	03ce8eb3          	mul	t4,t4,t3
    2e24:	007787b3          	add	a5,a5,t2
    2e28:	02cf8733          	mul	a4,t6,a2
    2e2c:	01d787b3          	add	a5,a5,t4
    2e30:	00e78733          	add	a4,a5,a4
    2e34:	f4bb9ee3          	bne	s7,a1,2d90 <core_bench_matrix+0xcd0>
    2e38:	00e32023          	sw	a4,0(t1)
    2e3c:	00188893          	addi	a7,a7,1
    2e40:	00430313          	addi	t1,t1,4
    2e44:	00250513          	addi	a0,a0,2
    2e48:	e91998e3          	bne	s3,a7,2cd8 <core_bench_matrix+0xc18>
    2e4c:	001c0c13          	addi	s8,s8,1
    2e50:	01680833          	add	a6,a6,s6
    2e54:	012a8ab3          	add	s5,s5,s2
    2e58:	012b8bb3          	add	s7,s7,s2
    2e5c:	e5899ee3          	bne	s3,s8,2cb8 <core_bench_matrix+0xbf8>
    2e60:	00412783          	lw	a5,4(sp)
    2e64:	00000513          	li	a0,0
    2e68:	00000313          	li	t1,0
    2e6c:	00000893          	li	a7,0
    2e70:	00000713          	li	a4,0
    2e74:	00379693          	slli	a3,a5,0x3
    2e78:	016d8b33          	add	s6,s11,s6
    2e7c:	00279593          	slli	a1,a5,0x2
    2e80:	01658833          	add	a6,a1,s6
    2e84:	410b07b3          	sub	a5,s6,a6
    2e88:	ffc78793          	addi	a5,a5,-4
    2e8c:	0027d793          	srli	a5,a5,0x2
    2e90:	00178793          	addi	a5,a5,1
    2e94:	0077f793          	andi	a5,a5,7
    2e98:	00080613          	mv	a2,a6
    2e9c:	10078ae3          	beqz	a5,37b0 <core_bench_matrix+0x16f0>
    2ea0:	00100e13          	li	t3,1
    2ea4:	11c78263          	beq	a5,t3,2fa8 <core_bench_matrix+0xee8>
    2ea8:	00200e13          	li	t3,2
    2eac:	0dc78c63          	beq	a5,t3,2f84 <core_bench_matrix+0xec4>
    2eb0:	00300e13          	li	t3,3
    2eb4:	0bc78663          	beq	a5,t3,2f60 <core_bench_matrix+0xea0>
    2eb8:	00400e13          	li	t3,4
    2ebc:	09c78063          	beq	a5,t3,2f3c <core_bench_matrix+0xe7c>
    2ec0:	00500e13          	li	t3,5
    2ec4:	05c78a63          	beq	a5,t3,2f18 <core_bench_matrix+0xe58>
    2ec8:	00600e13          	li	t3,6
    2ecc:	03c78463          	beq	a5,t3,2ef4 <core_bench_matrix+0xe34>
    2ed0:	00030793          	mv	a5,t1
    2ed4:	00082303          	lw	t1,0(a6)
    2ed8:	006888b3          	add	a7,a7,t1
    2edc:	39144ee3          	blt	s0,a7,3a78 <core_bench_matrix+0x19b8>
    2ee0:	0067a7b3          	slt	a5,a5,t1
    2ee4:	00f507b3          	add	a5,a0,a5
    2ee8:	01079513          	slli	a0,a5,0x10
    2eec:	41055513          	srai	a0,a0,0x10
    2ef0:	00480613          	addi	a2,a6,4
    2ef4:	00030793          	mv	a5,t1
    2ef8:	00062303          	lw	t1,0(a2)
    2efc:	006888b3          	add	a7,a7,t1
    2f00:	351448e3          	blt	s0,a7,3a50 <core_bench_matrix+0x1990>
    2f04:	0067a7b3          	slt	a5,a5,t1
    2f08:	00f507b3          	add	a5,a0,a5
    2f0c:	01079513          	slli	a0,a5,0x10
    2f10:	41055513          	srai	a0,a0,0x10
    2f14:	00460613          	addi	a2,a2,4
    2f18:	00030793          	mv	a5,t1
    2f1c:	00062303          	lw	t1,0(a2)
    2f20:	006888b3          	add	a7,a7,t1
    2f24:	2b144ae3          	blt	s0,a7,39d8 <core_bench_matrix+0x1918>
    2f28:	0067a7b3          	slt	a5,a5,t1
    2f2c:	00f507b3          	add	a5,a0,a5
    2f30:	01079513          	slli	a0,a5,0x10
    2f34:	41055513          	srai	a0,a0,0x10
    2f38:	00460613          	addi	a2,a2,4
    2f3c:	00030793          	mv	a5,t1
    2f40:	00062303          	lw	t1,0(a2)
    2f44:	006888b3          	add	a7,a7,t1
    2f48:	251440e3          	blt	s0,a7,3988 <core_bench_matrix+0x18c8>
    2f4c:	0067a7b3          	slt	a5,a5,t1
    2f50:	00f507b3          	add	a5,a0,a5
    2f54:	01079513          	slli	a0,a5,0x10
    2f58:	41055513          	srai	a0,a0,0x10
    2f5c:	00460613          	addi	a2,a2,4
    2f60:	00030793          	mv	a5,t1
    2f64:	00062303          	lw	t1,0(a2)
    2f68:	006888b3          	add	a7,a7,t1
    2f6c:	1f144ae3          	blt	s0,a7,3960 <core_bench_matrix+0x18a0>
    2f70:	0067a7b3          	slt	a5,a5,t1
    2f74:	00f507b3          	add	a5,a0,a5
    2f78:	01079513          	slli	a0,a5,0x10
    2f7c:	41055513          	srai	a0,a0,0x10
    2f80:	00460613          	addi	a2,a2,4
    2f84:	00030793          	mv	a5,t1
    2f88:	00062303          	lw	t1,0(a2)
    2f8c:	006888b3          	add	a7,a7,t1
    2f90:	15144ce3          	blt	s0,a7,38e8 <core_bench_matrix+0x1828>
    2f94:	0067a7b3          	slt	a5,a5,t1
    2f98:	00f507b3          	add	a5,a0,a5
    2f9c:	01079513          	slli	a0,a5,0x10
    2fa0:	41055513          	srai	a0,a0,0x10
    2fa4:	00460613          	addi	a2,a2,4
    2fa8:	00030793          	mv	a5,t1
    2fac:	00062303          	lw	t1,0(a2)
    2fb0:	006888b3          	add	a7,a7,t1
    2fb4:	111446e3          	blt	s0,a7,38c0 <core_bench_matrix+0x1800>
    2fb8:	0067a7b3          	slt	a5,a5,t1
    2fbc:	00f507b3          	add	a5,a0,a5
    2fc0:	01079513          	slli	a0,a5,0x10
    2fc4:	41055513          	srai	a0,a0,0x10
    2fc8:	00460613          	addi	a2,a2,4
    2fcc:	7ecb1263          	bne	s6,a2,37b0 <core_bench_matrix+0x16f0>
    2fd0:	00170713          	addi	a4,a4,1
    2fd4:	40d80b33          	sub	s6,a6,a3
    2fd8:	eae994e3          	bne	s3,a4,2e80 <core_bench_matrix+0xdc0>
    2fdc:	000a0593          	mv	a1,s4
    2fe0:	4b0050ef          	jal	ra,8490 <crc16>
    2fe4:	00412783          	lw	a5,4(sp)
    2fe8:	00000e93          	li	t4,0
    2fec:	00279f13          	slli	t5,a5,0x2
    2ff0:	00812783          	lw	a5,8(sp)
    2ff4:	012786b3          	add	a3,a5,s2
    2ff8:	41268633          	sub	a2,a3,s2
    2ffc:	40c68733          	sub	a4,a3,a2
    3000:	ffe70713          	addi	a4,a4,-2
    3004:	00175713          	srli	a4,a4,0x1
    3008:	00170713          	addi	a4,a4,1
    300c:	00777713          	andi	a4,a4,7
    3010:	00060793          	mv	a5,a2
    3014:	0a070463          	beqz	a4,30bc <core_bench_matrix+0xffc>
    3018:	00100593          	li	a1,1
    301c:	08b70663          	beq	a4,a1,30a8 <core_bench_matrix+0xfe8>
    3020:	00200593          	li	a1,2
    3024:	06b70a63          	beq	a4,a1,3098 <core_bench_matrix+0xfd8>
    3028:	00300593          	li	a1,3
    302c:	04b70e63          	beq	a4,a1,3088 <core_bench_matrix+0xfc8>
    3030:	00400593          	li	a1,4
    3034:	04b70263          	beq	a4,a1,3078 <core_bench_matrix+0xfb8>
    3038:	00500593          	li	a1,5
    303c:	02b70663          	beq	a4,a1,3068 <core_bench_matrix+0xfa8>
    3040:	00600593          	li	a1,6
    3044:	00b70a63          	beq	a4,a1,3058 <core_bench_matrix+0xf98>
    3048:	00065703          	lhu	a4,0(a2)
    304c:	00260793          	addi	a5,a2,2
    3050:	40970733          	sub	a4,a4,s1
    3054:	00e61023          	sh	a4,0(a2)
    3058:	0007d703          	lhu	a4,0(a5)
    305c:	00278793          	addi	a5,a5,2
    3060:	40970733          	sub	a4,a4,s1
    3064:	fee79f23          	sh	a4,-2(a5)
    3068:	0007d703          	lhu	a4,0(a5)
    306c:	00278793          	addi	a5,a5,2
    3070:	40970733          	sub	a4,a4,s1
    3074:	fee79f23          	sh	a4,-2(a5)
    3078:	0007d703          	lhu	a4,0(a5)
    307c:	00278793          	addi	a5,a5,2
    3080:	40970733          	sub	a4,a4,s1
    3084:	fee79f23          	sh	a4,-2(a5)
    3088:	0007d703          	lhu	a4,0(a5)
    308c:	00278793          	addi	a5,a5,2
    3090:	40970733          	sub	a4,a4,s1
    3094:	fee79f23          	sh	a4,-2(a5)
    3098:	0007d703          	lhu	a4,0(a5)
    309c:	00278793          	addi	a5,a5,2
    30a0:	40970733          	sub	a4,a4,s1
    30a4:	fee79f23          	sh	a4,-2(a5)
    30a8:	0007d703          	lhu	a4,0(a5)
    30ac:	00278793          	addi	a5,a5,2
    30b0:	40970733          	sub	a4,a4,s1
    30b4:	fee79f23          	sh	a4,-2(a5)
    30b8:	06d78663          	beq	a5,a3,3124 <core_bench_matrix+0x1064>
    30bc:	0007d283          	lhu	t0,0(a5)
    30c0:	0027df83          	lhu	t6,2(a5)
    30c4:	0047de03          	lhu	t3,4(a5)
    30c8:	0067d303          	lhu	t1,6(a5)
    30cc:	0087d883          	lhu	a7,8(a5)
    30d0:	00a7d803          	lhu	a6,10(a5)
    30d4:	00c7d583          	lhu	a1,12(a5)
    30d8:	00e7d703          	lhu	a4,14(a5)
    30dc:	409282b3          	sub	t0,t0,s1
    30e0:	409f8fb3          	sub	t6,t6,s1
    30e4:	409e0e33          	sub	t3,t3,s1
    30e8:	40930333          	sub	t1,t1,s1
    30ec:	409888b3          	sub	a7,a7,s1
    30f0:	40980833          	sub	a6,a6,s1
    30f4:	409585b3          	sub	a1,a1,s1
    30f8:	40970733          	sub	a4,a4,s1
    30fc:	00579023          	sh	t0,0(a5)
    3100:	01f79123          	sh	t6,2(a5)
    3104:	01c79223          	sh	t3,4(a5)
    3108:	00679323          	sh	t1,6(a5)
    310c:	01179423          	sh	a7,8(a5)
    3110:	01079523          	sh	a6,10(a5)
    3114:	00b79623          	sh	a1,12(a5)
    3118:	00e79723          	sh	a4,14(a5)
    311c:	01078793          	addi	a5,a5,16
    3120:	f8d79ee3          	bne	a5,a3,30bc <core_bench_matrix+0xffc>
    3124:	001e8e93          	addi	t4,t4,1 # ffff8001 <_stack+0xfffb8001>
    3128:	41e606b3          	sub	a3,a2,t5
    312c:	edd996e3          	bne	s3,t4,2ff8 <core_bench_matrix+0xf38>
    3130:	05812403          	lw	s0,88(sp)
    3134:	01012583          	lw	a1,16(sp)
    3138:	05c12083          	lw	ra,92(sp)
    313c:	05412483          	lw	s1,84(sp)
    3140:	05012903          	lw	s2,80(sp)
    3144:	04c12983          	lw	s3,76(sp)
    3148:	04812a03          	lw	s4,72(sp)
    314c:	04412a83          	lw	s5,68(sp)
    3150:	04012b03          	lw	s6,64(sp)
    3154:	03c12b83          	lw	s7,60(sp)
    3158:	03812c03          	lw	s8,56(sp)
    315c:	03412c83          	lw	s9,52(sp)
    3160:	03012d03          	lw	s10,48(sp)
    3164:	02c12d83          	lw	s11,44(sp)
    3168:	01051513          	slli	a0,a0,0x10
    316c:	41055513          	srai	a0,a0,0x10
    3170:	06010113          	addi	sp,sp,96
    3174:	31c0506f          	j	8490 <crc16>
    3178:	0046ae03          	lw	t3,4(a3)
    317c:	00a50793          	addi	a5,a0,10
    3180:	00000313          	li	t1,0
    3184:	01079793          	slli	a5,a5,0x10
    3188:	01c30333          	add	t1,t1,t3
    318c:	4107d793          	srai	a5,a5,0x10
    3190:	00468693          	addi	a3,a3,4
    3194:	0e645863          	bge	s0,t1,3284 <core_bench_matrix+0x11c4>
    3198:	0046a503          	lw	a0,4(a3)
    319c:	00a78793          	addi	a5,a5,10
    31a0:	00000313          	li	t1,0
    31a4:	01079793          	slli	a5,a5,0x10
    31a8:	00a30333          	add	t1,t1,a0
    31ac:	4107d793          	srai	a5,a5,0x10
    31b0:	0e644863          	blt	s0,t1,32a0 <core_bench_matrix+0x11e0>
    31b4:	00ae2e33          	slt	t3,t3,a0
    31b8:	01c787b3          	add	a5,a5,t3
    31bc:	0086ae03          	lw	t3,8(a3)
    31c0:	01079793          	slli	a5,a5,0x10
    31c4:	4107d793          	srai	a5,a5,0x10
    31c8:	01c30333          	add	t1,t1,t3
    31cc:	0e644863          	blt	s0,t1,32bc <core_bench_matrix+0x11fc>
    31d0:	01c52533          	slt	a0,a0,t3
    31d4:	00a787b3          	add	a5,a5,a0
    31d8:	00c6a503          	lw	a0,12(a3)
    31dc:	01079793          	slli	a5,a5,0x10
    31e0:	4107d793          	srai	a5,a5,0x10
    31e4:	00a30333          	add	t1,t1,a0
    31e8:	0e644863          	blt	s0,t1,32d8 <core_bench_matrix+0x1218>
    31ec:	00ae2e33          	slt	t3,t3,a0
    31f0:	01c787b3          	add	a5,a5,t3
    31f4:	0106ae03          	lw	t3,16(a3)
    31f8:	01079793          	slli	a5,a5,0x10
    31fc:	4107d793          	srai	a5,a5,0x10
    3200:	01c30333          	add	t1,t1,t3
    3204:	0e644863          	blt	s0,t1,32f4 <core_bench_matrix+0x1234>
    3208:	01c52533          	slt	a0,a0,t3
    320c:	00a787b3          	add	a5,a5,a0
    3210:	0146a503          	lw	a0,20(a3)
    3214:	01079793          	slli	a5,a5,0x10
    3218:	4107d793          	srai	a5,a5,0x10
    321c:	00a30333          	add	t1,t1,a0
    3220:	0e644863          	blt	s0,t1,3310 <core_bench_matrix+0x1250>
    3224:	00ae2e33          	slt	t3,t3,a0
    3228:	01c787b3          	add	a5,a5,t3
    322c:	0186ae03          	lw	t3,24(a3)
    3230:	01079793          	slli	a5,a5,0x10
    3234:	4107d793          	srai	a5,a5,0x10
    3238:	01c30333          	add	t1,t1,t3
    323c:	0e644863          	blt	s0,t1,332c <core_bench_matrix+0x126c>
    3240:	01c52533          	slt	a0,a0,t3
    3244:	00a787b3          	add	a5,a5,a0
    3248:	01079513          	slli	a0,a5,0x10
    324c:	41055513          	srai	a0,a0,0x10
    3250:	01c68693          	addi	a3,a3,28
    3254:	b2d70663          	beq	a4,a3,2580 <core_bench_matrix+0x4c0>
    3258:	0006ae83          	lw	t4,0(a3)
    325c:	01d30333          	add	t1,t1,t4
    3260:	f0644ce3          	blt	s0,t1,3178 <core_bench_matrix+0x10b8>
    3264:	01de27b3          	slt	a5,t3,t4
    3268:	0046ae03          	lw	t3,4(a3)
    326c:	00f507b3          	add	a5,a0,a5
    3270:	01079793          	slli	a5,a5,0x10
    3274:	01c30333          	add	t1,t1,t3
    3278:	4107d793          	srai	a5,a5,0x10
    327c:	00468693          	addi	a3,a3,4
    3280:	f0644ce3          	blt	s0,t1,3198 <core_bench_matrix+0x10d8>
    3284:	0046a503          	lw	a0,4(a3)
    3288:	01ceaeb3          	slt	t4,t4,t3
    328c:	01d787b3          	add	a5,a5,t4
    3290:	01079793          	slli	a5,a5,0x10
    3294:	00a30333          	add	t1,t1,a0
    3298:	4107d793          	srai	a5,a5,0x10
    329c:	f0645ce3          	bge	s0,t1,31b4 <core_bench_matrix+0x10f4>
    32a0:	0086ae03          	lw	t3,8(a3)
    32a4:	00a78793          	addi	a5,a5,10
    32a8:	00000313          	li	t1,0
    32ac:	01079793          	slli	a5,a5,0x10
    32b0:	01c30333          	add	t1,t1,t3
    32b4:	4107d793          	srai	a5,a5,0x10
    32b8:	f0645ce3          	bge	s0,t1,31d0 <core_bench_matrix+0x1110>
    32bc:	00c6a503          	lw	a0,12(a3)
    32c0:	00a78793          	addi	a5,a5,10
    32c4:	00000313          	li	t1,0
    32c8:	01079793          	slli	a5,a5,0x10
    32cc:	00a30333          	add	t1,t1,a0
    32d0:	4107d793          	srai	a5,a5,0x10
    32d4:	f0645ce3          	bge	s0,t1,31ec <core_bench_matrix+0x112c>
    32d8:	0106ae03          	lw	t3,16(a3)
    32dc:	00a78793          	addi	a5,a5,10
    32e0:	00000313          	li	t1,0
    32e4:	01079793          	slli	a5,a5,0x10
    32e8:	01c30333          	add	t1,t1,t3
    32ec:	4107d793          	srai	a5,a5,0x10
    32f0:	f0645ce3          	bge	s0,t1,3208 <core_bench_matrix+0x1148>
    32f4:	0146a503          	lw	a0,20(a3)
    32f8:	00a78793          	addi	a5,a5,10
    32fc:	00000313          	li	t1,0
    3300:	01079793          	slli	a5,a5,0x10
    3304:	00a30333          	add	t1,t1,a0
    3308:	4107d793          	srai	a5,a5,0x10
    330c:	f0645ce3          	bge	s0,t1,3224 <core_bench_matrix+0x1164>
    3310:	0186ae03          	lw	t3,24(a3)
    3314:	00a78793          	addi	a5,a5,10
    3318:	00000313          	li	t1,0
    331c:	01079793          	slli	a5,a5,0x10
    3320:	01c30333          	add	t1,t1,t3
    3324:	4107d793          	srai	a5,a5,0x10
    3328:	f0645ce3          	bge	s0,t1,3240 <core_bench_matrix+0x1180>
    332c:	00a78793          	addi	a5,a5,10
    3330:	01079513          	slli	a0,a5,0x10
    3334:	41055513          	srai	a0,a0,0x10
    3338:	00000313          	li	t1,0
    333c:	f15ff06f          	j	3250 <core_bench_matrix+0x1190>
    3340:	0046ae03          	lw	t3,4(a3)
    3344:	00a50793          	addi	a5,a0,10
    3348:	00000313          	li	t1,0
    334c:	01079793          	slli	a5,a5,0x10
    3350:	01c30333          	add	t1,t1,t3
    3354:	4107d793          	srai	a5,a5,0x10
    3358:	00468693          	addi	a3,a3,4
    335c:	0e645863          	bge	s0,t1,344c <core_bench_matrix+0x138c>
    3360:	0046a503          	lw	a0,4(a3)
    3364:	00a78793          	addi	a5,a5,10
    3368:	00000313          	li	t1,0
    336c:	01079793          	slli	a5,a5,0x10
    3370:	00a30333          	add	t1,t1,a0
    3374:	4107d793          	srai	a5,a5,0x10
    3378:	0e644863          	blt	s0,t1,3468 <core_bench_matrix+0x13a8>
    337c:	00ae2e33          	slt	t3,t3,a0
    3380:	01c787b3          	add	a5,a5,t3
    3384:	0086ae03          	lw	t3,8(a3)
    3388:	01079793          	slli	a5,a5,0x10
    338c:	4107d793          	srai	a5,a5,0x10
    3390:	01c30333          	add	t1,t1,t3
    3394:	0e644863          	blt	s0,t1,3484 <core_bench_matrix+0x13c4>
    3398:	01c52533          	slt	a0,a0,t3
    339c:	00a787b3          	add	a5,a5,a0
    33a0:	00c6a503          	lw	a0,12(a3)
    33a4:	01079793          	slli	a5,a5,0x10
    33a8:	4107d793          	srai	a5,a5,0x10
    33ac:	00a30333          	add	t1,t1,a0
    33b0:	0e644863          	blt	s0,t1,34a0 <core_bench_matrix+0x13e0>
    33b4:	00ae2e33          	slt	t3,t3,a0
    33b8:	01c787b3          	add	a5,a5,t3
    33bc:	0106ae03          	lw	t3,16(a3)
    33c0:	01079793          	slli	a5,a5,0x10
    33c4:	4107d793          	srai	a5,a5,0x10
    33c8:	01c30333          	add	t1,t1,t3
    33cc:	0e644863          	blt	s0,t1,34bc <core_bench_matrix+0x13fc>
    33d0:	01c52533          	slt	a0,a0,t3
    33d4:	00a787b3          	add	a5,a5,a0
    33d8:	0146a503          	lw	a0,20(a3)
    33dc:	01079793          	slli	a5,a5,0x10
    33e0:	4107d793          	srai	a5,a5,0x10
    33e4:	00a30333          	add	t1,t1,a0
    33e8:	0e644863          	blt	s0,t1,34d8 <core_bench_matrix+0x1418>
    33ec:	00ae2e33          	slt	t3,t3,a0
    33f0:	01c787b3          	add	a5,a5,t3
    33f4:	0186ae03          	lw	t3,24(a3)
    33f8:	01079793          	slli	a5,a5,0x10
    33fc:	4107d793          	srai	a5,a5,0x10
    3400:	01c30333          	add	t1,t1,t3
    3404:	0e644863          	blt	s0,t1,34f4 <core_bench_matrix+0x1434>
    3408:	01c52533          	slt	a0,a0,t3
    340c:	00a787b3          	add	a5,a5,a0
    3410:	01079513          	slli	a0,a5,0x10
    3414:	41055513          	srai	a0,a0,0x10
    3418:	01c68693          	addi	a3,a3,28
    341c:	ccd70863          	beq	a4,a3,28ec <core_bench_matrix+0x82c>
    3420:	0006ae83          	lw	t4,0(a3)
    3424:	01d30333          	add	t1,t1,t4
    3428:	f0644ce3          	blt	s0,t1,3340 <core_bench_matrix+0x1280>
    342c:	01de27b3          	slt	a5,t3,t4
    3430:	0046ae03          	lw	t3,4(a3)
    3434:	00f507b3          	add	a5,a0,a5
    3438:	01079793          	slli	a5,a5,0x10
    343c:	01c30333          	add	t1,t1,t3
    3440:	4107d793          	srai	a5,a5,0x10
    3444:	00468693          	addi	a3,a3,4
    3448:	f0644ce3          	blt	s0,t1,3360 <core_bench_matrix+0x12a0>
    344c:	0046a503          	lw	a0,4(a3)
    3450:	01ceaeb3          	slt	t4,t4,t3
    3454:	01d787b3          	add	a5,a5,t4
    3458:	01079793          	slli	a5,a5,0x10
    345c:	00a30333          	add	t1,t1,a0
    3460:	4107d793          	srai	a5,a5,0x10
    3464:	f0645ce3          	bge	s0,t1,337c <core_bench_matrix+0x12bc>
    3468:	0086ae03          	lw	t3,8(a3)
    346c:	00a78793          	addi	a5,a5,10
    3470:	00000313          	li	t1,0
    3474:	01079793          	slli	a5,a5,0x10
    3478:	01c30333          	add	t1,t1,t3
    347c:	4107d793          	srai	a5,a5,0x10
    3480:	f0645ce3          	bge	s0,t1,3398 <core_bench_matrix+0x12d8>
    3484:	00c6a503          	lw	a0,12(a3)
    3488:	00a78793          	addi	a5,a5,10
    348c:	00000313          	li	t1,0
    3490:	01079793          	slli	a5,a5,0x10
    3494:	00a30333          	add	t1,t1,a0
    3498:	4107d793          	srai	a5,a5,0x10
    349c:	f0645ce3          	bge	s0,t1,33b4 <core_bench_matrix+0x12f4>
    34a0:	0106ae03          	lw	t3,16(a3)
    34a4:	00a78793          	addi	a5,a5,10
    34a8:	00000313          	li	t1,0
    34ac:	01079793          	slli	a5,a5,0x10
    34b0:	01c30333          	add	t1,t1,t3
    34b4:	4107d793          	srai	a5,a5,0x10
    34b8:	f0645ce3          	bge	s0,t1,33d0 <core_bench_matrix+0x1310>
    34bc:	0146a503          	lw	a0,20(a3)
    34c0:	00a78793          	addi	a5,a5,10
    34c4:	00000313          	li	t1,0
    34c8:	01079793          	slli	a5,a5,0x10
    34cc:	00a30333          	add	t1,t1,a0
    34d0:	4107d793          	srai	a5,a5,0x10
    34d4:	f0645ce3          	bge	s0,t1,33ec <core_bench_matrix+0x132c>
    34d8:	0186ae03          	lw	t3,24(a3)
    34dc:	00a78793          	addi	a5,a5,10
    34e0:	00000313          	li	t1,0
    34e4:	01079793          	slli	a5,a5,0x10
    34e8:	01c30333          	add	t1,t1,t3
    34ec:	4107d793          	srai	a5,a5,0x10
    34f0:	f0645ce3          	bge	s0,t1,3408 <core_bench_matrix+0x1348>
    34f4:	00a78793          	addi	a5,a5,10
    34f8:	01079513          	slli	a0,a5,0x10
    34fc:	41055513          	srai	a0,a0,0x10
    3500:	00000313          	li	t1,0
    3504:	f15ff06f          	j	3418 <core_bench_matrix+0x1358>
    3508:	0046ae03          	lw	t3,4(a3)
    350c:	00a50793          	addi	a5,a0,10
    3510:	00000313          	li	t1,0
    3514:	01079793          	slli	a5,a5,0x10
    3518:	01c30333          	add	t1,t1,t3
    351c:	4107d793          	srai	a5,a5,0x10
    3520:	00468693          	addi	a3,a3,4
    3524:	0e645863          	bge	s0,t1,3614 <core_bench_matrix+0x1554>
    3528:	0046a503          	lw	a0,4(a3)
    352c:	00a78793          	addi	a5,a5,10
    3530:	00000313          	li	t1,0
    3534:	01079793          	slli	a5,a5,0x10
    3538:	00a30333          	add	t1,t1,a0
    353c:	4107d793          	srai	a5,a5,0x10
    3540:	0e644863          	blt	s0,t1,3630 <core_bench_matrix+0x1570>
    3544:	00ae2e33          	slt	t3,t3,a0
    3548:	01c787b3          	add	a5,a5,t3
    354c:	0086ae03          	lw	t3,8(a3)
    3550:	01079793          	slli	a5,a5,0x10
    3554:	4107d793          	srai	a5,a5,0x10
    3558:	01c30333          	add	t1,t1,t3
    355c:	0e644863          	blt	s0,t1,364c <core_bench_matrix+0x158c>
    3560:	01c52533          	slt	a0,a0,t3
    3564:	00a787b3          	add	a5,a5,a0
    3568:	00c6a503          	lw	a0,12(a3)
    356c:	01079793          	slli	a5,a5,0x10
    3570:	4107d793          	srai	a5,a5,0x10
    3574:	00a30333          	add	t1,t1,a0
    3578:	0e644863          	blt	s0,t1,3668 <core_bench_matrix+0x15a8>
    357c:	00ae2e33          	slt	t3,t3,a0
    3580:	01c787b3          	add	a5,a5,t3
    3584:	0106ae03          	lw	t3,16(a3)
    3588:	01079793          	slli	a5,a5,0x10
    358c:	4107d793          	srai	a5,a5,0x10
    3590:	01c30333          	add	t1,t1,t3
    3594:	0e644863          	blt	s0,t1,3684 <core_bench_matrix+0x15c4>
    3598:	01c52533          	slt	a0,a0,t3
    359c:	00a787b3          	add	a5,a5,a0
    35a0:	0146a503          	lw	a0,20(a3)
    35a4:	01079793          	slli	a5,a5,0x10
    35a8:	4107d793          	srai	a5,a5,0x10
    35ac:	00a30333          	add	t1,t1,a0
    35b0:	0e644863          	blt	s0,t1,36a0 <core_bench_matrix+0x15e0>
    35b4:	00ae2e33          	slt	t3,t3,a0
    35b8:	01c787b3          	add	a5,a5,t3
    35bc:	0186ae03          	lw	t3,24(a3)
    35c0:	01079793          	slli	a5,a5,0x10
    35c4:	4107d793          	srai	a5,a5,0x10
    35c8:	01c30333          	add	t1,t1,t3
    35cc:	0e644863          	blt	s0,t1,36bc <core_bench_matrix+0x15fc>
    35d0:	01c52533          	slt	a0,a0,t3
    35d4:	00a787b3          	add	a5,a5,a0
    35d8:	01079513          	slli	a0,a5,0x10
    35dc:	41055513          	srai	a0,a0,0x10
    35e0:	01c68693          	addi	a3,a3,28
    35e4:	ead70463          	beq	a4,a3,2c8c <core_bench_matrix+0xbcc>
    35e8:	0006ae83          	lw	t4,0(a3)
    35ec:	01d30333          	add	t1,t1,t4
    35f0:	f0644ce3          	blt	s0,t1,3508 <core_bench_matrix+0x1448>
    35f4:	01de27b3          	slt	a5,t3,t4
    35f8:	0046ae03          	lw	t3,4(a3)
    35fc:	00f507b3          	add	a5,a0,a5
    3600:	01079793          	slli	a5,a5,0x10
    3604:	01c30333          	add	t1,t1,t3
    3608:	4107d793          	srai	a5,a5,0x10
    360c:	00468693          	addi	a3,a3,4
    3610:	f0644ce3          	blt	s0,t1,3528 <core_bench_matrix+0x1468>
    3614:	0046a503          	lw	a0,4(a3)
    3618:	01ceaeb3          	slt	t4,t4,t3
    361c:	01d787b3          	add	a5,a5,t4
    3620:	01079793          	slli	a5,a5,0x10
    3624:	00a30333          	add	t1,t1,a0
    3628:	4107d793          	srai	a5,a5,0x10
    362c:	f0645ce3          	bge	s0,t1,3544 <core_bench_matrix+0x1484>
    3630:	0086ae03          	lw	t3,8(a3)
    3634:	00a78793          	addi	a5,a5,10
    3638:	00000313          	li	t1,0
    363c:	01079793          	slli	a5,a5,0x10
    3640:	01c30333          	add	t1,t1,t3
    3644:	4107d793          	srai	a5,a5,0x10
    3648:	f0645ce3          	bge	s0,t1,3560 <core_bench_matrix+0x14a0>
    364c:	00c6a503          	lw	a0,12(a3)
    3650:	00a78793          	addi	a5,a5,10
    3654:	00000313          	li	t1,0
    3658:	01079793          	slli	a5,a5,0x10
    365c:	00a30333          	add	t1,t1,a0
    3660:	4107d793          	srai	a5,a5,0x10
    3664:	f0645ce3          	bge	s0,t1,357c <core_bench_matrix+0x14bc>
    3668:	0106ae03          	lw	t3,16(a3)
    366c:	00a78793          	addi	a5,a5,10
    3670:	00000313          	li	t1,0
    3674:	01079793          	slli	a5,a5,0x10
    3678:	01c30333          	add	t1,t1,t3
    367c:	4107d793          	srai	a5,a5,0x10
    3680:	f0645ce3          	bge	s0,t1,3598 <core_bench_matrix+0x14d8>
    3684:	0146a503          	lw	a0,20(a3)
    3688:	00a78793          	addi	a5,a5,10
    368c:	00000313          	li	t1,0
    3690:	01079793          	slli	a5,a5,0x10
    3694:	00a30333          	add	t1,t1,a0
    3698:	4107d793          	srai	a5,a5,0x10
    369c:	f0645ce3          	bge	s0,t1,35b4 <core_bench_matrix+0x14f4>
    36a0:	0186ae03          	lw	t3,24(a3)
    36a4:	00a78793          	addi	a5,a5,10
    36a8:	00000313          	li	t1,0
    36ac:	01079793          	slli	a5,a5,0x10
    36b0:	01c30333          	add	t1,t1,t3
    36b4:	4107d793          	srai	a5,a5,0x10
    36b8:	f0645ce3          	bge	s0,t1,35d0 <core_bench_matrix+0x1510>
    36bc:	00a78793          	addi	a5,a5,10
    36c0:	01079513          	slli	a0,a5,0x10
    36c4:	41055513          	srai	a0,a0,0x10
    36c8:	00000313          	li	t1,0
    36cc:	f15ff06f          	j	35e0 <core_bench_matrix+0x1520>
    36d0:	00462303          	lw	t1,4(a2)
    36d4:	00a50793          	addi	a5,a0,10
    36d8:	00000893          	li	a7,0
    36dc:	01079793          	slli	a5,a5,0x10
    36e0:	006888b3          	add	a7,a7,t1
    36e4:	4107d793          	srai	a5,a5,0x10
    36e8:	00460613          	addi	a2,a2,4
    36ec:	0f145863          	bge	s0,a7,37dc <core_bench_matrix+0x171c>
    36f0:	00462503          	lw	a0,4(a2)
    36f4:	00a78793          	addi	a5,a5,10
    36f8:	00000893          	li	a7,0
    36fc:	01079793          	slli	a5,a5,0x10
    3700:	00a888b3          	add	a7,a7,a0
    3704:	4107d793          	srai	a5,a5,0x10
    3708:	0f144863          	blt	s0,a7,37f8 <core_bench_matrix+0x1738>
    370c:	00a32333          	slt	t1,t1,a0
    3710:	006787b3          	add	a5,a5,t1
    3714:	00862303          	lw	t1,8(a2)
    3718:	01079793          	slli	a5,a5,0x10
    371c:	4107d793          	srai	a5,a5,0x10
    3720:	006888b3          	add	a7,a7,t1
    3724:	0f144863          	blt	s0,a7,3814 <core_bench_matrix+0x1754>
    3728:	00652533          	slt	a0,a0,t1
    372c:	00a787b3          	add	a5,a5,a0
    3730:	00c62503          	lw	a0,12(a2)
    3734:	01079793          	slli	a5,a5,0x10
    3738:	4107d793          	srai	a5,a5,0x10
    373c:	00a888b3          	add	a7,a7,a0
    3740:	0f144863          	blt	s0,a7,3830 <core_bench_matrix+0x1770>
    3744:	00a32333          	slt	t1,t1,a0
    3748:	006787b3          	add	a5,a5,t1
    374c:	01062303          	lw	t1,16(a2)
    3750:	01079793          	slli	a5,a5,0x10
    3754:	4107d793          	srai	a5,a5,0x10
    3758:	006888b3          	add	a7,a7,t1
    375c:	0f144863          	blt	s0,a7,384c <core_bench_matrix+0x178c>
    3760:	00652533          	slt	a0,a0,t1
    3764:	00a787b3          	add	a5,a5,a0
    3768:	01462503          	lw	a0,20(a2)
    376c:	01079793          	slli	a5,a5,0x10
    3770:	4107d793          	srai	a5,a5,0x10
    3774:	00a888b3          	add	a7,a7,a0
    3778:	0f144863          	blt	s0,a7,3868 <core_bench_matrix+0x17a8>
    377c:	00a32333          	slt	t1,t1,a0
    3780:	006787b3          	add	a5,a5,t1
    3784:	01862303          	lw	t1,24(a2)
    3788:	01079793          	slli	a5,a5,0x10
    378c:	4107d793          	srai	a5,a5,0x10
    3790:	006888b3          	add	a7,a7,t1
    3794:	0f144863          	blt	s0,a7,3884 <core_bench_matrix+0x17c4>
    3798:	00652533          	slt	a0,a0,t1
    379c:	00a787b3          	add	a5,a5,a0
    37a0:	01079513          	slli	a0,a5,0x10
    37a4:	41055513          	srai	a0,a0,0x10
    37a8:	01c60613          	addi	a2,a2,28
    37ac:	82cb02e3          	beq	s6,a2,2fd0 <core_bench_matrix+0xf10>
    37b0:	00062e03          	lw	t3,0(a2)
    37b4:	01c888b3          	add	a7,a7,t3
    37b8:	f1144ce3          	blt	s0,a7,36d0 <core_bench_matrix+0x1610>
    37bc:	01c327b3          	slt	a5,t1,t3
    37c0:	00462303          	lw	t1,4(a2)
    37c4:	00f507b3          	add	a5,a0,a5
    37c8:	01079793          	slli	a5,a5,0x10
    37cc:	006888b3          	add	a7,a7,t1
    37d0:	4107d793          	srai	a5,a5,0x10
    37d4:	00460613          	addi	a2,a2,4
    37d8:	f1144ce3          	blt	s0,a7,36f0 <core_bench_matrix+0x1630>
    37dc:	00462503          	lw	a0,4(a2)
    37e0:	006e2e33          	slt	t3,t3,t1
    37e4:	01c787b3          	add	a5,a5,t3
    37e8:	01079793          	slli	a5,a5,0x10
    37ec:	00a888b3          	add	a7,a7,a0
    37f0:	4107d793          	srai	a5,a5,0x10
    37f4:	f1145ce3          	bge	s0,a7,370c <core_bench_matrix+0x164c>
    37f8:	00862303          	lw	t1,8(a2)
    37fc:	00a78793          	addi	a5,a5,10
    3800:	00000893          	li	a7,0
    3804:	01079793          	slli	a5,a5,0x10
    3808:	006888b3          	add	a7,a7,t1
    380c:	4107d793          	srai	a5,a5,0x10
    3810:	f1145ce3          	bge	s0,a7,3728 <core_bench_matrix+0x1668>
    3814:	00c62503          	lw	a0,12(a2)
    3818:	00a78793          	addi	a5,a5,10
    381c:	00000893          	li	a7,0
    3820:	01079793          	slli	a5,a5,0x10
    3824:	00a888b3          	add	a7,a7,a0
    3828:	4107d793          	srai	a5,a5,0x10
    382c:	f1145ce3          	bge	s0,a7,3744 <core_bench_matrix+0x1684>
    3830:	01062303          	lw	t1,16(a2)
    3834:	00a78793          	addi	a5,a5,10
    3838:	00000893          	li	a7,0
    383c:	01079793          	slli	a5,a5,0x10
    3840:	006888b3          	add	a7,a7,t1
    3844:	4107d793          	srai	a5,a5,0x10
    3848:	f1145ce3          	bge	s0,a7,3760 <core_bench_matrix+0x16a0>
    384c:	01462503          	lw	a0,20(a2)
    3850:	00a78793          	addi	a5,a5,10
    3854:	00000893          	li	a7,0
    3858:	01079793          	slli	a5,a5,0x10
    385c:	00a888b3          	add	a7,a7,a0
    3860:	4107d793          	srai	a5,a5,0x10
    3864:	f1145ce3          	bge	s0,a7,377c <core_bench_matrix+0x16bc>
    3868:	01862303          	lw	t1,24(a2)
    386c:	00a78793          	addi	a5,a5,10
    3870:	00000893          	li	a7,0
    3874:	01079793          	slli	a5,a5,0x10
    3878:	006888b3          	add	a7,a7,t1
    387c:	4107d793          	srai	a5,a5,0x10
    3880:	f1145ce3          	bge	s0,a7,3798 <core_bench_matrix+0x16d8>
    3884:	00a78793          	addi	a5,a5,10
    3888:	01079513          	slli	a0,a5,0x10
    388c:	41055513          	srai	a0,a0,0x10
    3890:	00000893          	li	a7,0
    3894:	f15ff06f          	j	37a8 <core_bench_matrix+0x16e8>
    3898:	00a50513          	addi	a0,a0,10
    389c:	01051513          	slli	a0,a0,0x10
    38a0:	41055513          	srai	a0,a0,0x10
    38a4:	00000313          	li	t1,0
    38a8:	cd1fe06f          	j	2578 <core_bench_matrix+0x4b8>
    38ac:	00a50513          	addi	a0,a0,10
    38b0:	01051513          	slli	a0,a0,0x10
    38b4:	41055513          	srai	a0,a0,0x10
    38b8:	00000313          	li	t1,0
    38bc:	828ff06f          	j	28e4 <core_bench_matrix+0x824>
    38c0:	00a50513          	addi	a0,a0,10
    38c4:	01051513          	slli	a0,a0,0x10
    38c8:	41055513          	srai	a0,a0,0x10
    38cc:	00000893          	li	a7,0
    38d0:	ef8ff06f          	j	2fc8 <core_bench_matrix+0xf08>
    38d4:	00a50513          	addi	a0,a0,10
    38d8:	01051513          	slli	a0,a0,0x10
    38dc:	41055513          	srai	a0,a0,0x10
    38e0:	00000313          	li	t1,0
    38e4:	ba0ff06f          	j	2c84 <core_bench_matrix+0xbc4>
    38e8:	00a50513          	addi	a0,a0,10
    38ec:	01051513          	slli	a0,a0,0x10
    38f0:	41055513          	srai	a0,a0,0x10
    38f4:	00000893          	li	a7,0
    38f8:	eacff06f          	j	2fa4 <core_bench_matrix+0xee4>
    38fc:	00a50513          	addi	a0,a0,10
    3900:	01051513          	slli	a0,a0,0x10
    3904:	41055513          	srai	a0,a0,0x10
    3908:	00000313          	li	t1,0
    390c:	b54ff06f          	j	2c60 <core_bench_matrix+0xba0>
    3910:	00a50513          	addi	a0,a0,10
    3914:	01051513          	slli	a0,a0,0x10
    3918:	41055513          	srai	a0,a0,0x10
    391c:	00000313          	li	t1,0
    3920:	fa1fe06f          	j	28c0 <core_bench_matrix+0x800>
    3924:	00a50513          	addi	a0,a0,10
    3928:	01051513          	slli	a0,a0,0x10
    392c:	41055513          	srai	a0,a0,0x10
    3930:	00000313          	li	t1,0
    3934:	c1dfe06f          	j	2550 <core_bench_matrix+0x490>
    3938:	00a50513          	addi	a0,a0,10
    393c:	01051513          	slli	a0,a0,0x10
    3940:	41055513          	srai	a0,a0,0x10
    3944:	00000313          	li	t1,0
    3948:	f51fe06f          	j	2898 <core_bench_matrix+0x7d8>
    394c:	00a50513          	addi	a0,a0,10
    3950:	01051513          	slli	a0,a0,0x10
    3954:	41055513          	srai	a0,a0,0x10
    3958:	00000313          	li	t1,0
    395c:	bcdfe06f          	j	2528 <core_bench_matrix+0x468>
    3960:	00a50513          	addi	a0,a0,10
    3964:	01051513          	slli	a0,a0,0x10
    3968:	41055513          	srai	a0,a0,0x10
    396c:	00000893          	li	a7,0
    3970:	e10ff06f          	j	2f80 <core_bench_matrix+0xec0>
    3974:	00a50513          	addi	a0,a0,10
    3978:	01051513          	slli	a0,a0,0x10
    397c:	41055513          	srai	a0,a0,0x10
    3980:	00000313          	li	t1,0
    3984:	ab8ff06f          	j	2c3c <core_bench_matrix+0xb7c>
    3988:	00a50513          	addi	a0,a0,10
    398c:	01051513          	slli	a0,a0,0x10
    3990:	41055513          	srai	a0,a0,0x10
    3994:	00000893          	li	a7,0
    3998:	dc4ff06f          	j	2f5c <core_bench_matrix+0xe9c>
    399c:	00a50513          	addi	a0,a0,10
    39a0:	01051513          	slli	a0,a0,0x10
    39a4:	41055513          	srai	a0,a0,0x10
    39a8:	00000313          	li	t1,0
    39ac:	a6cff06f          	j	2c18 <core_bench_matrix+0xb58>
    39b0:	00a50513          	addi	a0,a0,10
    39b4:	01051513          	slli	a0,a0,0x10
    39b8:	41055513          	srai	a0,a0,0x10
    39bc:	00000313          	li	t1,0
    39c0:	eb1fe06f          	j	2870 <core_bench_matrix+0x7b0>
    39c4:	00a50513          	addi	a0,a0,10
    39c8:	01051513          	slli	a0,a0,0x10
    39cc:	41055513          	srai	a0,a0,0x10
    39d0:	00000313          	li	t1,0
    39d4:	b2dfe06f          	j	2500 <core_bench_matrix+0x440>
    39d8:	00a50513          	addi	a0,a0,10
    39dc:	01051513          	slli	a0,a0,0x10
    39e0:	41055513          	srai	a0,a0,0x10
    39e4:	00000893          	li	a7,0
    39e8:	d50ff06f          	j	2f38 <core_bench_matrix+0xe78>
    39ec:	00a50513          	addi	a0,a0,10
    39f0:	01051513          	slli	a0,a0,0x10
    39f4:	41055513          	srai	a0,a0,0x10
    39f8:	00000313          	li	t1,0
    39fc:	9f8ff06f          	j	2bf4 <core_bench_matrix+0xb34>
    3a00:	00a50513          	addi	a0,a0,10
    3a04:	01051513          	slli	a0,a0,0x10
    3a08:	41055513          	srai	a0,a0,0x10
    3a0c:	00000313          	li	t1,0
    3a10:	e39fe06f          	j	2848 <core_bench_matrix+0x788>
    3a14:	00a50513          	addi	a0,a0,10
    3a18:	01051513          	slli	a0,a0,0x10
    3a1c:	41055513          	srai	a0,a0,0x10
    3a20:	00000313          	li	t1,0
    3a24:	ab5fe06f          	j	24d8 <core_bench_matrix+0x418>
    3a28:	00a50513          	addi	a0,a0,10
    3a2c:	01051513          	slli	a0,a0,0x10
    3a30:	41055513          	srai	a0,a0,0x10
    3a34:	00000313          	li	t1,0
    3a38:	998ff06f          	j	2bd0 <core_bench_matrix+0xb10>
    3a3c:	00a50513          	addi	a0,a0,10
    3a40:	01051513          	slli	a0,a0,0x10
    3a44:	41055513          	srai	a0,a0,0x10
    3a48:	00000313          	li	t1,0
    3a4c:	a65fe06f          	j	24b0 <core_bench_matrix+0x3f0>
    3a50:	00a50513          	addi	a0,a0,10
    3a54:	01051513          	slli	a0,a0,0x10
    3a58:	41055513          	srai	a0,a0,0x10
    3a5c:	00000893          	li	a7,0
    3a60:	cb4ff06f          	j	2f14 <core_bench_matrix+0xe54>
    3a64:	00a50513          	addi	a0,a0,10
    3a68:	01051513          	slli	a0,a0,0x10
    3a6c:	41055513          	srai	a0,a0,0x10
    3a70:	00000313          	li	t1,0
    3a74:	dadfe06f          	j	2820 <core_bench_matrix+0x760>
    3a78:	00a50513          	addi	a0,a0,10
    3a7c:	01051513          	slli	a0,a0,0x10
    3a80:	41055513          	srai	a0,a0,0x10
    3a84:	00000893          	li	a7,0
    3a88:	c68ff06f          	j	2ef0 <core_bench_matrix+0xe30>
    3a8c:	00a50513          	addi	a0,a0,10
    3a90:	01051513          	slli	a0,a0,0x10
    3a94:	41055513          	srai	a0,a0,0x10
    3a98:	00000313          	li	t1,0
    3a9c:	d5dfe06f          	j	27f8 <core_bench_matrix+0x738>
    3aa0:	00a50513          	addi	a0,a0,10
    3aa4:	01051513          	slli	a0,a0,0x10
    3aa8:	41055513          	srai	a0,a0,0x10
    3aac:	00000313          	li	t1,0
    3ab0:	8fcff06f          	j	2bac <core_bench_matrix+0xaec>
    3ab4:	00a50513          	addi	a0,a0,10
    3ab8:	01051513          	slli	a0,a0,0x10
    3abc:	41055513          	srai	a0,a0,0x10
    3ac0:	00000313          	li	t1,0
    3ac4:	9c5fe06f          	j	2488 <core_bench_matrix+0x3c8>
    3ac8:	00000593          	li	a1,0
    3acc:	00000513          	li	a0,0
    3ad0:	1c1040ef          	jal	ra,8490 <crc16>
    3ad4:	00050593          	mv	a1,a0
    3ad8:	00000513          	li	a0,0
    3adc:	1b5040ef          	jal	ra,8490 <crc16>
    3ae0:	00050593          	mv	a1,a0
    3ae4:	00000513          	li	a0,0
    3ae8:	1a9040ef          	jal	ra,8490 <crc16>
    3aec:	00050593          	mv	a1,a0
    3af0:	00000513          	li	a0,0
    3af4:	19d040ef          	jal	ra,8490 <crc16>
    3af8:	e38ff06f          	j	3130 <core_bench_matrix+0x1070>
    3afc:	00000013          	nop

00003b00 <matrix_test>:
    3b00:	fa010113          	addi	sp,sp,-96
    3b04:	04912a23          	sw	s1,84(sp)
    3b08:	04112e23          	sw	ra,92(sp)
    3b0c:	fffff4b7          	lui	s1,0xfffff
    3b10:	04812c23          	sw	s0,88(sp)
    3b14:	05212823          	sw	s2,80(sp)
    3b18:	05312623          	sw	s3,76(sp)
    3b1c:	05412423          	sw	s4,72(sp)
    3b20:	05512223          	sw	s5,68(sp)
    3b24:	05612023          	sw	s6,64(sp)
    3b28:	03712e23          	sw	s7,60(sp)
    3b2c:	03812c23          	sw	s8,56(sp)
    3b30:	03912a23          	sw	s9,52(sp)
    3b34:	03a12823          	sw	s10,48(sp)
    3b38:	03b12623          	sw	s11,44(sp)
    3b3c:	00b12223          	sw	a1,4(sp)
    3b40:	00c12823          	sw	a2,16(sp)
    3b44:	009764b3          	or	s1,a4,s1
    3b48:	00051463          	bnez	a0,3b50 <matrix_test+0x50>
    3b4c:	1ed0106f          	j	5538 <matrix_test+0x1a38>
    3b50:	40a007b3          	neg	a5,a0
    3b54:	00151413          	slli	s0,a0,0x1
    3b58:	00068993          	mv	s3,a3
    3b5c:	00050a13          	mv	s4,a0
    3b60:	00070913          	mv	s2,a4
    3b64:	00f12623          	sw	a5,12(sp)
    3b68:	00000313          	li	t1,0
    3b6c:	008606b3          	add	a3,a2,s0
    3b70:	00279e13          	slli	t3,a5,0x2
    3b74:	40868633          	sub	a2,a3,s0
    3b78:	40c68733          	sub	a4,a3,a2
    3b7c:	ffe70713          	addi	a4,a4,-2
    3b80:	00175713          	srli	a4,a4,0x1
    3b84:	00170713          	addi	a4,a4,1
    3b88:	00777713          	andi	a4,a4,7
    3b8c:	00060793          	mv	a5,a2
    3b90:	0a070463          	beqz	a4,3c38 <matrix_test+0x138>
    3b94:	00100593          	li	a1,1
    3b98:	08b70663          	beq	a4,a1,3c24 <matrix_test+0x124>
    3b9c:	00200593          	li	a1,2
    3ba0:	06b70a63          	beq	a4,a1,3c14 <matrix_test+0x114>
    3ba4:	00300593          	li	a1,3
    3ba8:	04b70e63          	beq	a4,a1,3c04 <matrix_test+0x104>
    3bac:	00400593          	li	a1,4
    3bb0:	04b70263          	beq	a4,a1,3bf4 <matrix_test+0xf4>
    3bb4:	00500593          	li	a1,5
    3bb8:	02b70663          	beq	a4,a1,3be4 <matrix_test+0xe4>
    3bbc:	00600593          	li	a1,6
    3bc0:	00b70a63          	beq	a4,a1,3bd4 <matrix_test+0xd4>
    3bc4:	00065703          	lhu	a4,0(a2)
    3bc8:	00260793          	addi	a5,a2,2
    3bcc:	00e90733          	add	a4,s2,a4
    3bd0:	00e61023          	sh	a4,0(a2)
    3bd4:	0007d703          	lhu	a4,0(a5)
    3bd8:	00278793          	addi	a5,a5,2
    3bdc:	00e90733          	add	a4,s2,a4
    3be0:	fee79f23          	sh	a4,-2(a5)
    3be4:	0007d703          	lhu	a4,0(a5)
    3be8:	00278793          	addi	a5,a5,2
    3bec:	00e90733          	add	a4,s2,a4
    3bf0:	fee79f23          	sh	a4,-2(a5)
    3bf4:	0007d703          	lhu	a4,0(a5)
    3bf8:	00278793          	addi	a5,a5,2
    3bfc:	00e90733          	add	a4,s2,a4
    3c00:	fee79f23          	sh	a4,-2(a5)
    3c04:	0007d703          	lhu	a4,0(a5)
    3c08:	00278793          	addi	a5,a5,2
    3c0c:	00e90733          	add	a4,s2,a4
    3c10:	fee79f23          	sh	a4,-2(a5)
    3c14:	0007d703          	lhu	a4,0(a5)
    3c18:	00278793          	addi	a5,a5,2
    3c1c:	00e90733          	add	a4,s2,a4
    3c20:	fee79f23          	sh	a4,-2(a5)
    3c24:	0007d703          	lhu	a4,0(a5)
    3c28:	00278793          	addi	a5,a5,2
    3c2c:	00e90733          	add	a4,s2,a4
    3c30:	fee79f23          	sh	a4,-2(a5)
    3c34:	06d78663          	beq	a5,a3,3ca0 <matrix_test+0x1a0>
    3c38:	0007df83          	lhu	t6,0(a5)
    3c3c:	0027df03          	lhu	t5,2(a5)
    3c40:	0047de83          	lhu	t4,4(a5)
    3c44:	0067d883          	lhu	a7,6(a5)
    3c48:	0087d803          	lhu	a6,8(a5)
    3c4c:	00a7d503          	lhu	a0,10(a5)
    3c50:	00c7d583          	lhu	a1,12(a5)
    3c54:	00e7d703          	lhu	a4,14(a5)
    3c58:	01f90fb3          	add	t6,s2,t6
    3c5c:	01e90f33          	add	t5,s2,t5
    3c60:	01d90eb3          	add	t4,s2,t4
    3c64:	011908b3          	add	a7,s2,a7
    3c68:	01090833          	add	a6,s2,a6
    3c6c:	00a90533          	add	a0,s2,a0
    3c70:	00b905b3          	add	a1,s2,a1
    3c74:	00e90733          	add	a4,s2,a4
    3c78:	01f79023          	sh	t6,0(a5)
    3c7c:	01e79123          	sh	t5,2(a5)
    3c80:	01d79223          	sh	t4,4(a5)
    3c84:	01179323          	sh	a7,6(a5)
    3c88:	01079423          	sh	a6,8(a5)
    3c8c:	00a79523          	sh	a0,10(a5)
    3c90:	00b79623          	sh	a1,12(a5)
    3c94:	00e79723          	sh	a4,14(a5)
    3c98:	01078793          	addi	a5,a5,16
    3c9c:	f8d79ee3          	bne	a5,a3,3c38 <matrix_test+0x138>
    3ca0:	00130313          	addi	t1,t1,1
    3ca4:	41c606b3          	sub	a3,a2,t3
    3ca8:	ec6a16e3          	bne	s4,t1,3b74 <matrix_test+0x74>
    3cac:	00c12783          	lw	a5,12(sp)
    3cb0:	00412f03          	lw	t5,4(sp)
    3cb4:	00000893          	li	a7,0
    3cb8:	00279e13          	slli	t3,a5,0x2
    3cbc:	01012783          	lw	a5,16(sp)
    3cc0:	00000313          	li	t1,0
    3cc4:	00878633          	add	a2,a5,s0
    3cc8:	408605b3          	sub	a1,a2,s0
    3ccc:	40b60733          	sub	a4,a2,a1
    3cd0:	ffe70713          	addi	a4,a4,-2
    3cd4:	00175713          	srli	a4,a4,0x1
    3cd8:	00170713          	addi	a4,a4,1
    3cdc:	00289793          	slli	a5,a7,0x2
    3ce0:	00777713          	andi	a4,a4,7
    3ce4:	00058693          	mv	a3,a1
    3ce8:	00ff07b3          	add	a5,t5,a5
    3cec:	0c070263          	beqz	a4,3db0 <matrix_test+0x2b0>
    3cf0:	00100513          	li	a0,1
    3cf4:	0aa70263          	beq	a4,a0,3d98 <matrix_test+0x298>
    3cf8:	00200513          	li	a0,2
    3cfc:	08a70463          	beq	a4,a0,3d84 <matrix_test+0x284>
    3d00:	00300513          	li	a0,3
    3d04:	06a70663          	beq	a4,a0,3d70 <matrix_test+0x270>
    3d08:	00400513          	li	a0,4
    3d0c:	04a70863          	beq	a4,a0,3d5c <matrix_test+0x25c>
    3d10:	00500513          	li	a0,5
    3d14:	02a70a63          	beq	a4,a0,3d48 <matrix_test+0x248>
    3d18:	00600513          	li	a0,6
    3d1c:	00a70c63          	beq	a4,a0,3d34 <matrix_test+0x234>
    3d20:	00059703          	lh	a4,0(a1)
    3d24:	00258693          	addi	a3,a1,2
    3d28:	00478793          	addi	a5,a5,4
    3d2c:	03270733          	mul	a4,a4,s2
    3d30:	fee7ae23          	sw	a4,-4(a5)
    3d34:	00069703          	lh	a4,0(a3)
    3d38:	00478793          	addi	a5,a5,4
    3d3c:	00268693          	addi	a3,a3,2
    3d40:	03270733          	mul	a4,a4,s2
    3d44:	fee7ae23          	sw	a4,-4(a5)
    3d48:	00069703          	lh	a4,0(a3)
    3d4c:	00478793          	addi	a5,a5,4
    3d50:	00268693          	addi	a3,a3,2
    3d54:	03270733          	mul	a4,a4,s2
    3d58:	fee7ae23          	sw	a4,-4(a5)
    3d5c:	00069703          	lh	a4,0(a3)
    3d60:	00478793          	addi	a5,a5,4
    3d64:	00268693          	addi	a3,a3,2
    3d68:	03270733          	mul	a4,a4,s2
    3d6c:	fee7ae23          	sw	a4,-4(a5)
    3d70:	00069703          	lh	a4,0(a3)
    3d74:	00478793          	addi	a5,a5,4
    3d78:	00268693          	addi	a3,a3,2
    3d7c:	03270733          	mul	a4,a4,s2
    3d80:	fee7ae23          	sw	a4,-4(a5)
    3d84:	00069703          	lh	a4,0(a3)
    3d88:	00478793          	addi	a5,a5,4
    3d8c:	00268693          	addi	a3,a3,2
    3d90:	03270733          	mul	a4,a4,s2
    3d94:	fee7ae23          	sw	a4,-4(a5)
    3d98:	00069703          	lh	a4,0(a3)
    3d9c:	00268693          	addi	a3,a3,2
    3da0:	00478793          	addi	a5,a5,4
    3da4:	03270733          	mul	a4,a4,s2
    3da8:	fee7ae23          	sw	a4,-4(a5)
    3dac:	06d60863          	beq	a2,a3,3e1c <matrix_test+0x31c>
    3db0:	00069083          	lh	ra,0(a3)
    3db4:	00269383          	lh	t2,2(a3)
    3db8:	00469283          	lh	t0,4(a3)
    3dbc:	00669f83          	lh	t6,6(a3)
    3dc0:	00869e83          	lh	t4,8(a3)
    3dc4:	00a69803          	lh	a6,10(a3)
    3dc8:	00c69503          	lh	a0,12(a3)
    3dcc:	00e69703          	lh	a4,14(a3)
    3dd0:	032080b3          	mul	ra,ra,s2
    3dd4:	01068693          	addi	a3,a3,16
    3dd8:	02078793          	addi	a5,a5,32
    3ddc:	032383b3          	mul	t2,t2,s2
    3de0:	fe17a023          	sw	ra,-32(a5)
    3de4:	032282b3          	mul	t0,t0,s2
    3de8:	fe77a223          	sw	t2,-28(a5)
    3dec:	032f8fb3          	mul	t6,t6,s2
    3df0:	fe57a423          	sw	t0,-24(a5)
    3df4:	032e8eb3          	mul	t4,t4,s2
    3df8:	fff7a623          	sw	t6,-20(a5)
    3dfc:	03280833          	mul	a6,a6,s2
    3e00:	ffd7a823          	sw	t4,-16(a5)
    3e04:	03250533          	mul	a0,a0,s2
    3e08:	ff07aa23          	sw	a6,-12(a5)
    3e0c:	03270733          	mul	a4,a4,s2
    3e10:	fea7ac23          	sw	a0,-8(a5)
    3e14:	fee7ae23          	sw	a4,-4(a5)
    3e18:	f8d61ce3          	bne	a2,a3,3db0 <matrix_test+0x2b0>
    3e1c:	00130313          	addi	t1,t1,1
    3e20:	014888b3          	add	a7,a7,s4
    3e24:	41c58633          	sub	a2,a1,t3
    3e28:	ea6a10e3          	bne	s4,t1,3cc8 <matrix_test+0x1c8>
    3e2c:	00c12683          	lw	a3,12(sp)
    3e30:	00412703          	lw	a4,4(sp)
    3e34:	002a1793          	slli	a5,s4,0x2
    3e38:	00f12423          	sw	a5,8(sp)
    3e3c:	00000513          	li	a0,0
    3e40:	00000e13          	li	t3,0
    3e44:	00000313          	li	t1,0
    3e48:	00000613          	li	a2,0
    3e4c:	00369813          	slli	a6,a3,0x3
    3e50:	00f70733          	add	a4,a4,a5
    3e54:	00269593          	slli	a1,a3,0x2
    3e58:	00e588b3          	add	a7,a1,a4
    3e5c:	411707b3          	sub	a5,a4,a7
    3e60:	ffc78793          	addi	a5,a5,-4
    3e64:	0027d793          	srli	a5,a5,0x2
    3e68:	00178793          	addi	a5,a5,1
    3e6c:	0077f793          	andi	a5,a5,7
    3e70:	00088693          	mv	a3,a7
    3e74:	64078ae3          	beqz	a5,4cc8 <matrix_test+0x11c8>
    3e78:	00100e93          	li	t4,1
    3e7c:	11d78e63          	beq	a5,t4,3f98 <matrix_test+0x498>
    3e80:	00200e93          	li	t4,2
    3e84:	0fd78663          	beq	a5,t4,3f70 <matrix_test+0x470>
    3e88:	00300e93          	li	t4,3
    3e8c:	0bd78e63          	beq	a5,t4,3f48 <matrix_test+0x448>
    3e90:	00400e93          	li	t4,4
    3e94:	09d78663          	beq	a5,t4,3f20 <matrix_test+0x420>
    3e98:	00500e93          	li	t4,5
    3e9c:	05d78e63          	beq	a5,t4,3ef8 <matrix_test+0x3f8>
    3ea0:	00600e93          	li	t4,6
    3ea4:	03d78663          	beq	a5,t4,3ed0 <matrix_test+0x3d0>
    3ea8:	000e0793          	mv	a5,t3
    3eac:	0008ae03          	lw	t3,0(a7)
    3eb0:	01c30333          	add	t1,t1,t3
    3eb4:	0064d463          	bge	s1,t1,3ebc <matrix_test+0x3bc>
    3eb8:	66c0106f          	j	5524 <matrix_test+0x1a24>
    3ebc:	01c7a7b3          	slt	a5,a5,t3
    3ec0:	00f507b3          	add	a5,a0,a5
    3ec4:	01079513          	slli	a0,a5,0x10
    3ec8:	41055513          	srai	a0,a0,0x10
    3ecc:	00488693          	addi	a3,a7,4
    3ed0:	000e0793          	mv	a5,t3
    3ed4:	0006ae03          	lw	t3,0(a3)
    3ed8:	01c30333          	add	t1,t1,t3
    3edc:	0064d463          	bge	s1,t1,3ee4 <matrix_test+0x3e4>
    3ee0:	5cc0106f          	j	54ac <matrix_test+0x19ac>
    3ee4:	01c7a7b3          	slt	a5,a5,t3
    3ee8:	00f507b3          	add	a5,a0,a5
    3eec:	01079513          	slli	a0,a5,0x10
    3ef0:	41055513          	srai	a0,a0,0x10
    3ef4:	00468693          	addi	a3,a3,4
    3ef8:	000e0793          	mv	a5,t3
    3efc:	0006ae03          	lw	t3,0(a3)
    3f00:	01c30333          	add	t1,t1,t3
    3f04:	0064d463          	bge	s1,t1,3f0c <matrix_test+0x40c>
    3f08:	57c0106f          	j	5484 <matrix_test+0x1984>
    3f0c:	01c7a7b3          	slt	a5,a5,t3
    3f10:	00f507b3          	add	a5,a0,a5
    3f14:	01079513          	slli	a0,a5,0x10
    3f18:	41055513          	srai	a0,a0,0x10
    3f1c:	00468693          	addi	a3,a3,4
    3f20:	000e0793          	mv	a5,t3
    3f24:	0006ae03          	lw	t3,0(a3)
    3f28:	01c30333          	add	t1,t1,t3
    3f2c:	0064d463          	bge	s1,t1,3f34 <matrix_test+0x434>
    3f30:	5040106f          	j	5434 <matrix_test+0x1934>
    3f34:	01c7a7b3          	slt	a5,a5,t3
    3f38:	00f507b3          	add	a5,a0,a5
    3f3c:	01079513          	slli	a0,a5,0x10
    3f40:	41055513          	srai	a0,a0,0x10
    3f44:	00468693          	addi	a3,a3,4
    3f48:	000e0793          	mv	a5,t3
    3f4c:	0006ae03          	lw	t3,0(a3)
    3f50:	01c30333          	add	t1,t1,t3
    3f54:	0064d463          	bge	s1,t1,3f5c <matrix_test+0x45c>
    3f58:	4640106f          	j	53bc <matrix_test+0x18bc>
    3f5c:	01c7a7b3          	slt	a5,a5,t3
    3f60:	00f507b3          	add	a5,a0,a5
    3f64:	01079513          	slli	a0,a5,0x10
    3f68:	41055513          	srai	a0,a0,0x10
    3f6c:	00468693          	addi	a3,a3,4
    3f70:	000e0793          	mv	a5,t3
    3f74:	0006ae03          	lw	t3,0(a3)
    3f78:	01c30333          	add	t1,t1,t3
    3f7c:	0064d463          	bge	s1,t1,3f84 <matrix_test+0x484>
    3f80:	4140106f          	j	5394 <matrix_test+0x1894>
    3f84:	01c7a7b3          	slt	a5,a5,t3
    3f88:	00f507b3          	add	a5,a0,a5
    3f8c:	01079513          	slli	a0,a5,0x10
    3f90:	41055513          	srai	a0,a0,0x10
    3f94:	00468693          	addi	a3,a3,4
    3f98:	000e0793          	mv	a5,t3
    3f9c:	0006ae03          	lw	t3,0(a3)
    3fa0:	01c30333          	add	t1,t1,t3
    3fa4:	0064d463          	bge	s1,t1,3fac <matrix_test+0x4ac>
    3fa8:	3600106f          	j	5308 <matrix_test+0x1808>
    3fac:	01c7a7b3          	slt	a5,a5,t3
    3fb0:	00f507b3          	add	a5,a0,a5
    3fb4:	01079513          	slli	a0,a5,0x10
    3fb8:	41055513          	srai	a0,a0,0x10
    3fbc:	00468693          	addi	a3,a3,4
    3fc0:	50d714e3          	bne	a4,a3,4cc8 <matrix_test+0x11c8>
    3fc4:	00160613          	addi	a2,a2,1
    3fc8:	41088733          	sub	a4,a7,a6
    3fcc:	e8ca16e3          	bne	s4,a2,3e58 <matrix_test+0x358>
    3fd0:	00000593          	li	a1,0
    3fd4:	4bc040ef          	jal	ra,8490 <crc16>
    3fd8:	00412a83          	lw	s5,4(sp)
    3fdc:	00812b03          	lw	s6,8(sp)
    3fe0:	00000593          	li	a1,0
    3fe4:	00050d13          	mv	s10,a0
    3fe8:	000b0613          	mv	a2,s6
    3fec:	000a8513          	mv	a0,s5
    3ff0:	7ec040ef          	jal	ra,87dc <memset>
    3ff4:	01012f03          	lw	t5,16(sp)
    3ff8:	00000f93          	li	t6,0
    3ffc:	000a8593          	mv	a1,s5
    4000:	016a8c33          	add	s8,s5,s6
    4004:	008982b3          	add	t0,s3,s0
    4008:	41328633          	sub	a2,t0,s3
    400c:	ffe60613          	addi	a2,a2,-2
    4010:	00165613          	srli	a2,a2,0x1
    4014:	00160613          	addi	a2,a2,1
    4018:	001f9713          	slli	a4,t6,0x1
    401c:	00767613          	andi	a2,a2,7
    4020:	00098693          	mv	a3,s3
    4024:	00000793          	li	a5,0
    4028:	00ef0733          	add	a4,t5,a4
    402c:	0c060e63          	beqz	a2,4108 <matrix_test+0x608>
    4030:	00100513          	li	a0,1
    4034:	0aa60c63          	beq	a2,a0,40ec <matrix_test+0x5ec>
    4038:	00200513          	li	a0,2
    403c:	08a60c63          	beq	a2,a0,40d4 <matrix_test+0x5d4>
    4040:	00300513          	li	a0,3
    4044:	06a60c63          	beq	a2,a0,40bc <matrix_test+0x5bc>
    4048:	00400513          	li	a0,4
    404c:	04a60c63          	beq	a2,a0,40a4 <matrix_test+0x5a4>
    4050:	00500513          	li	a0,5
    4054:	02a60c63          	beq	a2,a0,408c <matrix_test+0x58c>
    4058:	00600513          	li	a0,6
    405c:	00a60c63          	beq	a2,a0,4074 <matrix_test+0x574>
    4060:	00071783          	lh	a5,0(a4)
    4064:	00099603          	lh	a2,0(s3)
    4068:	00270713          	addi	a4,a4,2
    406c:	00298693          	addi	a3,s3,2
    4070:	02c787b3          	mul	a5,a5,a2
    4074:	00071603          	lh	a2,0(a4)
    4078:	00069503          	lh	a0,0(a3)
    407c:	00270713          	addi	a4,a4,2
    4080:	00268693          	addi	a3,a3,2
    4084:	02a60633          	mul	a2,a2,a0
    4088:	00c787b3          	add	a5,a5,a2
    408c:	00071603          	lh	a2,0(a4)
    4090:	00069503          	lh	a0,0(a3)
    4094:	00270713          	addi	a4,a4,2
    4098:	00268693          	addi	a3,a3,2
    409c:	02a60633          	mul	a2,a2,a0
    40a0:	00c787b3          	add	a5,a5,a2
    40a4:	00071603          	lh	a2,0(a4)
    40a8:	00069503          	lh	a0,0(a3)
    40ac:	00270713          	addi	a4,a4,2
    40b0:	00268693          	addi	a3,a3,2
    40b4:	02a60633          	mul	a2,a2,a0
    40b8:	00c787b3          	add	a5,a5,a2
    40bc:	00071603          	lh	a2,0(a4)
    40c0:	00069503          	lh	a0,0(a3)
    40c4:	00270713          	addi	a4,a4,2
    40c8:	00268693          	addi	a3,a3,2
    40cc:	02a60633          	mul	a2,a2,a0
    40d0:	00c787b3          	add	a5,a5,a2
    40d4:	00071603          	lh	a2,0(a4)
    40d8:	00069503          	lh	a0,0(a3)
    40dc:	00270713          	addi	a4,a4,2
    40e0:	00268693          	addi	a3,a3,2
    40e4:	02a60633          	mul	a2,a2,a0
    40e8:	00c787b3          	add	a5,a5,a2
    40ec:	00071603          	lh	a2,0(a4)
    40f0:	00069503          	lh	a0,0(a3)
    40f4:	00268693          	addi	a3,a3,2
    40f8:	00270713          	addi	a4,a4,2
    40fc:	02a60633          	mul	a2,a2,a0
    4100:	00c787b3          	add	a5,a5,a2
    4104:	08d28863          	beq	t0,a3,4194 <matrix_test+0x694>
    4108:	00069503          	lh	a0,0(a3)
    410c:	00071603          	lh	a2,0(a4)
    4110:	00269e03          	lh	t3,2(a3)
    4114:	00271c83          	lh	s9,2(a4)
    4118:	02a60633          	mul	a2,a2,a0
    411c:	00471a83          	lh	s5,4(a4)
    4120:	00469d83          	lh	s11,4(a3)
    4124:	00671383          	lh	t2,6(a4)
    4128:	00669b83          	lh	s7,6(a3)
    412c:	00871303          	lh	t1,8(a4)
    4130:	00869b03          	lh	s6,8(a3)
    4134:	00a71883          	lh	a7,10(a4)
    4138:	00a69083          	lh	ra,10(a3)
    413c:	00c71803          	lh	a6,12(a4)
    4140:	03cc8cb3          	mul	s9,s9,t3
    4144:	00c787b3          	add	a5,a5,a2
    4148:	00c69e83          	lh	t4,12(a3)
    414c:	00e71503          	lh	a0,14(a4)
    4150:	00e69e03          	lh	t3,14(a3)
    4154:	01068693          	addi	a3,a3,16
    4158:	01070713          	addi	a4,a4,16
    415c:	03ba8ab3          	mul	s5,s5,s11
    4160:	019787b3          	add	a5,a5,s9
    4164:	03738633          	mul	a2,t2,s7
    4168:	015787b3          	add	a5,a5,s5
    416c:	03630333          	mul	t1,t1,s6
    4170:	00c787b3          	add	a5,a5,a2
    4174:	02188633          	mul	a2,a7,ra
    4178:	006787b3          	add	a5,a5,t1
    417c:	03d80833          	mul	a6,a6,t4
    4180:	00c787b3          	add	a5,a5,a2
    4184:	03c50633          	mul	a2,a0,t3
    4188:	010787b3          	add	a5,a5,a6
    418c:	00c787b3          	add	a5,a5,a2
    4190:	f6d29ce3          	bne	t0,a3,4108 <matrix_test+0x608>
    4194:	00f5a023          	sw	a5,0(a1)
    4198:	00458593          	addi	a1,a1,4
    419c:	014f8fb3          	add	t6,t6,s4
    41a0:	e6bc14e3          	bne	s8,a1,4008 <matrix_test+0x508>
    41a4:	00c12783          	lw	a5,12(sp)
    41a8:	00412703          	lw	a4,4(sp)
    41ac:	00812683          	lw	a3,8(sp)
    41b0:	00000513          	li	a0,0
    41b4:	00000e13          	li	t3,0
    41b8:	00000313          	li	t1,0
    41bc:	00000613          	li	a2,0
    41c0:	00379813          	slli	a6,a5,0x3
    41c4:	00d70733          	add	a4,a4,a3
    41c8:	00279593          	slli	a1,a5,0x2
    41cc:	00e588b3          	add	a7,a1,a4
    41d0:	411707b3          	sub	a5,a4,a7
    41d4:	ffc78793          	addi	a5,a5,-4
    41d8:	0027d793          	srli	a5,a5,0x2
    41dc:	00178793          	addi	a5,a5,1
    41e0:	0077f793          	andi	a5,a5,7
    41e4:	00088693          	mv	a3,a7
    41e8:	4a0784e3          	beqz	a5,4e90 <matrix_test+0x1390>
    41ec:	00100e93          	li	t4,1
    41f0:	11d78e63          	beq	a5,t4,430c <matrix_test+0x80c>
    41f4:	00200e93          	li	t4,2
    41f8:	0fd78663          	beq	a5,t4,42e4 <matrix_test+0x7e4>
    41fc:	00300e93          	li	t4,3
    4200:	0bd78e63          	beq	a5,t4,42bc <matrix_test+0x7bc>
    4204:	00400e93          	li	t4,4
    4208:	09d78663          	beq	a5,t4,4294 <matrix_test+0x794>
    420c:	00500e93          	li	t4,5
    4210:	05d78e63          	beq	a5,t4,426c <matrix_test+0x76c>
    4214:	00600e93          	li	t4,6
    4218:	03d78663          	beq	a5,t4,4244 <matrix_test+0x744>
    421c:	000e0793          	mv	a5,t3
    4220:	0008ae03          	lw	t3,0(a7)
    4224:	01c30333          	add	t1,t1,t3
    4228:	0064d463          	bge	s1,t1,4230 <matrix_test+0x730>
    422c:	2d00106f          	j	54fc <matrix_test+0x19fc>
    4230:	01c7a7b3          	slt	a5,a5,t3
    4234:	00f507b3          	add	a5,a0,a5
    4238:	01079513          	slli	a0,a5,0x10
    423c:	41055513          	srai	a0,a0,0x10
    4240:	00488693          	addi	a3,a7,4
    4244:	000e0793          	mv	a5,t3
    4248:	0006ae03          	lw	t3,0(a3)
    424c:	01c30333          	add	t1,t1,t3
    4250:	0064d463          	bge	s1,t1,4258 <matrix_test+0x758>
    4254:	2800106f          	j	54d4 <matrix_test+0x19d4>
    4258:	01c7a7b3          	slt	a5,a5,t3
    425c:	00f507b3          	add	a5,a0,a5
    4260:	01079513          	slli	a0,a5,0x10
    4264:	41055513          	srai	a0,a0,0x10
    4268:	00468693          	addi	a3,a3,4
    426c:	000e0793          	mv	a5,t3
    4270:	0006ae03          	lw	t3,0(a3)
    4274:	01c30333          	add	t1,t1,t3
    4278:	0064d463          	bge	s1,t1,4280 <matrix_test+0x780>
    427c:	1f40106f          	j	5470 <matrix_test+0x1970>
    4280:	01c7a7b3          	slt	a5,a5,t3
    4284:	00f507b3          	add	a5,a0,a5
    4288:	01079513          	slli	a0,a5,0x10
    428c:	41055513          	srai	a0,a0,0x10
    4290:	00468693          	addi	a3,a3,4
    4294:	000e0793          	mv	a5,t3
    4298:	0006ae03          	lw	t3,0(a3)
    429c:	01c30333          	add	t1,t1,t3
    42a0:	0064d463          	bge	s1,t1,42a8 <matrix_test+0x7a8>
    42a4:	17c0106f          	j	5420 <matrix_test+0x1920>
    42a8:	01c7a7b3          	slt	a5,a5,t3
    42ac:	00f507b3          	add	a5,a0,a5
    42b0:	01079513          	slli	a0,a5,0x10
    42b4:	41055513          	srai	a0,a0,0x10
    42b8:	00468693          	addi	a3,a3,4
    42bc:	000e0793          	mv	a5,t3
    42c0:	0006ae03          	lw	t3,0(a3)
    42c4:	01c30333          	add	t1,t1,t3
    42c8:	0064d463          	bge	s1,t1,42d0 <matrix_test+0x7d0>
    42cc:	0dc0106f          	j	53a8 <matrix_test+0x18a8>
    42d0:	01c7a7b3          	slt	a5,a5,t3
    42d4:	00f507b3          	add	a5,a0,a5
    42d8:	01079513          	slli	a0,a5,0x10
    42dc:	41055513          	srai	a0,a0,0x10
    42e0:	00468693          	addi	a3,a3,4
    42e4:	000e0793          	mv	a5,t3
    42e8:	0006ae03          	lw	t3,0(a3)
    42ec:	01c30333          	add	t1,t1,t3
    42f0:	0064d463          	bge	s1,t1,42f8 <matrix_test+0x7f8>
    42f4:	08c0106f          	j	5380 <matrix_test+0x1880>
    42f8:	01c7a7b3          	slt	a5,a5,t3
    42fc:	00f507b3          	add	a5,a0,a5
    4300:	01079513          	slli	a0,a5,0x10
    4304:	41055513          	srai	a0,a0,0x10
    4308:	00468693          	addi	a3,a3,4
    430c:	000e0793          	mv	a5,t3
    4310:	0006ae03          	lw	t3,0(a3)
    4314:	01c30333          	add	t1,t1,t3
    4318:	0064d463          	bge	s1,t1,4320 <matrix_test+0x820>
    431c:	0000106f          	j	531c <matrix_test+0x181c>
    4320:	01c7a7b3          	slt	a5,a5,t3
    4324:	00f507b3          	add	a5,a0,a5
    4328:	01079513          	slli	a0,a5,0x10
    432c:	41055513          	srai	a0,a0,0x10
    4330:	00468693          	addi	a3,a3,4
    4334:	34d71ee3          	bne	a4,a3,4e90 <matrix_test+0x1390>
    4338:	00160613          	addi	a2,a2,1
    433c:	41088733          	sub	a4,a7,a6
    4340:	e8ca16e3          	bne	s4,a2,41cc <matrix_test+0x6cc>
    4344:	000d0593          	mv	a1,s10
    4348:	148040ef          	jal	ra,8490 <crc16>
    434c:	01012783          	lw	a5,16(sp)
    4350:	00912c23          	sw	s1,24(sp)
    4354:	00812483          	lw	s1,8(sp)
    4358:	00000713          	li	a4,0
    435c:	01212e23          	sw	s2,28(sp)
    4360:	00000b93          	li	s7,0
    4364:	00a12a23          	sw	a0,20(sp)
    4368:	00078b13          	mv	s6,a5
    436c:	00878ab3          	add	s5,a5,s0
    4370:	00070913          	mv	s2,a4
    4374:	00412783          	lw	a5,4(sp)
    4378:	002b9f13          	slli	t5,s7,0x2
    437c:	00048613          	mv	a2,s1
    4380:	01e78f33          	add	t5,a5,t5
    4384:	000f0513          	mv	a0,t5
    4388:	00000593          	li	a1,0
    438c:	450040ef          	jal	ra,87dc <memset>
    4390:	00050f13          	mv	t5,a0
    4394:	00000f93          	li	t6,0
    4398:	00098e93          	mv	t4,s3
    439c:	416a8633          	sub	a2,s5,s6
    43a0:	ffe60613          	addi	a2,a2,-2
    43a4:	00165613          	srli	a2,a2,0x1
    43a8:	00160613          	addi	a2,a2,1
    43ac:	00767613          	andi	a2,a2,7
    43b0:	000e8793          	mv	a5,t4
    43b4:	000b0693          	mv	a3,s6
    43b8:	00000713          	li	a4,0
    43bc:	0c060e63          	beqz	a2,4498 <matrix_test+0x998>
    43c0:	00100593          	li	a1,1
    43c4:	0ab60c63          	beq	a2,a1,447c <matrix_test+0x97c>
    43c8:	00200593          	li	a1,2
    43cc:	08b60c63          	beq	a2,a1,4464 <matrix_test+0x964>
    43d0:	00300593          	li	a1,3
    43d4:	06b60c63          	beq	a2,a1,444c <matrix_test+0x94c>
    43d8:	00400593          	li	a1,4
    43dc:	04b60c63          	beq	a2,a1,4434 <matrix_test+0x934>
    43e0:	00500593          	li	a1,5
    43e4:	02b60c63          	beq	a2,a1,441c <matrix_test+0x91c>
    43e8:	00600593          	li	a1,6
    43ec:	00b60c63          	beq	a2,a1,4404 <matrix_test+0x904>
    43f0:	000b1703          	lh	a4,0(s6)
    43f4:	000e9603          	lh	a2,0(t4)
    43f8:	002b0693          	addi	a3,s6,2
    43fc:	008e87b3          	add	a5,t4,s0
    4400:	02c70733          	mul	a4,a4,a2
    4404:	00069603          	lh	a2,0(a3)
    4408:	00079583          	lh	a1,0(a5)
    440c:	00268693          	addi	a3,a3,2
    4410:	008787b3          	add	a5,a5,s0
    4414:	02b60633          	mul	a2,a2,a1
    4418:	00c70733          	add	a4,a4,a2
    441c:	00069603          	lh	a2,0(a3)
    4420:	00079583          	lh	a1,0(a5)
    4424:	00268693          	addi	a3,a3,2
    4428:	008787b3          	add	a5,a5,s0
    442c:	02b60633          	mul	a2,a2,a1
    4430:	00c70733          	add	a4,a4,a2
    4434:	00069603          	lh	a2,0(a3)
    4438:	00079583          	lh	a1,0(a5)
    443c:	00268693          	addi	a3,a3,2
    4440:	008787b3          	add	a5,a5,s0
    4444:	02b60633          	mul	a2,a2,a1
    4448:	00c70733          	add	a4,a4,a2
    444c:	00069603          	lh	a2,0(a3)
    4450:	00079583          	lh	a1,0(a5)
    4454:	00268693          	addi	a3,a3,2
    4458:	008787b3          	add	a5,a5,s0
    445c:	02b60633          	mul	a2,a2,a1
    4460:	00c70733          	add	a4,a4,a2
    4464:	00069603          	lh	a2,0(a3)
    4468:	00079583          	lh	a1,0(a5)
    446c:	00268693          	addi	a3,a3,2
    4470:	008787b3          	add	a5,a5,s0
    4474:	02b60633          	mul	a2,a2,a1
    4478:	00c70733          	add	a4,a4,a2
    447c:	00069603          	lh	a2,0(a3)
    4480:	00079583          	lh	a1,0(a5)
    4484:	00268693          	addi	a3,a3,2
    4488:	008787b3          	add	a5,a5,s0
    448c:	02b60633          	mul	a2,a2,a1
    4490:	00c70733          	add	a4,a4,a2
    4494:	0ada8663          	beq	s5,a3,4540 <matrix_test+0xa40>
    4498:	00079583          	lh	a1,0(a5)
    449c:	00069d83          	lh	s11,0(a3)
    44a0:	008787b3          	add	a5,a5,s0
    44a4:	00079603          	lh	a2,0(a5)
    44a8:	00269e03          	lh	t3,2(a3)
    44ac:	008787b3          	add	a5,a5,s0
    44b0:	00469303          	lh	t1,4(a3)
    44b4:	00079d03          	lh	s10,0(a5)
    44b8:	008787b3          	add	a5,a5,s0
    44bc:	02bd8db3          	mul	s11,s11,a1
    44c0:	00669883          	lh	a7,6(a3)
    44c4:	00079c83          	lh	s9,0(a5)
    44c8:	008787b3          	add	a5,a5,s0
    44cc:	00869803          	lh	a6,8(a3)
    44d0:	00079c03          	lh	s8,0(a5)
    44d4:	008787b3          	add	a5,a5,s0
    44d8:	00a69503          	lh	a0,10(a3)
    44dc:	00079083          	lh	ra,0(a5)
    44e0:	008787b3          	add	a5,a5,s0
    44e4:	02ce0e33          	mul	t3,t3,a2
    44e8:	00c69583          	lh	a1,12(a3)
    44ec:	00079383          	lh	t2,0(a5)
    44f0:	008787b3          	add	a5,a5,s0
    44f4:	00e69603          	lh	a2,14(a3)
    44f8:	00079283          	lh	t0,0(a5)
    44fc:	01b70733          	add	a4,a4,s11
    4500:	01068693          	addi	a3,a3,16
    4504:	008787b3          	add	a5,a5,s0
    4508:	03a30333          	mul	t1,t1,s10
    450c:	01c70733          	add	a4,a4,t3
    4510:	039888b3          	mul	a7,a7,s9
    4514:	00670733          	add	a4,a4,t1
    4518:	03880833          	mul	a6,a6,s8
    451c:	01170733          	add	a4,a4,a7
    4520:	02150533          	mul	a0,a0,ra
    4524:	01070733          	add	a4,a4,a6
    4528:	027585b3          	mul	a1,a1,t2
    452c:	00a70733          	add	a4,a4,a0
    4530:	02560633          	mul	a2,a2,t0
    4534:	00b70733          	add	a4,a4,a1
    4538:	00c70733          	add	a4,a4,a2
    453c:	f4da9ee3          	bne	s5,a3,4498 <matrix_test+0x998>
    4540:	00ef2023          	sw	a4,0(t5)
    4544:	001f8f93          	addi	t6,t6,1
    4548:	004f0f13          	addi	t5,t5,4
    454c:	002e8e93          	addi	t4,t4,2
    4550:	e5fa16e3          	bne	s4,t6,439c <matrix_test+0x89c>
    4554:	00190913          	addi	s2,s2,1
    4558:	008b0b33          	add	s6,s6,s0
    455c:	014b8bb3          	add	s7,s7,s4
    4560:	008a8ab3          	add	s5,s5,s0
    4564:	e12a18e3          	bne	s4,s2,4374 <matrix_test+0x874>
    4568:	00c12783          	lw	a5,12(sp)
    456c:	00412703          	lw	a4,4(sp)
    4570:	00812683          	lw	a3,8(sp)
    4574:	01812483          	lw	s1,24(sp)
    4578:	01c12903          	lw	s2,28(sp)
    457c:	00000513          	li	a0,0
    4580:	00000e13          	li	t3,0
    4584:	00000313          	li	t1,0
    4588:	00000613          	li	a2,0
    458c:	00379813          	slli	a6,a5,0x3
    4590:	00d70733          	add	a4,a4,a3
    4594:	00279593          	slli	a1,a5,0x2
    4598:	00e588b3          	add	a7,a1,a4
    459c:	411707b3          	sub	a5,a4,a7
    45a0:	ffc78793          	addi	a5,a5,-4
    45a4:	0027d793          	srli	a5,a5,0x2
    45a8:	00178793          	addi	a5,a5,1
    45ac:	0077f793          	andi	a5,a5,7
    45b0:	00088693          	mv	a3,a7
    45b4:	2a0782e3          	beqz	a5,5058 <matrix_test+0x1558>
    45b8:	00100e93          	li	t4,1
    45bc:	11d78263          	beq	a5,t4,46c0 <matrix_test+0xbc0>
    45c0:	00200e93          	li	t4,2
    45c4:	0dd78c63          	beq	a5,t4,469c <matrix_test+0xb9c>
    45c8:	00300e93          	li	t4,3
    45cc:	0bd78663          	beq	a5,t4,4678 <matrix_test+0xb78>
    45d0:	00400e93          	li	t4,4
    45d4:	09d78063          	beq	a5,t4,4654 <matrix_test+0xb54>
    45d8:	00500e93          	li	t4,5
    45dc:	05d78a63          	beq	a5,t4,4630 <matrix_test+0xb30>
    45e0:	00600e93          	li	t4,6
    45e4:	03d78463          	beq	a5,t4,460c <matrix_test+0xb0c>
    45e8:	000e0793          	mv	a5,t3
    45ec:	0008ae03          	lw	t3,0(a7)
    45f0:	01c30333          	add	t1,t1,t3
    45f4:	7064cee3          	blt	s1,t1,5510 <matrix_test+0x1a10>
    45f8:	01c7a7b3          	slt	a5,a5,t3
    45fc:	00f507b3          	add	a5,a0,a5
    4600:	01079513          	slli	a0,a5,0x10
    4604:	41055513          	srai	a0,a0,0x10
    4608:	00488693          	addi	a3,a7,4
    460c:	000e0793          	mv	a5,t3
    4610:	0006ae03          	lw	t3,0(a3)
    4614:	01c30333          	add	t1,t1,t3
    4618:	6864c0e3          	blt	s1,t1,5498 <matrix_test+0x1998>
    461c:	01c7a7b3          	slt	a5,a5,t3
    4620:	00f507b3          	add	a5,a0,a5
    4624:	01079513          	slli	a0,a5,0x10
    4628:	41055513          	srai	a0,a0,0x10
    462c:	00468693          	addi	a3,a3,4
    4630:	000e0793          	mv	a5,t3
    4634:	0006ae03          	lw	t3,0(a3)
    4638:	01c30333          	add	t1,t1,t3
    463c:	6264c0e3          	blt	s1,t1,545c <matrix_test+0x195c>
    4640:	01c7a7b3          	slt	a5,a5,t3
    4644:	00f507b3          	add	a5,a0,a5
    4648:	01079513          	slli	a0,a5,0x10
    464c:	41055513          	srai	a0,a0,0x10
    4650:	00468693          	addi	a3,a3,4
    4654:	000e0793          	mv	a5,t3
    4658:	0006ae03          	lw	t3,0(a3)
    465c:	01c30333          	add	t1,t1,t3
    4660:	5a64c6e3          	blt	s1,t1,540c <matrix_test+0x190c>
    4664:	01c7a7b3          	slt	a5,a5,t3
    4668:	00f507b3          	add	a5,a0,a5
    466c:	01079513          	slli	a0,a5,0x10
    4670:	41055513          	srai	a0,a0,0x10
    4674:	00468693          	addi	a3,a3,4
    4678:	000e0793          	mv	a5,t3
    467c:	0006ae03          	lw	t3,0(a3)
    4680:	01c30333          	add	t1,t1,t3
    4684:	5664c0e3          	blt	s1,t1,53e4 <matrix_test+0x18e4>
    4688:	01c7a7b3          	slt	a5,a5,t3
    468c:	00f507b3          	add	a5,a0,a5
    4690:	01079513          	slli	a0,a5,0x10
    4694:	41055513          	srai	a0,a0,0x10
    4698:	00468693          	addi	a3,a3,4
    469c:	000e0793          	mv	a5,t3
    46a0:	0006ae03          	lw	t3,0(a3)
    46a4:	01c30333          	add	t1,t1,t3
    46a8:	4c64c2e3          	blt	s1,t1,536c <matrix_test+0x186c>
    46ac:	01c7a7b3          	slt	a5,a5,t3
    46b0:	00f507b3          	add	a5,a0,a5
    46b4:	01079513          	slli	a0,a5,0x10
    46b8:	41055513          	srai	a0,a0,0x10
    46bc:	00468693          	addi	a3,a3,4
    46c0:	000e0793          	mv	a5,t3
    46c4:	0006ae03          	lw	t3,0(a3)
    46c8:	01c30333          	add	t1,t1,t3
    46cc:	4664cce3          	blt	s1,t1,5344 <matrix_test+0x1844>
    46d0:	01c7a7b3          	slt	a5,a5,t3
    46d4:	00f507b3          	add	a5,a0,a5
    46d8:	01079513          	slli	a0,a5,0x10
    46dc:	41055513          	srai	a0,a0,0x10
    46e0:	00468693          	addi	a3,a3,4
    46e4:	16d71ae3          	bne	a4,a3,5058 <matrix_test+0x1558>
    46e8:	00160613          	addi	a2,a2,1
    46ec:	41088733          	sub	a4,a7,a6
    46f0:	eaca14e3          	bne	s4,a2,4598 <matrix_test+0xa98>
    46f4:	01412583          	lw	a1,20(sp)
    46f8:	00000c93          	li	s9,0
    46fc:	00000c13          	li	s8,0
    4700:	591030ef          	jal	ra,8490 <crc16>
    4704:	01012783          	lw	a5,16(sp)
    4708:	00412d03          	lw	s10,4(sp)
    470c:	00812d83          	lw	s11,8(sp)
    4710:	00050a93          	mv	s5,a0
    4714:	00078b93          	mv	s7,a5
    4718:	00878b33          	add	s6,a5,s0
    471c:	002c9693          	slli	a3,s9,0x2
    4720:	00dd06b3          	add	a3,s10,a3
    4724:	00000593          	li	a1,0
    4728:	00068513          	mv	a0,a3
    472c:	000d8613          	mv	a2,s11
    4730:	0ac040ef          	jal	ra,87dc <memset>
    4734:	00050693          	mv	a3,a0
    4738:	00098593          	mv	a1,s3
    473c:	00000513          	li	a0,0
    4740:	417b0733          	sub	a4,s6,s7
    4744:	ffe70713          	addi	a4,a4,-2
    4748:	00175713          	srli	a4,a4,0x1
    474c:	00170713          	addi	a4,a4,1
    4750:	00377713          	andi	a4,a4,3
    4754:	00058793          	mv	a5,a1
    4758:	000b8613          	mv	a2,s7
    475c:	00000893          	li	a7,0
    4760:	08070c63          	beqz	a4,47f8 <matrix_test+0xcf8>
    4764:	00100813          	li	a6,1
    4768:	07070063          	beq	a4,a6,47c8 <matrix_test+0xcc8>
    476c:	00200813          	li	a6,2
    4770:	03070663          	beq	a4,a6,479c <matrix_test+0xc9c>
    4774:	000b9703          	lh	a4,0(s7)
    4778:	00059803          	lh	a6,0(a1)
    477c:	002b8613          	addi	a2,s7,2
    4780:	008587b3          	add	a5,a1,s0
    4784:	03070733          	mul	a4,a4,a6
    4788:	40275893          	srai	a7,a4,0x2
    478c:	40575713          	srai	a4,a4,0x5
    4790:	00f8f893          	andi	a7,a7,15
    4794:	07f77713          	andi	a4,a4,127
    4798:	02e888b3          	mul	a7,a7,a4
    479c:	00079803          	lh	a6,0(a5)
    47a0:	00061703          	lh	a4,0(a2)
    47a4:	008787b3          	add	a5,a5,s0
    47a8:	00260613          	addi	a2,a2,2
    47ac:	03070733          	mul	a4,a4,a6
    47b0:	40275813          	srai	a6,a4,0x2
    47b4:	40575713          	srai	a4,a4,0x5
    47b8:	00f87813          	andi	a6,a6,15
    47bc:	07f77713          	andi	a4,a4,127
    47c0:	02e80733          	mul	a4,a6,a4
    47c4:	00e888b3          	add	a7,a7,a4
    47c8:	00079803          	lh	a6,0(a5)
    47cc:	00061703          	lh	a4,0(a2)
    47d0:	00260613          	addi	a2,a2,2
    47d4:	008787b3          	add	a5,a5,s0
    47d8:	03070733          	mul	a4,a4,a6
    47dc:	40275813          	srai	a6,a4,0x2
    47e0:	40575713          	srai	a4,a4,0x5
    47e4:	00f87813          	andi	a6,a6,15
    47e8:	07f77713          	andi	a4,a4,127
    47ec:	02e80733          	mul	a4,a6,a4
    47f0:	00e888b3          	add	a7,a7,a4
    47f4:	0acb0663          	beq	s6,a2,48a0 <matrix_test+0xda0>
    47f8:	00079803          	lh	a6,0(a5)
    47fc:	00061703          	lh	a4,0(a2)
    4800:	008787b3          	add	a5,a5,s0
    4804:	00261f03          	lh	t5,2(a2)
    4808:	00079303          	lh	t1,0(a5)
    480c:	008787b3          	add	a5,a5,s0
    4810:	00461e83          	lh	t4,4(a2)
    4814:	00079e03          	lh	t3,0(a5)
    4818:	008787b3          	add	a5,a5,s0
    481c:	03070733          	mul	a4,a4,a6
    4820:	00661f83          	lh	t6,6(a2)
    4824:	00079803          	lh	a6,0(a5)
    4828:	00860613          	addi	a2,a2,8
    482c:	008787b3          	add	a5,a5,s0
    4830:	026f0333          	mul	t1,t5,t1
    4834:	40275f13          	srai	t5,a4,0x2
    4838:	40575713          	srai	a4,a4,0x5
    483c:	00ff7f13          	andi	t5,t5,15
    4840:	07f77713          	andi	a4,a4,127
    4844:	03ce8e33          	mul	t3,t4,t3
    4848:	40235e93          	srai	t4,t1,0x2
    484c:	40535313          	srai	t1,t1,0x5
    4850:	00fefe93          	andi	t4,t4,15
    4854:	07f37313          	andi	t1,t1,127
    4858:	030f8833          	mul	a6,t6,a6
    485c:	402e5f93          	srai	t6,t3,0x2
    4860:	405e5e13          	srai	t3,t3,0x5
    4864:	00ffff93          	andi	t6,t6,15
    4868:	07fe7e13          	andi	t3,t3,127
    486c:	02ef0733          	mul	a4,t5,a4
    4870:	40285f13          	srai	t5,a6,0x2
    4874:	40585813          	srai	a6,a6,0x5
    4878:	00ff7f13          	andi	t5,t5,15
    487c:	07f87813          	andi	a6,a6,127
    4880:	026e8eb3          	mul	t4,t4,t1
    4884:	00e88733          	add	a4,a7,a4
    4888:	03cf8fb3          	mul	t6,t6,t3
    488c:	01d70733          	add	a4,a4,t4
    4890:	030f0833          	mul	a6,t5,a6
    4894:	01f70733          	add	a4,a4,t6
    4898:	010708b3          	add	a7,a4,a6
    489c:	f4cb1ee3          	bne	s6,a2,47f8 <matrix_test+0xcf8>
    48a0:	0116a023          	sw	a7,0(a3)
    48a4:	00150513          	addi	a0,a0,1
    48a8:	00468693          	addi	a3,a3,4
    48ac:	00258593          	addi	a1,a1,2
    48b0:	e8aa18e3          	bne	s4,a0,4740 <matrix_test+0xc40>
    48b4:	001c0c13          	addi	s8,s8,1
    48b8:	008b8bb3          	add	s7,s7,s0
    48bc:	014c8cb3          	add	s9,s9,s4
    48c0:	008b0b33          	add	s6,s6,s0
    48c4:	e58a1ce3          	bne	s4,s8,471c <matrix_test+0xc1c>
    48c8:	00c12783          	lw	a5,12(sp)
    48cc:	00412703          	lw	a4,4(sp)
    48d0:	00812583          	lw	a1,8(sp)
    48d4:	00000513          	li	a0,0
    48d8:	00000e13          	li	t3,0
    48dc:	00000313          	li	t1,0
    48e0:	00000693          	li	a3,0
    48e4:	00379613          	slli	a2,a5,0x3
    48e8:	00b70733          	add	a4,a4,a1
    48ec:	00279813          	slli	a6,a5,0x2
    48f0:	00e808b3          	add	a7,a6,a4
    48f4:	411707b3          	sub	a5,a4,a7
    48f8:	ffc78793          	addi	a5,a5,-4
    48fc:	0027d793          	srli	a5,a5,0x2
    4900:	00178793          	addi	a5,a5,1
    4904:	0077f793          	andi	a5,a5,7
    4908:	00088593          	mv	a1,a7
    490c:	10078ae3          	beqz	a5,5220 <matrix_test+0x1720>
    4910:	00100e93          	li	t4,1
    4914:	11d78263          	beq	a5,t4,4a18 <matrix_test+0xf18>
    4918:	00200e93          	li	t4,2
    491c:	0dd78c63          	beq	a5,t4,49f4 <matrix_test+0xef4>
    4920:	00300e93          	li	t4,3
    4924:	0bd78663          	beq	a5,t4,49d0 <matrix_test+0xed0>
    4928:	00400e93          	li	t4,4
    492c:	09d78063          	beq	a5,t4,49ac <matrix_test+0xeac>
    4930:	00500e93          	li	t4,5
    4934:	05d78a63          	beq	a5,t4,4988 <matrix_test+0xe88>
    4938:	00600e93          	li	t4,6
    493c:	03d78463          	beq	a5,t4,4964 <matrix_test+0xe64>
    4940:	000e0793          	mv	a5,t3
    4944:	0008ae03          	lw	t3,0(a7)
    4948:	01c30333          	add	t1,t1,t3
    494c:	3864cee3          	blt	s1,t1,54e8 <matrix_test+0x19e8>
    4950:	01c7a7b3          	slt	a5,a5,t3
    4954:	00f507b3          	add	a5,a0,a5
    4958:	01079513          	slli	a0,a5,0x10
    495c:	41055513          	srai	a0,a0,0x10
    4960:	00488593          	addi	a1,a7,4
    4964:	000e0793          	mv	a5,t3
    4968:	0005ae03          	lw	t3,0(a1)
    496c:	01c30333          	add	t1,t1,t3
    4970:	3464c8e3          	blt	s1,t1,54c0 <matrix_test+0x19c0>
    4974:	01c7a7b3          	slt	a5,a5,t3
    4978:	00f507b3          	add	a5,a0,a5
    497c:	01079513          	slli	a0,a5,0x10
    4980:	41055513          	srai	a0,a0,0x10
    4984:	00458593          	addi	a1,a1,4
    4988:	000e0793          	mv	a5,t3
    498c:	0005ae03          	lw	t3,0(a1)
    4990:	01c30333          	add	t1,t1,t3
    4994:	2a64cae3          	blt	s1,t1,5448 <matrix_test+0x1948>
    4998:	01c7a7b3          	slt	a5,a5,t3
    499c:	00f507b3          	add	a5,a0,a5
    49a0:	01079513          	slli	a0,a5,0x10
    49a4:	41055513          	srai	a0,a0,0x10
    49a8:	00458593          	addi	a1,a1,4
    49ac:	000e0793          	mv	a5,t3
    49b0:	0005ae03          	lw	t3,0(a1)
    49b4:	01c30333          	add	t1,t1,t3
    49b8:	2464c0e3          	blt	s1,t1,53f8 <matrix_test+0x18f8>
    49bc:	01c7a7b3          	slt	a5,a5,t3
    49c0:	00f507b3          	add	a5,a0,a5
    49c4:	01079513          	slli	a0,a5,0x10
    49c8:	41055513          	srai	a0,a0,0x10
    49cc:	00458593          	addi	a1,a1,4
    49d0:	000e0793          	mv	a5,t3
    49d4:	0005ae03          	lw	t3,0(a1)
    49d8:	01c30333          	add	t1,t1,t3
    49dc:	1e64cae3          	blt	s1,t1,53d0 <matrix_test+0x18d0>
    49e0:	01c7a7b3          	slt	a5,a5,t3
    49e4:	00f507b3          	add	a5,a0,a5
    49e8:	01079513          	slli	a0,a5,0x10
    49ec:	41055513          	srai	a0,a0,0x10
    49f0:	00458593          	addi	a1,a1,4
    49f4:	000e0793          	mv	a5,t3
    49f8:	0005ae03          	lw	t3,0(a1)
    49fc:	01c30333          	add	t1,t1,t3
    4a00:	1464cce3          	blt	s1,t1,5358 <matrix_test+0x1858>
    4a04:	01c7a7b3          	slt	a5,a5,t3
    4a08:	00f507b3          	add	a5,a0,a5
    4a0c:	01079513          	slli	a0,a5,0x10
    4a10:	41055513          	srai	a0,a0,0x10
    4a14:	00458593          	addi	a1,a1,4
    4a18:	000e0793          	mv	a5,t3
    4a1c:	0005ae03          	lw	t3,0(a1)
    4a20:	01c30333          	add	t1,t1,t3
    4a24:	1064c6e3          	blt	s1,t1,5330 <matrix_test+0x1830>
    4a28:	01c7a7b3          	slt	a5,a5,t3
    4a2c:	00f507b3          	add	a5,a0,a5
    4a30:	01079513          	slli	a0,a5,0x10
    4a34:	41055513          	srai	a0,a0,0x10
    4a38:	00458593          	addi	a1,a1,4
    4a3c:	7eb71263          	bne	a4,a1,5220 <matrix_test+0x1720>
    4a40:	00168693          	addi	a3,a3,1
    4a44:	40c88733          	sub	a4,a7,a2
    4a48:	eada14e3          	bne	s4,a3,48f0 <matrix_test+0xdf0>
    4a4c:	000a8593          	mv	a1,s5
    4a50:	241030ef          	jal	ra,8490 <crc16>
    4a54:	00c12783          	lw	a5,12(sp)
    4a58:	00000e13          	li	t3,0
    4a5c:	00050f13          	mv	t5,a0
    4a60:	00279e93          	slli	t4,a5,0x2
    4a64:	01012783          	lw	a5,16(sp)
    4a68:	008786b3          	add	a3,a5,s0
    4a6c:	40868633          	sub	a2,a3,s0
    4a70:	40c68733          	sub	a4,a3,a2
    4a74:	ffe70713          	addi	a4,a4,-2
    4a78:	00175713          	srli	a4,a4,0x1
    4a7c:	00170713          	addi	a4,a4,1
    4a80:	00777713          	andi	a4,a4,7
    4a84:	00060793          	mv	a5,a2
    4a88:	0a070463          	beqz	a4,4b30 <matrix_test+0x1030>
    4a8c:	00100593          	li	a1,1
    4a90:	08b70663          	beq	a4,a1,4b1c <matrix_test+0x101c>
    4a94:	00200593          	li	a1,2
    4a98:	06b70a63          	beq	a4,a1,4b0c <matrix_test+0x100c>
    4a9c:	00300593          	li	a1,3
    4aa0:	04b70e63          	beq	a4,a1,4afc <matrix_test+0xffc>
    4aa4:	00400593          	li	a1,4
    4aa8:	04b70263          	beq	a4,a1,4aec <matrix_test+0xfec>
    4aac:	00500593          	li	a1,5
    4ab0:	02b70663          	beq	a4,a1,4adc <matrix_test+0xfdc>
    4ab4:	00600593          	li	a1,6
    4ab8:	00b70a63          	beq	a4,a1,4acc <matrix_test+0xfcc>
    4abc:	00065703          	lhu	a4,0(a2)
    4ac0:	00260793          	addi	a5,a2,2
    4ac4:	41270733          	sub	a4,a4,s2
    4ac8:	00e61023          	sh	a4,0(a2)
    4acc:	0007d703          	lhu	a4,0(a5)
    4ad0:	00278793          	addi	a5,a5,2
    4ad4:	41270733          	sub	a4,a4,s2
    4ad8:	fee79f23          	sh	a4,-2(a5)
    4adc:	0007d703          	lhu	a4,0(a5)
    4ae0:	00278793          	addi	a5,a5,2
    4ae4:	41270733          	sub	a4,a4,s2
    4ae8:	fee79f23          	sh	a4,-2(a5)
    4aec:	0007d703          	lhu	a4,0(a5)
    4af0:	00278793          	addi	a5,a5,2
    4af4:	41270733          	sub	a4,a4,s2
    4af8:	fee79f23          	sh	a4,-2(a5)
    4afc:	0007d703          	lhu	a4,0(a5)
    4b00:	00278793          	addi	a5,a5,2
    4b04:	41270733          	sub	a4,a4,s2
    4b08:	fee79f23          	sh	a4,-2(a5)
    4b0c:	0007d703          	lhu	a4,0(a5)
    4b10:	00278793          	addi	a5,a5,2
    4b14:	41270733          	sub	a4,a4,s2
    4b18:	fee79f23          	sh	a4,-2(a5)
    4b1c:	0007d703          	lhu	a4,0(a5)
    4b20:	00278793          	addi	a5,a5,2
    4b24:	41270733          	sub	a4,a4,s2
    4b28:	fee79f23          	sh	a4,-2(a5)
    4b2c:	06d78663          	beq	a5,a3,4b98 <matrix_test+0x1098>
    4b30:	0007d283          	lhu	t0,0(a5)
    4b34:	0027df83          	lhu	t6,2(a5)
    4b38:	0047d303          	lhu	t1,4(a5)
    4b3c:	0067d883          	lhu	a7,6(a5)
    4b40:	0087d803          	lhu	a6,8(a5)
    4b44:	00a7d503          	lhu	a0,10(a5)
    4b48:	00c7d583          	lhu	a1,12(a5)
    4b4c:	00e7d703          	lhu	a4,14(a5)
    4b50:	412282b3          	sub	t0,t0,s2
    4b54:	412f8fb3          	sub	t6,t6,s2
    4b58:	41230333          	sub	t1,t1,s2
    4b5c:	412888b3          	sub	a7,a7,s2
    4b60:	41280833          	sub	a6,a6,s2
    4b64:	41250533          	sub	a0,a0,s2
    4b68:	412585b3          	sub	a1,a1,s2
    4b6c:	41270733          	sub	a4,a4,s2
    4b70:	00579023          	sh	t0,0(a5)
    4b74:	01f79123          	sh	t6,2(a5)
    4b78:	00679223          	sh	t1,4(a5)
    4b7c:	01179323          	sh	a7,6(a5)
    4b80:	01079423          	sh	a6,8(a5)
    4b84:	00a79523          	sh	a0,10(a5)
    4b88:	00b79623          	sh	a1,12(a5)
    4b8c:	00e79723          	sh	a4,14(a5)
    4b90:	01078793          	addi	a5,a5,16
    4b94:	f8d79ee3          	bne	a5,a3,4b30 <matrix_test+0x1030>
    4b98:	001e0e13          	addi	t3,t3,1
    4b9c:	41d606b3          	sub	a3,a2,t4
    4ba0:	edca16e3          	bne	s4,t3,4a6c <matrix_test+0xf6c>
    4ba4:	05c12083          	lw	ra,92(sp)
    4ba8:	05812403          	lw	s0,88(sp)
    4bac:	010f1513          	slli	a0,t5,0x10
    4bb0:	05412483          	lw	s1,84(sp)
    4bb4:	05012903          	lw	s2,80(sp)
    4bb8:	04c12983          	lw	s3,76(sp)
    4bbc:	04812a03          	lw	s4,72(sp)
    4bc0:	04412a83          	lw	s5,68(sp)
    4bc4:	04012b03          	lw	s6,64(sp)
    4bc8:	03c12b83          	lw	s7,60(sp)
    4bcc:	03812c03          	lw	s8,56(sp)
    4bd0:	03412c83          	lw	s9,52(sp)
    4bd4:	03012d03          	lw	s10,48(sp)
    4bd8:	02c12d83          	lw	s11,44(sp)
    4bdc:	41055513          	srai	a0,a0,0x10
    4be0:	06010113          	addi	sp,sp,96
    4be4:	00008067          	ret
    4be8:	0046ae03          	lw	t3,4(a3)
    4bec:	00a50793          	addi	a5,a0,10
    4bf0:	00000313          	li	t1,0
    4bf4:	01079793          	slli	a5,a5,0x10
    4bf8:	01c30333          	add	t1,t1,t3
    4bfc:	4107d793          	srai	a5,a5,0x10
    4c00:	00468693          	addi	a3,a3,4
    4c04:	0e64d863          	bge	s1,t1,4cf4 <matrix_test+0x11f4>
    4c08:	0046a503          	lw	a0,4(a3)
    4c0c:	00a78793          	addi	a5,a5,10
    4c10:	00000313          	li	t1,0
    4c14:	01079793          	slli	a5,a5,0x10
    4c18:	00a30333          	add	t1,t1,a0
    4c1c:	4107d793          	srai	a5,a5,0x10
    4c20:	0e64c863          	blt	s1,t1,4d10 <matrix_test+0x1210>
    4c24:	00ae2e33          	slt	t3,t3,a0
    4c28:	01c787b3          	add	a5,a5,t3
    4c2c:	0086ae03          	lw	t3,8(a3)
    4c30:	01079793          	slli	a5,a5,0x10
    4c34:	4107d793          	srai	a5,a5,0x10
    4c38:	01c30333          	add	t1,t1,t3
    4c3c:	0e64c863          	blt	s1,t1,4d2c <matrix_test+0x122c>
    4c40:	01c52533          	slt	a0,a0,t3
    4c44:	00a787b3          	add	a5,a5,a0
    4c48:	00c6a503          	lw	a0,12(a3)
    4c4c:	01079793          	slli	a5,a5,0x10
    4c50:	4107d793          	srai	a5,a5,0x10
    4c54:	00a30333          	add	t1,t1,a0
    4c58:	0e64c863          	blt	s1,t1,4d48 <matrix_test+0x1248>
    4c5c:	00ae2e33          	slt	t3,t3,a0
    4c60:	01c787b3          	add	a5,a5,t3
    4c64:	0106ae03          	lw	t3,16(a3)
    4c68:	01079793          	slli	a5,a5,0x10
    4c6c:	4107d793          	srai	a5,a5,0x10
    4c70:	01c30333          	add	t1,t1,t3
    4c74:	0e64c863          	blt	s1,t1,4d64 <matrix_test+0x1264>
    4c78:	01c52533          	slt	a0,a0,t3
    4c7c:	00a787b3          	add	a5,a5,a0
    4c80:	0146a503          	lw	a0,20(a3)
    4c84:	01079793          	slli	a5,a5,0x10
    4c88:	4107d793          	srai	a5,a5,0x10
    4c8c:	00a30333          	add	t1,t1,a0
    4c90:	0e64c863          	blt	s1,t1,4d80 <matrix_test+0x1280>
    4c94:	00ae2e33          	slt	t3,t3,a0
    4c98:	01c787b3          	add	a5,a5,t3
    4c9c:	0186ae03          	lw	t3,24(a3)
    4ca0:	01079793          	slli	a5,a5,0x10
    4ca4:	4107d793          	srai	a5,a5,0x10
    4ca8:	01c30333          	add	t1,t1,t3
    4cac:	0e64c863          	blt	s1,t1,4d9c <matrix_test+0x129c>
    4cb0:	01c52533          	slt	a0,a0,t3
    4cb4:	00a787b3          	add	a5,a5,a0
    4cb8:	01079513          	slli	a0,a5,0x10
    4cbc:	41055513          	srai	a0,a0,0x10
    4cc0:	01c68693          	addi	a3,a3,28
    4cc4:	b0d70063          	beq	a4,a3,3fc4 <matrix_test+0x4c4>
    4cc8:	0006ae83          	lw	t4,0(a3)
    4ccc:	01d30333          	add	t1,t1,t4
    4cd0:	f064cce3          	blt	s1,t1,4be8 <matrix_test+0x10e8>
    4cd4:	01de27b3          	slt	a5,t3,t4
    4cd8:	0046ae03          	lw	t3,4(a3)
    4cdc:	00f507b3          	add	a5,a0,a5
    4ce0:	01079793          	slli	a5,a5,0x10
    4ce4:	01c30333          	add	t1,t1,t3
    4ce8:	4107d793          	srai	a5,a5,0x10
    4cec:	00468693          	addi	a3,a3,4
    4cf0:	f064cce3          	blt	s1,t1,4c08 <matrix_test+0x1108>
    4cf4:	0046a503          	lw	a0,4(a3)
    4cf8:	01ceaeb3          	slt	t4,t4,t3
    4cfc:	01d787b3          	add	a5,a5,t4
    4d00:	01079793          	slli	a5,a5,0x10
    4d04:	00a30333          	add	t1,t1,a0
    4d08:	4107d793          	srai	a5,a5,0x10
    4d0c:	f064dce3          	bge	s1,t1,4c24 <matrix_test+0x1124>
    4d10:	0086ae03          	lw	t3,8(a3)
    4d14:	00a78793          	addi	a5,a5,10
    4d18:	00000313          	li	t1,0
    4d1c:	01079793          	slli	a5,a5,0x10
    4d20:	01c30333          	add	t1,t1,t3
    4d24:	4107d793          	srai	a5,a5,0x10
    4d28:	f064dce3          	bge	s1,t1,4c40 <matrix_test+0x1140>
    4d2c:	00c6a503          	lw	a0,12(a3)
    4d30:	00a78793          	addi	a5,a5,10
    4d34:	00000313          	li	t1,0
    4d38:	01079793          	slli	a5,a5,0x10
    4d3c:	00a30333          	add	t1,t1,a0
    4d40:	4107d793          	srai	a5,a5,0x10
    4d44:	f064dce3          	bge	s1,t1,4c5c <matrix_test+0x115c>
    4d48:	0106ae03          	lw	t3,16(a3)
    4d4c:	00a78793          	addi	a5,a5,10
    4d50:	00000313          	li	t1,0
    4d54:	01079793          	slli	a5,a5,0x10
    4d58:	01c30333          	add	t1,t1,t3
    4d5c:	4107d793          	srai	a5,a5,0x10
    4d60:	f064dce3          	bge	s1,t1,4c78 <matrix_test+0x1178>
    4d64:	0146a503          	lw	a0,20(a3)
    4d68:	00a78793          	addi	a5,a5,10
    4d6c:	00000313          	li	t1,0
    4d70:	01079793          	slli	a5,a5,0x10
    4d74:	00a30333          	add	t1,t1,a0
    4d78:	4107d793          	srai	a5,a5,0x10
    4d7c:	f064dce3          	bge	s1,t1,4c94 <matrix_test+0x1194>
    4d80:	0186ae03          	lw	t3,24(a3)
    4d84:	00a78793          	addi	a5,a5,10
    4d88:	00000313          	li	t1,0
    4d8c:	01079793          	slli	a5,a5,0x10
    4d90:	01c30333          	add	t1,t1,t3
    4d94:	4107d793          	srai	a5,a5,0x10
    4d98:	f064dce3          	bge	s1,t1,4cb0 <matrix_test+0x11b0>
    4d9c:	00a78793          	addi	a5,a5,10
    4da0:	01079513          	slli	a0,a5,0x10
    4da4:	41055513          	srai	a0,a0,0x10
    4da8:	00000313          	li	t1,0
    4dac:	f15ff06f          	j	4cc0 <matrix_test+0x11c0>
    4db0:	0046ae03          	lw	t3,4(a3)
    4db4:	00a50793          	addi	a5,a0,10
    4db8:	00000313          	li	t1,0
    4dbc:	01079793          	slli	a5,a5,0x10
    4dc0:	01c30333          	add	t1,t1,t3
    4dc4:	4107d793          	srai	a5,a5,0x10
    4dc8:	00468693          	addi	a3,a3,4
    4dcc:	0e64d863          	bge	s1,t1,4ebc <matrix_test+0x13bc>
    4dd0:	0046a503          	lw	a0,4(a3)
    4dd4:	00a78793          	addi	a5,a5,10
    4dd8:	00000313          	li	t1,0
    4ddc:	01079793          	slli	a5,a5,0x10
    4de0:	00a30333          	add	t1,t1,a0
    4de4:	4107d793          	srai	a5,a5,0x10
    4de8:	0e64c863          	blt	s1,t1,4ed8 <matrix_test+0x13d8>
    4dec:	00ae2e33          	slt	t3,t3,a0
    4df0:	01c787b3          	add	a5,a5,t3
    4df4:	0086ae03          	lw	t3,8(a3)
    4df8:	01079793          	slli	a5,a5,0x10
    4dfc:	4107d793          	srai	a5,a5,0x10
    4e00:	01c30333          	add	t1,t1,t3
    4e04:	0e64c863          	blt	s1,t1,4ef4 <matrix_test+0x13f4>
    4e08:	01c52533          	slt	a0,a0,t3
    4e0c:	00a787b3          	add	a5,a5,a0
    4e10:	00c6a503          	lw	a0,12(a3)
    4e14:	01079793          	slli	a5,a5,0x10
    4e18:	4107d793          	srai	a5,a5,0x10
    4e1c:	00a30333          	add	t1,t1,a0
    4e20:	0e64c863          	blt	s1,t1,4f10 <matrix_test+0x1410>
    4e24:	00ae2e33          	slt	t3,t3,a0
    4e28:	01c787b3          	add	a5,a5,t3
    4e2c:	0106ae03          	lw	t3,16(a3)
    4e30:	01079793          	slli	a5,a5,0x10
    4e34:	4107d793          	srai	a5,a5,0x10
    4e38:	01c30333          	add	t1,t1,t3
    4e3c:	0e64c863          	blt	s1,t1,4f2c <matrix_test+0x142c>
    4e40:	01c52533          	slt	a0,a0,t3
    4e44:	00a787b3          	add	a5,a5,a0
    4e48:	0146a503          	lw	a0,20(a3)
    4e4c:	01079793          	slli	a5,a5,0x10
    4e50:	4107d793          	srai	a5,a5,0x10
    4e54:	00a30333          	add	t1,t1,a0
    4e58:	0e64c863          	blt	s1,t1,4f48 <matrix_test+0x1448>
    4e5c:	00ae2e33          	slt	t3,t3,a0
    4e60:	01c787b3          	add	a5,a5,t3
    4e64:	0186ae03          	lw	t3,24(a3)
    4e68:	01079793          	slli	a5,a5,0x10
    4e6c:	4107d793          	srai	a5,a5,0x10
    4e70:	01c30333          	add	t1,t1,t3
    4e74:	0e64c863          	blt	s1,t1,4f64 <matrix_test+0x1464>
    4e78:	01c52533          	slt	a0,a0,t3
    4e7c:	00a787b3          	add	a5,a5,a0
    4e80:	01079513          	slli	a0,a5,0x10
    4e84:	41055513          	srai	a0,a0,0x10
    4e88:	01c68693          	addi	a3,a3,28
    4e8c:	cad70663          	beq	a4,a3,4338 <matrix_test+0x838>
    4e90:	0006ae83          	lw	t4,0(a3)
    4e94:	01d30333          	add	t1,t1,t4
    4e98:	f064cce3          	blt	s1,t1,4db0 <matrix_test+0x12b0>
    4e9c:	01de27b3          	slt	a5,t3,t4
    4ea0:	0046ae03          	lw	t3,4(a3)
    4ea4:	00f507b3          	add	a5,a0,a5
    4ea8:	01079793          	slli	a5,a5,0x10
    4eac:	01c30333          	add	t1,t1,t3
    4eb0:	4107d793          	srai	a5,a5,0x10
    4eb4:	00468693          	addi	a3,a3,4
    4eb8:	f064cce3          	blt	s1,t1,4dd0 <matrix_test+0x12d0>
    4ebc:	0046a503          	lw	a0,4(a3)
    4ec0:	01ceaeb3          	slt	t4,t4,t3
    4ec4:	01d787b3          	add	a5,a5,t4
    4ec8:	01079793          	slli	a5,a5,0x10
    4ecc:	00a30333          	add	t1,t1,a0
    4ed0:	4107d793          	srai	a5,a5,0x10
    4ed4:	f064dce3          	bge	s1,t1,4dec <matrix_test+0x12ec>
    4ed8:	0086ae03          	lw	t3,8(a3)
    4edc:	00a78793          	addi	a5,a5,10
    4ee0:	00000313          	li	t1,0
    4ee4:	01079793          	slli	a5,a5,0x10
    4ee8:	01c30333          	add	t1,t1,t3
    4eec:	4107d793          	srai	a5,a5,0x10
    4ef0:	f064dce3          	bge	s1,t1,4e08 <matrix_test+0x1308>
    4ef4:	00c6a503          	lw	a0,12(a3)
    4ef8:	00a78793          	addi	a5,a5,10
    4efc:	00000313          	li	t1,0
    4f00:	01079793          	slli	a5,a5,0x10
    4f04:	00a30333          	add	t1,t1,a0
    4f08:	4107d793          	srai	a5,a5,0x10
    4f0c:	f064dce3          	bge	s1,t1,4e24 <matrix_test+0x1324>
    4f10:	0106ae03          	lw	t3,16(a3)
    4f14:	00a78793          	addi	a5,a5,10
    4f18:	00000313          	li	t1,0
    4f1c:	01079793          	slli	a5,a5,0x10
    4f20:	01c30333          	add	t1,t1,t3
    4f24:	4107d793          	srai	a5,a5,0x10
    4f28:	f064dce3          	bge	s1,t1,4e40 <matrix_test+0x1340>
    4f2c:	0146a503          	lw	a0,20(a3)
    4f30:	00a78793          	addi	a5,a5,10
    4f34:	00000313          	li	t1,0
    4f38:	01079793          	slli	a5,a5,0x10
    4f3c:	00a30333          	add	t1,t1,a0
    4f40:	4107d793          	srai	a5,a5,0x10
    4f44:	f064dce3          	bge	s1,t1,4e5c <matrix_test+0x135c>
    4f48:	0186ae03          	lw	t3,24(a3)
    4f4c:	00a78793          	addi	a5,a5,10
    4f50:	00000313          	li	t1,0
    4f54:	01079793          	slli	a5,a5,0x10
    4f58:	01c30333          	add	t1,t1,t3
    4f5c:	4107d793          	srai	a5,a5,0x10
    4f60:	f064dce3          	bge	s1,t1,4e78 <matrix_test+0x1378>
    4f64:	00a78793          	addi	a5,a5,10
    4f68:	01079513          	slli	a0,a5,0x10
    4f6c:	41055513          	srai	a0,a0,0x10
    4f70:	00000313          	li	t1,0
    4f74:	f15ff06f          	j	4e88 <matrix_test+0x1388>
    4f78:	0046ae03          	lw	t3,4(a3)
    4f7c:	00a50793          	addi	a5,a0,10
    4f80:	00000313          	li	t1,0
    4f84:	01079793          	slli	a5,a5,0x10
    4f88:	01c30333          	add	t1,t1,t3
    4f8c:	4107d793          	srai	a5,a5,0x10
    4f90:	00468693          	addi	a3,a3,4
    4f94:	0e64d863          	bge	s1,t1,5084 <matrix_test+0x1584>
    4f98:	0046a503          	lw	a0,4(a3)
    4f9c:	00a78793          	addi	a5,a5,10
    4fa0:	00000313          	li	t1,0
    4fa4:	01079793          	slli	a5,a5,0x10
    4fa8:	00a30333          	add	t1,t1,a0
    4fac:	4107d793          	srai	a5,a5,0x10
    4fb0:	0e64c863          	blt	s1,t1,50a0 <matrix_test+0x15a0>
    4fb4:	00ae2e33          	slt	t3,t3,a0
    4fb8:	01c787b3          	add	a5,a5,t3
    4fbc:	0086ae03          	lw	t3,8(a3)
    4fc0:	01079793          	slli	a5,a5,0x10
    4fc4:	4107d793          	srai	a5,a5,0x10
    4fc8:	01c30333          	add	t1,t1,t3
    4fcc:	0e64c863          	blt	s1,t1,50bc <matrix_test+0x15bc>
    4fd0:	01c52533          	slt	a0,a0,t3
    4fd4:	00a787b3          	add	a5,a5,a0
    4fd8:	00c6a503          	lw	a0,12(a3)
    4fdc:	01079793          	slli	a5,a5,0x10
    4fe0:	4107d793          	srai	a5,a5,0x10
    4fe4:	00a30333          	add	t1,t1,a0
    4fe8:	0e64c863          	blt	s1,t1,50d8 <matrix_test+0x15d8>
    4fec:	00ae2e33          	slt	t3,t3,a0
    4ff0:	01c787b3          	add	a5,a5,t3
    4ff4:	0106ae03          	lw	t3,16(a3)
    4ff8:	01079793          	slli	a5,a5,0x10
    4ffc:	4107d793          	srai	a5,a5,0x10
    5000:	01c30333          	add	t1,t1,t3
    5004:	0e64c863          	blt	s1,t1,50f4 <matrix_test+0x15f4>
    5008:	01c52533          	slt	a0,a0,t3
    500c:	00a787b3          	add	a5,a5,a0
    5010:	0146a503          	lw	a0,20(a3)
    5014:	01079793          	slli	a5,a5,0x10
    5018:	4107d793          	srai	a5,a5,0x10
    501c:	00a30333          	add	t1,t1,a0
    5020:	0e64c863          	blt	s1,t1,5110 <matrix_test+0x1610>
    5024:	00ae2e33          	slt	t3,t3,a0
    5028:	01c787b3          	add	a5,a5,t3
    502c:	0186ae03          	lw	t3,24(a3)
    5030:	01079793          	slli	a5,a5,0x10
    5034:	4107d793          	srai	a5,a5,0x10
    5038:	01c30333          	add	t1,t1,t3
    503c:	0e64c863          	blt	s1,t1,512c <matrix_test+0x162c>
    5040:	01c52533          	slt	a0,a0,t3
    5044:	00a787b3          	add	a5,a5,a0
    5048:	01079513          	slli	a0,a5,0x10
    504c:	41055513          	srai	a0,a0,0x10
    5050:	01c68693          	addi	a3,a3,28
    5054:	e8d70a63          	beq	a4,a3,46e8 <matrix_test+0xbe8>
    5058:	0006ae83          	lw	t4,0(a3)
    505c:	01d30333          	add	t1,t1,t4
    5060:	f064cce3          	blt	s1,t1,4f78 <matrix_test+0x1478>
    5064:	01de27b3          	slt	a5,t3,t4
    5068:	0046ae03          	lw	t3,4(a3)
    506c:	00f507b3          	add	a5,a0,a5
    5070:	01079793          	slli	a5,a5,0x10
    5074:	01c30333          	add	t1,t1,t3
    5078:	4107d793          	srai	a5,a5,0x10
    507c:	00468693          	addi	a3,a3,4
    5080:	f064cce3          	blt	s1,t1,4f98 <matrix_test+0x1498>
    5084:	0046a503          	lw	a0,4(a3)
    5088:	01ceaeb3          	slt	t4,t4,t3
    508c:	01d787b3          	add	a5,a5,t4
    5090:	01079793          	slli	a5,a5,0x10
    5094:	00a30333          	add	t1,t1,a0
    5098:	4107d793          	srai	a5,a5,0x10
    509c:	f064dce3          	bge	s1,t1,4fb4 <matrix_test+0x14b4>
    50a0:	0086ae03          	lw	t3,8(a3)
    50a4:	00a78793          	addi	a5,a5,10
    50a8:	00000313          	li	t1,0
    50ac:	01079793          	slli	a5,a5,0x10
    50b0:	01c30333          	add	t1,t1,t3
    50b4:	4107d793          	srai	a5,a5,0x10
    50b8:	f064dce3          	bge	s1,t1,4fd0 <matrix_test+0x14d0>
    50bc:	00c6a503          	lw	a0,12(a3)
    50c0:	00a78793          	addi	a5,a5,10
    50c4:	00000313          	li	t1,0
    50c8:	01079793          	slli	a5,a5,0x10
    50cc:	00a30333          	add	t1,t1,a0
    50d0:	4107d793          	srai	a5,a5,0x10
    50d4:	f064dce3          	bge	s1,t1,4fec <matrix_test+0x14ec>
    50d8:	0106ae03          	lw	t3,16(a3)
    50dc:	00a78793          	addi	a5,a5,10
    50e0:	00000313          	li	t1,0
    50e4:	01079793          	slli	a5,a5,0x10
    50e8:	01c30333          	add	t1,t1,t3
    50ec:	4107d793          	srai	a5,a5,0x10
    50f0:	f064dce3          	bge	s1,t1,5008 <matrix_test+0x1508>
    50f4:	0146a503          	lw	a0,20(a3)
    50f8:	00a78793          	addi	a5,a5,10
    50fc:	00000313          	li	t1,0
    5100:	01079793          	slli	a5,a5,0x10
    5104:	00a30333          	add	t1,t1,a0
    5108:	4107d793          	srai	a5,a5,0x10
    510c:	f064dce3          	bge	s1,t1,5024 <matrix_test+0x1524>
    5110:	0186ae03          	lw	t3,24(a3)
    5114:	00a78793          	addi	a5,a5,10
    5118:	00000313          	li	t1,0
    511c:	01079793          	slli	a5,a5,0x10
    5120:	01c30333          	add	t1,t1,t3
    5124:	4107d793          	srai	a5,a5,0x10
    5128:	f064dce3          	bge	s1,t1,5040 <matrix_test+0x1540>
    512c:	00a78793          	addi	a5,a5,10
    5130:	01079513          	slli	a0,a5,0x10
    5134:	41055513          	srai	a0,a0,0x10
    5138:	00000313          	li	t1,0
    513c:	f15ff06f          	j	5050 <matrix_test+0x1550>
    5140:	0045ae03          	lw	t3,4(a1)
    5144:	00a50793          	addi	a5,a0,10
    5148:	00000313          	li	t1,0
    514c:	01079793          	slli	a5,a5,0x10
    5150:	01c30333          	add	t1,t1,t3
    5154:	4107d793          	srai	a5,a5,0x10
    5158:	00458593          	addi	a1,a1,4
    515c:	0e64d863          	bge	s1,t1,524c <matrix_test+0x174c>
    5160:	0045a503          	lw	a0,4(a1)
    5164:	00a78793          	addi	a5,a5,10
    5168:	00000313          	li	t1,0
    516c:	01079793          	slli	a5,a5,0x10
    5170:	00a30333          	add	t1,t1,a0
    5174:	4107d793          	srai	a5,a5,0x10
    5178:	0e64c863          	blt	s1,t1,5268 <matrix_test+0x1768>
    517c:	00ae2e33          	slt	t3,t3,a0
    5180:	01c787b3          	add	a5,a5,t3
    5184:	0085ae03          	lw	t3,8(a1)
    5188:	01079793          	slli	a5,a5,0x10
    518c:	4107d793          	srai	a5,a5,0x10
    5190:	01c30333          	add	t1,t1,t3
    5194:	0e64c863          	blt	s1,t1,5284 <matrix_test+0x1784>
    5198:	01c52533          	slt	a0,a0,t3
    519c:	00a787b3          	add	a5,a5,a0
    51a0:	00c5a503          	lw	a0,12(a1)
    51a4:	01079793          	slli	a5,a5,0x10
    51a8:	4107d793          	srai	a5,a5,0x10
    51ac:	00a30333          	add	t1,t1,a0
    51b0:	0e64c863          	blt	s1,t1,52a0 <matrix_test+0x17a0>
    51b4:	00ae2e33          	slt	t3,t3,a0
    51b8:	01c787b3          	add	a5,a5,t3
    51bc:	0105ae03          	lw	t3,16(a1)
    51c0:	01079793          	slli	a5,a5,0x10
    51c4:	4107d793          	srai	a5,a5,0x10
    51c8:	01c30333          	add	t1,t1,t3
    51cc:	0e64c863          	blt	s1,t1,52bc <matrix_test+0x17bc>
    51d0:	01c52533          	slt	a0,a0,t3
    51d4:	00a787b3          	add	a5,a5,a0
    51d8:	0145a503          	lw	a0,20(a1)
    51dc:	01079793          	slli	a5,a5,0x10
    51e0:	4107d793          	srai	a5,a5,0x10
    51e4:	00a30333          	add	t1,t1,a0
    51e8:	0e64c863          	blt	s1,t1,52d8 <matrix_test+0x17d8>
    51ec:	00ae2e33          	slt	t3,t3,a0
    51f0:	01c787b3          	add	a5,a5,t3
    51f4:	0185ae03          	lw	t3,24(a1)
    51f8:	01079793          	slli	a5,a5,0x10
    51fc:	4107d793          	srai	a5,a5,0x10
    5200:	01c30333          	add	t1,t1,t3
    5204:	0e64c863          	blt	s1,t1,52f4 <matrix_test+0x17f4>
    5208:	01c52533          	slt	a0,a0,t3
    520c:	00a787b3          	add	a5,a5,a0
    5210:	01079513          	slli	a0,a5,0x10
    5214:	41055513          	srai	a0,a0,0x10
    5218:	01c58593          	addi	a1,a1,28
    521c:	82b702e3          	beq	a4,a1,4a40 <matrix_test+0xf40>
    5220:	0005ae83          	lw	t4,0(a1)
    5224:	01d30333          	add	t1,t1,t4
    5228:	f064cce3          	blt	s1,t1,5140 <matrix_test+0x1640>
    522c:	01de27b3          	slt	a5,t3,t4
    5230:	0045ae03          	lw	t3,4(a1)
    5234:	00f507b3          	add	a5,a0,a5
    5238:	01079793          	slli	a5,a5,0x10
    523c:	01c30333          	add	t1,t1,t3
    5240:	4107d793          	srai	a5,a5,0x10
    5244:	00458593          	addi	a1,a1,4
    5248:	f064cce3          	blt	s1,t1,5160 <matrix_test+0x1660>
    524c:	0045a503          	lw	a0,4(a1)
    5250:	01ceaeb3          	slt	t4,t4,t3
    5254:	01d787b3          	add	a5,a5,t4
    5258:	01079793          	slli	a5,a5,0x10
    525c:	00a30333          	add	t1,t1,a0
    5260:	4107d793          	srai	a5,a5,0x10
    5264:	f064dce3          	bge	s1,t1,517c <matrix_test+0x167c>
    5268:	0085ae03          	lw	t3,8(a1)
    526c:	00a78793          	addi	a5,a5,10
    5270:	00000313          	li	t1,0
    5274:	01079793          	slli	a5,a5,0x10
    5278:	01c30333          	add	t1,t1,t3
    527c:	4107d793          	srai	a5,a5,0x10
    5280:	f064dce3          	bge	s1,t1,5198 <matrix_test+0x1698>
    5284:	00c5a503          	lw	a0,12(a1)
    5288:	00a78793          	addi	a5,a5,10
    528c:	00000313          	li	t1,0
    5290:	01079793          	slli	a5,a5,0x10
    5294:	00a30333          	add	t1,t1,a0
    5298:	4107d793          	srai	a5,a5,0x10
    529c:	f064dce3          	bge	s1,t1,51b4 <matrix_test+0x16b4>
    52a0:	0105ae03          	lw	t3,16(a1)
    52a4:	00a78793          	addi	a5,a5,10
    52a8:	00000313          	li	t1,0
    52ac:	01079793          	slli	a5,a5,0x10
    52b0:	01c30333          	add	t1,t1,t3
    52b4:	4107d793          	srai	a5,a5,0x10
    52b8:	f064dce3          	bge	s1,t1,51d0 <matrix_test+0x16d0>
    52bc:	0145a503          	lw	a0,20(a1)
    52c0:	00a78793          	addi	a5,a5,10
    52c4:	00000313          	li	t1,0
    52c8:	01079793          	slli	a5,a5,0x10
    52cc:	00a30333          	add	t1,t1,a0
    52d0:	4107d793          	srai	a5,a5,0x10
    52d4:	f064dce3          	bge	s1,t1,51ec <matrix_test+0x16ec>
    52d8:	0185ae03          	lw	t3,24(a1)
    52dc:	00a78793          	addi	a5,a5,10
    52e0:	00000313          	li	t1,0
    52e4:	01079793          	slli	a5,a5,0x10
    52e8:	01c30333          	add	t1,t1,t3
    52ec:	4107d793          	srai	a5,a5,0x10
    52f0:	f064dce3          	bge	s1,t1,5208 <matrix_test+0x1708>
    52f4:	00a78793          	addi	a5,a5,10
    52f8:	01079513          	slli	a0,a5,0x10
    52fc:	41055513          	srai	a0,a0,0x10
    5300:	00000313          	li	t1,0
    5304:	f15ff06f          	j	5218 <matrix_test+0x1718>
    5308:	00a50513          	addi	a0,a0,10
    530c:	01051513          	slli	a0,a0,0x10
    5310:	41055513          	srai	a0,a0,0x10
    5314:	00000313          	li	t1,0
    5318:	ca5fe06f          	j	3fbc <matrix_test+0x4bc>
    531c:	00a50513          	addi	a0,a0,10
    5320:	01051513          	slli	a0,a0,0x10
    5324:	41055513          	srai	a0,a0,0x10
    5328:	00000313          	li	t1,0
    532c:	804ff06f          	j	4330 <matrix_test+0x830>
    5330:	00a50513          	addi	a0,a0,10
    5334:	01051513          	slli	a0,a0,0x10
    5338:	41055513          	srai	a0,a0,0x10
    533c:	00000313          	li	t1,0
    5340:	ef8ff06f          	j	4a38 <matrix_test+0xf38>
    5344:	00a50513          	addi	a0,a0,10
    5348:	01051513          	slli	a0,a0,0x10
    534c:	41055513          	srai	a0,a0,0x10
    5350:	00000313          	li	t1,0
    5354:	b8cff06f          	j	46e0 <matrix_test+0xbe0>
    5358:	00a50513          	addi	a0,a0,10
    535c:	01051513          	slli	a0,a0,0x10
    5360:	41055513          	srai	a0,a0,0x10
    5364:	00000313          	li	t1,0
    5368:	eacff06f          	j	4a14 <matrix_test+0xf14>
    536c:	00a50513          	addi	a0,a0,10
    5370:	01051513          	slli	a0,a0,0x10
    5374:	41055513          	srai	a0,a0,0x10
    5378:	00000313          	li	t1,0
    537c:	b40ff06f          	j	46bc <matrix_test+0xbbc>
    5380:	00a50513          	addi	a0,a0,10
    5384:	01051513          	slli	a0,a0,0x10
    5388:	41055513          	srai	a0,a0,0x10
    538c:	00000313          	li	t1,0
    5390:	f79fe06f          	j	4308 <matrix_test+0x808>
    5394:	00a50513          	addi	a0,a0,10
    5398:	01051513          	slli	a0,a0,0x10
    539c:	41055513          	srai	a0,a0,0x10
    53a0:	00000313          	li	t1,0
    53a4:	bf1fe06f          	j	3f94 <matrix_test+0x494>
    53a8:	00a50513          	addi	a0,a0,10
    53ac:	01051513          	slli	a0,a0,0x10
    53b0:	41055513          	srai	a0,a0,0x10
    53b4:	00000313          	li	t1,0
    53b8:	f29fe06f          	j	42e0 <matrix_test+0x7e0>
    53bc:	00a50513          	addi	a0,a0,10
    53c0:	01051513          	slli	a0,a0,0x10
    53c4:	41055513          	srai	a0,a0,0x10
    53c8:	00000313          	li	t1,0
    53cc:	ba1fe06f          	j	3f6c <matrix_test+0x46c>
    53d0:	00a50513          	addi	a0,a0,10
    53d4:	01051513          	slli	a0,a0,0x10
    53d8:	41055513          	srai	a0,a0,0x10
    53dc:	00000313          	li	t1,0
    53e0:	e10ff06f          	j	49f0 <matrix_test+0xef0>
    53e4:	00a50513          	addi	a0,a0,10
    53e8:	01051513          	slli	a0,a0,0x10
    53ec:	41055513          	srai	a0,a0,0x10
    53f0:	00000313          	li	t1,0
    53f4:	aa4ff06f          	j	4698 <matrix_test+0xb98>
    53f8:	00a50513          	addi	a0,a0,10
    53fc:	01051513          	slli	a0,a0,0x10
    5400:	41055513          	srai	a0,a0,0x10
    5404:	00000313          	li	t1,0
    5408:	dc4ff06f          	j	49cc <matrix_test+0xecc>
    540c:	00a50513          	addi	a0,a0,10
    5410:	01051513          	slli	a0,a0,0x10
    5414:	41055513          	srai	a0,a0,0x10
    5418:	00000313          	li	t1,0
    541c:	a58ff06f          	j	4674 <matrix_test+0xb74>
    5420:	00a50513          	addi	a0,a0,10
    5424:	01051513          	slli	a0,a0,0x10
    5428:	41055513          	srai	a0,a0,0x10
    542c:	00000313          	li	t1,0
    5430:	e89fe06f          	j	42b8 <matrix_test+0x7b8>
    5434:	00a50513          	addi	a0,a0,10
    5438:	01051513          	slli	a0,a0,0x10
    543c:	41055513          	srai	a0,a0,0x10
    5440:	00000313          	li	t1,0
    5444:	b01fe06f          	j	3f44 <matrix_test+0x444>
    5448:	00a50513          	addi	a0,a0,10
    544c:	01051513          	slli	a0,a0,0x10
    5450:	41055513          	srai	a0,a0,0x10
    5454:	00000313          	li	t1,0
    5458:	d50ff06f          	j	49a8 <matrix_test+0xea8>
    545c:	00a50513          	addi	a0,a0,10
    5460:	01051513          	slli	a0,a0,0x10
    5464:	41055513          	srai	a0,a0,0x10
    5468:	00000313          	li	t1,0
    546c:	9e4ff06f          	j	4650 <matrix_test+0xb50>
    5470:	00a50513          	addi	a0,a0,10
    5474:	01051513          	slli	a0,a0,0x10
    5478:	41055513          	srai	a0,a0,0x10
    547c:	00000313          	li	t1,0
    5480:	e11fe06f          	j	4290 <matrix_test+0x790>
    5484:	00a50513          	addi	a0,a0,10
    5488:	01051513          	slli	a0,a0,0x10
    548c:	41055513          	srai	a0,a0,0x10
    5490:	00000313          	li	t1,0
    5494:	a89fe06f          	j	3f1c <matrix_test+0x41c>
    5498:	00a50513          	addi	a0,a0,10
    549c:	01051513          	slli	a0,a0,0x10
    54a0:	41055513          	srai	a0,a0,0x10
    54a4:	00000313          	li	t1,0
    54a8:	984ff06f          	j	462c <matrix_test+0xb2c>
    54ac:	00a50513          	addi	a0,a0,10
    54b0:	01051513          	slli	a0,a0,0x10
    54b4:	41055513          	srai	a0,a0,0x10
    54b8:	00000313          	li	t1,0
    54bc:	a39fe06f          	j	3ef4 <matrix_test+0x3f4>
    54c0:	00a50513          	addi	a0,a0,10
    54c4:	01051513          	slli	a0,a0,0x10
    54c8:	41055513          	srai	a0,a0,0x10
    54cc:	00000313          	li	t1,0
    54d0:	cb4ff06f          	j	4984 <matrix_test+0xe84>
    54d4:	00a50513          	addi	a0,a0,10
    54d8:	01051513          	slli	a0,a0,0x10
    54dc:	41055513          	srai	a0,a0,0x10
    54e0:	00000313          	li	t1,0
    54e4:	d85fe06f          	j	4268 <matrix_test+0x768>
    54e8:	00a50513          	addi	a0,a0,10
    54ec:	01051513          	slli	a0,a0,0x10
    54f0:	41055513          	srai	a0,a0,0x10
    54f4:	00000313          	li	t1,0
    54f8:	c68ff06f          	j	4960 <matrix_test+0xe60>
    54fc:	00a50513          	addi	a0,a0,10
    5500:	01051513          	slli	a0,a0,0x10
    5504:	41055513          	srai	a0,a0,0x10
    5508:	00000313          	li	t1,0
    550c:	d35fe06f          	j	4240 <matrix_test+0x740>
    5510:	00a50513          	addi	a0,a0,10
    5514:	01051513          	slli	a0,a0,0x10
    5518:	41055513          	srai	a0,a0,0x10
    551c:	00000313          	li	t1,0
    5520:	8e8ff06f          	j	4608 <matrix_test+0xb08>
    5524:	00a50513          	addi	a0,a0,10
