
pi_pthread.elf:     file format elf32-littleriscv


Disassembly of section .text:

00000000 <_start>:
       0:	00000297          	auipc	t0,0x0
       4:	31028293          	addi	t0,t0,784 # 310 <trap_handler>
       8:	30529073          	csrw	mtvec,t0
       c:	00021297          	auipc	t0,0x21
      10:	d4c28293          	addi	t0,t0,-692 # 20d58 <gPi>
      14:	00022317          	auipc	t1,0x22
      18:	0a430313          	addi	t1,t1,164 # 220b8 <_bss_end>

0000001c <_bss_clear>:
      1c:	0002a023          	sw	zero,0(t0)
      20:	00428293          	addi	t0,t0,4
      24:	fe62ece3          	bltu	t0,t1,1c <_bss_clear>
      28:	00040117          	auipc	sp,0x40
      2c:	fd810113          	addi	sp,sp,-40 # 40000 <_stack>
      30:	294000ef          	jal	ra,2c4 <main>
      34:	3500006f          	j	384 <exit>

00000038 <Area>:
      38:	fd010113          	addi	sp,sp,-48
      3c:	02812423          	sw	s0,40(sp)
      40:	00052403          	lw	s0,0(a0)
      44:	02112623          	sw	ra,44(sp)
      48:	02912223          	sw	s1,36(sp)
      4c:	03212023          	sw	s2,32(sp)
      50:	01312e23          	sw	s3,28(sp)
      54:	01412c23          	sw	s4,24(sp)
      58:	01512a23          	sw	s5,20(sp)
      5c:	01612823          	sw	s6,16(sp)
      60:	01712623          	sw	s7,12(sp)
      64:	01812423          	sw	s8,8(sp)
      68:	01912223          	sw	s9,4(sp)
      6c:	3e700793          	li	a5,999
      70:	1287c863          	blt	a5,s0,1a0 <Area+0x168>
      74:	00020997          	auipc	s3,0x20
      78:	fa498993          	addi	s3,s3,-92 # 20018 <__DTOR_END__+0x8>
      7c:	00020797          	auipc	a5,0x20
      80:	fa478793          	addi	a5,a5,-92 # 20020 <__DTOR_END__+0x10>
      84:	0009ab03          	lw	s6,0(s3)
      88:	0049ab83          	lw	s7,4(s3)
      8c:	0007aa03          	lw	s4,0(a5)
      90:	0047aa83          	lw	s5,4(a5)
      94:	00000913          	li	s2,0
      98:	00000493          	li	s1,0
      9c:	00020c97          	auipc	s9,0x20
      a0:	f74cac83          	lw	s9,-140(s9) # 20010 <__DTOR_END__>
      a4:	3e700c13          	li	s8,999
      a8:	00040513          	mv	a0,s0
      ac:	6b80c0ef          	jal	ra,c764 <__floatsisf>
      b0:	000c8593          	mv	a1,s9
      b4:	2540c0ef          	jal	ra,c308 <__addsf3>
      b8:	7b40c0ef          	jal	ra,c86c <__extendsfdf2>
      bc:	000b0613          	mv	a2,s6
      c0:	000b8693          	mv	a3,s7
      c4:	2200b0ef          	jal	ra,b2e4 <__muldf3>
      c8:	000a0613          	mv	a2,s4
      cc:	000a8693          	mv	a3,s5
      d0:	7dc0b0ef          	jal	ra,b8ac <__subdf3>
      d4:	00050613          	mv	a2,a0
      d8:	00058693          	mv	a3,a1
      dc:	2080b0ef          	jal	ra,b2e4 <__muldf3>
      e0:	00050613          	mv	a2,a0
      e4:	00058693          	mv	a3,a1
      e8:	000a0513          	mv	a0,s4
      ec:	000a8593          	mv	a1,s5
      f0:	7bc0b0ef          	jal	ra,b8ac <__subdf3>
      f4:	3e5070ef          	jal	ra,7cd8 <sqrt>
      f8:	0009a603          	lw	a2,0(s3)
      fc:	0049a683          	lw	a3,4(s3)
     100:	01940413          	addi	s0,s0,25
     104:	1e00b0ef          	jal	ra,b2e4 <__muldf3>
     108:	00050613          	mv	a2,a0
     10c:	00058693          	mv	a3,a1
     110:	00090513          	mv	a0,s2
     114:	00048593          	mv	a1,s1
     118:	0c00a0ef          	jal	ra,a1d8 <__adddf3>
     11c:	00050913          	mv	s2,a0
     120:	00058493          	mv	s1,a1
     124:	f88c52e3          	bge	s8,s0,a8 <Area+0x70>
     128:	00021517          	auipc	a0,0x21
     12c:	cb450513          	addi	a0,a0,-844 # 20ddc <gLock>
     130:	7e4050ef          	jal	ra,5914 <pthread_mutex_lock>
     134:	00021417          	auipc	s0,0x21
     138:	c2440413          	addi	s0,s0,-988 # 20d58 <gPi>
     13c:	00042503          	lw	a0,0(s0)
     140:	00442583          	lw	a1,4(s0)
     144:	00090613          	mv	a2,s2
     148:	00048693          	mv	a3,s1
     14c:	08c0a0ef          	jal	ra,a1d8 <__adddf3>
     150:	00050713          	mv	a4,a0
     154:	00021517          	auipc	a0,0x21
     158:	c8850513          	addi	a0,a0,-888 # 20ddc <gLock>
     15c:	00e42023          	sw	a4,0(s0)
     160:	00b42223          	sw	a1,4(s0)
     164:	001050ef          	jal	ra,5964 <pthread_mutex_unlock>
     168:	02c12083          	lw	ra,44(sp)
     16c:	02812403          	lw	s0,40(sp)
     170:	02412483          	lw	s1,36(sp)
     174:	02012903          	lw	s2,32(sp)
     178:	01c12983          	lw	s3,28(sp)
     17c:	01812a03          	lw	s4,24(sp)
     180:	01412a83          	lw	s5,20(sp)
     184:	01012b03          	lw	s6,16(sp)
     188:	00c12b83          	lw	s7,12(sp)
     18c:	00812c03          	lw	s8,8(sp)
     190:	00412c83          	lw	s9,4(sp)
     194:	00000513          	li	a0,0
     198:	03010113          	addi	sp,sp,48
     19c:	00008067          	ret
     1a0:	00000913          	li	s2,0
     1a4:	00000493          	li	s1,0
     1a8:	f81ff06f          	j	128 <Area+0xf0>

000001ac <pi_test>:
     1ac:	f1010113          	addi	sp,sp,-240
     1b0:	0e912223          	sw	s1,228(sp)
     1b4:	00000593          	li	a1,0
     1b8:	00021517          	auipc	a0,0x21
     1bc:	c2450513          	addi	a0,a0,-988 # 20ddc <gLock>
     1c0:	00810493          	addi	s1,sp,8
     1c4:	0e812423          	sw	s0,232(sp)
     1c8:	0f212023          	sw	s2,224(sp)
     1cc:	0d312e23          	sw	s3,220(sp)
     1d0:	0d412c23          	sw	s4,216(sp)
     1d4:	0d512a23          	sw	s5,212(sp)
     1d8:	0e112623          	sw	ra,236(sp)
     1dc:	06c10413          	addi	s0,sp,108
     1e0:	554050ef          	jal	ra,5734 <pthread_mutex_init>
     1e4:	0d010a93          	addi	s5,sp,208
     1e8:	00048993          	mv	s3,s1
     1ec:	00000913          	li	s2,0
     1f0:	00000a17          	auipc	s4,0x0
     1f4:	e48a0a13          	addi	s4,s4,-440 # 38 <Area>
     1f8:	01242023          	sw	s2,0(s0)
     1fc:	00040693          	mv	a3,s0
     200:	00098513          	mv	a0,s3
     204:	000a0613          	mv	a2,s4
     208:	00000593          	li	a1,0
     20c:	00440413          	addi	s0,s0,4
     210:	1f0050ef          	jal	ra,5400 <pthread_create>
     214:	00190913          	addi	s2,s2,1
     218:	00498993          	addi	s3,s3,4
     21c:	fd541ee3          	bne	s0,s5,1f8 <pi_test+0x4c>
     220:	06448413          	addi	s0,s1,100
     224:	0004a503          	lw	a0,0(s1)
     228:	00000593          	li	a1,0
     22c:	00448493          	addi	s1,s1,4
     230:	34c050ef          	jal	ra,557c <pthread_join>
     234:	fe9418e3          	bne	s0,s1,224 <pi_test+0x78>
     238:	00021417          	auipc	s0,0x21
     23c:	b2040413          	addi	s0,s0,-1248 # 20d58 <gPi>
     240:	00042603          	lw	a2,0(s0)
     244:	00442683          	lw	a3,4(s0)
     248:	00060513          	mv	a0,a2
     24c:	00068593          	mv	a1,a3
     250:	789090ef          	jal	ra,a1d8 <__adddf3>
     254:	00050613          	mv	a2,a0
     258:	00058693          	mv	a3,a1
     25c:	00020517          	auipc	a0,0x20
     260:	e8050513          	addi	a0,a0,-384 # 200dc <__malloc_trim_threshold+0x4>
     264:	00c42023          	sw	a2,0(s0)
     268:	00b42223          	sw	a1,4(s0)
     26c:	515010ef          	jal	ra,1f80 <printf_>
     270:	00021517          	auipc	a0,0x21
     274:	b6c50513          	addi	a0,a0,-1172 # 20ddc <gLock>
     278:	48c050ef          	jal	ra,5704 <pthread_mutex_destroy>
     27c:	00000513          	li	a0,0
     280:	104000ef          	jal	ra,384 <exit>

00000284 <vApplicationMallocFailedHook>:
     284:	ff010113          	addi	sp,sp,-16
     288:	00020517          	auipc	a0,0x20
     28c:	e7450513          	addi	a0,a0,-396 # 200fc <__malloc_trim_threshold+0x24>
     290:	00112623          	sw	ra,12(sp)
     294:	4ed010ef          	jal	ra,1f80 <printf_>
     298:	00000513          	li	a0,0
     29c:	0e8000ef          	jal	ra,384 <exit>

000002a0 <vApplicationStackOverflowHook>:
     2a0:	ff010113          	addi	sp,sp,-16
     2a4:	00020517          	auipc	a0,0x20
     2a8:	e7050513          	addi	a0,a0,-400 # 20114 <__malloc_trim_threshold+0x3c>
     2ac:	00112623          	sw	ra,12(sp)
     2b0:	4d1010ef          	jal	ra,1f80 <printf_>
     2b4:	00000513          	li	a0,0
     2b8:	0cc000ef          	jal	ra,384 <exit>

000002bc <vApplicationTickHook>:
     2bc:	00008067          	ret

000002c0 <vApplicationIdleHook>:
     2c0:	00008067          	ret

000002c4 <main>:
     2c4:	ff010113          	addi	sp,sp,-16
     2c8:	00020517          	auipc	a0,0x20
     2cc:	e6c50513          	addi	a0,a0,-404 # 20134 <__malloc_trim_threshold+0x5c>
     2d0:	00112623          	sw	ra,12(sp)
     2d4:	4ad010ef          	jal	ra,1f80 <printf_>
     2d8:	00000793          	li	a5,0
     2dc:	00400713          	li	a4,4
     2e0:	00000693          	li	a3,0
     2e4:	40000613          	li	a2,1024
     2e8:	00020597          	auipc	a1,0x20
     2ec:	e6458593          	addi	a1,a1,-412 # 2014c <__malloc_trim_threshold+0x74>
     2f0:	00000517          	auipc	a0,0x0
     2f4:	ebc50513          	addi	a0,a0,-324 # 1ac <pi_test>
     2f8:	3bc030ef          	jal	ra,36b4 <xTaskCreate>
     2fc:	490030ef          	jal	ra,378c <vTaskStartScheduler>
     300:	00c12083          	lw	ra,12(sp)
     304:	00000513          	li	a0,0
     308:	01010113          	addi	sp,sp,16
     30c:	00008067          	ret

00000310 <trap_handler>:
     310:	34102f73          	csrr	t5,mepc
     314:	004f0f13          	addi	t5,t5,4
     318:	341f1073          	csrw	mepc,t5
     31c:	30200073          	mret
     320:	0000                	.2byte	0x0
	...

00000324 <_putchar>:
     324:	900007b7          	lui	a5,0x90000
     328:	00a78e23          	sb	a0,28(a5) # 9000001c <_stack+0x8ffc001c>
     32c:	00008067          	ret

00000330 <_write>:
     330:	00060513          	mv	a0,a2
     334:	00060e63          	beqz	a2,350 <_write+0x20>
     338:	00c586b3          	add	a3,a1,a2
     33c:	90000737          	lui	a4,0x90000
     340:	0005c783          	lbu	a5,0(a1)
     344:	00158593          	addi	a1,a1,1
     348:	00f70e23          	sb	a5,28(a4) # 9000001c <_stack+0x8ffc001c>
     34c:	fed59ae3          	bne	a1,a3,340 <_write+0x10>
     350:	00008067          	ret

00000354 <_fstat>:
     354:	fff00513          	li	a0,-1
     358:	00008067          	ret

0000035c <_close>:
     35c:	fff00513          	li	a0,-1
     360:	00008067          	ret

00000364 <_lseek>:
     364:	fff00513          	li	a0,-1
     368:	00008067          	ret

0000036c <_read>:
     36c:	fff00513          	li	a0,-1
     370:	00008067          	ret

00000374 <_exit>:
     374:	0ff57793          	zext.b	a5,a0
     378:	90000737          	lui	a4,0x90000
     37c:	02f70623          	sb	a5,44(a4) # 9000002c <_stack+0x8ffc002c>
     380:	0000006f          	j	380 <_exit+0xc>

00000384 <exit>:
     384:	0ff57793          	zext.b	a5,a0
     388:	90000737          	lui	a4,0x90000
     38c:	02f70623          	sb	a5,44(a4) # 9000002c <_stack+0x8ffc002c>
     390:	0000006f          	j	390 <exit+0xc>

00000394 <_isatty>:
     394:	00353513          	sltiu	a0,a0,3
     398:	00008067          	ret

0000039c <_sbrk>:
     39c:	00021697          	auipc	a3,0x21
     3a0:	9c468693          	addi	a3,a3,-1596 # 20d60 <heap_ptr>
     3a4:	0006a703          	lw	a4,0(a3)
     3a8:	02070063          	beqz	a4,3c8 <_sbrk+0x2c>
     3ac:	00a707b3          	add	a5,a4,a0
     3b0:	00040617          	auipc	a2,0x40
     3b4:	c5060613          	addi	a2,a2,-944 # 40000 <_stack>
     3b8:	02c7d663          	bge	a5,a2,3e4 <_sbrk+0x48>
     3bc:	00f6a023          	sw	a5,0(a3)
     3c0:	00070513          	mv	a0,a4
     3c4:	00008067          	ret
     3c8:	00022717          	auipc	a4,0x22
     3cc:	cf070713          	addi	a4,a4,-784 # 220b8 <_bss_end>
     3d0:	00e6a023          	sw	a4,0(a3)
     3d4:	00a707b3          	add	a5,a4,a0
     3d8:	00040617          	auipc	a2,0x40
     3dc:	c2860613          	addi	a2,a2,-984 # 40000 <_stack>
     3e0:	fcc7cee3          	blt	a5,a2,3bc <_sbrk+0x20>
     3e4:	00000713          	li	a4,0
     3e8:	00070513          	mv	a0,a4
     3ec:	00008067          	ret

000003f0 <_kill>:
     3f0:	fff00513          	li	a0,-1
     3f4:	00008067          	ret

000003f8 <_getpid>:
     3f8:	00000513          	li	a0,0
     3fc:	00008067          	ret

00000400 <_out_buffer>:
     400:	00d67663          	bgeu	a2,a3,40c <_out_buffer+0xc>
     404:	00c585b3          	add	a1,a1,a2
     408:	00a58023          	sb	a0,0(a1)
     40c:	00008067          	ret

00000410 <_out_null>:
     410:	00008067          	ret

00000414 <_out_rev>:
     414:	fd010113          	addi	sp,sp,-48
     418:	02912223          	sw	s1,36(sp)
     41c:	03212023          	sw	s2,32(sp)
     420:	01312e23          	sw	s3,28(sp)
     424:	01412c23          	sw	s4,24(sp)
     428:	01512a23          	sw	s5,20(sp)
     42c:	01612823          	sw	s6,16(sp)
     430:	00060a93          	mv	s5,a2
     434:	01812423          	sw	s8,8(sp)
     438:	01912223          	sw	s9,4(sp)
     43c:	01a12023          	sw	s10,0(sp)
     440:	02112623          	sw	ra,44(sp)
     444:	02812423          	sw	s0,40(sp)
     448:	01712623          	sw	s7,12(sp)
     44c:	0038f613          	andi	a2,a7,3
     450:	00088c93          	mv	s9,a7
     454:	00050913          	mv	s2,a0
     458:	00058993          	mv	s3,a1
     45c:	00068a13          	mv	s4,a3
     460:	00070b13          	mv	s6,a4
     464:	00078d13          	mv	s10,a5
     468:	00080c13          	mv	s8,a6
     46c:	000a8493          	mv	s1,s5
     470:	02061863          	bnez	a2,4a0 <_out_rev+0x8c>
     474:	0307f663          	bgeu	a5,a6,4a0 <_out_rev+0x8c>
     478:	40f804b3          	sub	s1,a6,a5
     47c:	015484b3          	add	s1,s1,s5
     480:	000a8413          	mv	s0,s5
     484:	00040613          	mv	a2,s0
     488:	000a0693          	mv	a3,s4
     48c:	00140413          	addi	s0,s0,1
     490:	00098593          	mv	a1,s3
     494:	02000513          	li	a0,32
     498:	000900e7          	jalr	s2
     49c:	fe9414e3          	bne	s0,s1,484 <_out_rev+0x70>
     4a0:	020d0663          	beqz	s10,4cc <_out_rev+0xb8>
     4a4:	01ab0433          	add	s0,s6,s10
     4a8:	00940bb3          	add	s7,s0,s1
     4ac:	fff44503          	lbu	a0,-1(s0)
     4b0:	408b8633          	sub	a2,s7,s0
     4b4:	000a0693          	mv	a3,s4
     4b8:	fff40413          	addi	s0,s0,-1
     4bc:	00098593          	mv	a1,s3
     4c0:	000900e7          	jalr	s2
     4c4:	fe8b14e3          	bne	s6,s0,4ac <_out_rev+0x98>
     4c8:	01a484b3          	add	s1,s1,s10
     4cc:	002cfc93          	andi	s9,s9,2
     4d0:	020c8663          	beqz	s9,4fc <_out_rev+0xe8>
     4d4:	41548ab3          	sub	s5,s1,s5
     4d8:	038af263          	bgeu	s5,s8,4fc <_out_rev+0xe8>
     4dc:	00048613          	mv	a2,s1
     4e0:	001a8a93          	addi	s5,s5,1
     4e4:	000a0693          	mv	a3,s4
     4e8:	00098593          	mv	a1,s3
     4ec:	02000513          	li	a0,32
     4f0:	00148493          	addi	s1,s1,1
     4f4:	000900e7          	jalr	s2
     4f8:	ff8ae2e3          	bltu	s5,s8,4dc <_out_rev+0xc8>
     4fc:	02c12083          	lw	ra,44(sp)
     500:	02812403          	lw	s0,40(sp)
     504:	02012903          	lw	s2,32(sp)
     508:	01c12983          	lw	s3,28(sp)
     50c:	01812a03          	lw	s4,24(sp)
     510:	01412a83          	lw	s5,20(sp)
     514:	01012b03          	lw	s6,16(sp)
     518:	00c12b83          	lw	s7,12(sp)
     51c:	00812c03          	lw	s8,8(sp)
     520:	00412c83          	lw	s9,4(sp)
     524:	00012d03          	lw	s10,0(sp)
     528:	00048513          	mv	a0,s1
     52c:	02412483          	lw	s1,36(sp)
     530:	03010113          	addi	sp,sp,48
     534:	00008067          	ret

00000538 <_ntoa_format>:
     538:	00812383          	lw	t2,8(sp)
     53c:	00012283          	lw	t0,0(sp)
     540:	00412f83          	lw	t6,4(sp)
     544:	0023f313          	andi	t1,t2,2
     548:	00080f13          	mv	t5,a6
     54c:	06031463          	bnez	t1,5b4 <_ntoa_format+0x7c>
     550:	0013f813          	andi	a6,t2,1
     554:	100f9e63          	bnez	t6,670 <_ntoa_format+0x138>
     558:	0257f663          	bgeu	a5,t0,584 <_ntoa_format+0x4c>
     55c:	01f00313          	li	t1,31
     560:	22f36863          	bltu	t1,a5,790 <_ntoa_format+0x258>
     564:	03000e13          	li	t3,48
     568:	02000e93          	li	t4,32
     56c:	0080006f          	j	574 <_ntoa_format+0x3c>
     570:	01d78a63          	beq	a5,t4,584 <_ntoa_format+0x4c>
     574:	00178793          	addi	a5,a5,1
     578:	00f70333          	add	t1,a4,a5
     57c:	ffc30fa3          	sb	t3,-1(t1)
     580:	fe57e8e3          	bltu	a5,t0,570 <_ntoa_format+0x38>
     584:	02080863          	beqz	a6,5b4 <_ntoa_format+0x7c>
     588:	03f7f663          	bgeu	a5,t6,5b4 <_ntoa_format+0x7c>
     58c:	02000813          	li	a6,32
     590:	11078263          	beq	a5,a6,694 <_ntoa_format+0x15c>
     594:	03000e13          	li	t3,48
     598:	02000e93          	li	t4,32
     59c:	0080006f          	j	5a4 <_ntoa_format+0x6c>
     5a0:	0fd78a63          	beq	a5,t4,694 <_ntoa_format+0x15c>
     5a4:	00178793          	addi	a5,a5,1
     5a8:	00f70333          	add	t1,a4,a5
     5ac:	ffc30fa3          	sb	t3,-1(t1)
     5b0:	fff798e3          	bne	a5,t6,5a0 <_ntoa_format+0x68>
     5b4:	0103f813          	andi	a6,t2,16
     5b8:	08080463          	beqz	a6,640 <_ntoa_format+0x108>
     5bc:	4003f813          	andi	a6,t2,1024
     5c0:	04081c63          	bnez	a6,618 <_ntoa_format+0xe0>
     5c4:	04079663          	bnez	a5,610 <_ntoa_format+0xd8>
     5c8:	01000793          	li	a5,16
     5cc:	16f88463          	beq	a7,a5,734 <_ntoa_format+0x1fc>
     5d0:	00200793          	li	a5,2
     5d4:	1af88663          	beq	a7,a5,780 <_ntoa_format+0x248>
     5d8:	03000793          	li	a5,48
     5dc:	00f70023          	sb	a5,0(a4)
     5e0:	00100793          	li	a5,1
     5e4:	060f0463          	beqz	t5,64c <_ntoa_format+0x114>
     5e8:	00f70833          	add	a6,a4,a5
     5ec:	02d00893          	li	a7,45
     5f0:	01180023          	sb	a7,0(a6)
     5f4:	00178793          	addi	a5,a5,1
     5f8:	00038893          	mv	a7,t2
     5fc:	000f8813          	mv	a6,t6
     600:	e15ff06f          	j	414 <_out_rev>
     604:	4003f793          	andi	a5,t2,1024
     608:	16079063          	bnez	a5,768 <_ntoa_format+0x230>
     60c:	02000793          	li	a5,32
     610:	0ef28063          	beq	t0,a5,6f0 <_ntoa_format+0x1b8>
     614:	0cff8e63          	beq	t6,a5,6f0 <_ntoa_format+0x1b8>
     618:	01000813          	li	a6,16
     61c:	0f088a63          	beq	a7,a6,710 <_ntoa_format+0x1d8>
     620:	00200813          	li	a6,2
     624:	0b088863          	beq	a7,a6,6d4 <_ntoa_format+0x19c>
     628:	02000813          	li	a6,32
     62c:	fd0786e3          	beq	a5,a6,5f8 <_ntoa_format+0xc0>
     630:	00f70833          	add	a6,a4,a5
     634:	03000893          	li	a7,48
     638:	01180023          	sb	a7,0(a6)
     63c:	00178793          	addi	a5,a5,1
     640:	02000813          	li	a6,32
     644:	fb078ae3          	beq	a5,a6,5f8 <_ntoa_format+0xc0>
     648:	fa0f10e3          	bnez	t5,5e8 <_ntoa_format+0xb0>
     64c:	0043f813          	andi	a6,t2,4
     650:	06081463          	bnez	a6,6b8 <_ntoa_format+0x180>
     654:	0083f813          	andi	a6,t2,8
     658:	fa0800e3          	beqz	a6,5f8 <_ntoa_format+0xc0>
     65c:	00f70833          	add	a6,a4,a5
     660:	02000893          	li	a7,32
     664:	01180023          	sb	a7,0(a6)
     668:	00178793          	addi	a5,a5,1
     66c:	f8dff06f          	j	5f8 <_ntoa_format+0xc0>
     670:	02080a63          	beqz	a6,6a4 <_ntoa_format+0x16c>
     674:	060f1a63          	bnez	t5,6e8 <_ntoa_format+0x1b0>
     678:	00c3f313          	andi	t1,t2,12
     67c:	06031663          	bnez	t1,6e8 <_ntoa_format+0x1b0>
     680:	f057f4e3          	bgeu	a5,t0,588 <_ntoa_format+0x50>
     684:	01f00313          	li	t1,31
     688:	ecf37ee3          	bgeu	t1,a5,564 <_ntoa_format+0x2c>
     68c:	02000793          	li	a5,32
     690:	f3f7f2e3          	bgeu	a5,t6,5b4 <_ntoa_format+0x7c>
     694:	0103f793          	andi	a5,t2,16
     698:	f60796e3          	bnez	a5,604 <_ntoa_format+0xcc>
     69c:	02000793          	li	a5,32
     6a0:	f59ff06f          	j	5f8 <_ntoa_format+0xc0>
     6a4:	f057f8e3          	bgeu	a5,t0,5b4 <_ntoa_format+0x7c>
     6a8:	01f00313          	li	t1,31
     6ac:	eaf37ce3          	bgeu	t1,a5,564 <_ntoa_format+0x2c>
     6b0:	02000793          	li	a5,32
     6b4:	f01ff06f          	j	5b4 <_ntoa_format+0x7c>
     6b8:	00f70833          	add	a6,a4,a5
     6bc:	02b00893          	li	a7,43
     6c0:	01180023          	sb	a7,0(a6)
     6c4:	00178793          	addi	a5,a5,1
     6c8:	00038893          	mv	a7,t2
     6cc:	000f8813          	mv	a6,t6
     6d0:	d45ff06f          	j	414 <_out_rev>
     6d4:	02000813          	li	a6,32
     6d8:	f30780e3          	beq	a5,a6,5f8 <_ntoa_format+0xc0>
     6dc:	00f70833          	add	a6,a4,a5
     6e0:	00178793          	addi	a5,a5,1
     6e4:	0d40006f          	j	7b8 <_ntoa_format+0x280>
     6e8:	ffff8f93          	addi	t6,t6,-1
     6ec:	f95ff06f          	j	680 <_ntoa_format+0x148>
     6f0:	fff78813          	addi	a6,a5,-1
     6f4:	ec080ae3          	beqz	a6,5c8 <_ntoa_format+0x90>
     6f8:	01000313          	li	t1,16
     6fc:	0a688063          	beq	a7,t1,79c <_ntoa_format+0x264>
     700:	00200313          	li	t1,2
     704:	0a688863          	beq	a7,t1,7b4 <_ntoa_format+0x27c>
     708:	00080793          	mv	a5,a6
     70c:	f25ff06f          	j	630 <_ntoa_format+0xf8>
     710:	0203f813          	andi	a6,t2,32
     714:	02081c63          	bnez	a6,74c <_ntoa_format+0x214>
     718:	02000813          	li	a6,32
     71c:	ed078ee3          	beq	a5,a6,5f8 <_ntoa_format+0xc0>
     720:	00f708b3          	add	a7,a4,a5
     724:	00178793          	addi	a5,a5,1
     728:	07800813          	li	a6,120
     72c:	01088023          	sb	a6,0(a7)
     730:	ef9ff06f          	j	628 <_ntoa_format+0xf0>
     734:	0203f793          	andi	a5,t2,32
     738:	02079c63          	bnez	a5,770 <_ntoa_format+0x238>
     73c:	07800793          	li	a5,120
     740:	00f70023          	sb	a5,0(a4)
     744:	00100793          	li	a5,1
     748:	ee9ff06f          	j	630 <_ntoa_format+0xf8>
     74c:	02000813          	li	a6,32
     750:	eb0784e3          	beq	a5,a6,5f8 <_ntoa_format+0xc0>
     754:	00f70833          	add	a6,a4,a5
     758:	05800893          	li	a7,88
     75c:	01180023          	sb	a7,0(a6)
     760:	00178793          	addi	a5,a5,1
     764:	ec5ff06f          	j	628 <_ntoa_format+0xf0>
     768:	02000793          	li	a5,32
     76c:	eadff06f          	j	618 <_ntoa_format+0xe0>
     770:	05800793          	li	a5,88
     774:	00f70023          	sb	a5,0(a4)
     778:	00100793          	li	a5,1
     77c:	eb5ff06f          	j	630 <_ntoa_format+0xf8>
     780:	06200793          	li	a5,98
     784:	00f70023          	sb	a5,0(a4)
     788:	00100793          	li	a5,1
     78c:	ea5ff06f          	j	630 <_ntoa_format+0xf8>
     790:	02000793          	li	a5,32
     794:	de081ae3          	bnez	a6,588 <_ntoa_format+0x50>
     798:	e1dff06f          	j	5b4 <_ntoa_format+0x7c>
     79c:	0203f893          	andi	a7,t2,32
     7a0:	ffe78793          	addi	a5,a5,-2
     7a4:	fa0898e3          	bnez	a7,754 <_ntoa_format+0x21c>
     7a8:	00f708b3          	add	a7,a4,a5
     7ac:	00080793          	mv	a5,a6
     7b0:	f79ff06f          	j	728 <_ntoa_format+0x1f0>
     7b4:	01070833          	add	a6,a4,a6
     7b8:	06200893          	li	a7,98
     7bc:	01180023          	sb	a7,0(a6)
     7c0:	e69ff06f          	j	628 <_ntoa_format+0xf0>

000007c4 <_ntoa_long>:
     7c4:	fc010113          	addi	sp,sp,-64
     7c8:	02812c23          	sw	s0,56(sp)
     7cc:	02112e23          	sw	ra,60(sp)
     7d0:	00080e93          	mv	t4,a6
     7d4:	04412403          	lw	s0,68(sp)
     7d8:	00070e13          	mv	t3,a4
     7dc:	00078813          	mv	a6,a5
     7e0:	00071863          	bnez	a4,7f0 <_ntoa_long+0x2c>
     7e4:	40047793          	andi	a5,s0,1024
     7e8:	fef47413          	andi	s0,s0,-17
     7ec:	08079863          	bnez	a5,87c <_ntoa_long+0xb8>
     7f0:	02047713          	andi	a4,s0,32
     7f4:	06100293          	li	t0,97
     7f8:	06071e63          	bnez	a4,874 <_ntoa_long+0xb0>
     7fc:	00000793          	li	a5,0
     800:	01010713          	addi	a4,sp,16
     804:	00900393          	li	t2,9
     808:	ff628293          	addi	t0,t0,-10
     80c:	02000093          	li	ra,32
     810:	00c0006f          	j	81c <_ntoa_long+0x58>
     814:	02178c63          	beq	a5,ra,84c <_ntoa_long+0x88>
     818:	00030e13          	mv	t3,t1
     81c:	03de7f33          	remu	t5,t3,t4
     820:	0fff7313          	zext.b	t1,t5
     824:	03030f93          	addi	t6,t1,48
     828:	00530333          	add	t1,t1,t0
     82c:	0ff37313          	zext.b	t1,t1
     830:	01e3e463          	bltu	t2,t5,838 <_ntoa_long+0x74>
     834:	0ffff313          	zext.b	t1,t6
     838:	00178793          	addi	a5,a5,1
     83c:	00f70f33          	add	t5,a4,a5
     840:	fe6f0fa3          	sb	t1,-1(t5)
     844:	03de5333          	divu	t1,t3,t4
     848:	fdde76e3          	bgeu	t3,t4,814 <_ntoa_long+0x50>
     84c:	04012303          	lw	t1,64(sp)
     850:	00812423          	sw	s0,8(sp)
     854:	01112023          	sw	a7,0(sp)
     858:	00612223          	sw	t1,4(sp)
     85c:	000e8893          	mv	a7,t4
     860:	cd9ff0ef          	jal	ra,538 <_ntoa_format>
     864:	03c12083          	lw	ra,60(sp)
     868:	03812403          	lw	s0,56(sp)
     86c:	04010113          	addi	sp,sp,64
     870:	00008067          	ret
     874:	04100293          	li	t0,65
     878:	f85ff06f          	j	7fc <_ntoa_long+0x38>
     87c:	00000793          	li	a5,0
     880:	01010713          	addi	a4,sp,16
     884:	fc9ff06f          	j	84c <_ntoa_long+0x88>

00000888 <_ntoa_long_long>:
     888:	f7010113          	addi	sp,sp,-144
     88c:	07512223          	sw	s5,100(sp)
     890:	07612023          	sw	s6,96(sp)
     894:	05712e23          	sw	s7,92(sp)
     898:	05812c23          	sw	s8,88(sp)
     89c:	05912a23          	sw	s9,84(sp)
     8a0:	05a12823          	sw	s10,80(sp)
     8a4:	05b12623          	sw	s11,76(sp)
     8a8:	06112e23          	sw	ra,124(sp)
     8ac:	00078d93          	mv	s11,a5
     8b0:	06812c23          	sw	s0,120(sp)
     8b4:	06912a23          	sw	s1,116(sp)
     8b8:	07212823          	sw	s2,112(sp)
     8bc:	07312623          	sw	s3,108(sp)
     8c0:	07412423          	sw	s4,104(sp)
     8c4:	09112623          	sw	a7,140(sp)
     8c8:	00f767b3          	or	a5,a4,a5
     8cc:	00a12c23          	sw	a0,24(sp)
     8d0:	00b12e23          	sw	a1,28(sp)
     8d4:	09012b03          	lw	s6,144(sp)
     8d8:	00070a93          	mv	s5,a4
     8dc:	00060b93          	mv	s7,a2
     8e0:	00068c13          	mv	s8,a3
     8e4:	00080c93          	mv	s9,a6
     8e8:	00088d13          	mv	s10,a7
     8ec:	00079e63          	bnez	a5,908 <_ntoa_long_long+0x80>
     8f0:	09c12703          	lw	a4,156(sp)
     8f4:	09c12783          	lw	a5,156(sp)
     8f8:	fef77a13          	andi	s4,a4,-17
     8fc:	4007f793          	andi	a5,a5,1024
     900:	09412e23          	sw	s4,156(sp)
     904:	08079663          	bnez	a5,990 <_ntoa_long_long+0x108>
     908:	09c12783          	lw	a5,156(sp)
     90c:	06100413          	li	s0,97
     910:	0207f793          	andi	a5,a5,32
     914:	10079263          	bnez	a5,a18 <_ntoa_long_long+0x190>
     918:	00000a13          	li	s4,0
     91c:	02010493          	addi	s1,sp,32
     920:	00900913          	li	s2,9
     924:	ff640413          	addi	s0,s0,-10
     928:	02000993          	li	s3,32
     92c:	000d0613          	mv	a2,s10
     930:	000b0693          	mv	a3,s6
     934:	000a8513          	mv	a0,s5
     938:	000d8593          	mv	a1,s11
     93c:	498090ef          	jal	ra,9dd4 <__umoddi3>
     940:	0ff57513          	zext.b	a0,a0
     944:	00850833          	add	a6,a0,s0
     948:	03050613          	addi	a2,a0,48
     94c:	0ff87813          	zext.b	a6,a6
     950:	00a96463          	bltu	s2,a0,958 <_ntoa_long_long+0xd0>
     954:	0ff67813          	zext.b	a6,a2
     958:	001a0a13          	addi	s4,s4,1
     95c:	014488b3          	add	a7,s1,s4
     960:	000a8513          	mv	a0,s5
     964:	000d8593          	mv	a1,s11
     968:	000d0613          	mv	a2,s10
     96c:	000b0693          	mv	a3,s6
     970:	ff088fa3          	sb	a6,-1(a7)
     974:	02c090ef          	jal	ra,99a0 <__udivdi3>
     978:	036de063          	bltu	s11,s6,998 <_ntoa_long_long+0x110>
     97c:	09bb0a63          	beq	s6,s11,a10 <_ntoa_long_long+0x188>
     980:	013a0c63          	beq	s4,s3,998 <_ntoa_long_long+0x110>
     984:	00050a93          	mv	s5,a0
     988:	00058d93          	mv	s11,a1
     98c:	fa1ff06f          	j	92c <_ntoa_long_long+0xa4>
     990:	00000a13          	li	s4,0
     994:	02010493          	addi	s1,sp,32
     998:	09812703          	lw	a4,152(sp)
     99c:	09c12783          	lw	a5,156(sp)
     9a0:	01c12583          	lw	a1,28(sp)
     9a4:	00e12223          	sw	a4,4(sp)
     9a8:	09412703          	lw	a4,148(sp)
     9ac:	01812503          	lw	a0,24(sp)
     9b0:	00f12423          	sw	a5,8(sp)
     9b4:	00e12023          	sw	a4,0(sp)
     9b8:	000d0893          	mv	a7,s10
     9bc:	000c8813          	mv	a6,s9
     9c0:	000a0793          	mv	a5,s4
     9c4:	00048713          	mv	a4,s1
     9c8:	000c0693          	mv	a3,s8
     9cc:	000b8613          	mv	a2,s7
     9d0:	b69ff0ef          	jal	ra,538 <_ntoa_format>
     9d4:	07c12083          	lw	ra,124(sp)
     9d8:	07812403          	lw	s0,120(sp)
     9dc:	07412483          	lw	s1,116(sp)
     9e0:	07012903          	lw	s2,112(sp)
     9e4:	06c12983          	lw	s3,108(sp)
     9e8:	06812a03          	lw	s4,104(sp)
     9ec:	06412a83          	lw	s5,100(sp)
     9f0:	06012b03          	lw	s6,96(sp)
     9f4:	05c12b83          	lw	s7,92(sp)
     9f8:	05812c03          	lw	s8,88(sp)
     9fc:	05412c83          	lw	s9,84(sp)
     a00:	05012d03          	lw	s10,80(sp)
     a04:	04c12d83          	lw	s11,76(sp)
     a08:	09010113          	addi	sp,sp,144
     a0c:	00008067          	ret
     a10:	f7aaf8e3          	bgeu	s5,s10,980 <_ntoa_long_long+0xf8>
     a14:	f85ff06f          	j	998 <_ntoa_long_long+0x110>
     a18:	04100413          	li	s0,65
     a1c:	efdff06f          	j	918 <_ntoa_long_long+0x90>

00000a20 <_etoa>:
     a20:	f8010113          	addi	sp,sp,-128
     a24:	07212823          	sw	s2,112(sp)
     a28:	07312623          	sw	s3,108(sp)
     a2c:	07412423          	sw	s4,104(sp)
     a30:	07512223          	sw	s5,100(sp)
     a34:	00050993          	mv	s3,a0
     a38:	00058a13          	mv	s4,a1
     a3c:	00060913          	mv	s2,a2
     a40:	00068a93          	mv	s5,a3
     a44:	00070613          	mv	a2,a4
     a48:	00078693          	mv	a3,a5
     a4c:	00070513          	mv	a0,a4
     a50:	00078593          	mv	a1,a5
     a54:	06812c23          	sw	s0,120(sp)
     a58:	06912a23          	sw	s1,116(sp)
     a5c:	07612023          	sw	s6,96(sp)
     a60:	05812c23          	sw	s8,88(sp)
     a64:	05912a23          	sw	s9,84(sp)
     a68:	06112e23          	sw	ra,124(sp)
     a6c:	05712e23          	sw	s7,92(sp)
     a70:	05a12823          	sw	s10,80(sp)
     a74:	05b12623          	sw	s11,76(sp)
     a78:	00070413          	mv	s0,a4
     a7c:	00078493          	mv	s1,a5
     a80:	00080c13          	mv	s8,a6
     a84:	00088b13          	mv	s6,a7
     a88:	6080a0ef          	jal	ra,b090 <__eqdf2>
     a8c:	08012c83          	lw	s9,128(sp)
     a90:	52051863          	bnez	a0,fc0 <_etoa+0x5a0>
     a94:	0001f797          	auipc	a5,0x1f
     a98:	59478793          	addi	a5,a5,1428 # 20028 <__DTOR_END__+0x18>
     a9c:	0007a603          	lw	a2,0(a5)
     aa0:	0047a683          	lw	a3,4(a5)
     aa4:	00040513          	mv	a0,s0
     aa8:	00048593          	mv	a1,s1
     aac:	6700a0ef          	jal	ra,b11c <__gedf2>
     ab0:	50a04863          	bgtz	a0,fc0 <_etoa+0x5a0>
     ab4:	0001f797          	auipc	a5,0x1f
     ab8:	57c78793          	addi	a5,a5,1404 # 20030 <__DTOR_END__+0x20>
     abc:	0007a603          	lw	a2,0(a5)
     ac0:	0047a683          	lw	a3,4(a5)
     ac4:	00040513          	mv	a0,s0
     ac8:	00048593          	mv	a1,s1
     acc:	7340a0ef          	jal	ra,b200 <__ledf2>
     ad0:	4e054863          	bltz	a0,fc0 <_etoa+0x5a0>
     ad4:	00040513          	mv	a0,s0
     ad8:	00048593          	mv	a1,s1
     adc:	00000613          	li	a2,0
     ae0:	00000693          	li	a3,0
     ae4:	71c0a0ef          	jal	ra,b200 <__ledf2>
     ae8:	80000bb7          	lui	s7,0x80000
     aec:	02812223          	sw	s0,36(sp)
     af0:	009bcbb3          	xor	s7,s7,s1
     af4:	00054463          	bltz	a0,afc <_etoa+0xdc>
     af8:	00048b93          	mv	s7,s1
     afc:	400cf793          	andi	a5,s9,1024
     b00:	02f12e23          	sw	a5,60(sp)
     b04:	00079463          	bnez	a5,b0c <_etoa+0xec>
     b08:	00600c13          	li	s8,6
     b0c:	014bd513          	srli	a0,s7,0x14
     b10:	7ff57513          	andi	a0,a0,2047
     b14:	c0150513          	addi	a0,a0,-1023
     b18:	6c80b0ef          	jal	ra,c1e0 <__floatsidf>
     b1c:	0001f797          	auipc	a5,0x1f
     b20:	51c78793          	addi	a5,a5,1308 # 20038 <__DTOR_END__+0x28>
     b24:	0007a603          	lw	a2,0(a5)
     b28:	0047a683          	lw	a3,4(a5)
     b2c:	7b80a0ef          	jal	ra,b2e4 <__muldf3>
     b30:	0001f797          	auipc	a5,0x1f
     b34:	51078793          	addi	a5,a5,1296 # 20040 <__DTOR_END__+0x30>
     b38:	0007a603          	lw	a2,0(a5)
     b3c:	0047a683          	lw	a3,4(a5)
     b40:	698090ef          	jal	ra,a1d8 <__adddf3>
     b44:	00cb9793          	slli	a5,s7,0xc
     b48:	00c7d713          	srli	a4,a5,0xc
     b4c:	0001f797          	auipc	a5,0x1f
     b50:	4fc78793          	addi	a5,a5,1276 # 20048 <__DTOR_END__+0x38>
     b54:	0007a603          	lw	a2,0(a5)
     b58:	0047a683          	lw	a3,4(a5)
     b5c:	3ff007b7          	lui	a5,0x3ff00
     b60:	00e7e7b3          	or	a5,a5,a4
     b64:	00050d93          	mv	s11,a0
     b68:	00058d13          	mv	s10,a1
     b6c:	00040513          	mv	a0,s0
     b70:	00078593          	mv	a1,a5
     b74:	5390a0ef          	jal	ra,b8ac <__subdf3>
     b78:	0001f797          	auipc	a5,0x1f
     b7c:	4d878793          	addi	a5,a5,1240 # 20050 <__DTOR_END__+0x40>
     b80:	0007a603          	lw	a2,0(a5)
     b84:	0047a683          	lw	a3,4(a5)
     b88:	75c0a0ef          	jal	ra,b2e4 <__muldf3>
     b8c:	00050613          	mv	a2,a0
     b90:	00058693          	mv	a3,a1
     b94:	000d8513          	mv	a0,s11
     b98:	000d0593          	mv	a1,s10
     b9c:	63c090ef          	jal	ra,a1d8 <__adddf3>
     ba0:	5440b0ef          	jal	ra,c0e4 <__fixdfsi>
     ba4:	00050d13          	mv	s10,a0
     ba8:	6380b0ef          	jal	ra,c1e0 <__floatsidf>
     bac:	0001f797          	auipc	a5,0x1f
     bb0:	4ac78793          	addi	a5,a5,1196 # 20058 <__DTOR_END__+0x48>
     bb4:	0007a603          	lw	a2,0(a5)
     bb8:	0047a683          	lw	a3,4(a5)
     bbc:	00058d93          	mv	s11,a1
     bc0:	00a12c23          	sw	a0,24(sp)
     bc4:	7200a0ef          	jal	ra,b2e4 <__muldf3>
     bc8:	0001f717          	auipc	a4,0x1f
     bcc:	49870713          	addi	a4,a4,1176 # 20060 <__DTOR_END__+0x50>
     bd0:	00072603          	lw	a2,0(a4)
     bd4:	00472683          	lw	a3,4(a4)
     bd8:	600090ef          	jal	ra,a1d8 <__adddf3>
     bdc:	5080b0ef          	jal	ra,c0e4 <__fixdfsi>
     be0:	01812783          	lw	a5,24(sp)
     be4:	0001f697          	auipc	a3,0x1f
     be8:	48468693          	addi	a3,a3,1156 # 20068 <__DTOR_END__+0x58>
     bec:	0006a603          	lw	a2,0(a3)
     bf0:	0046a683          	lw	a3,4(a3)
     bf4:	00050713          	mv	a4,a0
     bf8:	000d8593          	mv	a1,s11
     bfc:	00078513          	mv	a0,a5
     c00:	00070d93          	mv	s11,a4
     c04:	6e00a0ef          	jal	ra,b2e4 <__muldf3>
     c08:	00050793          	mv	a5,a0
     c0c:	000d8513          	mv	a0,s11
     c10:	00f12c23          	sw	a5,24(sp)
     c14:	03b12423          	sw	s11,40(sp)
     c18:	00058d93          	mv	s11,a1
     c1c:	5c40b0ef          	jal	ra,c1e0 <__floatsidf>
     c20:	0001f717          	auipc	a4,0x1f
     c24:	45070713          	addi	a4,a4,1104 # 20070 <__DTOR_END__+0x60>
     c28:	00072603          	lw	a2,0(a4)
     c2c:	00472683          	lw	a3,4(a4)
     c30:	6b40a0ef          	jal	ra,b2e4 <__muldf3>
     c34:	01812783          	lw	a5,24(sp)
     c38:	00050613          	mv	a2,a0
     c3c:	00058693          	mv	a3,a1
     c40:	00078513          	mv	a0,a5
     c44:	000d8593          	mv	a1,s11
     c48:	4650a0ef          	jal	ra,b8ac <__subdf3>
     c4c:	00050613          	mv	a2,a0
     c50:	00058693          	mv	a3,a1
     c54:	02a12623          	sw	a0,44(sp)
     c58:	00b12c23          	sw	a1,24(sp)
     c5c:	6880a0ef          	jal	ra,b2e4 <__muldf3>
     c60:	01812783          	lw	a5,24(sp)
     c64:	02c12703          	lw	a4,44(sp)
     c68:	00050d93          	mv	s11,a0
     c6c:	00078693          	mv	a3,a5
     c70:	00058813          	mv	a6,a1
     c74:	00070613          	mv	a2,a4
     c78:	00078593          	mv	a1,a5
     c7c:	00070513          	mv	a0,a4
     c80:	02f12a23          	sw	a5,52(sp)
     c84:	02e12c23          	sw	a4,56(sp)
     c88:	01012c23          	sw	a6,24(sp)
     c8c:	54c090ef          	jal	ra,a1d8 <__adddf3>
     c90:	0001f697          	auipc	a3,0x1f
     c94:	3e868693          	addi	a3,a3,1000 # 20078 <__DTOR_END__+0x68>
     c98:	00058813          	mv	a6,a1
     c9c:	0006a603          	lw	a2,0(a3)
     ca0:	01812583          	lw	a1,24(sp)
     ca4:	0046a683          	lw	a3,4(a3)
     ca8:	00050893          	mv	a7,a0
     cac:	000d8513          	mv	a0,s11
     cb0:	03112823          	sw	a7,48(sp)
     cb4:	03012623          	sw	a6,44(sp)
     cb8:	4f9090ef          	jal	ra,a9b0 <__divdf3>
     cbc:	0001f717          	auipc	a4,0x1f
     cc0:	3c470713          	addi	a4,a4,964 # 20080 <__DTOR_END__+0x70>
     cc4:	00072603          	lw	a2,0(a4)
     cc8:	00472683          	lw	a3,4(a4)
     ccc:	50c090ef          	jal	ra,a1d8 <__adddf3>
     cd0:	00058693          	mv	a3,a1
     cd4:	01812583          	lw	a1,24(sp)
     cd8:	00050613          	mv	a2,a0
     cdc:	000d8513          	mv	a0,s11
     ce0:	4d1090ef          	jal	ra,a9b0 <__divdf3>
     ce4:	0001f697          	auipc	a3,0x1f
     ce8:	3a468693          	addi	a3,a3,932 # 20088 <__DTOR_END__+0x78>
     cec:	0006a603          	lw	a2,0(a3)
     cf0:	0046a683          	lw	a3,4(a3)
     cf4:	4e4090ef          	jal	ra,a1d8 <__adddf3>
     cf8:	00058693          	mv	a3,a1
     cfc:	01812583          	lw	a1,24(sp)
     d00:	00050613          	mv	a2,a0
     d04:	000d8513          	mv	a0,s11
     d08:	4a9090ef          	jal	ra,a9b0 <__divdf3>
     d0c:	03812703          	lw	a4,56(sp)
     d10:	03412783          	lw	a5,52(sp)
     d14:	0001f697          	auipc	a3,0x1f
     d18:	37c68693          	addi	a3,a3,892 # 20090 <__DTOR_END__+0x80>
     d1c:	00050313          	mv	t1,a0
     d20:	00058d93          	mv	s11,a1
     d24:	0006a503          	lw	a0,0(a3)
     d28:	0046a583          	lw	a1,4(a3)
     d2c:	00070613          	mv	a2,a4
     d30:	00078693          	mv	a3,a5
     d34:	00612c23          	sw	t1,24(sp)
     d38:	3750a0ef          	jal	ra,b8ac <__subdf3>
     d3c:	01812303          	lw	t1,24(sp)
     d40:	00050613          	mv	a2,a0
     d44:	00058693          	mv	a3,a1
     d48:	00030513          	mv	a0,t1
     d4c:	000d8593          	mv	a1,s11
     d50:	488090ef          	jal	ra,a1d8 <__adddf3>
     d54:	03012883          	lw	a7,48(sp)
     d58:	02c12803          	lw	a6,44(sp)
     d5c:	00050613          	mv	a2,a0
     d60:	00058693          	mv	a3,a1
     d64:	00088513          	mv	a0,a7
     d68:	00080593          	mv	a1,a6
     d6c:	445090ef          	jal	ra,a9b0 <__divdf3>
     d70:	0001f797          	auipc	a5,0x1f
     d74:	2b078793          	addi	a5,a5,688 # 20020 <__DTOR_END__+0x10>
     d78:	0007a603          	lw	a2,0(a5)
     d7c:	0047a683          	lw	a3,4(a5)
     d80:	458090ef          	jal	ra,a1d8 <__adddf3>
     d84:	02812783          	lw	a5,40(sp)
     d88:	00000613          	li	a2,0
     d8c:	3ff78793          	addi	a5,a5,1023
     d90:	01479793          	slli	a5,a5,0x14
     d94:	00078693          	mv	a3,a5
     d98:	54c0a0ef          	jal	ra,b2e4 <__muldf3>
     d9c:	00040613          	mv	a2,s0
     da0:	000b8693          	mv	a3,s7
     da4:	00050d93          	mv	s11,a0
     da8:	00b12c23          	sw	a1,24(sp)
     dac:	3700a0ef          	jal	ra,b11c <__gedf2>
     db0:	26a04863          	bgtz	a0,1020 <_etoa+0x600>
     db4:	01812383          	lw	t2,24(sp)
     db8:	000d8313          	mv	t1,s11
     dbc:	063d0d93          	addi	s11,s10,99
     dc0:	00bcd793          	srli	a5,s9,0xb
     dc4:	0c600713          	li	a4,198
     dc8:	01b73db3          	sltu	s11,a4,s11
     dcc:	0017f793          	andi	a5,a5,1
     dd0:	004d8d93          	addi	s11,s11,4
     dd4:	06078663          	beqz	a5,e40 <_etoa+0x420>
     dd8:	0001f797          	auipc	a5,0x1f
     ddc:	2c078793          	addi	a5,a5,704 # 20098 <__DTOR_END__+0x88>
     de0:	0007a603          	lw	a2,0(a5)
     de4:	0047a683          	lw	a3,4(a5)
     de8:	00040513          	mv	a0,s0
     dec:	000b8593          	mv	a1,s7
     df0:	00612c23          	sw	t1,24(sp)
     df4:	00712e23          	sw	t2,28(sp)
     df8:	3240a0ef          	jal	ra,b11c <__gedf2>
     dfc:	01812303          	lw	t1,24(sp)
     e00:	01c12383          	lw	t2,28(sp)
     e04:	02054663          	bltz	a0,e30 <_etoa+0x410>
     e08:	0001f797          	auipc	a5,0x1f
     e0c:	29878793          	addi	a5,a5,664 # 200a0 <__DTOR_END__+0x90>
     e10:	0007a603          	lw	a2,0(a5)
     e14:	0047a683          	lw	a3,4(a5)
     e18:	00040513          	mv	a0,s0
     e1c:	000b8593          	mv	a1,s7
     e20:	3e00a0ef          	jal	ra,b200 <__ledf2>
     e24:	01812303          	lw	t1,24(sp)
     e28:	01c12383          	lw	t2,28(sp)
     e2c:	22054063          	bltz	a0,104c <_etoa+0x62c>
     e30:	000c0863          	beqz	s8,e40 <_etoa+0x420>
     e34:	03c12783          	lw	a5,60(sp)
     e38:	00f037b3          	snez	a5,a5
     e3c:	40fc0c33          	sub	s8,s8,a5
     e40:	00000893          	li	a7,0
     e44:	016df463          	bgeu	s11,s6,e4c <_etoa+0x42c>
     e48:	41bb08b3          	sub	a7,s6,s11
     e4c:	002cf793          	andi	a5,s9,2
     e50:	02f12423          	sw	a5,40(sp)
     e54:	00078863          	beqz	a5,e64 <_etoa+0x444>
     e58:	001db793          	seqz	a5,s11
     e5c:	40f007b3          	neg	a5,a5
     e60:	00f8f8b3          	and	a7,a7,a5
     e64:	020d0463          	beqz	s10,e8c <_etoa+0x46c>
     e68:	000b8593          	mv	a1,s7
     e6c:	00040513          	mv	a0,s0
     e70:	00030613          	mv	a2,t1
     e74:	00038693          	mv	a3,t2
     e78:	01112c23          	sw	a7,24(sp)
     e7c:	335090ef          	jal	ra,a9b0 <__divdf3>
     e80:	01812883          	lw	a7,24(sp)
     e84:	02a12223          	sw	a0,36(sp)
     e88:	00058b93          	mv	s7,a1
     e8c:	00040513          	mv	a0,s0
     e90:	00048593          	mv	a1,s1
     e94:	00000613          	li	a2,0
     e98:	00000693          	li	a3,0
     e9c:	01112c23          	sw	a7,24(sp)
     ea0:	3600a0ef          	jal	ra,b200 <__ledf2>
     ea4:	01812883          	lw	a7,24(sp)
     ea8:	00055663          	bgez	a0,eb4 <_etoa+0x494>
     eac:	800007b7          	lui	a5,0x80000
     eb0:	0177cbb3          	xor	s7,a5,s7
     eb4:	02412503          	lw	a0,36(sp)
     eb8:	fffff7b7          	lui	a5,0xfffff
     ebc:	7ff78793          	addi	a5,a5,2047 # fffff7ff <_stack+0xfffbf7ff>
     ec0:	00fcf7b3          	and	a5,s9,a5
     ec4:	00f12023          	sw	a5,0(sp)
     ec8:	00050713          	mv	a4,a0
     ecc:	000c0813          	mv	a6,s8
     ed0:	000b8793          	mv	a5,s7
     ed4:	000a8693          	mv	a3,s5
     ed8:	00090613          	mv	a2,s2
     edc:	000a0593          	mv	a1,s4
     ee0:	00098513          	mv	a0,s3
     ee4:	18c000ef          	jal	ra,1070 <_ftoa>
     ee8:	00050413          	mv	s0,a0
     eec:	080d8a63          	beqz	s11,f80 <_etoa+0x560>
     ef0:	01ac9513          	slli	a0,s9,0x1a
     ef4:	41f55513          	srai	a0,a0,0x1f
     ef8:	fe057513          	andi	a0,a0,-32
     efc:	00040613          	mv	a2,s0
     f00:	000a8693          	mv	a3,s5
     f04:	000a0593          	mv	a1,s4
     f08:	06550513          	addi	a0,a0,101
     f0c:	000980e7          	jalr	s3
     f10:	41fd5713          	srai	a4,s10,0x1f
     f14:	01a746b3          	xor	a3,a4,s10
     f18:	00500793          	li	a5,5
     f1c:	fffd8d93          	addi	s11,s11,-1
     f20:	00140613          	addi	a2,s0,1
     f24:	00f12223          	sw	a5,4(sp)
     f28:	40e68733          	sub	a4,a3,a4
     f2c:	01fd5793          	srli	a5,s10,0x1f
     f30:	01b12023          	sw	s11,0(sp)
     f34:	00000893          	li	a7,0
     f38:	00a00813          	li	a6,10
     f3c:	000a8693          	mv	a3,s5
     f40:	000a0593          	mv	a1,s4
     f44:	00098513          	mv	a0,s3
     f48:	87dff0ef          	jal	ra,7c4 <_ntoa_long>
     f4c:	02812783          	lw	a5,40(sp)
     f50:	00050413          	mv	s0,a0
     f54:	02078663          	beqz	a5,f80 <_etoa+0x560>
     f58:	41250933          	sub	s2,a0,s2
     f5c:	03697263          	bgeu	s2,s6,f80 <_etoa+0x560>
     f60:	00040613          	mv	a2,s0
     f64:	00190913          	addi	s2,s2,1
     f68:	000a8693          	mv	a3,s5
     f6c:	000a0593          	mv	a1,s4
     f70:	02000513          	li	a0,32
     f74:	00140413          	addi	s0,s0,1
     f78:	000980e7          	jalr	s3
     f7c:	ff6962e3          	bltu	s2,s6,f60 <_etoa+0x540>
     f80:	07c12083          	lw	ra,124(sp)
     f84:	00040513          	mv	a0,s0
     f88:	07812403          	lw	s0,120(sp)
     f8c:	07412483          	lw	s1,116(sp)
     f90:	07012903          	lw	s2,112(sp)
     f94:	06c12983          	lw	s3,108(sp)
     f98:	06812a03          	lw	s4,104(sp)
     f9c:	06412a83          	lw	s5,100(sp)
     fa0:	06012b03          	lw	s6,96(sp)
     fa4:	05c12b83          	lw	s7,92(sp)
     fa8:	05812c03          	lw	s8,88(sp)
     fac:	05412c83          	lw	s9,84(sp)
     fb0:	05012d03          	lw	s10,80(sp)
     fb4:	04c12d83          	lw	s11,76(sp)
     fb8:	08010113          	addi	sp,sp,128
     fbc:	00008067          	ret
     fc0:	00040713          	mv	a4,s0
     fc4:	07812403          	lw	s0,120(sp)
     fc8:	09912023          	sw	s9,128(sp)
     fcc:	07c12083          	lw	ra,124(sp)
     fd0:	05c12b83          	lw	s7,92(sp)
     fd4:	05412c83          	lw	s9,84(sp)
     fd8:	05012d03          	lw	s10,80(sp)
     fdc:	04c12d83          	lw	s11,76(sp)
     fe0:	00048793          	mv	a5,s1
     fe4:	000b0893          	mv	a7,s6
     fe8:	07412483          	lw	s1,116(sp)
     fec:	06012b03          	lw	s6,96(sp)
     ff0:	000c0813          	mv	a6,s8
     ff4:	000a8693          	mv	a3,s5
     ff8:	05812c03          	lw	s8,88(sp)
     ffc:	06412a83          	lw	s5,100(sp)
    1000:	00090613          	mv	a2,s2
    1004:	000a0593          	mv	a1,s4
    1008:	07012903          	lw	s2,112(sp)
    100c:	06812a03          	lw	s4,104(sp)
    1010:	00098513          	mv	a0,s3
    1014:	06c12983          	lw	s3,108(sp)
    1018:	08010113          	addi	sp,sp,128
    101c:	0540006f          	j	1070 <_ftoa>
    1020:	0001f797          	auipc	a5,0x1f
    1024:	06078793          	addi	a5,a5,96 # 20080 <__DTOR_END__+0x70>
    1028:	0007a603          	lw	a2,0(a5)
    102c:	0047a683          	lw	a3,4(a5)
    1030:	01812583          	lw	a1,24(sp)
    1034:	000d8513          	mv	a0,s11
    1038:	fffd0d13          	addi	s10,s10,-1
    103c:	175090ef          	jal	ra,a9b0 <__divdf3>
    1040:	00050313          	mv	t1,a0
    1044:	00058393          	mv	t2,a1
    1048:	d75ff06f          	j	dbc <_etoa+0x39c>
    104c:	018d5e63          	bge	s10,s8,1068 <_etoa+0x648>
    1050:	41ac0c33          	sub	s8,s8,s10
    1054:	fffc0c13          	addi	s8,s8,-1
    1058:	400cec93          	ori	s9,s9,1024
    105c:	00000d93          	li	s11,0
    1060:	00000d13          	li	s10,0
    1064:	dddff06f          	j	e40 <_etoa+0x420>
    1068:	00000c13          	li	s8,0
    106c:	fedff06f          	j	1058 <_etoa+0x638>

00001070 <_ftoa>:
    1070:	f8010113          	addi	sp,sp,-128
    1074:	07312623          	sw	s3,108(sp)
    1078:	07412423          	sw	s4,104(sp)
    107c:	07512223          	sw	s5,100(sp)
    1080:	05812c23          	sw	s8,88(sp)
    1084:	00050993          	mv	s3,a0
    1088:	00058a13          	mv	s4,a1
    108c:	00060a93          	mv	s5,a2
    1090:	00068c13          	mv	s8,a3
    1094:	00070613          	mv	a2,a4
    1098:	00078693          	mv	a3,a5
    109c:	00070513          	mv	a0,a4
    10a0:	00078593          	mv	a1,a5
    10a4:	06812c23          	sw	s0,120(sp)
    10a8:	06912a23          	sw	s1,116(sp)
    10ac:	07212823          	sw	s2,112(sp)
    10b0:	07612023          	sw	s6,96(sp)
    10b4:	05912a23          	sw	s9,84(sp)
    10b8:	06112e23          	sw	ra,124(sp)
    10bc:	05712e23          	sw	s7,92(sp)
    10c0:	05a12823          	sw	s10,80(sp)
    10c4:	05b12623          	sw	s11,76(sp)
    10c8:	00070493          	mv	s1,a4
    10cc:	00078413          	mv	s0,a5
    10d0:	00080b13          	mv	s6,a6
    10d4:	00088913          	mv	s2,a7
    10d8:	7b9090ef          	jal	ra,b090 <__eqdf2>
    10dc:	08012c83          	lw	s9,128(sp)
    10e0:	22051463          	bnez	a0,1308 <_ftoa+0x298>
    10e4:	0001f797          	auipc	a5,0x1f
    10e8:	f4c78793          	addi	a5,a5,-180 # 20030 <__DTOR_END__+0x20>
    10ec:	0007a603          	lw	a2,0(a5)
    10f0:	0047a683          	lw	a3,4(a5)
    10f4:	00048513          	mv	a0,s1
    10f8:	00040593          	mv	a1,s0
    10fc:	1040a0ef          	jal	ra,b200 <__ledf2>
    1100:	30054063          	bltz	a0,1400 <_ftoa+0x390>
    1104:	0001f797          	auipc	a5,0x1f
    1108:	f2478793          	addi	a5,a5,-220 # 20028 <__DTOR_END__+0x18>
    110c:	0007a603          	lw	a2,0(a5)
    1110:	0047a683          	lw	a3,4(a5)
    1114:	00048513          	mv	a0,s1
    1118:	00040593          	mv	a1,s0
    111c:	0000a0ef          	jal	ra,b11c <__gedf2>
    1120:	1ca04463          	bgtz	a0,12e8 <_ftoa+0x278>
    1124:	0001f797          	auipc	a5,0x1f
    1128:	f8478793          	addi	a5,a5,-124 # 200a8 <__DTOR_END__+0x98>
    112c:	0007a603          	lw	a2,0(a5)
    1130:	0047a683          	lw	a3,4(a5)
    1134:	00048513          	mv	a0,s1
    1138:	00040593          	mv	a1,s0
    113c:	7e1090ef          	jal	ra,b11c <__gedf2>
    1140:	26a04063          	bgtz	a0,13a0 <_ftoa+0x330>
    1144:	0001f797          	auipc	a5,0x1f
    1148:	f6c78793          	addi	a5,a5,-148 # 200b0 <__DTOR_END__+0xa0>
    114c:	0007a603          	lw	a2,0(a5)
    1150:	0047a683          	lw	a3,4(a5)
    1154:	00048513          	mv	a0,s1
    1158:	00040593          	mv	a1,s0
    115c:	0a40a0ef          	jal	ra,b200 <__ledf2>
    1160:	24054063          	bltz	a0,13a0 <_ftoa+0x330>
    1164:	00048513          	mv	a0,s1
    1168:	00040593          	mv	a1,s0
    116c:	00000613          	li	a2,0
    1170:	00000693          	li	a3,0
    1174:	08c0a0ef          	jal	ra,b200 <__ledf2>
    1178:	20054063          	bltz	a0,1378 <_ftoa+0x308>
    117c:	00012e23          	sw	zero,28(sp)
    1180:	400cf793          	andi	a5,s9,1024
    1184:	00079463          	bnez	a5,118c <_ftoa+0x11c>
    1188:	00600b13          	li	s6,6
    118c:	02010693          	addi	a3,sp,32
    1190:	fe0b0513          	addi	a0,s6,-32
    1194:	000b0b93          	mv	s7,s6
    1198:	00900613          	li	a2,9
    119c:	03000593          	li	a1,48
    11a0:	0140006f          	j	11b4 <_ftoa+0x144>
    11a4:	00b68023          	sb	a1,0(a3)
    11a8:	fffb8b93          	addi	s7,s7,-1 # 7fffffff <_stack+0x7ffbffff>
    11ac:	00168693          	addi	a3,a3,1
    11b0:	3aab8e63          	beq	s7,a0,156c <_ftoa+0x4fc>
    11b4:	417b0db3          	sub	s11,s6,s7
    11b8:	ff7666e3          	bltu	a2,s7,11a4 <_ftoa+0x134>
    11bc:	00040593          	mv	a1,s0
    11c0:	00048513          	mv	a0,s1
    11c4:	7210a0ef          	jal	ra,c0e4 <__fixdfsi>
    11c8:	003b9613          	slli	a2,s7,0x3
    11cc:	0001f697          	auipc	a3,0x1f
    11d0:	18468693          	addi	a3,a3,388 # 20350 <pow10.0>
    11d4:	00c686b3          	add	a3,a3,a2
    11d8:	0046a803          	lw	a6,4(a3)
    11dc:	0006a783          	lw	a5,0(a3)
    11e0:	00050d13          	mv	s10,a0
    11e4:	01012623          	sw	a6,12(sp)
    11e8:	00f12423          	sw	a5,8(sp)
    11ec:	7f50a0ef          	jal	ra,c1e0 <__floatsidf>
    11f0:	00050613          	mv	a2,a0
    11f4:	00058693          	mv	a3,a1
    11f8:	00048513          	mv	a0,s1
    11fc:	00040593          	mv	a1,s0
    1200:	6ac0a0ef          	jal	ra,b8ac <__subdf3>
    1204:	00812603          	lw	a2,8(sp)
    1208:	00c12683          	lw	a3,12(sp)
    120c:	0d80a0ef          	jal	ra,b2e4 <__muldf3>
    1210:	00b12a23          	sw	a1,20(sp)
    1214:	00a12c23          	sw	a0,24(sp)
    1218:	74d0a0ef          	jal	ra,c164 <__fixunsdfsi>
    121c:	00050b13          	mv	s6,a0
    1220:	0680b0ef          	jal	ra,c288 <__floatunsidf>
    1224:	01412783          	lw	a5,20(sp)
    1228:	01812303          	lw	t1,24(sp)
    122c:	00050613          	mv	a2,a0
    1230:	00058693          	mv	a3,a1
    1234:	00030513          	mv	a0,t1
    1238:	00078593          	mv	a1,a5
    123c:	6700a0ef          	jal	ra,b8ac <__subdf3>
    1240:	0001f717          	auipc	a4,0x1f
    1244:	e2070713          	addi	a4,a4,-480 # 20060 <__DTOR_END__+0x50>
    1248:	00072303          	lw	t1,0(a4)
    124c:	00472383          	lw	t2,4(a4)
    1250:	00a12a23          	sw	a0,20(sp)
    1254:	00030613          	mv	a2,t1
    1258:	00038693          	mv	a3,t2
    125c:	00b12c23          	sw	a1,24(sp)
    1260:	6bd090ef          	jal	ra,b11c <__gedf2>
    1264:	0001f797          	auipc	a5,0x1f
    1268:	dfc78793          	addi	a5,a5,-516 # 20060 <__DTOR_END__+0x50>
    126c:	0007a303          	lw	t1,0(a5)
    1270:	0047a383          	lw	t2,4(a5)
    1274:	2ca05a63          	blez	a0,1548 <_ftoa+0x4d8>
    1278:	001b0b13          	addi	s6,s6,1
    127c:	000b0513          	mv	a0,s6
    1280:	0080b0ef          	jal	ra,c288 <__floatunsidf>
    1284:	00050613          	mv	a2,a0
    1288:	00058693          	mv	a3,a1
    128c:	00812503          	lw	a0,8(sp)
    1290:	00c12583          	lw	a1,12(sp)
    1294:	76d090ef          	jal	ra,b200 <__ledf2>
    1298:	00a04663          	bgtz	a0,12a4 <_ftoa+0x234>
    129c:	001d0d13          	addi	s10,s10,1
    12a0:	00000b13          	li	s6,0
    12a4:	1e0b8063          	beqz	s7,1484 <_ftoa+0x414>
    12a8:	02000313          	li	t1,32
    12ac:	00a00613          	li	a2,10
    12b0:	00900e13          	li	t3,9
    12b4:	166d8263          	beq	s11,t1,1418 <_ftoa+0x3a8>
    12b8:	02cb76b3          	remu	a3,s6,a2
    12bc:	001d8d93          	addi	s11,s11,1
    12c0:	02010793          	addi	a5,sp,32
    12c4:	01b78533          	add	a0,a5,s11
    12c8:	fffb8593          	addi	a1,s7,-1
    12cc:	03068693          	addi	a3,a3,48
    12d0:	fed50fa3          	sb	a3,-1(a0)
    12d4:	02cb56b3          	divu	a3,s6,a2
    12d8:	316e7663          	bgeu	t3,s6,15e4 <_ftoa+0x574>
    12dc:	00058b93          	mv	s7,a1
    12e0:	00068b13          	mv	s6,a3
    12e4:	fd1ff06f          	j	12b4 <_ftoa+0x244>
    12e8:	004cf793          	andi	a5,s9,4
    12ec:	06079e63          	bnez	a5,1368 <_ftoa+0x2f8>
    12f0:	0001f717          	auipc	a4,0x1f
    12f4:	e6470713          	addi	a4,a4,-412 # 20154 <__malloc_trim_threshold+0x7c>
    12f8:	00300793          	li	a5,3
    12fc:	000c8893          	mv	a7,s9
    1300:	00090813          	mv	a6,s2
    1304:	0180006f          	j	131c <_ftoa+0x2ac>
    1308:	000c8893          	mv	a7,s9
    130c:	00090813          	mv	a6,s2
    1310:	00300793          	li	a5,3
    1314:	0001f717          	auipc	a4,0x1f
    1318:	e4c70713          	addi	a4,a4,-436 # 20160 <__malloc_trim_threshold+0x88>
    131c:	07812403          	lw	s0,120(sp)
    1320:	07c12083          	lw	ra,124(sp)
    1324:	07412483          	lw	s1,116(sp)
    1328:	07012903          	lw	s2,112(sp)
    132c:	06012b03          	lw	s6,96(sp)
    1330:	05c12b83          	lw	s7,92(sp)
    1334:	05412c83          	lw	s9,84(sp)
    1338:	05012d03          	lw	s10,80(sp)
    133c:	04c12d83          	lw	s11,76(sp)
    1340:	000c0693          	mv	a3,s8
    1344:	000a8613          	mv	a2,s5
    1348:	05812c03          	lw	s8,88(sp)
    134c:	06412a83          	lw	s5,100(sp)
    1350:	000a0593          	mv	a1,s4
    1354:	00098513          	mv	a0,s3
    1358:	06812a03          	lw	s4,104(sp)
    135c:	06c12983          	lw	s3,108(sp)
    1360:	08010113          	addi	sp,sp,128
    1364:	8b0ff06f          	j	414 <_out_rev>
    1368:	0001f717          	auipc	a4,0x1f
    136c:	df070713          	addi	a4,a4,-528 # 20158 <__malloc_trim_threshold+0x80>
    1370:	00400793          	li	a5,4
    1374:	f89ff06f          	j	12fc <_ftoa+0x28c>
    1378:	00048613          	mv	a2,s1
    137c:	00040693          	mv	a3,s0
    1380:	00000513          	li	a0,0
    1384:	00000593          	li	a1,0
    1388:	5240a0ef          	jal	ra,b8ac <__subdf3>
    138c:	00100793          	li	a5,1
    1390:	00050493          	mv	s1,a0
    1394:	00058413          	mv	s0,a1
    1398:	00f12e23          	sw	a5,28(sp)
    139c:	de5ff06f          	j	1180 <_ftoa+0x110>
    13a0:	00040793          	mv	a5,s0
    13a4:	07812403          	lw	s0,120(sp)
    13a8:	09912023          	sw	s9,128(sp)
    13ac:	07c12083          	lw	ra,124(sp)
    13b0:	05c12b83          	lw	s7,92(sp)
    13b4:	05412c83          	lw	s9,84(sp)
    13b8:	05012d03          	lw	s10,80(sp)
    13bc:	04c12d83          	lw	s11,76(sp)
    13c0:	00048713          	mv	a4,s1
    13c4:	00090893          	mv	a7,s2
    13c8:	07412483          	lw	s1,116(sp)
    13cc:	07012903          	lw	s2,112(sp)
    13d0:	000b0813          	mv	a6,s6
    13d4:	000c0693          	mv	a3,s8
    13d8:	06012b03          	lw	s6,96(sp)
    13dc:	05812c03          	lw	s8,88(sp)
    13e0:	000a8613          	mv	a2,s5
    13e4:	000a0593          	mv	a1,s4
    13e8:	06412a83          	lw	s5,100(sp)
    13ec:	06812a03          	lw	s4,104(sp)
    13f0:	00098513          	mv	a0,s3
    13f4:	06c12983          	lw	s3,108(sp)
    13f8:	08010113          	addi	sp,sp,128
    13fc:	e24ff06f          	j	a20 <_etoa>
    1400:	000c8893          	mv	a7,s9
    1404:	00090813          	mv	a6,s2
    1408:	00400793          	li	a5,4
    140c:	0001f717          	auipc	a4,0x1f
    1410:	d5870713          	addi	a4,a4,-680 # 20164 <__malloc_trim_threshold+0x8c>
    1414:	f09ff06f          	j	131c <_ftoa+0x2ac>
    1418:	003cf793          	andi	a5,s9,3
    141c:	00100713          	li	a4,1
    1420:	14e78a63          	beq	a5,a4,1574 <_ftoa+0x504>
    1424:	02000793          	li	a5,32
    1428:	000c8893          	mv	a7,s9
    142c:	00090813          	mv	a6,s2
    1430:	02010713          	addi	a4,sp,32
    1434:	000c0693          	mv	a3,s8
    1438:	000a8613          	mv	a2,s5
    143c:	000a0593          	mv	a1,s4
    1440:	00098513          	mv	a0,s3
    1444:	fd1fe0ef          	jal	ra,414 <_out_rev>
    1448:	07c12083          	lw	ra,124(sp)
    144c:	07812403          	lw	s0,120(sp)
    1450:	07412483          	lw	s1,116(sp)
    1454:	07012903          	lw	s2,112(sp)
    1458:	06c12983          	lw	s3,108(sp)
    145c:	06812a03          	lw	s4,104(sp)
    1460:	06412a83          	lw	s5,100(sp)
    1464:	06012b03          	lw	s6,96(sp)
    1468:	05c12b83          	lw	s7,92(sp)
    146c:	05812c03          	lw	s8,88(sp)
    1470:	05412c83          	lw	s9,84(sp)
    1474:	05012d03          	lw	s10,80(sp)
    1478:	04c12d83          	lw	s11,76(sp)
    147c:	08010113          	addi	sp,sp,128
    1480:	00008067          	ret
    1484:	000d0513          	mv	a0,s10
    1488:	5590a0ef          	jal	ra,c1e0 <__floatsidf>
    148c:	00050613          	mv	a2,a0
    1490:	00058693          	mv	a3,a1
    1494:	00048513          	mv	a0,s1
    1498:	00040593          	mv	a1,s0
    149c:	4100a0ef          	jal	ra,b8ac <__subdf3>
    14a0:	0001f797          	auipc	a5,0x1f
    14a4:	bc078793          	addi	a5,a5,-1088 # 20060 <__DTOR_END__+0x50>
    14a8:	0007ab03          	lw	s6,0(a5)
    14ac:	0047ab83          	lw	s7,4(a5)
    14b0:	00050493          	mv	s1,a0
    14b4:	000b0613          	mv	a2,s6
    14b8:	000b8693          	mv	a3,s7
    14bc:	00058413          	mv	s0,a1
    14c0:	541090ef          	jal	ra,b200 <__ledf2>
    14c4:	00055e63          	bgez	a0,14e0 <_ftoa+0x470>
    14c8:	00048513          	mv	a0,s1
    14cc:	00040593          	mv	a1,s0
    14d0:	000b0613          	mv	a2,s6
    14d4:	000b8693          	mv	a3,s7
    14d8:	445090ef          	jal	ra,b11c <__gedf2>
    14dc:	00a05663          	blez	a0,14e8 <_ftoa+0x478>
    14e0:	001d7793          	andi	a5,s10,1
    14e4:	00fd0d33          	add	s10,s10,a5
    14e8:	02000593          	li	a1,32
    14ec:	00a00693          	li	a3,10
    14f0:	f2bd84e3          	beq	s11,a1,1418 <_ftoa+0x3a8>
    14f4:	02dd67b3          	rem	a5,s10,a3
    14f8:	001d8d93          	addi	s11,s11,1
    14fc:	02010713          	addi	a4,sp,32
    1500:	01b70633          	add	a2,a4,s11
    1504:	02dd4d33          	div	s10,s10,a3
    1508:	03078793          	addi	a5,a5,48
    150c:	fef60fa3          	sb	a5,-1(a2)
    1510:	fe0d10e3          	bnez	s10,14f0 <_ftoa+0x480>
    1514:	003cf793          	andi	a5,s9,3
    1518:	00100693          	li	a3,1
    151c:	04d78e63          	beq	a5,a3,1578 <_ftoa+0x508>
    1520:	02000693          	li	a3,32
    1524:	f0dd80e3          	beq	s11,a3,1424 <_ftoa+0x3b4>
    1528:	01c12783          	lw	a5,28(sp)
    152c:	08078863          	beqz	a5,15bc <_ftoa+0x54c>
    1530:	04010793          	addi	a5,sp,64
    1534:	01b786b3          	add	a3,a5,s11
    1538:	02d00713          	li	a4,45
    153c:	001d8793          	addi	a5,s11,1
    1540:	fee68023          	sb	a4,-32(a3)
    1544:	ee5ff06f          	j	1428 <_ftoa+0x3b8>
    1548:	01412503          	lw	a0,20(sp)
    154c:	01812583          	lw	a1,24(sp)
    1550:	00030613          	mv	a2,t1
    1554:	00038693          	mv	a3,t2
    1558:	4a9090ef          	jal	ra,b200 <__ledf2>
    155c:	d40544e3          	bltz	a0,12a4 <_ftoa+0x234>
    1560:	0c0b1a63          	bnez	s6,1634 <_ftoa+0x5c4>
    1564:	001b0b13          	addi	s6,s6,1
    1568:	d3dff06f          	j	12a4 <_ftoa+0x234>
    156c:	02000d93          	li	s11,32
    1570:	c4dff06f          	j	11bc <_ftoa+0x14c>
    1574:	02000d93          	li	s11,32
    1578:	fa0904e3          	beqz	s2,1520 <_ftoa+0x4b0>
    157c:	01c12783          	lw	a5,28(sp)
    1580:	0c079e63          	bnez	a5,165c <_ftoa+0x5ec>
    1584:	00ccf793          	andi	a5,s9,12
    1588:	0c079a63          	bnez	a5,165c <_ftoa+0x5ec>
    158c:	f92dfae3          	bgeu	s11,s2,1520 <_ftoa+0x4b0>
    1590:	02000793          	li	a5,32
    1594:	03000613          	li	a2,48
    1598:	02000693          	li	a3,32
    159c:	e8fd84e3          	beq	s11,a5,1424 <_ftoa+0x3b4>
    15a0:	001d8d93          	addi	s11,s11,1
    15a4:	02010793          	addi	a5,sp,32
    15a8:	01b787b3          	add	a5,a5,s11
    15ac:	fec78fa3          	sb	a2,-1(a5)
    15b0:	f72d88e3          	beq	s11,s2,1520 <_ftoa+0x4b0>
    15b4:	fedd96e3          	bne	s11,a3,15a0 <_ftoa+0x530>
    15b8:	e6dff06f          	j	1424 <_ftoa+0x3b4>
    15bc:	004cf793          	andi	a5,s9,4
    15c0:	08079263          	bnez	a5,1644 <_ftoa+0x5d4>
    15c4:	008cf613          	andi	a2,s9,8
    15c8:	000d8793          	mv	a5,s11
    15cc:	e4060ee3          	beqz	a2,1428 <_ftoa+0x3b8>
    15d0:	04010713          	addi	a4,sp,64
    15d4:	01b70733          	add	a4,a4,s11
    15d8:	001d8793          	addi	a5,s11,1
    15dc:	fed70023          	sb	a3,-32(a4)
    15e0:	e49ff06f          	j	1428 <_ftoa+0x3b8>
    15e4:	e26d8ae3          	beq	s11,t1,1418 <_ftoa+0x3a8>
    15e8:	000d8613          	mv	a2,s11
    15ec:	03000893          	li	a7,48
    15f0:	02000513          	li	a0,32
    15f4:	02058463          	beqz	a1,161c <_ftoa+0x5ac>
    15f8:	00160613          	addi	a2,a2,1
    15fc:	02010793          	addi	a5,sp,32
    1600:	fff64693          	not	a3,a2
    1604:	00c785b3          	add	a1,a5,a2
    1608:	01b686b3          	add	a3,a3,s11
    160c:	ff158fa3          	sb	a7,-1(a1)
    1610:	017686b3          	add	a3,a3,s7
    1614:	e0a602e3          	beq	a2,a0,1418 <_ftoa+0x3a8>
    1618:	fe0690e3          	bnez	a3,15f8 <_ftoa+0x588>
    161c:	04010793          	addi	a5,sp,64
    1620:	00c787b3          	add	a5,a5,a2
    1624:	02e00693          	li	a3,46
    1628:	00160d93          	addi	s11,a2,1
    162c:	fed78023          	sb	a3,-32(a5)
    1630:	eb9ff06f          	j	14e8 <_ftoa+0x478>
    1634:	001b7693          	andi	a3,s6,1
    1638:	c60686e3          	beqz	a3,12a4 <_ftoa+0x234>
    163c:	001b0b13          	addi	s6,s6,1
    1640:	c65ff06f          	j	12a4 <_ftoa+0x234>
    1644:	04010793          	addi	a5,sp,64
    1648:	01b786b3          	add	a3,a5,s11
    164c:	02b00713          	li	a4,43
    1650:	001d8793          	addi	a5,s11,1
    1654:	fee68023          	sb	a4,-32(a3)
    1658:	dd1ff06f          	j	1428 <_ftoa+0x3b8>
    165c:	fff90913          	addi	s2,s2,-1
    1660:	f2dff06f          	j	158c <_ftoa+0x51c>

00001664 <_out_char>:
    1664:	00051463          	bnez	a0,166c <_out_char+0x8>
    1668:	00008067          	ret
    166c:	cb9fe06f          	j	324 <_putchar>

00001670 <_out_fct>:
    1670:	00050863          	beqz	a0,1680 <_out_fct+0x10>
    1674:	0005a783          	lw	a5,0(a1)
    1678:	0045a583          	lw	a1,4(a1)
    167c:	00078067          	jr	a5
    1680:	00008067          	ret

00001684 <_vsnprintf>:
    1684:	fa010113          	addi	sp,sp,-96
    1688:	04812c23          	sw	s0,88(sp)
    168c:	05312623          	sw	s3,76(sp)
    1690:	05412423          	sw	s4,72(sp)
    1694:	03912a23          	sw	s9,52(sp)
    1698:	03b12623          	sw	s11,44(sp)
    169c:	04112e23          	sw	ra,92(sp)
    16a0:	04912a23          	sw	s1,84(sp)
    16a4:	05212823          	sw	s2,80(sp)
    16a8:	05512223          	sw	s5,68(sp)
    16ac:	05612023          	sw	s6,64(sp)
    16b0:	03712e23          	sw	s7,60(sp)
    16b4:	03812c23          	sw	s8,56(sp)
    16b8:	03a12823          	sw	s10,48(sp)
    16bc:	00058d93          	mv	s11,a1
    16c0:	00060c93          	mv	s9,a2
    16c4:	00068413          	mv	s0,a3
    16c8:	00070a13          	mv	s4,a4
    16cc:	fffff997          	auipc	s3,0xfffff
    16d0:	d4498993          	addi	s3,s3,-700 # 410 <_out_null>
    16d4:	00058463          	beqz	a1,16dc <_vsnprintf+0x58>
    16d8:	00050993          	mv	s3,a0
    16dc:	00044503          	lbu	a0,0(s0)
    16e0:	00000d13          	li	s10,0
    16e4:	60050663          	beqz	a0,1cf0 <_vsnprintf+0x66c>
    16e8:	000017b7          	lui	a5,0x1
    16ec:	80078793          	addi	a5,a5,-2048 # 800 <_ntoa_long+0x3c>
    16f0:	00f12a23          	sw	a5,20(sp)
    16f4:	000107b7          	lui	a5,0x10
    16f8:	fff78793          	addi	a5,a5,-1 # ffff <_text_end+0x36b7>
    16fc:	0001f917          	auipc	s2,0x1f
    1700:	a7490913          	addi	s2,s2,-1420 # 20170 <__malloc_trim_threshold+0x98>
    1704:	00f12c23          	sw	a5,24(sp)
    1708:	0200006f          	j	1728 <_vsnprintf+0xa4>
    170c:	000d0613          	mv	a2,s10
    1710:	000c8693          	mv	a3,s9
    1714:	000d8593          	mv	a1,s11
    1718:	001d0d13          	addi	s10,s10,1
    171c:	000980e7          	jalr	s3
    1720:	00044503          	lbu	a0,0(s0)
    1724:	10050a63          	beqz	a0,1838 <_vsnprintf+0x1b4>
    1728:	02500793          	li	a5,37
    172c:	00140413          	addi	s0,s0,1
    1730:	fcf51ee3          	bne	a0,a5,170c <_vsnprintf+0x88>
    1734:	00000493          	li	s1,0
    1738:	01000813          	li	a6,16
    173c:	00044503          	lbu	a0,0(s0)
    1740:	00140713          	addi	a4,s0,1
    1744:	00070613          	mv	a2,a4
    1748:	fe050793          	addi	a5,a0,-32
    174c:	0ff7f793          	zext.b	a5,a5
    1750:	00f86c63          	bltu	a6,a5,1768 <_vsnprintf+0xe4>
    1754:	00279793          	slli	a5,a5,0x2
    1758:	012787b3          	add	a5,a5,s2
    175c:	0007a783          	lw	a5,0(a5)
    1760:	012787b3          	add	a5,a5,s2
    1764:	00078067          	jr	a5
    1768:	fd050793          	addi	a5,a0,-48
    176c:	0ff7f793          	zext.b	a5,a5
    1770:	00900813          	li	a6,9
    1774:	18f87463          	bgeu	a6,a5,18fc <_vsnprintf+0x278>
    1778:	02a00793          	li	a5,42
    177c:	1cf50463          	beq	a0,a5,1944 <_vsnprintf+0x2c0>
    1780:	00040613          	mv	a2,s0
    1784:	00000a93          	li	s5,0
    1788:	00070413          	mv	s0,a4
    178c:	02e00793          	li	a5,46
    1790:	00000c13          	li	s8,0
    1794:	10f50263          	beq	a0,a5,1898 <_vsnprintf+0x214>
    1798:	f9850793          	addi	a5,a0,-104
    179c:	0ff7f793          	zext.b	a5,a5
    17a0:	01200713          	li	a4,18
    17a4:	02f76663          	bltu	a4,a5,17d0 <_vsnprintf+0x14c>
    17a8:	0001f717          	auipc	a4,0x1f
    17ac:	a0c70713          	addi	a4,a4,-1524 # 201b4 <__malloc_trim_threshold+0xdc>
    17b0:	00279793          	slli	a5,a5,0x2
    17b4:	00e787b3          	add	a5,a5,a4
    17b8:	0007a783          	lw	a5,0(a5)
    17bc:	00e787b3          	add	a5,a5,a4
    17c0:	00078067          	jr	a5
    17c4:	00164503          	lbu	a0,1(a2)
    17c8:	1004e493          	ori	s1,s1,256
    17cc:	00140413          	addi	s0,s0,1
    17d0:	fdb50793          	addi	a5,a0,-37
    17d4:	0ff7f793          	zext.b	a5,a5
    17d8:	05300713          	li	a4,83
    17dc:	f2f768e3          	bltu	a4,a5,170c <_vsnprintf+0x88>
    17e0:	0001f717          	auipc	a4,0x1f
    17e4:	a2070713          	addi	a4,a4,-1504 # 20200 <__malloc_trim_threshold+0x128>
    17e8:	00279793          	slli	a5,a5,0x2
    17ec:	00e787b3          	add	a5,a5,a4
    17f0:	0007a783          	lw	a5,0(a5)
    17f4:	00e787b3          	add	a5,a5,a4
    17f8:	00078067          	jr	a5
    17fc:	0014e493          	ori	s1,s1,1
    1800:	00070413          	mv	s0,a4
    1804:	f39ff06f          	j	173c <_vsnprintf+0xb8>
    1808:	0024e493          	ori	s1,s1,2
    180c:	00070413          	mv	s0,a4
    1810:	f2dff06f          	j	173c <_vsnprintf+0xb8>
    1814:	0044e493          	ori	s1,s1,4
    1818:	00070413          	mv	s0,a4
    181c:	f21ff06f          	j	173c <_vsnprintf+0xb8>
    1820:	0104e493          	ori	s1,s1,16
    1824:	00070413          	mv	s0,a4
    1828:	f15ff06f          	j	173c <_vsnprintf+0xb8>
    182c:	0084e493          	ori	s1,s1,8
    1830:	00070413          	mv	s0,a4
    1834:	f09ff06f          	j	173c <_vsnprintf+0xb8>
    1838:	000d0413          	mv	s0,s10
    183c:	019d6463          	bltu	s10,s9,1844 <_vsnprintf+0x1c0>
    1840:	fffc8d13          	addi	s10,s9,-1
    1844:	000c8693          	mv	a3,s9
    1848:	000d0613          	mv	a2,s10
    184c:	000d8593          	mv	a1,s11
    1850:	00000513          	li	a0,0
    1854:	000980e7          	jalr	s3
    1858:	05c12083          	lw	ra,92(sp)
    185c:	00040513          	mv	a0,s0
    1860:	05812403          	lw	s0,88(sp)
    1864:	05412483          	lw	s1,84(sp)
    1868:	05012903          	lw	s2,80(sp)
    186c:	04c12983          	lw	s3,76(sp)
    1870:	04812a03          	lw	s4,72(sp)
    1874:	04412a83          	lw	s5,68(sp)
    1878:	04012b03          	lw	s6,64(sp)
    187c:	03c12b83          	lw	s7,60(sp)
    1880:	03812c03          	lw	s8,56(sp)
    1884:	03412c83          	lw	s9,52(sp)
    1888:	03012d03          	lw	s10,48(sp)
    188c:	02c12d83          	lw	s11,44(sp)
    1890:	06010113          	addi	sp,sp,96
    1894:	00008067          	ret
    1898:	00164503          	lbu	a0,1(a2)
    189c:	00900713          	li	a4,9
    18a0:	4004e493          	ori	s1,s1,1024
    18a4:	fd050793          	addi	a5,a0,-48
    18a8:	0ff7f793          	zext.b	a5,a5
    18ac:	00f77c63          	bgeu	a4,a5,18c4 <_vsnprintf+0x240>
    18b0:	02a00793          	li	a5,42
    18b4:	34f50663          	beq	a0,a5,1c00 <_vsnprintf+0x57c>
    18b8:	00040613          	mv	a2,s0
    18bc:	00140413          	addi	s0,s0,1
    18c0:	ed9ff06f          	j	1798 <_vsnprintf+0x114>
    18c4:	002c1793          	slli	a5,s8,0x2
    18c8:	01878833          	add	a6,a5,s8
    18cc:	00040e13          	mv	t3,s0
    18d0:	00181813          	slli	a6,a6,0x1
    18d4:	00140413          	addi	s0,s0,1
    18d8:	00a80833          	add	a6,a6,a0
    18dc:	00044503          	lbu	a0,0(s0)
    18e0:	fd080c13          	addi	s8,a6,-48
    18e4:	fd050793          	addi	a5,a0,-48
    18e8:	0ff7f793          	zext.b	a5,a5
    18ec:	fcf77ce3          	bgeu	a4,a5,18c4 <_vsnprintf+0x240>
    18f0:	00040613          	mv	a2,s0
    18f4:	002e0413          	addi	s0,t3,2
    18f8:	ea1ff06f          	j	1798 <_vsnprintf+0x114>
    18fc:	00000a93          	li	s5,0
    1900:	00900613          	li	a2,9
    1904:	0080006f          	j	190c <_vsnprintf+0x288>
    1908:	00170713          	addi	a4,a4,1
    190c:	002a9793          	slli	a5,s5,0x2
    1910:	015788b3          	add	a7,a5,s5
    1914:	00189893          	slli	a7,a7,0x1
    1918:	00a888b3          	add	a7,a7,a0
    191c:	00074503          	lbu	a0,0(a4)
    1920:	00040813          	mv	a6,s0
    1924:	fd088a93          	addi	s5,a7,-48
    1928:	fd050793          	addi	a5,a0,-48
    192c:	0ff7f793          	zext.b	a5,a5
    1930:	00070413          	mv	s0,a4
    1934:	fcf67ae3          	bgeu	a2,a5,1908 <_vsnprintf+0x284>
    1938:	00070613          	mv	a2,a4
    193c:	00280413          	addi	s0,a6,2
    1940:	e4dff06f          	j	178c <_vsnprintf+0x108>
    1944:	000a2a83          	lw	s5,0(s4)
    1948:	004a0a13          	addi	s4,s4,4
    194c:	000ac863          	bltz	s5,195c <_vsnprintf+0x2d8>
    1950:	00144503          	lbu	a0,1(s0)
    1954:	00240413          	addi	s0,s0,2
    1958:	e35ff06f          	j	178c <_vsnprintf+0x108>
    195c:	00144503          	lbu	a0,1(s0)
    1960:	0024e493          	ori	s1,s1,2
    1964:	41500ab3          	neg	s5,s5
    1968:	00240413          	addi	s0,s0,2
    196c:	e21ff06f          	j	178c <_vsnprintf+0x108>
    1970:	07800793          	li	a5,120
    1974:	4ef50e63          	beq	a0,a5,1e70 <_vsnprintf+0x7ec>
    1978:	05800793          	li	a5,88
    197c:	38f50063          	beq	a0,a5,1cfc <_vsnprintf+0x678>
    1980:	06f00793          	li	a5,111
    1984:	52f50863          	beq	a0,a5,1eb4 <_vsnprintf+0x830>
    1988:	06200793          	li	a5,98
    198c:	5af50063          	beq	a0,a5,1f2c <_vsnprintf+0x8a8>
    1990:	06900713          	li	a4,105
    1994:	fef4fe13          	andi	t3,s1,-17
    1998:	4004f793          	andi	a5,s1,1024
    199c:	5ce51e63          	bne	a0,a4,1f78 <_vsnprintf+0x8f4>
    19a0:	4e079263          	bnez	a5,1e84 <_vsnprintf+0x800>
    19a4:	2004f493          	andi	s1,s1,512
    19a8:	00a00813          	li	a6,10
    19ac:	46049063          	bnez	s1,1e0c <_vsnprintf+0x788>
    19b0:	100e7793          	andi	a5,t3,256
    19b4:	004a0493          	addi	s1,s4,4
    19b8:	54079663          	bnez	a5,1f04 <_vsnprintf+0x880>
    19bc:	040e7793          	andi	a5,t3,64
    19c0:	4c079a63          	bnez	a5,1e94 <_vsnprintf+0x810>
    19c4:	080e7793          	andi	a5,t3,128
    19c8:	56078a63          	beqz	a5,1f3c <_vsnprintf+0x8b8>
    19cc:	000a1783          	lh	a5,0(s4)
    19d0:	40f7d613          	srai	a2,a5,0xf
    19d4:	00c7c733          	xor	a4,a5,a2
    19d8:	40c70733          	sub	a4,a4,a2
    19dc:	01071713          	slli	a4,a4,0x10
    19e0:	01075713          	srli	a4,a4,0x10
    19e4:	000d0613          	mv	a2,s10
    19e8:	01c12223          	sw	t3,4(sp)
    19ec:	01512023          	sw	s5,0(sp)
    19f0:	000c0893          	mv	a7,s8
    19f4:	01f7d793          	srli	a5,a5,0x1f
    19f8:	000c8693          	mv	a3,s9
    19fc:	000d8593          	mv	a1,s11
    1a00:	00098513          	mv	a0,s3
    1a04:	dc1fe0ef          	jal	ra,7c4 <_ntoa_long>
    1a08:	00050d13          	mv	s10,a0
    1a0c:	00048a13          	mv	s4,s1
    1a10:	d11ff06f          	j	1720 <_vsnprintf+0x9c>
    1a14:	00164503          	lbu	a0,1(a2)
    1a18:	06c00793          	li	a5,108
    1a1c:	daf516e3          	bne	a0,a5,17c8 <_vsnprintf+0x144>
    1a20:	00264503          	lbu	a0,2(a2)
    1a24:	3004e493          	ori	s1,s1,768
    1a28:	00360413          	addi	s0,a2,3
    1a2c:	da5ff06f          	j	17d0 <_vsnprintf+0x14c>
    1a30:	00164503          	lbu	a0,1(a2)
    1a34:	2004e493          	ori	s1,s1,512
    1a38:	00140413          	addi	s0,s0,1
    1a3c:	d95ff06f          	j	17d0 <_vsnprintf+0x14c>
    1a40:	00164503          	lbu	a0,1(a2)
    1a44:	06800793          	li	a5,104
    1a48:	28f50863          	beq	a0,a5,1cd8 <_vsnprintf+0x654>
    1a4c:	0804e493          	ori	s1,s1,128
    1a50:	00140413          	addi	s0,s0,1
    1a54:	d7dff06f          	j	17d0 <_vsnprintf+0x14c>
    1a58:	04600793          	li	a5,70
    1a5c:	22f50263          	beq	a0,a5,1c80 <_vsnprintf+0x5fc>
    1a60:	007a0a13          	addi	s4,s4,7
    1a64:	ff8a7a13          	andi	s4,s4,-8
    1a68:	000a2703          	lw	a4,0(s4)
    1a6c:	004a2783          	lw	a5,4(s4)
    1a70:	000d0613          	mv	a2,s10
    1a74:	00912023          	sw	s1,0(sp)
    1a78:	000a8893          	mv	a7,s5
    1a7c:	000c0813          	mv	a6,s8
    1a80:	000c8693          	mv	a3,s9
    1a84:	000d8593          	mv	a1,s11
    1a88:	00098513          	mv	a0,s3
    1a8c:	de4ff0ef          	jal	ra,1070 <_ftoa>
    1a90:	008a0a13          	addi	s4,s4,8
    1a94:	00050d13          	mv	s10,a0
    1a98:	c89ff06f          	j	1720 <_vsnprintf+0x9c>
    1a9c:	000a2b83          	lw	s7,0(s4)
    1aa0:	004a0a13          	addi	s4,s4,4
    1aa4:	000bc503          	lbu	a0,0(s7)
    1aa8:	160c1e63          	bnez	s8,1c24 <_vsnprintf+0x5a0>
    1aac:	ffe00b13          	li	s6,-2
    1ab0:	4a050063          	beqz	a0,1f50 <_vsnprintf+0x8cc>
    1ab4:	001b0b13          	addi	s6,s6,1
    1ab8:	016b8b33          	add	s6,s7,s6
    1abc:	000b8793          	mv	a5,s7
    1ac0:	0080006f          	j	1ac8 <_vsnprintf+0x444>
    1ac4:	22fb0263          	beq	s6,a5,1ce8 <_vsnprintf+0x664>
    1ac8:	0017c703          	lbu	a4,1(a5)
    1acc:	00178793          	addi	a5,a5,1
    1ad0:	fe071ae3          	bnez	a4,1ac4 <_vsnprintf+0x440>
    1ad4:	41778b33          	sub	s6,a5,s7
    1ad8:	4004f793          	andi	a5,s1,1024
    1adc:	00f12823          	sw	a5,16(sp)
    1ae0:	00078663          	beqz	a5,1aec <_vsnprintf+0x468>
    1ae4:	016c7463          	bgeu	s8,s6,1aec <_vsnprintf+0x468>
    1ae8:	000c0b13          	mv	s6,s8
    1aec:	0024f793          	andi	a5,s1,2
    1af0:	00f12e23          	sw	a5,28(sp)
    1af4:	2c078a63          	beqz	a5,1dc8 <_vsnprintf+0x744>
    1af8:	18050a63          	beqz	a0,1c8c <_vsnprintf+0x608>
    1afc:	000d0613          	mv	a2,s10
    1b00:	0080006f          	j	1b08 <_vsnprintf+0x484>
    1b04:	00048613          	mv	a2,s1
    1b08:	01012783          	lw	a5,16(sp)
    1b0c:	00078863          	beqz	a5,1b1c <_vsnprintf+0x498>
    1b10:	fffc0793          	addi	a5,s8,-1
    1b14:	240c0c63          	beqz	s8,1d6c <_vsnprintf+0x6e8>
    1b18:	00078c13          	mv	s8,a5
    1b1c:	000c8693          	mv	a3,s9
    1b20:	000d8593          	mv	a1,s11
    1b24:	00160493          	addi	s1,a2,1
    1b28:	000980e7          	jalr	s3
    1b2c:	41a487b3          	sub	a5,s1,s10
    1b30:	00fb87b3          	add	a5,s7,a5
    1b34:	0007c503          	lbu	a0,0(a5)
    1b38:	fc0516e3          	bnez	a0,1b04 <_vsnprintf+0x480>
    1b3c:	01c12783          	lw	a5,28(sp)
    1b40:	14079463          	bnez	a5,1c88 <_vsnprintf+0x604>
    1b44:	00048d13          	mv	s10,s1
    1b48:	bd9ff06f          	j	1720 <_vsnprintf+0x9c>
    1b4c:	000d0613          	mv	a2,s10
    1b50:	000c8693          	mv	a3,s9
    1b54:	000d8593          	mv	a1,s11
    1b58:	02500513          	li	a0,37
    1b5c:	001d0d13          	addi	s10,s10,1
    1b60:	000980e7          	jalr	s3
    1b64:	bbdff06f          	j	1720 <_vsnprintf+0x9c>
    1b68:	000a2703          	lw	a4,0(s4)
    1b6c:	00800793          	li	a5,8
    1b70:	0214e493          	ori	s1,s1,33
    1b74:	000d0613          	mv	a2,s10
    1b78:	00f12023          	sw	a5,0(sp)
    1b7c:	00912223          	sw	s1,4(sp)
    1b80:	000c0893          	mv	a7,s8
    1b84:	01000813          	li	a6,16
    1b88:	00000793          	li	a5,0
    1b8c:	000c8693          	mv	a3,s9
    1b90:	000d8593          	mv	a1,s11
    1b94:	00098513          	mv	a0,s3
    1b98:	c2dfe0ef          	jal	ra,7c4 <_ntoa_long>
    1b9c:	004a0a13          	addi	s4,s4,4
    1ba0:	00050d13          	mv	s10,a0
    1ba4:	b7dff06f          	j	1720 <_vsnprintf+0x9c>
    1ba8:	001d0b93          	addi	s7,s10,1
    1bac:	0024f493          	andi	s1,s1,2
    1bb0:	000b8b13          	mv	s6,s7
    1bb4:	004a0c13          	addi	s8,s4,4
    1bb8:	1a048e63          	beqz	s1,1d74 <_vsnprintf+0x6f0>
    1bbc:	000a4503          	lbu	a0,0(s4)
    1bc0:	000d0613          	mv	a2,s10
    1bc4:	000c8693          	mv	a3,s9
    1bc8:	000d8593          	mv	a1,s11
    1bcc:	000980e7          	jalr	s3
    1bd0:	00100793          	li	a5,1
    1bd4:	015d0d33          	add	s10,s10,s5
    1bd8:	2d57f863          	bgeu	a5,s5,1ea8 <_vsnprintf+0x824>
    1bdc:	000b0613          	mv	a2,s6
    1be0:	000c8693          	mv	a3,s9
    1be4:	001b0b13          	addi	s6,s6,1
    1be8:	000d8593          	mv	a1,s11
    1bec:	02000513          	li	a0,32
    1bf0:	000980e7          	jalr	s3
    1bf4:	ff6d14e3          	bne	s10,s6,1bdc <_vsnprintf+0x558>
    1bf8:	000c0a13          	mv	s4,s8
    1bfc:	b25ff06f          	j	1720 <_vsnprintf+0x9c>
    1c00:	000a2c03          	lw	s8,0(s4)
    1c04:	00264503          	lbu	a0,2(a2)
    1c08:	00360413          	addi	s0,a2,3
    1c0c:	fffc4793          	not	a5,s8
    1c10:	41f7d793          	srai	a5,a5,0x1f
    1c14:	00fc7c33          	and	s8,s8,a5
    1c18:	004a0a13          	addi	s4,s4,4
    1c1c:	00260613          	addi	a2,a2,2
    1c20:	b79ff06f          	j	1798 <_vsnprintf+0x114>
    1c24:	32050663          	beqz	a0,1f50 <_vsnprintf+0x8cc>
    1c28:	fffc0b13          	addi	s6,s8,-1
    1c2c:	e89ff06f          	j	1ab4 <_vsnprintf+0x430>
    1c30:	0df57793          	andi	a5,a0,223
    1c34:	04700713          	li	a4,71
    1c38:	08e78263          	beq	a5,a4,1cbc <_vsnprintf+0x638>
    1c3c:	04500793          	li	a5,69
    1c40:	08f50863          	beq	a0,a5,1cd0 <_vsnprintf+0x64c>
    1c44:	007a0a13          	addi	s4,s4,7
    1c48:	ff8a7a13          	andi	s4,s4,-8
    1c4c:	000a2703          	lw	a4,0(s4)
    1c50:	004a2783          	lw	a5,4(s4)
    1c54:	000d0613          	mv	a2,s10
    1c58:	00912023          	sw	s1,0(sp)
    1c5c:	000a8893          	mv	a7,s5
    1c60:	000c0813          	mv	a6,s8
    1c64:	000c8693          	mv	a3,s9
    1c68:	000d8593          	mv	a1,s11
    1c6c:	00098513          	mv	a0,s3
    1c70:	db1fe0ef          	jal	ra,a20 <_etoa>
    1c74:	008a0a13          	addi	s4,s4,8
    1c78:	00050d13          	mv	s10,a0
    1c7c:	aa5ff06f          	j	1720 <_vsnprintf+0x9c>
    1c80:	0204e493          	ori	s1,s1,32
    1c84:	dddff06f          	j	1a60 <_vsnprintf+0x3dc>
    1c88:	00048d13          	mv	s10,s1
    1c8c:	175b7a63          	bgeu	s6,s5,1e00 <_vsnprintf+0x77c>
    1c90:	01aa8733          	add	a4,s5,s10
    1c94:	416704b3          	sub	s1,a4,s6
    1c98:	000d0613          	mv	a2,s10
    1c9c:	000c8693          	mv	a3,s9
    1ca0:	001d0d13          	addi	s10,s10,1
    1ca4:	000d8593          	mv	a1,s11
    1ca8:	02000513          	li	a0,32
    1cac:	000980e7          	jalr	s3
    1cb0:	ffa494e3          	bne	s1,s10,1c98 <_vsnprintf+0x614>
    1cb4:	00048d13          	mv	s10,s1
    1cb8:	a69ff06f          	j	1720 <_vsnprintf+0x9c>
    1cbc:	01412703          	lw	a4,20(sp)
    1cc0:	0fd57513          	andi	a0,a0,253
    1cc4:	04500793          	li	a5,69
    1cc8:	00e4e4b3          	or	s1,s1,a4
    1ccc:	f6f51ce3          	bne	a0,a5,1c44 <_vsnprintf+0x5c0>
    1cd0:	0204e493          	ori	s1,s1,32
    1cd4:	f71ff06f          	j	1c44 <_vsnprintf+0x5c0>
    1cd8:	00264503          	lbu	a0,2(a2)
    1cdc:	0c04e493          	ori	s1,s1,192
    1ce0:	00360413          	addi	s0,a2,3
    1ce4:	aedff06f          	j	17d0 <_vsnprintf+0x14c>
    1ce8:	417b0b33          	sub	s6,s6,s7
    1cec:	dedff06f          	j	1ad8 <_vsnprintf+0x454>
    1cf0:	00000413          	li	s0,0
    1cf4:	b59d68e3          	bltu	s10,s9,1844 <_vsnprintf+0x1c0>
    1cf8:	b49ff06f          	j	1840 <_vsnprintf+0x1bc>
    1cfc:	ff34fe13          	andi	t3,s1,-13
    1d00:	4004f793          	andi	a5,s1,1024
    1d04:	020e6e13          	ori	t3,t3,32
    1d08:	01000813          	li	a6,16
    1d0c:	18078063          	beqz	a5,1e8c <_vsnprintf+0x808>
    1d10:	ffee7e13          	andi	t3,t3,-2
    1d14:	06900793          	li	a5,105
    1d18:	200e7493          	andi	s1,t3,512
    1d1c:	c8f508e3          	beq	a0,a5,19ac <_vsnprintf+0x328>
    1d20:	06400793          	li	a5,100
    1d24:	c8f504e3          	beq	a0,a5,19ac <_vsnprintf+0x328>
    1d28:	1a049663          	bnez	s1,1ed4 <_vsnprintf+0x850>
    1d2c:	100e7793          	andi	a5,t3,256
    1d30:	004a0493          	addi	s1,s4,4
    1d34:	20079063          	bnez	a5,1f34 <_vsnprintf+0x8b0>
    1d38:	040e7793          	andi	a5,t3,64
    1d3c:	16079263          	bnez	a5,1ea0 <_vsnprintf+0x81c>
    1d40:	080e7793          	andi	a5,t3,128
    1d44:	000a2703          	lw	a4,0(s4)
    1d48:	00078663          	beqz	a5,1d54 <_vsnprintf+0x6d0>
    1d4c:	01812783          	lw	a5,24(sp)
    1d50:	00f77733          	and	a4,a4,a5
    1d54:	000d0613          	mv	a2,s10
    1d58:	01c12223          	sw	t3,4(sp)
    1d5c:	01512023          	sw	s5,0(sp)
    1d60:	000c0893          	mv	a7,s8
    1d64:	00000793          	li	a5,0
    1d68:	c91ff06f          	j	19f8 <_vsnprintf+0x374>
    1d6c:	00060493          	mv	s1,a2
    1d70:	dcdff06f          	j	1b3c <_vsnprintf+0x4b8>
    1d74:	00100793          	li	a5,1
    1d78:	1f57f663          	bgeu	a5,s5,1f64 <_vsnprintf+0x8e0>
    1d7c:	fffd0493          	addi	s1,s10,-1
    1d80:	015484b3          	add	s1,s1,s5
    1d84:	0080006f          	j	1d8c <_vsnprintf+0x708>
    1d88:	001b8b93          	addi	s7,s7,1
    1d8c:	000d0613          	mv	a2,s10
    1d90:	000c8693          	mv	a3,s9
    1d94:	000d8593          	mv	a1,s11
    1d98:	02000513          	li	a0,32
    1d9c:	000b8d13          	mv	s10,s7
    1da0:	000980e7          	jalr	s3
    1da4:	fe9b92e3          	bne	s7,s1,1d88 <_vsnprintf+0x704>
    1da8:	001b8d13          	addi	s10,s7,1
    1dac:	000a4503          	lbu	a0,0(s4)
    1db0:	000c8693          	mv	a3,s9
    1db4:	00048613          	mv	a2,s1
    1db8:	000d8593          	mv	a1,s11
    1dbc:	000980e7          	jalr	s3
    1dc0:	000c0a13          	mv	s4,s8
    1dc4:	95dff06f          	j	1720 <_vsnprintf+0x9c>
    1dc8:	001b0793          	addi	a5,s6,1
    1dcc:	195b7663          	bgeu	s6,s5,1f58 <_vsnprintf+0x8d4>
    1dd0:	01aa87b3          	add	a5,s5,s10
    1dd4:	41678b33          	sub	s6,a5,s6
    1dd8:	000d0613          	mv	a2,s10
    1ddc:	000c8693          	mv	a3,s9
    1de0:	001d0d13          	addi	s10,s10,1
    1de4:	000d8593          	mv	a1,s11
    1de8:	02000513          	li	a0,32
    1dec:	000980e7          	jalr	s3
    1df0:	ffab14e3          	bne	s6,s10,1dd8 <_vsnprintf+0x754>
    1df4:	000bc503          	lbu	a0,0(s7)
    1df8:	001a8b13          	addi	s6,s5,1
    1dfc:	d00510e3          	bnez	a0,1afc <_vsnprintf+0x478>
    1e00:	000d0493          	mv	s1,s10
    1e04:	00048d13          	mv	s10,s1
    1e08:	919ff06f          	j	1720 <_vsnprintf+0x9c>
    1e0c:	007a0a13          	addi	s4,s4,7
    1e10:	ff8a7a13          	andi	s4,s4,-8
    1e14:	004a2f03          	lw	t5,4(s4)
    1e18:	000a2783          	lw	a5,0(s4)
    1e1c:	00080893          	mv	a7,a6
    1e20:	41ff5513          	srai	a0,t5,0x1f
    1e24:	00f547b3          	xor	a5,a0,a5
    1e28:	40a78733          	sub	a4,a5,a0
    1e2c:	01e54333          	xor	t1,a0,t5
    1e30:	00e7b7b3          	sltu	a5,a5,a4
    1e34:	40a30533          	sub	a0,t1,a0
    1e38:	000d0613          	mv	a2,s10
    1e3c:	01c12623          	sw	t3,12(sp)
    1e40:	01512423          	sw	s5,8(sp)
    1e44:	01812223          	sw	s8,4(sp)
    1e48:	00012023          	sw	zero,0(sp)
    1e4c:	01ff5813          	srli	a6,t5,0x1f
    1e50:	40f507b3          	sub	a5,a0,a5
    1e54:	000c8693          	mv	a3,s9
    1e58:	000d8593          	mv	a1,s11
    1e5c:	00098513          	mv	a0,s3
    1e60:	a29fe0ef          	jal	ra,888 <_ntoa_long_long>
    1e64:	008a0a13          	addi	s4,s4,8
    1e68:	00050d13          	mv	s10,a0
    1e6c:	8b5ff06f          	j	1720 <_vsnprintf+0x9c>
    1e70:	4004f793          	andi	a5,s1,1024
    1e74:	01000813          	li	a6,16
    1e78:	ff34fe13          	andi	t3,s1,-13
    1e7c:	e8078ce3          	beqz	a5,1d14 <_vsnprintf+0x690>
    1e80:	e91ff06f          	j	1d10 <_vsnprintf+0x68c>
    1e84:	00a00813          	li	a6,10
    1e88:	e89ff06f          	j	1d10 <_vsnprintf+0x68c>
    1e8c:	2004f493          	andi	s1,s1,512
    1e90:	e99ff06f          	j	1d28 <_vsnprintf+0x6a4>
    1e94:	000a4783          	lbu	a5,0(s4)
    1e98:	00078713          	mv	a4,a5
    1e9c:	b49ff06f          	j	19e4 <_vsnprintf+0x360>
    1ea0:	000a4703          	lbu	a4,0(s4)
    1ea4:	eb1ff06f          	j	1d54 <_vsnprintf+0x6d0>
    1ea8:	000b8d13          	mv	s10,s7
    1eac:	000c0a13          	mv	s4,s8
    1eb0:	871ff06f          	j	1720 <_vsnprintf+0x9c>
    1eb4:	00800813          	li	a6,8
    1eb8:	00048e13          	mv	t3,s1
    1ebc:	06400713          	li	a4,100
    1ec0:	400e7793          	andi	a5,t3,1024
    1ec4:	0ae51663          	bne	a0,a4,1f70 <_vsnprintf+0x8ec>
    1ec8:	200e7493          	andi	s1,t3,512
    1ecc:	ae0780e3          	beqz	a5,19ac <_vsnprintf+0x328>
    1ed0:	e41ff06f          	j	1d10 <_vsnprintf+0x68c>
    1ed4:	007a0a13          	addi	s4,s4,7
    1ed8:	ff8a7a13          	andi	s4,s4,-8
    1edc:	000a2703          	lw	a4,0(s4)
    1ee0:	004a2783          	lw	a5,4(s4)
    1ee4:	00080893          	mv	a7,a6
    1ee8:	000d0613          	mv	a2,s10
    1eec:	01c12623          	sw	t3,12(sp)
    1ef0:	01512423          	sw	s5,8(sp)
    1ef4:	01812223          	sw	s8,4(sp)
    1ef8:	00012023          	sw	zero,0(sp)
    1efc:	00000813          	li	a6,0
    1f00:	f55ff06f          	j	1e54 <_vsnprintf+0x7d0>
    1f04:	000a2783          	lw	a5,0(s4)
    1f08:	000d0613          	mv	a2,s10
    1f0c:	01c12223          	sw	t3,4(sp)
    1f10:	41f7d713          	srai	a4,a5,0x1f
    1f14:	00f74533          	xor	a0,a4,a5
    1f18:	01512023          	sw	s5,0(sp)
    1f1c:	000c0893          	mv	a7,s8
    1f20:	01f7d793          	srli	a5,a5,0x1f
    1f24:	40e50733          	sub	a4,a0,a4
    1f28:	ad1ff06f          	j	19f8 <_vsnprintf+0x374>
    1f2c:	00200813          	li	a6,2
    1f30:	f89ff06f          	j	1eb8 <_vsnprintf+0x834>
    1f34:	000a2703          	lw	a4,0(s4)
    1f38:	e1dff06f          	j	1d54 <_vsnprintf+0x6d0>
    1f3c:	000a2783          	lw	a5,0(s4)
    1f40:	41f7d613          	srai	a2,a5,0x1f
    1f44:	00f64733          	xor	a4,a2,a5
    1f48:	40c70733          	sub	a4,a4,a2
    1f4c:	a99ff06f          	j	19e4 <_vsnprintf+0x360>
    1f50:	00000b13          	li	s6,0
    1f54:	b85ff06f          	j	1ad8 <_vsnprintf+0x454>
    1f58:	00078b13          	mv	s6,a5
    1f5c:	ba0510e3          	bnez	a0,1afc <_vsnprintf+0x478>
    1f60:	ea1ff06f          	j	1e00 <_vsnprintf+0x77c>
    1f64:	000d0493          	mv	s1,s10
    1f68:	000b8d13          	mv	s10,s7
    1f6c:	e41ff06f          	j	1dac <_vsnprintf+0x728>
    1f70:	000e0493          	mv	s1,t3
    1f74:	f05ff06f          	j	1e78 <_vsnprintf+0x7f4>
    1f78:	00a00813          	li	a6,10
    1f7c:	f41ff06f          	j	1ebc <_vsnprintf+0x838>

00001f80 <printf_>:
    1f80:	fc010113          	addi	sp,sp,-64
    1f84:	02410313          	addi	t1,sp,36
    1f88:	02b12223          	sw	a1,36(sp)
    1f8c:	02c12423          	sw	a2,40(sp)
    1f90:	02d12623          	sw	a3,44(sp)
    1f94:	02e12823          	sw	a4,48(sp)
    1f98:	00050693          	mv	a3,a0
    1f9c:	00810593          	addi	a1,sp,8
    1fa0:	00030713          	mv	a4,t1
    1fa4:	fff00613          	li	a2,-1
    1fa8:	fffff517          	auipc	a0,0xfffff
    1fac:	6bc50513          	addi	a0,a0,1724 # 1664 <_out_char>
    1fb0:	00112e23          	sw	ra,28(sp)
    1fb4:	02f12a23          	sw	a5,52(sp)
    1fb8:	03012c23          	sw	a6,56(sp)
    1fbc:	03112e23          	sw	a7,60(sp)
    1fc0:	00612623          	sw	t1,12(sp)
    1fc4:	ec0ff0ef          	jal	ra,1684 <_vsnprintf>
    1fc8:	01c12083          	lw	ra,28(sp)
    1fcc:	04010113          	addi	sp,sp,64
    1fd0:	00008067          	ret

00001fd4 <sprintf_>:
    1fd4:	fc010113          	addi	sp,sp,-64
    1fd8:	02810313          	addi	t1,sp,40
    1fdc:	02c12423          	sw	a2,40(sp)
    1fe0:	02d12623          	sw	a3,44(sp)
    1fe4:	02e12823          	sw	a4,48(sp)
    1fe8:	00058693          	mv	a3,a1
    1fec:	00030713          	mv	a4,t1
    1ff0:	00050593          	mv	a1,a0
    1ff4:	fff00613          	li	a2,-1
    1ff8:	ffffe517          	auipc	a0,0xffffe
    1ffc:	40850513          	addi	a0,a0,1032 # 400 <_out_buffer>
    2000:	00112e23          	sw	ra,28(sp)
    2004:	02f12a23          	sw	a5,52(sp)
    2008:	03012c23          	sw	a6,56(sp)
    200c:	03112e23          	sw	a7,60(sp)
    2010:	00612623          	sw	t1,12(sp)
    2014:	e70ff0ef          	jal	ra,1684 <_vsnprintf>
    2018:	01c12083          	lw	ra,28(sp)
    201c:	04010113          	addi	sp,sp,64
    2020:	00008067          	ret

00002024 <snprintf_>:
    2024:	fc010113          	addi	sp,sp,-64
    2028:	02c10313          	addi	t1,sp,44
    202c:	02d12623          	sw	a3,44(sp)
    2030:	02e12823          	sw	a4,48(sp)
    2034:	00060693          	mv	a3,a2
    2038:	00030713          	mv	a4,t1
    203c:	00058613          	mv	a2,a1
    2040:	00050593          	mv	a1,a0
    2044:	ffffe517          	auipc	a0,0xffffe
    2048:	3bc50513          	addi	a0,a0,956 # 400 <_out_buffer>
    204c:	00112e23          	sw	ra,28(sp)
    2050:	02f12a23          	sw	a5,52(sp)
    2054:	03012c23          	sw	a6,56(sp)
    2058:	03112e23          	sw	a7,60(sp)
    205c:	00612623          	sw	t1,12(sp)
    2060:	e24ff0ef          	jal	ra,1684 <_vsnprintf>
    2064:	01c12083          	lw	ra,28(sp)
    2068:	04010113          	addi	sp,sp,64
    206c:	00008067          	ret

00002070 <vprintf_>:
    2070:	fe010113          	addi	sp,sp,-32
    2074:	00050693          	mv	a3,a0
    2078:	00058713          	mv	a4,a1
    207c:	fff00613          	li	a2,-1
    2080:	00c10593          	addi	a1,sp,12
    2084:	fffff517          	auipc	a0,0xfffff
    2088:	5e050513          	addi	a0,a0,1504 # 1664 <_out_char>
    208c:	00112e23          	sw	ra,28(sp)
    2090:	df4ff0ef          	jal	ra,1684 <_vsnprintf>
    2094:	01c12083          	lw	ra,28(sp)
    2098:	02010113          	addi	sp,sp,32
    209c:	00008067          	ret

000020a0 <vsnprintf_>:
    20a0:	00068713          	mv	a4,a3
    20a4:	00060693          	mv	a3,a2
    20a8:	00058613          	mv	a2,a1
    20ac:	00050593          	mv	a1,a0
    20b0:	ffffe517          	auipc	a0,0xffffe
    20b4:	35050513          	addi	a0,a0,848 # 400 <_out_buffer>
    20b8:	dccff06f          	j	1684 <_vsnprintf>

000020bc <fctprintf>:
    20bc:	fc010113          	addi	sp,sp,-64
    20c0:	02c10313          	addi	t1,sp,44
    20c4:	00050e93          	mv	t4,a0
    20c8:	00058e13          	mv	t3,a1
    20cc:	02d12623          	sw	a3,44(sp)
    20d0:	02e12823          	sw	a4,48(sp)
    20d4:	00060693          	mv	a3,a2
    20d8:	00810593          	addi	a1,sp,8
    20dc:	00030713          	mv	a4,t1
    20e0:	fff00613          	li	a2,-1
    20e4:	fffff517          	auipc	a0,0xfffff
    20e8:	58c50513          	addi	a0,a0,1420 # 1670 <_out_fct>
    20ec:	00112e23          	sw	ra,28(sp)
    20f0:	02f12a23          	sw	a5,52(sp)
    20f4:	03012c23          	sw	a6,56(sp)
    20f8:	03112e23          	sw	a7,60(sp)
    20fc:	00612223          	sw	t1,4(sp)
    2100:	01d12423          	sw	t4,8(sp)
    2104:	01c12623          	sw	t3,12(sp)
    2108:	d7cff0ef          	jal	ra,1684 <_vsnprintf>
    210c:	01c12083          	lw	ra,28(sp)
    2110:	04010113          	addi	sp,sp,64
    2114:	00008067          	ret

00002118 <prvAddCurrentTaskToDelayedList>:
    2118:	fe010113          	addi	sp,sp,-32
    211c:	00912a23          	sw	s1,20(sp)
    2120:	0001f497          	auipc	s1,0x1f
    2124:	c7c48493          	addi	s1,s1,-900 # 20d9c <pxCurrentTCB>
    2128:	01212823          	sw	s2,16(sp)
    212c:	0001f917          	auipc	s2,0x1f
    2130:	c5892903          	lw	s2,-936(s2) # 20d84 <xTickCount>
    2134:	0004a783          	lw	a5,0(s1)
    2138:	00812c23          	sw	s0,24(sp)
    213c:	00050413          	mv	s0,a0
    2140:	00478513          	addi	a0,a5,4
    2144:	01312623          	sw	s3,12(sp)
    2148:	00112e23          	sw	ra,28(sp)
    214c:	00058993          	mv	s3,a1
    2150:	0b4030ef          	jal	ra,5204 <uxListRemove>
    2154:	02051663          	bnez	a0,2180 <prvAddCurrentTaskToDelayedList+0x68>
    2158:	0004a783          	lw	a5,0(s1)
    215c:	0001f717          	auipc	a4,0x1f
    2160:	c2470713          	addi	a4,a4,-988 # 20d80 <uxTopReadyPriority>
    2164:	00072683          	lw	a3,0(a4)
    2168:	02c7a603          	lw	a2,44(a5)
    216c:	00100793          	li	a5,1
    2170:	00c797b3          	sll	a5,a5,a2
    2174:	fff7c793          	not	a5,a5
    2178:	00d7f7b3          	and	a5,a5,a3
    217c:	00f72023          	sw	a5,0(a4)
    2180:	fff00793          	li	a5,-1
    2184:	08f40263          	beq	s0,a5,2208 <prvAddCurrentTaskToDelayedList+0xf0>
    2188:	0004a783          	lw	a5,0(s1)
    218c:	00890433          	add	s0,s2,s0
    2190:	0087a223          	sw	s0,4(a5)
    2194:	05246463          	bltu	s0,s2,21dc <prvAddCurrentTaskToDelayedList+0xc4>
    2198:	0001f517          	auipc	a0,0x1f
    219c:	c0052503          	lw	a0,-1024(a0) # 20d98 <pxDelayedTaskList>
    21a0:	0004a583          	lw	a1,0(s1)
    21a4:	00458593          	addi	a1,a1,4
    21a8:	00c030ef          	jal	ra,51b4 <vListInsert>
    21ac:	0001f797          	auipc	a5,0x1f
    21b0:	bbc78793          	addi	a5,a5,-1092 # 20d68 <xNextTaskUnblockTime>
    21b4:	0007a703          	lw	a4,0(a5)
    21b8:	00e47463          	bgeu	s0,a4,21c0 <prvAddCurrentTaskToDelayedList+0xa8>
    21bc:	0087a023          	sw	s0,0(a5)
    21c0:	01c12083          	lw	ra,28(sp)
    21c4:	01812403          	lw	s0,24(sp)
    21c8:	01412483          	lw	s1,20(sp)
    21cc:	01012903          	lw	s2,16(sp)
    21d0:	00c12983          	lw	s3,12(sp)
    21d4:	02010113          	addi	sp,sp,32
    21d8:	00008067          	ret
    21dc:	01812403          	lw	s0,24(sp)
    21e0:	0001f517          	auipc	a0,0x1f
    21e4:	bb452503          	lw	a0,-1100(a0) # 20d94 <pxOverflowDelayedTaskList>
    21e8:	0004a583          	lw	a1,0(s1)
    21ec:	01c12083          	lw	ra,28(sp)
    21f0:	01412483          	lw	s1,20(sp)
    21f4:	01012903          	lw	s2,16(sp)
    21f8:	00c12983          	lw	s3,12(sp)
    21fc:	00458593          	addi	a1,a1,4
    2200:	02010113          	addi	sp,sp,32
    2204:	7b10206f          	j	51b4 <vListInsert>
    2208:	f80980e3          	beqz	s3,2188 <prvAddCurrentTaskToDelayedList+0x70>
    220c:	0001f797          	auipc	a5,0x1f
    2210:	c2478793          	addi	a5,a5,-988 # 20e30 <xSuspendedTaskList>
    2214:	0047a703          	lw	a4,4(a5)
    2218:	0004a583          	lw	a1,0(s1)
    221c:	0004a683          	lw	a3,0(s1)
    2220:	00872603          	lw	a2,8(a4)
    2224:	00e5a423          	sw	a4,8(a1)
    2228:	0004a583          	lw	a1,0(s1)
    222c:	00c6a623          	sw	a2,12(a3)
    2230:	00872803          	lw	a6,8(a4)
    2234:	0004a603          	lw	a2,0(s1)
    2238:	0004a503          	lw	a0,0(s1)
    223c:	0007a683          	lw	a3,0(a5)
    2240:	00458593          	addi	a1,a1,4
    2244:	00b82223          	sw	a1,4(a6)
    2248:	01c12083          	lw	ra,28(sp)
    224c:	01812403          	lw	s0,24(sp)
    2250:	00460613          	addi	a2,a2,4
    2254:	00c72423          	sw	a2,8(a4)
    2258:	00168713          	addi	a4,a3,1
    225c:	00f52a23          	sw	a5,20(a0)
    2260:	00e7a023          	sw	a4,0(a5)
    2264:	01412483          	lw	s1,20(sp)
    2268:	01012903          	lw	s2,16(sp)
    226c:	00c12983          	lw	s3,12(sp)
    2270:	02010113          	addi	sp,sp,32
    2274:	00008067          	ret

00002278 <vTaskSwitchContext.part.0>:
    2278:	ff010113          	addi	sp,sp,-16
    227c:	0001f797          	auipc	a5,0x1f
    2280:	ae07ac23          	sw	zero,-1288(a5) # 20d74 <xYieldPending>
    2284:	00812423          	sw	s0,8(sp)
    2288:	0001f417          	auipc	s0,0x1f
    228c:	b1440413          	addi	s0,s0,-1260 # 20d9c <pxCurrentTCB>
    2290:	00042703          	lw	a4,0(s0)
    2294:	00042783          	lw	a5,0(s0)
    2298:	00112623          	sw	ra,12(sp)
    229c:	00072703          	lw	a4,0(a4)
    22a0:	0307a783          	lw	a5,48(a5)
    22a4:	00912223          	sw	s1,4(sp)
    22a8:	08e7f463          	bgeu	a5,a4,2330 <vTaskSwitchContext.part.0+0xb8>
    22ac:	0001f497          	auipc	s1,0x1f
    22b0:	ae048493          	addi	s1,s1,-1312 # 20d8c <FreeRTOS_errno>
    22b4:	00042783          	lw	a5,0(s0)
    22b8:	0004a703          	lw	a4,0(s1)
    22bc:	0001f517          	auipc	a0,0x1f
    22c0:	ac452503          	lw	a0,-1340(a0) # 20d80 <uxTopReadyPriority>
    22c4:	04e7aa23          	sw	a4,84(a5)
    22c8:	5bd060ef          	jal	ra,9084 <__clzsi2>
    22cc:	01f00793          	li	a5,31
    22d0:	40a787b3          	sub	a5,a5,a0
    22d4:	00279513          	slli	a0,a5,0x2
    22d8:	00f50533          	add	a0,a0,a5
    22dc:	00251513          	slli	a0,a0,0x2
    22e0:	0001f797          	auipc	a5,0x1f
    22e4:	b5078793          	addi	a5,a5,-1200 # 20e30 <xSuspendedTaskList>
    22e8:	00a787b3          	add	a5,a5,a0
    22ec:	0187a703          	lw	a4,24(a5)
    22f0:	0001f697          	auipc	a3,0x1f
    22f4:	b5c68693          	addi	a3,a3,-1188 # 20e4c <pxReadyTasksLists+0x8>
    22f8:	00d50533          	add	a0,a0,a3
    22fc:	00472703          	lw	a4,4(a4)
    2300:	00e7ac23          	sw	a4,24(a5)
    2304:	04a70063          	beq	a4,a0,2344 <vTaskSwitchContext.part.0+0xcc>
    2308:	00c72783          	lw	a5,12(a4)
    230c:	00c12083          	lw	ra,12(sp)
    2310:	00f42023          	sw	a5,0(s0)
    2314:	00042783          	lw	a5,0(s0)
    2318:	00812403          	lw	s0,8(sp)
    231c:	0547a783          	lw	a5,84(a5)
    2320:	00f4a023          	sw	a5,0(s1)
    2324:	00412483          	lw	s1,4(sp)
    2328:	01010113          	addi	sp,sp,16
    232c:	00008067          	ret
    2330:	00042503          	lw	a0,0(s0)
    2334:	00042583          	lw	a1,0(s0)
    2338:	03458593          	addi	a1,a1,52
    233c:	f65fd0ef          	jal	ra,2a0 <vApplicationStackOverflowHook>
    2340:	f6dff06f          	j	22ac <vTaskSwitchContext.part.0+0x34>
    2344:	00472703          	lw	a4,4(a4)
    2348:	00e7ac23          	sw	a4,24(a5)
    234c:	fbdff06f          	j	2308 <vTaskSwitchContext.part.0+0x90>

00002350 <prvInitialiseNewTask.constprop.0>:
    2350:	fe010113          	addi	sp,sp,-32
    2354:	01412423          	sw	s4,8(sp)
    2358:	00050a13          	mv	s4,a0
    235c:	03082503          	lw	a0,48(a6)
    2360:	01312623          	sw	s3,12(sp)
    2364:	00261993          	slli	s3,a2,0x2
    2368:	00912a23          	sw	s1,20(sp)
    236c:	00098613          	mv	a2,s3
    2370:	00058493          	mv	s1,a1
    2374:	0a500593          	li	a1,165
    2378:	00812c23          	sw	s0,24(sp)
    237c:	01212823          	sw	s2,16(sp)
    2380:	01512223          	sw	s5,4(sp)
    2384:	01612023          	sw	s6,0(sp)
    2388:	00080413          	mv	s0,a6
    238c:	00078b13          	mv	s6,a5
    2390:	00112e23          	sw	ra,28(sp)
    2394:	00068a93          	mv	s5,a3
    2398:	00070913          	mv	s2,a4
    239c:	59c060ef          	jal	ra,8938 <memset>
    23a0:	03042783          	lw	a5,48(s0)
    23a4:	ffc98993          	addi	s3,s3,-4
    23a8:	013789b3          	add	s3,a5,s3
    23ac:	ff09f993          	andi	s3,s3,-16
    23b0:	0c048463          	beqz	s1,2478 <prvInitialiseNewTask.constprop.0+0x128>
    23b4:	00048593          	mv	a1,s1
    23b8:	03440813          	addi	a6,s0,52
    23bc:	00848793          	addi	a5,s1,8
    23c0:	0005c883          	lbu	a7,0(a1)
    23c4:	00180813          	addi	a6,a6,1
    23c8:	00158593          	addi	a1,a1,1
    23cc:	ff180fa3          	sb	a7,-1(a6)
    23d0:	00088463          	beqz	a7,23d8 <prvInitialiseNewTask.constprop.0+0x88>
    23d4:	fef596e3          	bne	a1,a5,23c0 <prvInitialiseNewTask.constprop.0+0x70>
    23d8:	02040da3          	sb	zero,59(s0)
    23dc:	00f00793          	li	a5,15
    23e0:	0127f463          	bgeu	a5,s2,23e8 <prvInitialiseNewTask.constprop.0+0x98>
    23e4:	00f00913          	li	s2,15
    23e8:	00440513          	addi	a0,s0,4
    23ec:	03242623          	sw	s2,44(s0)
    23f0:	05242023          	sw	s2,64(s0)
    23f4:	04042223          	sw	zero,68(s0)
    23f8:	585020ef          	jal	ra,517c <vListInitialiseItem>
    23fc:	01840513          	addi	a0,s0,24
    2400:	57d020ef          	jal	ra,517c <vListInitialiseItem>
    2404:	01000793          	li	a5,16
    2408:	412784b3          	sub	s1,a5,s2
    240c:	00842823          	sw	s0,16(s0)
    2410:	00942c23          	sw	s1,24(s0)
    2414:	02842223          	sw	s0,36(s0)
    2418:	02042e23          	sw	zero,60(s0)
    241c:	04042423          	sw	zero,72(s0)
    2420:	04040623          	sb	zero,76(s0)
    2424:	040406a3          	sb	zero,77(s0)
    2428:	04040723          	sb	zero,78(s0)
    242c:	040407a3          	sb	zero,79(s0)
    2430:	04040823          	sb	zero,80(s0)
    2434:	000a8613          	mv	a2,s5
    2438:	000a0593          	mv	a1,s4
    243c:	00098513          	mv	a0,s3
    2440:	3c1020ef          	jal	ra,5000 <pxPortInitialiseStack>
    2444:	00a42023          	sw	a0,0(s0)
    2448:	000b0463          	beqz	s6,2450 <prvInitialiseNewTask.constprop.0+0x100>
    244c:	008b2023          	sw	s0,0(s6)
    2450:	01c12083          	lw	ra,28(sp)
    2454:	01812403          	lw	s0,24(sp)
    2458:	01412483          	lw	s1,20(sp)
    245c:	01012903          	lw	s2,16(sp)
    2460:	00c12983          	lw	s3,12(sp)
    2464:	00812a03          	lw	s4,8(sp)
    2468:	00412a83          	lw	s5,4(sp)
    246c:	00012b03          	lw	s6,0(sp)
    2470:	02010113          	addi	sp,sp,32
    2474:	00008067          	ret
    2478:	02040a23          	sb	zero,52(s0)
    247c:	f61ff06f          	j	23dc <prvInitialiseNewTask.constprop.0+0x8c>

00002480 <prvIdleTask>:
    2480:	fe010113          	addi	sp,sp,-32
    2484:	00912a23          	sw	s1,20(sp)
    2488:	01212823          	sw	s2,16(sp)
    248c:	01312623          	sw	s3,12(sp)
    2490:	01412423          	sw	s4,8(sp)
    2494:	01512223          	sw	s5,4(sp)
    2498:	01612023          	sw	s6,0(sp)
    249c:	00112e23          	sw	ra,28(sp)
    24a0:	00812c23          	sw	s0,24(sp)
    24a4:	0001f497          	auipc	s1,0x1f
    24a8:	8ec48493          	addi	s1,s1,-1812 # 20d90 <uxDeletedTasksWaitingCleanUp>
    24ac:	0001f997          	auipc	s3,0x1f
    24b0:	8d098993          	addi	s3,s3,-1840 # 20d7c <xSchedulerRunning>
    24b4:	0001fa17          	auipc	s4,0x1f
    24b8:	8e8a0a13          	addi	s4,s4,-1816 # 20d9c <pxCurrentTCB>
    24bc:	0001fa97          	auipc	s5,0x1f
    24c0:	974a8a93          	addi	s5,s5,-1676 # 20e30 <xSuspendedTaskList>
    24c4:	0001f917          	auipc	s2,0x1f
    24c8:	8c490913          	addi	s2,s2,-1852 # 20d88 <uxCurrentNumberOfTasks>
    24cc:	00100b13          	li	s6,1
    24d0:	0004a783          	lw	a5,0(s1)
    24d4:	08078e63          	beqz	a5,2570 <prvIdleTask+0xf0>
    24d8:	30047073          	csrci	mstatus,8
    24dc:	0009a783          	lw	a5,0(s3)
    24e0:	00078c63          	beqz	a5,24f8 <prvIdleTask+0x78>
    24e4:	000a2703          	lw	a4,0(s4)
    24e8:	000a2783          	lw	a5,0(s4)
    24ec:	03c72783          	lw	a5,60(a4)
    24f0:	00178793          	addi	a5,a5,1
    24f4:	02f72e23          	sw	a5,60(a4)
    24f8:	160aa783          	lw	a5,352(s5)
    24fc:	00c7a403          	lw	s0,12(a5)
    2500:	00440513          	addi	a0,s0,4
    2504:	501020ef          	jal	ra,5204 <uxListRemove>
    2508:	00092783          	lw	a5,0(s2)
    250c:	fff78793          	addi	a5,a5,-1
    2510:	00f92023          	sw	a5,0(s2)
    2514:	0004a783          	lw	a5,0(s1)
    2518:	fff78793          	addi	a5,a5,-1
    251c:	00f4a023          	sw	a5,0(s1)
    2520:	0009a783          	lw	a5,0(s3)
    2524:	02078863          	beqz	a5,2554 <prvIdleTask+0xd4>
    2528:	000a2783          	lw	a5,0(s4)
    252c:	03c7a783          	lw	a5,60(a5)
    2530:	02078263          	beqz	a5,2554 <prvIdleTask+0xd4>
    2534:	000a2703          	lw	a4,0(s4)
    2538:	000a2683          	lw	a3,0(s4)
    253c:	03c72783          	lw	a5,60(a4)
    2540:	fff78793          	addi	a5,a5,-1
    2544:	02f72e23          	sw	a5,60(a4)
    2548:	03c6a783          	lw	a5,60(a3)
    254c:	00079463          	bnez	a5,2554 <prvIdleTask+0xd4>
    2550:	30046073          	csrsi	mstatus,8
    2554:	05144783          	lbu	a5,81(s0)
    2558:	02078663          	beqz	a5,2584 <prvIdleTask+0x104>
    255c:	f7679ae3          	bne	a5,s6,24d0 <prvIdleTask+0x50>
    2560:	00040513          	mv	a0,s0
    2564:	708020ef          	jal	ra,4c6c <vPortFree>
    2568:	0004a783          	lw	a5,0(s1)
    256c:	f60796e3          	bnez	a5,24d8 <prvIdleTask+0x58>
    2570:	014aa783          	lw	a5,20(s5)
    2574:	00fb7463          	bgeu	s6,a5,257c <prvIdleTask+0xfc>
    2578:	00000073          	ecall
    257c:	d45fd0ef          	jal	ra,2c0 <vApplicationIdleHook>
    2580:	f51ff06f          	j	24d0 <prvIdleTask+0x50>
    2584:	03042503          	lw	a0,48(s0)
    2588:	6e4020ef          	jal	ra,4c6c <vPortFree>
    258c:	00040513          	mv	a0,s0
    2590:	6dc020ef          	jal	ra,4c6c <vPortFree>
    2594:	f3dff06f          	j	24d0 <prvIdleTask+0x50>

00002598 <xTaskIncrementTick.part.0>:
    2598:	0001e797          	auipc	a5,0x1e
    259c:	7ec78793          	addi	a5,a5,2028 # 20d84 <xTickCount>
    25a0:	0007a303          	lw	t1,0(a5)
    25a4:	fe010113          	addi	sp,sp,-32
    25a8:	00812c23          	sw	s0,24(sp)
    25ac:	00112e23          	sw	ra,28(sp)
    25b0:	00912a23          	sw	s1,20(sp)
    25b4:	00130313          	addi	t1,t1,1
    25b8:	0067a023          	sw	t1,0(a5)
    25bc:	0001e417          	auipc	s0,0x1e
    25c0:	7ac40413          	addi	s0,s0,1964 # 20d68 <xNextTaskUnblockTime>
    25c4:	1c030063          	beqz	t1,2784 <xTaskIncrementTick.part.0+0x1ec>
    25c8:	00042783          	lw	a5,0(s0)
    25cc:	12f36c63          	bltu	t1,a5,2704 <xTaskIncrementTick.part.0+0x16c>
    25d0:	0001ee17          	auipc	t3,0x1e
    25d4:	7c8e0e13          	addi	t3,t3,1992 # 20d98 <pxDelayedTaskList>
    25d8:	000e2783          	lw	a5,0(t3)
    25dc:	00000513          	li	a0,0
    25e0:	0001ff17          	auipc	t5,0x1f
    25e4:	850f0f13          	addi	t5,t5,-1968 # 20e30 <xSuspendedTaskList>
    25e8:	0007a783          	lw	a5,0(a5)
    25ec:	0001ef97          	auipc	t6,0x1e
    25f0:	7b0f8f93          	addi	t6,t6,1968 # 20d9c <pxCurrentTCB>
    25f4:	16078e63          	beqz	a5,2770 <xTaskIncrementTick.part.0+0x1d8>
    25f8:	0001ee97          	auipc	t4,0x1e
    25fc:	788e8e93          	addi	t4,t4,1928 # 20d80 <uxTopReadyPriority>
    2600:	00100393          	li	t2,1
    2604:	0001f297          	auipc	t0,0x1f
    2608:	84028293          	addi	t0,t0,-1984 # 20e44 <pxReadyTasksLists>
    260c:	0b80006f          	j	26c4 <xTaskIncrementTick.part.0+0x12c>
    2610:	0006a603          	lw	a2,0(a3)
    2614:	0287a703          	lw	a4,40(a5)
    2618:	0007aa23          	sw	zero,20(a5)
    261c:	fff60613          	addi	a2,a2,-1
    2620:	00c6a023          	sw	a2,0(a3)
    2624:	02070863          	beqz	a4,2654 <xTaskIncrementTick.part.0+0xbc>
    2628:	0207a603          	lw	a2,32(a5)
    262c:	01c7a683          	lw	a3,28(a5)
    2630:	00472803          	lw	a6,4(a4)
    2634:	00c6a423          	sw	a2,8(a3)
    2638:	0207a603          	lw	a2,32(a5)
    263c:	00d62223          	sw	a3,4(a2)
    2640:	13180e63          	beq	a6,a7,277c <xTaskIncrementTick.part.0+0x1e4>
    2644:	00072683          	lw	a3,0(a4)
    2648:	0207a423          	sw	zero,40(a5)
    264c:	fff68693          	addi	a3,a3,-1
    2650:	00d72023          	sw	a3,0(a4)
    2654:	02c7a683          	lw	a3,44(a5)
    2658:	000ea483          	lw	s1,0(t4)
    265c:	00269713          	slli	a4,a3,0x2
    2660:	00d70733          	add	a4,a4,a3
    2664:	00271713          	slli	a4,a4,0x2
    2668:	00ef0833          	add	a6,t5,a4
    266c:	01882603          	lw	a2,24(a6)
    2670:	00d398b3          	sll	a7,t2,a3
    2674:	0098e8b3          	or	a7,a7,s1
    2678:	00862483          	lw	s1,8(a2)
    267c:	011ea023          	sw	a7,0(t4)
    2680:	01482883          	lw	a7,20(a6)
    2684:	0097a623          	sw	s1,12(a5)
    2688:	00862483          	lw	s1,8(a2)
    268c:	00c7a423          	sw	a2,8(a5)
    2690:	00e28733          	add	a4,t0,a4
    2694:	00b4a223          	sw	a1,4(s1)
    2698:	00b62423          	sw	a1,8(a2)
    269c:	00e7aa23          	sw	a4,20(a5)
    26a0:	00188893          	addi	a7,a7,1
    26a4:	01182a23          	sw	a7,20(a6)
    26a8:	000fa783          	lw	a5,0(t6)
    26ac:	02c7a783          	lw	a5,44(a5)
    26b0:	00f6e463          	bltu	a3,a5,26b8 <xTaskIncrementTick.part.0+0x120>
    26b4:	00100513          	li	a0,1
    26b8:	000e2783          	lw	a5,0(t3)
    26bc:	0007a783          	lw	a5,0(a5)
    26c0:	0a078863          	beqz	a5,2770 <xTaskIncrementTick.part.0+0x1d8>
    26c4:	000e2783          	lw	a5,0(t3)
    26c8:	00c7a783          	lw	a5,12(a5)
    26cc:	00c7a783          	lw	a5,12(a5)
    26d0:	0047a703          	lw	a4,4(a5)
    26d4:	00478593          	addi	a1,a5,4
    26d8:	01878893          	addi	a7,a5,24
    26dc:	10e36263          	bltu	t1,a4,27e0 <xTaskIncrementTick.part.0+0x248>
    26e0:	0147a683          	lw	a3,20(a5)
    26e4:	0087a603          	lw	a2,8(a5)
    26e8:	00c7a703          	lw	a4,12(a5)
    26ec:	0046a803          	lw	a6,4(a3)
    26f0:	00e62423          	sw	a4,8(a2)
    26f4:	00c72223          	sw	a2,4(a4)
    26f8:	f0b81ce3          	bne	a6,a1,2610 <xTaskIncrementTick.part.0+0x78>
    26fc:	00e6a223          	sw	a4,4(a3)
    2700:	f11ff06f          	j	2610 <xTaskIncrementTick.part.0+0x78>
    2704:	00000513          	li	a0,0
    2708:	0001ef17          	auipc	t5,0x1e
    270c:	728f0f13          	addi	t5,t5,1832 # 20e30 <xSuspendedTaskList>
    2710:	0001ef97          	auipc	t6,0x1e
    2714:	68cf8f93          	addi	t6,t6,1676 # 20d9c <pxCurrentTCB>
    2718:	000fa783          	lw	a5,0(t6)
    271c:	00100693          	li	a3,1
    2720:	02c7a703          	lw	a4,44(a5)
    2724:	00271793          	slli	a5,a4,0x2
    2728:	00e787b3          	add	a5,a5,a4
    272c:	00279793          	slli	a5,a5,0x2
    2730:	00ff0f33          	add	t5,t5,a5
    2734:	014f2783          	lw	a5,20(t5)
    2738:	00f6f463          	bgeu	a3,a5,2740 <xTaskIncrementTick.part.0+0x1a8>
    273c:	00100513          	li	a0,1
    2740:	0001e797          	auipc	a5,0x1e
    2744:	6387a783          	lw	a5,1592(a5) # 20d78 <xPendedTicks>
    2748:	08078463          	beqz	a5,27d0 <xTaskIncrementTick.part.0+0x238>
    274c:	0001e797          	auipc	a5,0x1e
    2750:	6287a783          	lw	a5,1576(a5) # 20d74 <xYieldPending>
    2754:	00078463          	beqz	a5,275c <xTaskIncrementTick.part.0+0x1c4>
    2758:	00100513          	li	a0,1
    275c:	01c12083          	lw	ra,28(sp)
    2760:	01812403          	lw	s0,24(sp)
    2764:	01412483          	lw	s1,20(sp)
    2768:	02010113          	addi	sp,sp,32
    276c:	00008067          	ret
    2770:	fff00793          	li	a5,-1
    2774:	00f42023          	sw	a5,0(s0)
    2778:	fa1ff06f          	j	2718 <xTaskIncrementTick.part.0+0x180>
    277c:	00c72223          	sw	a2,4(a4)
    2780:	ec5ff06f          	j	2644 <xTaskIncrementTick.part.0+0xac>
    2784:	0001e797          	auipc	a5,0x1e
    2788:	61478793          	addi	a5,a5,1556 # 20d98 <pxDelayedTaskList>
    278c:	0001e717          	auipc	a4,0x1e
    2790:	60870713          	addi	a4,a4,1544 # 20d94 <pxOverflowDelayedTaskList>
    2794:	0007a603          	lw	a2,0(a5)
    2798:	00072583          	lw	a1,0(a4)
    279c:	0001e697          	auipc	a3,0x1e
    27a0:	5d468693          	addi	a3,a3,1492 # 20d70 <xNumOfOverflows>
    27a4:	00b7a023          	sw	a1,0(a5)
    27a8:	00c72023          	sw	a2,0(a4)
    27ac:	0006a703          	lw	a4,0(a3)
    27b0:	00170713          	addi	a4,a4,1
    27b4:	00e6a023          	sw	a4,0(a3)
    27b8:	0007a703          	lw	a4,0(a5)
    27bc:	00072703          	lw	a4,0(a4)
    27c0:	02071463          	bnez	a4,27e8 <xTaskIncrementTick.part.0+0x250>
    27c4:	fff00793          	li	a5,-1
    27c8:	00f42023          	sw	a5,0(s0)
    27cc:	dfdff06f          	j	25c8 <xTaskIncrementTick.part.0+0x30>
    27d0:	00a12623          	sw	a0,12(sp)
    27d4:	ae9fd0ef          	jal	ra,2bc <vApplicationTickHook>
    27d8:	00c12503          	lw	a0,12(sp)
    27dc:	f71ff06f          	j	274c <xTaskIncrementTick.part.0+0x1b4>
    27e0:	00e42023          	sw	a4,0(s0)
    27e4:	f35ff06f          	j	2718 <xTaskIncrementTick.part.0+0x180>
    27e8:	0007a783          	lw	a5,0(a5)
    27ec:	00c7a783          	lw	a5,12(a5)
    27f0:	0007a783          	lw	a5,0(a5)
    27f4:	00f42023          	sw	a5,0(s0)
    27f8:	dd1ff06f          	j	25c8 <xTaskIncrementTick.part.0+0x30>

000027fc <uxTaskPriorityGet>:
    27fc:	30047073          	csrci	mstatus,8
    2800:	0001e797          	auipc	a5,0x1e
    2804:	57c78793          	addi	a5,a5,1404 # 20d7c <xSchedulerRunning>
    2808:	0007a703          	lw	a4,0(a5)
    280c:	02070063          	beqz	a4,282c <uxTaskPriorityGet+0x30>
    2810:	0001e717          	auipc	a4,0x1e
    2814:	58c70713          	addi	a4,a4,1420 # 20d9c <pxCurrentTCB>
    2818:	00072683          	lw	a3,0(a4)
    281c:	00072703          	lw	a4,0(a4)
    2820:	03c6a703          	lw	a4,60(a3)
    2824:	00170713          	addi	a4,a4,1
    2828:	02e6ae23          	sw	a4,60(a3)
    282c:	04050463          	beqz	a0,2874 <uxTaskPriorityGet+0x78>
    2830:	0007a783          	lw	a5,0(a5)
    2834:	02c52503          	lw	a0,44(a0)
    2838:	02078c63          	beqz	a5,2870 <uxTaskPriorityGet+0x74>
    283c:	0001e797          	auipc	a5,0x1e
    2840:	56078793          	addi	a5,a5,1376 # 20d9c <pxCurrentTCB>
    2844:	0007a703          	lw	a4,0(a5)
    2848:	03c72703          	lw	a4,60(a4)
    284c:	02070263          	beqz	a4,2870 <uxTaskPriorityGet+0x74>
    2850:	0007a703          	lw	a4,0(a5)
    2854:	0007a683          	lw	a3,0(a5)
    2858:	03c72783          	lw	a5,60(a4)
    285c:	fff78793          	addi	a5,a5,-1
    2860:	02f72e23          	sw	a5,60(a4)
    2864:	03c6a783          	lw	a5,60(a3)
    2868:	00079463          	bnez	a5,2870 <uxTaskPriorityGet+0x74>
    286c:	30046073          	csrsi	mstatus,8
    2870:	00008067          	ret
    2874:	0001e517          	auipc	a0,0x1e
    2878:	52852503          	lw	a0,1320(a0) # 20d9c <pxCurrentTCB>
    287c:	fb5ff06f          	j	2830 <uxTaskPriorityGet+0x34>

00002880 <uxTaskPriorityGetFromISR>:
    2880:	00050663          	beqz	a0,288c <uxTaskPriorityGetFromISR+0xc>
    2884:	02c52503          	lw	a0,44(a0)
    2888:	00008067          	ret
    288c:	0001e517          	auipc	a0,0x1e
    2890:	51052503          	lw	a0,1296(a0) # 20d9c <pxCurrentTCB>
    2894:	02c52503          	lw	a0,44(a0)
    2898:	00008067          	ret

0000289c <xTaskResumeFromISR>:
    289c:	01452783          	lw	a5,20(a0)
    28a0:	fe010113          	addi	sp,sp,-32
    28a4:	00912a23          	sw	s1,20(sp)
    28a8:	01212823          	sw	s2,16(sp)
    28ac:	00112e23          	sw	ra,28(sp)
    28b0:	00812c23          	sw	s0,24(sp)
    28b4:	01312623          	sw	s3,12(sp)
    28b8:	0001e497          	auipc	s1,0x1e
    28bc:	57848493          	addi	s1,s1,1400 # 20e30 <xSuspendedTaskList>
    28c0:	00000913          	li	s2,0
    28c4:	02978263          	beq	a5,s1,28e8 <xTaskResumeFromISR+0x4c>
    28c8:	01c12083          	lw	ra,28(sp)
    28cc:	01812403          	lw	s0,24(sp)
    28d0:	01412483          	lw	s1,20(sp)
    28d4:	00c12983          	lw	s3,12(sp)
    28d8:	00090513          	mv	a0,s2
    28dc:	01012903          	lw	s2,16(sp)
    28e0:	02010113          	addi	sp,sp,32
    28e4:	00008067          	ret
    28e8:	02852783          	lw	a5,40(a0)
    28ec:	00050413          	mv	s0,a0
    28f0:	0001e517          	auipc	a0,0x1e
    28f4:	6a850513          	addi	a0,a0,1704 # 20f98 <xPendingReadyList>
    28f8:	00000913          	li	s2,0
    28fc:	fca786e3          	beq	a5,a0,28c8 <xTaskResumeFromISR+0x2c>
    2900:	fc0794e3          	bnez	a5,28c8 <xTaskResumeFromISR+0x2c>
    2904:	0001e797          	auipc	a5,0x1e
    2908:	4607a783          	lw	a5,1120(a5) # 20d64 <uxSchedulerSuspended>
    290c:	0a079e63          	bnez	a5,29c8 <xTaskResumeFromISR+0x12c>
    2910:	0001e797          	auipc	a5,0x1e
    2914:	48c7a783          	lw	a5,1164(a5) # 20d9c <pxCurrentTCB>
    2918:	02c42703          	lw	a4,44(s0)
    291c:	02c7a783          	lw	a5,44(a5)
    2920:	00f76a63          	bltu	a4,a5,2934 <xTaskResumeFromISR+0x98>
    2924:	00100793          	li	a5,1
    2928:	0001e717          	auipc	a4,0x1e
    292c:	44f72623          	sw	a5,1100(a4) # 20d74 <xYieldPending>
    2930:	00100913          	li	s2,1
    2934:	00440993          	addi	s3,s0,4
    2938:	00098513          	mv	a0,s3
    293c:	0c9020ef          	jal	ra,5204 <uxListRemove>
    2940:	02c42603          	lw	a2,44(s0)
    2944:	00100713          	li	a4,1
    2948:	0001e597          	auipc	a1,0x1e
    294c:	43858593          	addi	a1,a1,1080 # 20d80 <uxTopReadyPriority>
    2950:	00261793          	slli	a5,a2,0x2
    2954:	00c787b3          	add	a5,a5,a2
    2958:	00279793          	slli	a5,a5,0x2
    295c:	00f484b3          	add	s1,s1,a5
    2960:	0184a683          	lw	a3,24(s1)
    2964:	00c71733          	sll	a4,a4,a2
    2968:	0005a503          	lw	a0,0(a1)
    296c:	0086a603          	lw	a2,8(a3)
    2970:	01c12083          	lw	ra,28(sp)
    2974:	00a76733          	or	a4,a4,a0
    2978:	00c42623          	sw	a2,12(s0)
    297c:	0086a603          	lw	a2,8(a3)
    2980:	00e5a023          	sw	a4,0(a1)
    2984:	00d42423          	sw	a3,8(s0)
    2988:	0144a703          	lw	a4,20(s1)
    298c:	01362223          	sw	s3,4(a2)
    2990:	0136a423          	sw	s3,8(a3)
    2994:	0001e697          	auipc	a3,0x1e
    2998:	4b068693          	addi	a3,a3,1200 # 20e44 <pxReadyTasksLists>
    299c:	00f687b3          	add	a5,a3,a5
    29a0:	00f42a23          	sw	a5,20(s0)
    29a4:	01812403          	lw	s0,24(sp)
    29a8:	00170713          	addi	a4,a4,1
    29ac:	00e4aa23          	sw	a4,20(s1)
    29b0:	00c12983          	lw	s3,12(sp)
    29b4:	01412483          	lw	s1,20(sp)
    29b8:	00090513          	mv	a0,s2
    29bc:	01012903          	lw	s2,16(sp)
    29c0:	02010113          	addi	sp,sp,32
    29c4:	00008067          	ret
    29c8:	01840593          	addi	a1,s0,24
    29cc:	7b8020ef          	jal	ra,5184 <vListInsertEnd>
    29d0:	ef9ff06f          	j	28c8 <xTaskResumeFromISR+0x2c>

000029d4 <vTaskEndScheduler>:
    29d4:	30047073          	csrci	mstatus,8
    29d8:	0001e797          	auipc	a5,0x1e
    29dc:	3a07a223          	sw	zero,932(a5) # 20d7c <xSchedulerRunning>
    29e0:	7540206f          	j	5134 <vPortEndScheduler>

000029e4 <vTaskSuspendAll>:
    29e4:	0001e717          	auipc	a4,0x1e
    29e8:	38070713          	addi	a4,a4,896 # 20d64 <uxSchedulerSuspended>
    29ec:	00072783          	lw	a5,0(a4)
    29f0:	00178793          	addi	a5,a5,1
    29f4:	00f72023          	sw	a5,0(a4)
    29f8:	00008067          	ret

000029fc <xTaskGetTickCount>:
    29fc:	0001e517          	auipc	a0,0x1e
    2a00:	38852503          	lw	a0,904(a0) # 20d84 <xTickCount>
    2a04:	00008067          	ret

00002a08 <xTaskGetTickCountFromISR>:
    2a08:	0001e517          	auipc	a0,0x1e
    2a0c:	37c52503          	lw	a0,892(a0) # 20d84 <xTickCount>
    2a10:	00008067          	ret

00002a14 <uxTaskGetNumberOfTasks>:
    2a14:	0001e517          	auipc	a0,0x1e
    2a18:	37452503          	lw	a0,884(a0) # 20d88 <uxCurrentNumberOfTasks>
    2a1c:	00008067          	ret

00002a20 <pcTaskGetName>:
    2a20:	00050663          	beqz	a0,2a2c <pcTaskGetName+0xc>
    2a24:	03450513          	addi	a0,a0,52
    2a28:	00008067          	ret
    2a2c:	0001e517          	auipc	a0,0x1e
    2a30:	37052503          	lw	a0,880(a0) # 20d9c <pxCurrentTCB>
    2a34:	03450513          	addi	a0,a0,52
    2a38:	00008067          	ret

00002a3c <xTaskIncrementTick>:
    2a3c:	0001e797          	auipc	a5,0x1e
    2a40:	3287a783          	lw	a5,808(a5) # 20d64 <uxSchedulerSuspended>
    2a44:	00079463          	bnez	a5,2a4c <xTaskIncrementTick+0x10>
    2a48:	b51ff06f          	j	2598 <xTaskIncrementTick.part.0>
    2a4c:	0001e717          	auipc	a4,0x1e
    2a50:	32c70713          	addi	a4,a4,812 # 20d78 <xPendedTicks>
    2a54:	00072783          	lw	a5,0(a4)
    2a58:	ff010113          	addi	sp,sp,-16
    2a5c:	00112623          	sw	ra,12(sp)
    2a60:	00178793          	addi	a5,a5,1
    2a64:	00f72023          	sw	a5,0(a4)
    2a68:	855fd0ef          	jal	ra,2bc <vApplicationTickHook>
    2a6c:	00c12083          	lw	ra,12(sp)
    2a70:	00000513          	li	a0,0
    2a74:	01010113          	addi	sp,sp,16
    2a78:	00008067          	ret

00002a7c <vTaskSetApplicationTaskTag>:
    2a7c:	06050c63          	beqz	a0,2af4 <vTaskSetApplicationTaskTag+0x78>
    2a80:	30047073          	csrci	mstatus,8
    2a84:	0001e797          	auipc	a5,0x1e
    2a88:	2f878793          	addi	a5,a5,760 # 20d7c <xSchedulerRunning>
    2a8c:	0007a703          	lw	a4,0(a5)
    2a90:	02070063          	beqz	a4,2ab0 <vTaskSetApplicationTaskTag+0x34>
    2a94:	0001e717          	auipc	a4,0x1e
    2a98:	30870713          	addi	a4,a4,776 # 20d9c <pxCurrentTCB>
    2a9c:	00072683          	lw	a3,0(a4)
    2aa0:	00072703          	lw	a4,0(a4)
    2aa4:	03c6a703          	lw	a4,60(a3)
    2aa8:	00170713          	addi	a4,a4,1
    2aac:	02e6ae23          	sw	a4,60(a3)
    2ab0:	0007a783          	lw	a5,0(a5)
    2ab4:	04b52423          	sw	a1,72(a0)
    2ab8:	02078c63          	beqz	a5,2af0 <vTaskSetApplicationTaskTag+0x74>
    2abc:	0001e797          	auipc	a5,0x1e
    2ac0:	2e078793          	addi	a5,a5,736 # 20d9c <pxCurrentTCB>
    2ac4:	0007a703          	lw	a4,0(a5)
    2ac8:	03c72703          	lw	a4,60(a4)
    2acc:	02070263          	beqz	a4,2af0 <vTaskSetApplicationTaskTag+0x74>
    2ad0:	0007a703          	lw	a4,0(a5)
    2ad4:	0007a683          	lw	a3,0(a5)
    2ad8:	03c72783          	lw	a5,60(a4)
    2adc:	fff78793          	addi	a5,a5,-1
    2ae0:	02f72e23          	sw	a5,60(a4)
    2ae4:	03c6a783          	lw	a5,60(a3)
    2ae8:	00079463          	bnez	a5,2af0 <vTaskSetApplicationTaskTag+0x74>
    2aec:	30046073          	csrsi	mstatus,8
    2af0:	00008067          	ret
    2af4:	0001e517          	auipc	a0,0x1e
    2af8:	2a852503          	lw	a0,680(a0) # 20d9c <pxCurrentTCB>
    2afc:	f85ff06f          	j	2a80 <vTaskSetApplicationTaskTag+0x4>

00002b00 <xTaskGetApplicationTaskTag>:
    2b00:	06050c63          	beqz	a0,2b78 <xTaskGetApplicationTaskTag+0x78>
    2b04:	30047073          	csrci	mstatus,8
    2b08:	0001e797          	auipc	a5,0x1e
    2b0c:	27478793          	addi	a5,a5,628 # 20d7c <xSchedulerRunning>
    2b10:	0007a703          	lw	a4,0(a5)
    2b14:	02070063          	beqz	a4,2b34 <xTaskGetApplicationTaskTag+0x34>
    2b18:	0001e717          	auipc	a4,0x1e
    2b1c:	28470713          	addi	a4,a4,644 # 20d9c <pxCurrentTCB>
    2b20:	00072683          	lw	a3,0(a4)
    2b24:	00072703          	lw	a4,0(a4)
    2b28:	03c6a703          	lw	a4,60(a3)
    2b2c:	00170713          	addi	a4,a4,1
    2b30:	02e6ae23          	sw	a4,60(a3)
    2b34:	0007a783          	lw	a5,0(a5)
    2b38:	04852503          	lw	a0,72(a0)
    2b3c:	02078c63          	beqz	a5,2b74 <xTaskGetApplicationTaskTag+0x74>
    2b40:	0001e797          	auipc	a5,0x1e
    2b44:	25c78793          	addi	a5,a5,604 # 20d9c <pxCurrentTCB>
    2b48:	0007a703          	lw	a4,0(a5)
    2b4c:	03c72703          	lw	a4,60(a4)
    2b50:	02070263          	beqz	a4,2b74 <xTaskGetApplicationTaskTag+0x74>
    2b54:	0007a703          	lw	a4,0(a5)
    2b58:	0007a683          	lw	a3,0(a5)
    2b5c:	03c72783          	lw	a5,60(a4)
    2b60:	fff78793          	addi	a5,a5,-1
    2b64:	02f72e23          	sw	a5,60(a4)
    2b68:	03c6a783          	lw	a5,60(a3)
    2b6c:	00079463          	bnez	a5,2b74 <xTaskGetApplicationTaskTag+0x74>
    2b70:	30046073          	csrsi	mstatus,8
    2b74:	00008067          	ret
    2b78:	0001e517          	auipc	a0,0x1e
    2b7c:	22452503          	lw	a0,548(a0) # 20d9c <pxCurrentTCB>
    2b80:	f85ff06f          	j	2b04 <xTaskGetApplicationTaskTag+0x4>

00002b84 <xTaskGetApplicationTaskTagFromISR>:
    2b84:	00050663          	beqz	a0,2b90 <xTaskGetApplicationTaskTagFromISR+0xc>
    2b88:	04852503          	lw	a0,72(a0)
    2b8c:	00008067          	ret
    2b90:	0001e517          	auipc	a0,0x1e
    2b94:	20c52503          	lw	a0,524(a0) # 20d9c <pxCurrentTCB>
    2b98:	04852503          	lw	a0,72(a0)
    2b9c:	00008067          	ret

00002ba0 <xTaskCallApplicationTaskHook>:
    2ba0:	00050793          	mv	a5,a0
    2ba4:	00058513          	mv	a0,a1
    2ba8:	00078863          	beqz	a5,2bb8 <xTaskCallApplicationTaskHook+0x18>
    2bac:	0487a783          	lw	a5,72(a5)
    2bb0:	00078c63          	beqz	a5,2bc8 <xTaskCallApplicationTaskHook+0x28>
    2bb4:	00078067          	jr	a5
    2bb8:	0001e797          	auipc	a5,0x1e
    2bbc:	1e47a783          	lw	a5,484(a5) # 20d9c <pxCurrentTCB>
    2bc0:	0487a783          	lw	a5,72(a5)
    2bc4:	fe0798e3          	bnez	a5,2bb4 <xTaskCallApplicationTaskHook+0x14>
    2bc8:	00000513          	li	a0,0
    2bcc:	00008067          	ret

00002bd0 <vTaskSwitchContext>:
    2bd0:	0001e797          	auipc	a5,0x1e
    2bd4:	1947a783          	lw	a5,404(a5) # 20d64 <uxSchedulerSuspended>
    2bd8:	00078a63          	beqz	a5,2bec <vTaskSwitchContext+0x1c>
    2bdc:	00100793          	li	a5,1
    2be0:	0001e717          	auipc	a4,0x1e
    2be4:	18f72a23          	sw	a5,404(a4) # 20d74 <xYieldPending>
    2be8:	00008067          	ret
    2bec:	e8cff06f          	j	2278 <vTaskSwitchContext.part.0>

00002bf0 <vTaskPlaceOnEventList>:
    2bf0:	ff010113          	addi	sp,sp,-16
    2bf4:	0001e797          	auipc	a5,0x1e
    2bf8:	1a87a783          	lw	a5,424(a5) # 20d9c <pxCurrentTCB>
    2bfc:	00812423          	sw	s0,8(sp)
    2c00:	00058413          	mv	s0,a1
    2c04:	01878593          	addi	a1,a5,24
    2c08:	00112623          	sw	ra,12(sp)
    2c0c:	5a8020ef          	jal	ra,51b4 <vListInsert>
    2c10:	00040513          	mv	a0,s0
    2c14:	00812403          	lw	s0,8(sp)
    2c18:	00c12083          	lw	ra,12(sp)
    2c1c:	00100593          	li	a1,1
    2c20:	01010113          	addi	sp,sp,16
    2c24:	cf4ff06f          	j	2118 <prvAddCurrentTaskToDelayedList>

00002c28 <vTaskPlaceOnUnorderedEventList>:
    2c28:	00452683          	lw	a3,4(a0)
    2c2c:	0001e717          	auipc	a4,0x1e
    2c30:	17070713          	addi	a4,a4,368 # 20d9c <pxCurrentTCB>
    2c34:	00072303          	lw	t1,0(a4)
    2c38:	00050793          	mv	a5,a0
    2c3c:	80000e37          	lui	t3,0x80000
    2c40:	00072503          	lw	a0,0(a4)
    2c44:	0086a883          	lw	a7,8(a3)
    2c48:	00072803          	lw	a6,0(a4)
    2c4c:	01c5e5b3          	or	a1,a1,t3
    2c50:	00b32c23          	sw	a1,24(t1)
    2c54:	00d52e23          	sw	a3,28(a0)
    2c58:	03182023          	sw	a7,32(a6)
    2c5c:	00072503          	lw	a0,0(a4)
    2c60:	0086a883          	lw	a7,8(a3)
    2c64:	00072583          	lw	a1,0(a4)
    2c68:	01850513          	addi	a0,a0,24
    2c6c:	00072803          	lw	a6,0(a4)
    2c70:	0007a703          	lw	a4,0(a5)
    2c74:	01858593          	addi	a1,a1,24
    2c78:	00a8a223          	sw	a0,4(a7)
    2c7c:	00b6a423          	sw	a1,8(a3)
    2c80:	02f82423          	sw	a5,40(a6)
    2c84:	00170713          	addi	a4,a4,1
    2c88:	00e7a023          	sw	a4,0(a5)
    2c8c:	00100593          	li	a1,1
    2c90:	00060513          	mv	a0,a2
    2c94:	c84ff06f          	j	2118 <prvAddCurrentTaskToDelayedList>

00002c98 <xTaskRemoveFromEventList>:
    2c98:	00c52783          	lw	a5,12(a0)
    2c9c:	00c7a783          	lw	a5,12(a5)
    2ca0:	0287a703          	lw	a4,40(a5)
    2ca4:	01c7a603          	lw	a2,28(a5)
    2ca8:	0207a683          	lw	a3,32(a5)
    2cac:	00472503          	lw	a0,4(a4)
    2cb0:	01878593          	addi	a1,a5,24
    2cb4:	00d62423          	sw	a3,8(a2)
    2cb8:	00c6a223          	sw	a2,4(a3)
    2cbc:	12b50463          	beq	a0,a1,2de4 <xTaskRemoveFromEventList+0x14c>
    2cc0:	00072683          	lw	a3,0(a4)
    2cc4:	0207a423          	sw	zero,40(a5)
    2cc8:	02c7a603          	lw	a2,44(a5)
    2ccc:	fff68693          	addi	a3,a3,-1
    2cd0:	00d72023          	sw	a3,0(a4)
    2cd4:	0001e717          	auipc	a4,0x1e
    2cd8:	09072703          	lw	a4,144(a4) # 20d64 <uxSchedulerSuspended>
    2cdc:	0c071463          	bnez	a4,2da4 <xTaskRemoveFromEventList+0x10c>
    2ce0:	00c7a683          	lw	a3,12(a5)
    2ce4:	0087a703          	lw	a4,8(a5)
    2ce8:	0147a583          	lw	a1,20(a5)
    2cec:	00478813          	addi	a6,a5,4
    2cf0:	00d72423          	sw	a3,8(a4)
    2cf4:	00c7a683          	lw	a3,12(a5)
    2cf8:	0045a503          	lw	a0,4(a1)
    2cfc:	00e6a223          	sw	a4,4(a3)
    2d00:	0f050663          	beq	a0,a6,2dec <xTaskRemoveFromEventList+0x154>
    2d04:	00261713          	slli	a4,a2,0x2
    2d08:	00c70733          	add	a4,a4,a2
    2d0c:	00271713          	slli	a4,a4,0x2
    2d10:	0001e697          	auipc	a3,0x1e
    2d14:	12068693          	addi	a3,a3,288 # 20e30 <xSuspendedTaskList>
    2d18:	0005a883          	lw	a7,0(a1)
    2d1c:	00e686b3          	add	a3,a3,a4
    2d20:	0186a503          	lw	a0,24(a3)
    2d24:	fff88893          	addi	a7,a7,-1
    2d28:	0115a023          	sw	a7,0(a1)
    2d2c:	00852583          	lw	a1,8(a0)
    2d30:	0001e897          	auipc	a7,0x1e
    2d34:	05088893          	addi	a7,a7,80 # 20d80 <uxTopReadyPriority>
    2d38:	0008ae03          	lw	t3,0(a7)
    2d3c:	00b7a623          	sw	a1,12(a5)
    2d40:	00100593          	li	a1,1
    2d44:	00852303          	lw	t1,8(a0)
    2d48:	00c595b3          	sll	a1,a1,a2
    2d4c:	01c5e5b3          	or	a1,a1,t3
    2d50:	00a7a423          	sw	a0,8(a5)
    2d54:	00b8a023          	sw	a1,0(a7)
    2d58:	0146a583          	lw	a1,20(a3)
    2d5c:	01032223          	sw	a6,4(t1)
    2d60:	01052423          	sw	a6,8(a0)
    2d64:	0001e517          	auipc	a0,0x1e
    2d68:	0e050513          	addi	a0,a0,224 # 20e44 <pxReadyTasksLists>
    2d6c:	00e50733          	add	a4,a0,a4
    2d70:	00e7aa23          	sw	a4,20(a5)
    2d74:	00158793          	addi	a5,a1,1
    2d78:	00f6aa23          	sw	a5,20(a3)
    2d7c:	0001e797          	auipc	a5,0x1e
    2d80:	0207a783          	lw	a5,32(a5) # 20d9c <pxCurrentTCB>
    2d84:	02c7a783          	lw	a5,44(a5)
    2d88:	00000513          	li	a0,0
    2d8c:	00c7fa63          	bgeu	a5,a2,2da0 <xTaskRemoveFromEventList+0x108>
    2d90:	00100793          	li	a5,1
    2d94:	0001e717          	auipc	a4,0x1e
    2d98:	fef72023          	sw	a5,-32(a4) # 20d74 <xYieldPending>
    2d9c:	00100513          	li	a0,1
    2da0:	00008067          	ret
    2da4:	0001e697          	auipc	a3,0x1e
    2da8:	08c68693          	addi	a3,a3,140 # 20e30 <xSuspendedTaskList>
    2dac:	16c6a703          	lw	a4,364(a3)
    2db0:	1686a503          	lw	a0,360(a3)
    2db4:	00872803          	lw	a6,8(a4)
    2db8:	00e7ae23          	sw	a4,28(a5)
    2dbc:	00150513          	addi	a0,a0,1
    2dc0:	0307a023          	sw	a6,32(a5)
    2dc4:	00872803          	lw	a6,8(a4)
    2dc8:	16a6a423          	sw	a0,360(a3)
    2dcc:	00b82223          	sw	a1,4(a6)
    2dd0:	00b72423          	sw	a1,8(a4)
    2dd4:	0001e717          	auipc	a4,0x1e
    2dd8:	1c470713          	addi	a4,a4,452 # 20f98 <xPendingReadyList>
    2ddc:	02e7a423          	sw	a4,40(a5)
    2de0:	f9dff06f          	j	2d7c <xTaskRemoveFromEventList+0xe4>
    2de4:	00d72223          	sw	a3,4(a4)
    2de8:	ed9ff06f          	j	2cc0 <xTaskRemoveFromEventList+0x28>
    2dec:	00d5a223          	sw	a3,4(a1)
    2df0:	f15ff06f          	j	2d04 <xTaskRemoveFromEventList+0x6c>

00002df4 <vTaskRemoveFromUnorderedEventList>:
    2df4:	00852603          	lw	a2,8(a0)
    2df8:	00452683          	lw	a3,4(a0)
    2dfc:	800007b7          	lui	a5,0x80000
    2e00:	00f5e5b3          	or	a1,a1,a5
    2e04:	01052703          	lw	a4,16(a0)
    2e08:	00b52023          	sw	a1,0(a0)
    2e0c:	00c52783          	lw	a5,12(a0)
    2e10:	00c6a423          	sw	a2,8(a3)
    2e14:	00852603          	lw	a2,8(a0)
    2e18:	00472583          	lw	a1,4(a4)
    2e1c:	00d62223          	sw	a3,4(a2)
    2e20:	0ca58863          	beq	a1,a0,2ef0 <vTaskRemoveFromUnorderedEventList+0xfc>
    2e24:	00072683          	lw	a3,0(a4)
    2e28:	0087a603          	lw	a2,8(a5) # 80000008 <_stack+0x7ffc0008>
    2e2c:	00c7a583          	lw	a1,12(a5)
    2e30:	fff68693          	addi	a3,a3,-1
    2e34:	00052823          	sw	zero,16(a0)
    2e38:	0147a503          	lw	a0,20(a5)
    2e3c:	00d72023          	sw	a3,0(a4)
    2e40:	00b62423          	sw	a1,8(a2)
    2e44:	00c7a703          	lw	a4,12(a5)
    2e48:	00452683          	lw	a3,4(a0)
    2e4c:	00478813          	addi	a6,a5,4
    2e50:	00c72223          	sw	a2,4(a4)
    2e54:	0b068263          	beq	a3,a6,2ef8 <vTaskRemoveFromUnorderedEventList+0x104>
    2e58:	02c7a603          	lw	a2,44(a5)
    2e5c:	0001e697          	auipc	a3,0x1e
    2e60:	fd468693          	addi	a3,a3,-44 # 20e30 <xSuspendedTaskList>
    2e64:	00052883          	lw	a7,0(a0)
    2e68:	00261713          	slli	a4,a2,0x2
    2e6c:	00c70733          	add	a4,a4,a2
    2e70:	00271713          	slli	a4,a4,0x2
    2e74:	00e686b3          	add	a3,a3,a4
    2e78:	0186a583          	lw	a1,24(a3)
    2e7c:	fff88893          	addi	a7,a7,-1
    2e80:	01152023          	sw	a7,0(a0)
    2e84:	0085a503          	lw	a0,8(a1)
    2e88:	0001e897          	auipc	a7,0x1e
    2e8c:	ef888893          	addi	a7,a7,-264 # 20d80 <uxTopReadyPriority>
    2e90:	0008ae83          	lw	t4,0(a7)
    2e94:	00100313          	li	t1,1
    2e98:	00a7a623          	sw	a0,12(a5)
    2e9c:	00c31533          	sll	a0,t1,a2
    2ea0:	0085ae03          	lw	t3,8(a1)
    2ea4:	01d56533          	or	a0,a0,t4
    2ea8:	00a8a023          	sw	a0,0(a7)
    2eac:	0146a503          	lw	a0,20(a3)
    2eb0:	00b7a423          	sw	a1,8(a5)
    2eb4:	010e2223          	sw	a6,4(t3) # 80000004 <_stack+0x7ffc0004>
    2eb8:	0105a423          	sw	a6,8(a1)
    2ebc:	0001e597          	auipc	a1,0x1e
    2ec0:	f8858593          	addi	a1,a1,-120 # 20e44 <pxReadyTasksLists>
    2ec4:	00e58733          	add	a4,a1,a4
    2ec8:	00e7aa23          	sw	a4,20(a5)
    2ecc:	00150793          	addi	a5,a0,1
    2ed0:	00f6aa23          	sw	a5,20(a3)
    2ed4:	0001e797          	auipc	a5,0x1e
    2ed8:	ec87a783          	lw	a5,-312(a5) # 20d9c <pxCurrentTCB>
    2edc:	02c7a783          	lw	a5,44(a5)
    2ee0:	00c7f663          	bgeu	a5,a2,2eec <vTaskRemoveFromUnorderedEventList+0xf8>
    2ee4:	0001e797          	auipc	a5,0x1e
    2ee8:	e867a823          	sw	t1,-368(a5) # 20d74 <xYieldPending>
    2eec:	00008067          	ret
    2ef0:	00c72223          	sw	a2,4(a4)
    2ef4:	f31ff06f          	j	2e24 <vTaskRemoveFromUnorderedEventList+0x30>
    2ef8:	00e52223          	sw	a4,4(a0)
    2efc:	f5dff06f          	j	2e58 <vTaskRemoveFromUnorderedEventList+0x64>

00002f00 <vTaskSetTimeOutState>:
    2f00:	30047073          	csrci	mstatus,8
    2f04:	0001e797          	auipc	a5,0x1e
    2f08:	e7878793          	addi	a5,a5,-392 # 20d7c <xSchedulerRunning>
    2f0c:	0007a703          	lw	a4,0(a5)
    2f10:	02070063          	beqz	a4,2f30 <vTaskSetTimeOutState+0x30>
    2f14:	0001e717          	auipc	a4,0x1e
    2f18:	e8870713          	addi	a4,a4,-376 # 20d9c <pxCurrentTCB>
    2f1c:	00072683          	lw	a3,0(a4)
    2f20:	00072703          	lw	a4,0(a4)
    2f24:	03c6a703          	lw	a4,60(a3)
    2f28:	00170713          	addi	a4,a4,1
    2f2c:	02e6ae23          	sw	a4,60(a3)
    2f30:	0001e697          	auipc	a3,0x1e
    2f34:	e406a683          	lw	a3,-448(a3) # 20d70 <xNumOfOverflows>
    2f38:	0001e717          	auipc	a4,0x1e
    2f3c:	e4c72703          	lw	a4,-436(a4) # 20d84 <xTickCount>
    2f40:	0007a783          	lw	a5,0(a5)
    2f44:	00d52023          	sw	a3,0(a0)
    2f48:	00e52223          	sw	a4,4(a0)
    2f4c:	02078c63          	beqz	a5,2f84 <vTaskSetTimeOutState+0x84>
    2f50:	0001e797          	auipc	a5,0x1e
    2f54:	e4c78793          	addi	a5,a5,-436 # 20d9c <pxCurrentTCB>
    2f58:	0007a703          	lw	a4,0(a5)
    2f5c:	03c72703          	lw	a4,60(a4)
    2f60:	02070263          	beqz	a4,2f84 <vTaskSetTimeOutState+0x84>
    2f64:	0007a703          	lw	a4,0(a5)
    2f68:	0007a683          	lw	a3,0(a5)
    2f6c:	03c72783          	lw	a5,60(a4)
    2f70:	fff78793          	addi	a5,a5,-1
    2f74:	02f72e23          	sw	a5,60(a4)
    2f78:	03c6a783          	lw	a5,60(a3)
    2f7c:	00079463          	bnez	a5,2f84 <vTaskSetTimeOutState+0x84>
    2f80:	30046073          	csrsi	mstatus,8
    2f84:	00008067          	ret

00002f88 <vTaskInternalSetTimeOutState>:
    2f88:	0001e717          	auipc	a4,0x1e
    2f8c:	de872703          	lw	a4,-536(a4) # 20d70 <xNumOfOverflows>
    2f90:	0001e797          	auipc	a5,0x1e
    2f94:	df47a783          	lw	a5,-524(a5) # 20d84 <xTickCount>
    2f98:	00e52023          	sw	a4,0(a0)
    2f9c:	00f52223          	sw	a5,4(a0)
    2fa0:	00008067          	ret

00002fa4 <vTaskMissedYield>:
    2fa4:	00100793          	li	a5,1
    2fa8:	0001e717          	auipc	a4,0x1e
    2fac:	dcf72623          	sw	a5,-564(a4) # 20d74 <xYieldPending>
    2fb0:	00008067          	ret

00002fb4 <uxTaskGetStackHighWaterMark>:
    2fb4:	02050e63          	beqz	a0,2ff0 <uxTaskGetStackHighWaterMark+0x3c>
    2fb8:	03052703          	lw	a4,48(a0)
    2fbc:	0a500793          	li	a5,165
    2fc0:	00000513          	li	a0,0
    2fc4:	00074683          	lbu	a3,0(a4)
    2fc8:	04f69263          	bne	a3,a5,300c <uxTaskGetStackHighWaterMark+0x58>
    2fcc:	0a500693          	li	a3,165
    2fd0:	00150513          	addi	a0,a0,1
    2fd4:	00a707b3          	add	a5,a4,a0
    2fd8:	0007c783          	lbu	a5,0(a5)
    2fdc:	fed78ae3          	beq	a5,a3,2fd0 <uxTaskGetStackHighWaterMark+0x1c>
    2fe0:	00255513          	srli	a0,a0,0x2
    2fe4:	01051513          	slli	a0,a0,0x10
    2fe8:	01055513          	srli	a0,a0,0x10
    2fec:	00008067          	ret
    2ff0:	0001e517          	auipc	a0,0x1e
    2ff4:	dac52503          	lw	a0,-596(a0) # 20d9c <pxCurrentTCB>
    2ff8:	03052703          	lw	a4,48(a0)
    2ffc:	0a500793          	li	a5,165
    3000:	00000513          	li	a0,0
    3004:	00074683          	lbu	a3,0(a4)
    3008:	fcf682e3          	beq	a3,a5,2fcc <uxTaskGetStackHighWaterMark+0x18>
    300c:	00008067          	ret

00003010 <xTaskGetCurrentTaskHandle>:
    3010:	0001e517          	auipc	a0,0x1e
    3014:	d8c52503          	lw	a0,-628(a0) # 20d9c <pxCurrentTCB>
    3018:	00008067          	ret

0000301c <xTaskPriorityInherit>:
    301c:	0c050663          	beqz	a0,30e8 <xTaskPriorityInherit+0xcc>
    3020:	fe010113          	addi	sp,sp,-32
    3024:	00912a23          	sw	s1,20(sp)
    3028:	0001e497          	auipc	s1,0x1e
    302c:	d7448493          	addi	s1,s1,-652 # 20d9c <pxCurrentTCB>
    3030:	0004a783          	lw	a5,0(s1)
    3034:	02c52703          	lw	a4,44(a0)
    3038:	00812c23          	sw	s0,24(sp)
    303c:	02c7a783          	lw	a5,44(a5)
    3040:	00112e23          	sw	ra,28(sp)
    3044:	01212823          	sw	s2,16(sp)
    3048:	01312623          	sw	s3,12(sp)
    304c:	00050413          	mv	s0,a0
    3050:	06f77663          	bgeu	a4,a5,30bc <xTaskPriorityInherit+0xa0>
    3054:	01852783          	lw	a5,24(a0)
    3058:	0007cc63          	bltz	a5,3070 <xTaskPriorityInherit+0x54>
    305c:	0004a783          	lw	a5,0(s1)
    3060:	02c7a683          	lw	a3,44(a5)
    3064:	01000793          	li	a5,16
    3068:	40d787b3          	sub	a5,a5,a3
    306c:	00f52c23          	sw	a5,24(a0)
    3070:	00271793          	slli	a5,a4,0x2
    3074:	00e787b3          	add	a5,a5,a4
    3078:	01442703          	lw	a4,20(s0)
    307c:	0001e917          	auipc	s2,0x1e
    3080:	dc890913          	addi	s2,s2,-568 # 20e44 <pxReadyTasksLists>
    3084:	00279793          	slli	a5,a5,0x2
    3088:	00f907b3          	add	a5,s2,a5
    308c:	06f70263          	beq	a4,a5,30f0 <xTaskPriorityInherit+0xd4>
    3090:	0004a783          	lw	a5,0(s1)
    3094:	01c12083          	lw	ra,28(sp)
    3098:	01412483          	lw	s1,20(sp)
    309c:	02c7a783          	lw	a5,44(a5)
    30a0:	01012903          	lw	s2,16(sp)
    30a4:	00c12983          	lw	s3,12(sp)
    30a8:	02f42623          	sw	a5,44(s0)
    30ac:	01812403          	lw	s0,24(sp)
    30b0:	00100513          	li	a0,1
    30b4:	02010113          	addi	sp,sp,32
    30b8:	00008067          	ret
    30bc:	0004a783          	lw	a5,0(s1)
    30c0:	04052503          	lw	a0,64(a0)
    30c4:	02c7a783          	lw	a5,44(a5)
    30c8:	00f53533          	sltu	a0,a0,a5
    30cc:	01c12083          	lw	ra,28(sp)
    30d0:	01812403          	lw	s0,24(sp)
    30d4:	01412483          	lw	s1,20(sp)
    30d8:	01012903          	lw	s2,16(sp)
    30dc:	00c12983          	lw	s3,12(sp)
    30e0:	02010113          	addi	sp,sp,32
    30e4:	00008067          	ret
    30e8:	00000513          	li	a0,0
    30ec:	00008067          	ret
    30f0:	00440993          	addi	s3,s0,4
    30f4:	00098513          	mv	a0,s3
    30f8:	10c020ef          	jal	ra,5204 <uxListRemove>
    30fc:	0001e817          	auipc	a6,0x1e
    3100:	c8480813          	addi	a6,a6,-892 # 20d80 <uxTopReadyPriority>
    3104:	02051063          	bnez	a0,3124 <xTaskPriorityInherit+0x108>
    3108:	02c42683          	lw	a3,44(s0)
    310c:	00082703          	lw	a4,0(a6)
    3110:	00100793          	li	a5,1
    3114:	00d797b3          	sll	a5,a5,a3
    3118:	fff7c793          	not	a5,a5
    311c:	00e7f7b3          	and	a5,a5,a4
    3120:	00f82023          	sw	a5,0(a6)
    3124:	0004a783          	lw	a5,0(s1)
    3128:	0001e717          	auipc	a4,0x1e
    312c:	d0870713          	addi	a4,a4,-760 # 20e30 <xSuspendedTaskList>
    3130:	00082883          	lw	a7,0(a6)
    3134:	02c7a583          	lw	a1,44(a5)
    3138:	00100693          	li	a3,1
    313c:	00100513          	li	a0,1
    3140:	00259793          	slli	a5,a1,0x2
    3144:	00b787b3          	add	a5,a5,a1
    3148:	00279793          	slli	a5,a5,0x2
    314c:	00f70733          	add	a4,a4,a5
    3150:	01872603          	lw	a2,24(a4)
    3154:	00b696b3          	sll	a3,a3,a1
    3158:	0116e6b3          	or	a3,a3,a7
    315c:	00862883          	lw	a7,8(a2)
    3160:	02b42623          	sw	a1,44(s0)
    3164:	00d82023          	sw	a3,0(a6)
    3168:	01142623          	sw	a7,12(s0)
    316c:	00862583          	lw	a1,8(a2)
    3170:	01472683          	lw	a3,20(a4)
    3174:	00c42423          	sw	a2,8(s0)
    3178:	0135a223          	sw	s3,4(a1)
    317c:	01362423          	sw	s3,8(a2)
    3180:	00f90933          	add	s2,s2,a5
    3184:	01242a23          	sw	s2,20(s0)
    3188:	00168793          	addi	a5,a3,1
    318c:	00f72a23          	sw	a5,20(a4)
    3190:	f3dff06f          	j	30cc <xTaskPriorityInherit+0xb0>

00003194 <xTaskPriorityDisinherit>:
    3194:	04050663          	beqz	a0,31e0 <xTaskPriorityDisinherit+0x4c>
    3198:	04452783          	lw	a5,68(a0)
    319c:	ff010113          	addi	sp,sp,-16
    31a0:	02c52683          	lw	a3,44(a0)
    31a4:	04052703          	lw	a4,64(a0)
    31a8:	00812423          	sw	s0,8(sp)
    31ac:	00112623          	sw	ra,12(sp)
    31b0:	00912223          	sw	s1,4(sp)
    31b4:	fff78793          	addi	a5,a5,-1
    31b8:	04f52223          	sw	a5,68(a0)
    31bc:	00050413          	mv	s0,a0
    31c0:	00e68463          	beq	a3,a4,31c8 <xTaskPriorityDisinherit+0x34>
    31c4:	02078263          	beqz	a5,31e8 <xTaskPriorityDisinherit+0x54>
    31c8:	00c12083          	lw	ra,12(sp)
    31cc:	00812403          	lw	s0,8(sp)
    31d0:	00412483          	lw	s1,4(sp)
    31d4:	00000513          	li	a0,0
    31d8:	01010113          	addi	sp,sp,16
    31dc:	00008067          	ret
    31e0:	00000513          	li	a0,0
    31e4:	00008067          	ret
    31e8:	00450493          	addi	s1,a0,4
    31ec:	00048513          	mv	a0,s1
    31f0:	014020ef          	jal	ra,5204 <uxListRemove>
    31f4:	0001e817          	auipc	a6,0x1e
    31f8:	b8c80813          	addi	a6,a6,-1140 # 20d80 <uxTopReadyPriority>
    31fc:	02051063          	bnez	a0,321c <xTaskPriorityDisinherit+0x88>
    3200:	02c42683          	lw	a3,44(s0)
    3204:	00082703          	lw	a4,0(a6)
    3208:	00100793          	li	a5,1
    320c:	00d797b3          	sll	a5,a5,a3
    3210:	fff7c793          	not	a5,a5
    3214:	00e7f7b3          	and	a5,a5,a4
    3218:	00f82023          	sw	a5,0(a6)
    321c:	04042683          	lw	a3,64(s0)
    3220:	0001e717          	auipc	a4,0x1e
    3224:	c1070713          	addi	a4,a4,-1008 # 20e30 <xSuspendedTaskList>
    3228:	00082883          	lw	a7,0(a6)
    322c:	00269793          	slli	a5,a3,0x2
    3230:	00d787b3          	add	a5,a5,a3
    3234:	00279793          	slli	a5,a5,0x2
    3238:	00f70733          	add	a4,a4,a5
    323c:	01872583          	lw	a1,24(a4)
    3240:	00100613          	li	a2,1
    3244:	00d61633          	sll	a2,a2,a3
    3248:	0085a503          	lw	a0,8(a1)
    324c:	01166633          	or	a2,a2,a7
    3250:	00c82023          	sw	a2,0(a6)
    3254:	00a42623          	sw	a0,12(s0)
    3258:	0085a503          	lw	a0,8(a1)
    325c:	01000613          	li	a2,16
    3260:	40d60633          	sub	a2,a2,a3
    3264:	02d42623          	sw	a3,44(s0)
    3268:	00c42c23          	sw	a2,24(s0)
    326c:	00b42423          	sw	a1,8(s0)
    3270:	01472683          	lw	a3,20(a4)
    3274:	0001e617          	auipc	a2,0x1e
    3278:	bd060613          	addi	a2,a2,-1072 # 20e44 <pxReadyTasksLists>
    327c:	00952223          	sw	s1,4(a0)
    3280:	0095a423          	sw	s1,8(a1)
    3284:	00f607b3          	add	a5,a2,a5
    3288:	00f42a23          	sw	a5,20(s0)
    328c:	00c12083          	lw	ra,12(sp)
    3290:	00812403          	lw	s0,8(sp)
    3294:	00168793          	addi	a5,a3,1
    3298:	00f72a23          	sw	a5,20(a4)
    329c:	00412483          	lw	s1,4(sp)
    32a0:	00100513          	li	a0,1
    32a4:	01010113          	addi	sp,sp,16
    32a8:	00008067          	ret

000032ac <vTaskPriorityDisinheritAfterTimeout>:
    32ac:	06050063          	beqz	a0,330c <vTaskPriorityDisinheritAfterTimeout+0x60>
    32b0:	04052783          	lw	a5,64(a0)
    32b4:	ff010113          	addi	sp,sp,-16
    32b8:	00812423          	sw	s0,8(sp)
    32bc:	00112623          	sw	ra,12(sp)
    32c0:	00912223          	sw	s1,4(sp)
    32c4:	01212023          	sw	s2,0(sp)
    32c8:	00050413          	mv	s0,a0
    32cc:	02b7e863          	bltu	a5,a1,32fc <vTaskPriorityDisinheritAfterTimeout+0x50>
    32d0:	02c42703          	lw	a4,44(s0)
    32d4:	00f70863          	beq	a4,a5,32e4 <vTaskPriorityDisinheritAfterTimeout+0x38>
    32d8:	04442603          	lw	a2,68(s0)
    32dc:	00100693          	li	a3,1
    32e0:	02d60863          	beq	a2,a3,3310 <vTaskPriorityDisinheritAfterTimeout+0x64>
    32e4:	00c12083          	lw	ra,12(sp)
    32e8:	00812403          	lw	s0,8(sp)
    32ec:	00412483          	lw	s1,4(sp)
    32f0:	00012903          	lw	s2,0(sp)
    32f4:	01010113          	addi	sp,sp,16
    32f8:	00008067          	ret
    32fc:	02c42703          	lw	a4,44(s0)
    3300:	00058793          	mv	a5,a1
    3304:	fcf71ae3          	bne	a4,a5,32d8 <vTaskPriorityDisinheritAfterTimeout+0x2c>
    3308:	fddff06f          	j	32e4 <vTaskPriorityDisinheritAfterTimeout+0x38>
    330c:	00008067          	ret
    3310:	01842683          	lw	a3,24(s0)
    3314:	02f42623          	sw	a5,44(s0)
    3318:	0006c863          	bltz	a3,3328 <vTaskPriorityDisinheritAfterTimeout+0x7c>
    331c:	01000693          	li	a3,16
    3320:	40f687b3          	sub	a5,a3,a5
    3324:	00f42c23          	sw	a5,24(s0)
    3328:	00271793          	slli	a5,a4,0x2
    332c:	00e78733          	add	a4,a5,a4
    3330:	01442783          	lw	a5,20(s0)
    3334:	0001e497          	auipc	s1,0x1e
    3338:	b1048493          	addi	s1,s1,-1264 # 20e44 <pxReadyTasksLists>
    333c:	00271713          	slli	a4,a4,0x2
    3340:	00e48733          	add	a4,s1,a4
    3344:	fae790e3          	bne	a5,a4,32e4 <vTaskPriorityDisinheritAfterTimeout+0x38>
    3348:	00440913          	addi	s2,s0,4
    334c:	00090513          	mv	a0,s2
    3350:	6b5010ef          	jal	ra,5204 <uxListRemove>
    3354:	02c42703          	lw	a4,44(s0)
    3358:	06050663          	beqz	a0,33c4 <vTaskPriorityDisinheritAfterTimeout+0x118>
    335c:	00100613          	li	a2,1
    3360:	0001e517          	auipc	a0,0x1e
    3364:	a2050513          	addi	a0,a0,-1504 # 20d80 <uxTopReadyPriority>
    3368:	00e61633          	sll	a2,a2,a4
    336c:	00271793          	slli	a5,a4,0x2
    3370:	00e787b3          	add	a5,a5,a4
    3374:	00279793          	slli	a5,a5,0x2
    3378:	0001e717          	auipc	a4,0x1e
    337c:	ab870713          	addi	a4,a4,-1352 # 20e30 <xSuspendedTaskList>
    3380:	00f70733          	add	a4,a4,a5
    3384:	01872683          	lw	a3,24(a4)
    3388:	00052583          	lw	a1,0(a0)
    338c:	00f484b3          	add	s1,s1,a5
    3390:	0086a783          	lw	a5,8(a3)
    3394:	00c5e633          	or	a2,a1,a2
    3398:	00c52023          	sw	a2,0(a0)
    339c:	00f42623          	sw	a5,12(s0)
    33a0:	0086a603          	lw	a2,8(a3)
    33a4:	01472783          	lw	a5,20(a4)
    33a8:	00d42423          	sw	a3,8(s0)
    33ac:	01262223          	sw	s2,4(a2)
    33b0:	0126a423          	sw	s2,8(a3)
    33b4:	00942a23          	sw	s1,20(s0)
    33b8:	00178793          	addi	a5,a5,1
    33bc:	00f72a23          	sw	a5,20(a4)
    33c0:	f25ff06f          	j	32e4 <vTaskPriorityDisinheritAfterTimeout+0x38>
    33c4:	0001e517          	auipc	a0,0x1e
    33c8:	9bc50513          	addi	a0,a0,-1604 # 20d80 <uxTopReadyPriority>
    33cc:	00052683          	lw	a3,0(a0)
    33d0:	00100613          	li	a2,1
    33d4:	00e61633          	sll	a2,a2,a4
    33d8:	fff64793          	not	a5,a2
    33dc:	00d7f7b3          	and	a5,a5,a3
    33e0:	00f52023          	sw	a5,0(a0)
    33e4:	f89ff06f          	j	336c <vTaskPriorityDisinheritAfterTimeout+0xc0>

000033e8 <vTaskEnterCritical>:
    33e8:	30047073          	csrci	mstatus,8
    33ec:	0001e797          	auipc	a5,0x1e
    33f0:	9907a783          	lw	a5,-1648(a5) # 20d7c <xSchedulerRunning>
    33f4:	02078063          	beqz	a5,3414 <vTaskEnterCritical+0x2c>
    33f8:	0001e797          	auipc	a5,0x1e
    33fc:	9a478793          	addi	a5,a5,-1628 # 20d9c <pxCurrentTCB>
    3400:	0007a703          	lw	a4,0(a5)
    3404:	0007a783          	lw	a5,0(a5)
    3408:	03c72783          	lw	a5,60(a4)
    340c:	00178793          	addi	a5,a5,1
    3410:	02f72e23          	sw	a5,60(a4)
    3414:	00008067          	ret

00003418 <vTaskExitCritical>:
    3418:	0001e797          	auipc	a5,0x1e
    341c:	9647a783          	lw	a5,-1692(a5) # 20d7c <xSchedulerRunning>
    3420:	02078c63          	beqz	a5,3458 <vTaskExitCritical+0x40>
    3424:	0001e797          	auipc	a5,0x1e
    3428:	97878793          	addi	a5,a5,-1672 # 20d9c <pxCurrentTCB>
    342c:	0007a703          	lw	a4,0(a5)
    3430:	03c72703          	lw	a4,60(a4)
    3434:	02070263          	beqz	a4,3458 <vTaskExitCritical+0x40>
    3438:	0007a703          	lw	a4,0(a5)
    343c:	0007a683          	lw	a3,0(a5)
    3440:	03c72783          	lw	a5,60(a4)
    3444:	fff78793          	addi	a5,a5,-1
    3448:	02f72e23          	sw	a5,60(a4)
    344c:	03c6a783          	lw	a5,60(a3)
    3450:	00079463          	bnez	a5,3458 <vTaskExitCritical+0x40>
    3454:	30046073          	csrsi	mstatus,8
    3458:	00008067          	ret

0000345c <prvAddNewTaskToReadyList>:
    345c:	fe010113          	addi	sp,sp,-32
    3460:	00812c23          	sw	s0,24(sp)
    3464:	00112e23          	sw	ra,28(sp)
    3468:	00912a23          	sw	s1,20(sp)
    346c:	01212823          	sw	s2,16(sp)
    3470:	01312623          	sw	s3,12(sp)
    3474:	01412423          	sw	s4,8(sp)
    3478:	01512223          	sw	s5,4(sp)
    347c:	00050413          	mv	s0,a0
    3480:	30047073          	csrci	mstatus,8
    3484:	0001e917          	auipc	s2,0x1e
    3488:	8f890913          	addi	s2,s2,-1800 # 20d7c <xSchedulerRunning>
    348c:	00092783          	lw	a5,0(s2)
    3490:	0001e997          	auipc	s3,0x1e
    3494:	90c98993          	addi	s3,s3,-1780 # 20d9c <pxCurrentTCB>
    3498:	00078c63          	beqz	a5,34b0 <prvAddNewTaskToReadyList+0x54>
    349c:	0009a703          	lw	a4,0(s3)
    34a0:	0009a783          	lw	a5,0(s3)
    34a4:	03c72783          	lw	a5,60(a4)
    34a8:	00178793          	addi	a5,a5,1
    34ac:	02f72e23          	sw	a5,60(a4)
    34b0:	0001e717          	auipc	a4,0x1e
    34b4:	8d870713          	addi	a4,a4,-1832 # 20d88 <uxCurrentNumberOfTasks>
    34b8:	00072783          	lw	a5,0(a4)
    34bc:	00178793          	addi	a5,a5,1
    34c0:	00f72023          	sw	a5,0(a4)
    34c4:	0009a783          	lw	a5,0(s3)
    34c8:	0e078663          	beqz	a5,35b4 <prvAddNewTaskToReadyList+0x158>
    34cc:	00092783          	lw	a5,0(s2)
    34d0:	02c42583          	lw	a1,44(s0)
    34d4:	0001e497          	auipc	s1,0x1e
    34d8:	97048493          	addi	s1,s1,-1680 # 20e44 <pxReadyTasksLists>
    34dc:	0c078263          	beqz	a5,35a0 <prvAddNewTaskToReadyList+0x144>
    34e0:	00259793          	slli	a5,a1,0x2
    34e4:	00b787b3          	add	a5,a5,a1
    34e8:	00279793          	slli	a5,a5,0x2
    34ec:	0001e717          	auipc	a4,0x1e
    34f0:	94470713          	addi	a4,a4,-1724 # 20e30 <xSuspendedTaskList>
    34f4:	00f70733          	add	a4,a4,a5
    34f8:	01872603          	lw	a2,24(a4)
    34fc:	0001e517          	auipc	a0,0x1e
    3500:	88450513          	addi	a0,a0,-1916 # 20d80 <uxTopReadyPriority>
    3504:	00052803          	lw	a6,0(a0)
    3508:	00862883          	lw	a7,8(a2)
    350c:	00100693          	li	a3,1
    3510:	00b696b3          	sll	a3,a3,a1
    3514:	01142623          	sw	a7,12(s0)
    3518:	00862883          	lw	a7,8(a2)
    351c:	0106e6b3          	or	a3,a3,a6
    3520:	00d52023          	sw	a3,0(a0)
    3524:	01472683          	lw	a3,20(a4)
    3528:	00c42423          	sw	a2,8(s0)
    352c:	0001e517          	auipc	a0,0x1e
    3530:	84050513          	addi	a0,a0,-1984 # 20d6c <uxTaskNumber>
    3534:	00440813          	addi	a6,s0,4
    3538:	0108a223          	sw	a6,4(a7)
    353c:	00052583          	lw	a1,0(a0)
    3540:	01062423          	sw	a6,8(a2)
    3544:	00f487b3          	add	a5,s1,a5
    3548:	00f42a23          	sw	a5,20(s0)
    354c:	00168793          	addi	a5,a3,1
    3550:	00158613          	addi	a2,a1,1
    3554:	00f72a23          	sw	a5,20(a4)
    3558:	00c52023          	sw	a2,0(a0)
    355c:	ebdff0ef          	jal	ra,3418 <vTaskExitCritical>
    3560:	00092783          	lw	a5,0(s2)
    3564:	00078c63          	beqz	a5,357c <prvAddNewTaskToReadyList+0x120>
    3568:	0009a703          	lw	a4,0(s3)
    356c:	02c42783          	lw	a5,44(s0)
    3570:	02c72703          	lw	a4,44(a4)
    3574:	00f77463          	bgeu	a4,a5,357c <prvAddNewTaskToReadyList+0x120>
    3578:	00000073          	ecall
    357c:	01c12083          	lw	ra,28(sp)
    3580:	01812403          	lw	s0,24(sp)
    3584:	01412483          	lw	s1,20(sp)
    3588:	01012903          	lw	s2,16(sp)
    358c:	00c12983          	lw	s3,12(sp)
    3590:	00812a03          	lw	s4,8(sp)
    3594:	00412a83          	lw	s5,4(sp)
    3598:	02010113          	addi	sp,sp,32
    359c:	00008067          	ret
    35a0:	0009a783          	lw	a5,0(s3)
    35a4:	02c7a783          	lw	a5,44(a5)
    35a8:	f2f5ece3          	bltu	a1,a5,34e0 <prvAddNewTaskToReadyList+0x84>
    35ac:	0089a023          	sw	s0,0(s3)
    35b0:	f31ff06f          	j	34e0 <prvAddNewTaskToReadyList+0x84>
    35b4:	0089a023          	sw	s0,0(s3)
    35b8:	00072703          	lw	a4,0(a4)
    35bc:	00100793          	li	a5,1
    35c0:	00f70a63          	beq	a4,a5,35d4 <prvAddNewTaskToReadyList+0x178>
    35c4:	02c42583          	lw	a1,44(s0)
    35c8:	0001e497          	auipc	s1,0x1e
    35cc:	87c48493          	addi	s1,s1,-1924 # 20e44 <pxReadyTasksLists>
    35d0:	f11ff06f          	j	34e0 <prvAddNewTaskToReadyList+0x84>
    35d4:	0001e497          	auipc	s1,0x1e
    35d8:	87048493          	addi	s1,s1,-1936 # 20e44 <pxReadyTasksLists>
    35dc:	00048a13          	mv	s4,s1
    35e0:	0001ea97          	auipc	s5,0x1e
    35e4:	9a4a8a93          	addi	s5,s5,-1628 # 20f84 <xTasksWaitingTermination>
    35e8:	000a0513          	mv	a0,s4
    35ec:	014a0a13          	addi	s4,s4,20
    35f0:	36d010ef          	jal	ra,515c <vListInitialise>
    35f4:	ff4a9ae3          	bne	s5,s4,35e8 <prvAddNewTaskToReadyList+0x18c>
    35f8:	0001ea97          	auipc	s5,0x1e
    35fc:	9b4a8a93          	addi	s5,s5,-1612 # 20fac <xDelayedTaskList1>
    3600:	000a8513          	mv	a0,s5
    3604:	359010ef          	jal	ra,515c <vListInitialise>
    3608:	0001ea17          	auipc	s4,0x1e
    360c:	9b8a0a13          	addi	s4,s4,-1608 # 20fc0 <xDelayedTaskList2>
    3610:	000a0513          	mv	a0,s4
    3614:	349010ef          	jal	ra,515c <vListInitialise>
    3618:	0001e517          	auipc	a0,0x1e
    361c:	98050513          	addi	a0,a0,-1664 # 20f98 <xPendingReadyList>
    3620:	33d010ef          	jal	ra,515c <vListInitialise>
    3624:	0001e517          	auipc	a0,0x1e
    3628:	96050513          	addi	a0,a0,-1696 # 20f84 <xTasksWaitingTermination>
    362c:	331010ef          	jal	ra,515c <vListInitialise>
    3630:	0001e517          	auipc	a0,0x1e
    3634:	80050513          	addi	a0,a0,-2048 # 20e30 <xSuspendedTaskList>
    3638:	325010ef          	jal	ra,515c <vListInitialise>
    363c:	0001d797          	auipc	a5,0x1d
    3640:	7557ae23          	sw	s5,1884(a5) # 20d98 <pxDelayedTaskList>
    3644:	02c42583          	lw	a1,44(s0)
    3648:	0001d797          	auipc	a5,0x1d
    364c:	7547a623          	sw	s4,1868(a5) # 20d94 <pxOverflowDelayedTaskList>
    3650:	e91ff06f          	j	34e0 <prvAddNewTaskToReadyList+0x84>

00003654 <xTaskCreateStatic>:
    3654:	04080a63          	beqz	a6,36a8 <xTaskCreateStatic+0x54>
    3658:	00078893          	mv	a7,a5
    365c:	00000793          	li	a5,0
    3660:	04088663          	beqz	a7,36ac <xTaskCreateStatic+0x58>
    3664:	fe010113          	addi	sp,sp,-32
    3668:	03182823          	sw	a7,48(a6)
    366c:	00200893          	li	a7,2
    3670:	00c10793          	addi	a5,sp,12
    3674:	051808a3          	sb	a7,81(a6)
    3678:	00112e23          	sw	ra,28(sp)
    367c:	00812c23          	sw	s0,24(sp)
    3680:	00080413          	mv	s0,a6
    3684:	ccdfe0ef          	jal	ra,2350 <prvInitialiseNewTask.constprop.0>
    3688:	00040513          	mv	a0,s0
    368c:	dd1ff0ef          	jal	ra,345c <prvAddNewTaskToReadyList>
    3690:	00c12783          	lw	a5,12(sp)
    3694:	01c12083          	lw	ra,28(sp)
    3698:	01812403          	lw	s0,24(sp)
    369c:	00078513          	mv	a0,a5
    36a0:	02010113          	addi	sp,sp,32
    36a4:	00008067          	ret
    36a8:	00000793          	li	a5,0
    36ac:	00078513          	mv	a0,a5
    36b0:	00008067          	ret

000036b4 <xTaskCreate>:
    36b4:	fd010113          	addi	sp,sp,-48
    36b8:	01312e23          	sw	s3,28(sp)
    36bc:	00050993          	mv	s3,a0
    36c0:	00261513          	slli	a0,a2,0x2
    36c4:	02912223          	sw	s1,36(sp)
    36c8:	01412c23          	sw	s4,24(sp)
    36cc:	01512a23          	sw	s5,20(sp)
    36d0:	01612823          	sw	s6,16(sp)
    36d4:	01712623          	sw	s7,12(sp)
    36d8:	02112623          	sw	ra,44(sp)
    36dc:	02812423          	sw	s0,40(sp)
    36e0:	03212023          	sw	s2,32(sp)
    36e4:	00060493          	mv	s1,a2
    36e8:	00058a13          	mv	s4,a1
    36ec:	00068a93          	mv	s5,a3
    36f0:	00070b13          	mv	s6,a4
    36f4:	00078b93          	mv	s7,a5
    36f8:	530010ef          	jal	ra,4c28 <pvPortMalloc>
    36fc:	06050c63          	beqz	a0,3774 <xTaskCreate+0xc0>
    3700:	00050413          	mv	s0,a0
    3704:	05800513          	li	a0,88
    3708:	520010ef          	jal	ra,4c28 <pvPortMalloc>
    370c:	00050913          	mv	s2,a0
    3710:	06050663          	beqz	a0,377c <xTaskCreate+0xc8>
    3714:	00050813          	mv	a6,a0
    3718:	000b8793          	mv	a5,s7
    371c:	000b0713          	mv	a4,s6
    3720:	000a8693          	mv	a3,s5
    3724:	00048613          	mv	a2,s1
    3728:	000a0593          	mv	a1,s4
    372c:	02852823          	sw	s0,48(a0)
    3730:	040508a3          	sb	zero,81(a0)
    3734:	00098513          	mv	a0,s3
    3738:	c19fe0ef          	jal	ra,2350 <prvInitialiseNewTask.constprop.0>
    373c:	00090513          	mv	a0,s2
    3740:	d1dff0ef          	jal	ra,345c <prvAddNewTaskToReadyList>
    3744:	00100513          	li	a0,1
    3748:	02c12083          	lw	ra,44(sp)
    374c:	02812403          	lw	s0,40(sp)
    3750:	02412483          	lw	s1,36(sp)
    3754:	02012903          	lw	s2,32(sp)
    3758:	01c12983          	lw	s3,28(sp)
    375c:	01812a03          	lw	s4,24(sp)
    3760:	01412a83          	lw	s5,20(sp)
    3764:	01012b03          	lw	s6,16(sp)
    3768:	00c12b83          	lw	s7,12(sp)
    376c:	03010113          	addi	sp,sp,48
    3770:	00008067          	ret
    3774:	fff00513          	li	a0,-1
    3778:	fd1ff06f          	j	3748 <xTaskCreate+0x94>
    377c:	00040513          	mv	a0,s0
    3780:	4ec010ef          	jal	ra,4c6c <vPortFree>
    3784:	fff00513          	li	a0,-1
    3788:	fc1ff06f          	j	3748 <xTaskCreate+0x94>

0000378c <vTaskStartScheduler>:
    378c:	fe010113          	addi	sp,sp,-32
    3790:	00810613          	addi	a2,sp,8
    3794:	00410593          	addi	a1,sp,4
    3798:	00010513          	mv	a0,sp
    379c:	00812c23          	sw	s0,24(sp)
    37a0:	00112e23          	sw	ra,28(sp)
    37a4:	00012023          	sw	zero,0(sp)
    37a8:	00012223          	sw	zero,4(sp)
    37ac:	18d010ef          	jal	ra,5138 <vApplicationGetIdleTaskMemory>
    37b0:	00012403          	lw	s0,0(sp)
    37b4:	06040c63          	beqz	s0,382c <vTaskStartScheduler+0xa0>
    37b8:	00412503          	lw	a0,4(sp)
    37bc:	06050863          	beqz	a0,382c <vTaskStartScheduler+0xa0>
    37c0:	00812603          	lw	a2,8(sp)
    37c4:	02a42823          	sw	a0,48(s0)
    37c8:	00200513          	li	a0,2
    37cc:	00c10793          	addi	a5,sp,12
    37d0:	00040813          	mv	a6,s0
    37d4:	00000713          	li	a4,0
    37d8:	00000693          	li	a3,0
    37dc:	0001d597          	auipc	a1,0x1d
    37e0:	bc458593          	addi	a1,a1,-1084 # 203a0 <pow10.0+0x50>
    37e4:	04a408a3          	sb	a0,81(s0)
    37e8:	fffff517          	auipc	a0,0xfffff
    37ec:	c9850513          	addi	a0,a0,-872 # 2480 <prvIdleTask>
    37f0:	b61fe0ef          	jal	ra,2350 <prvInitialiseNewTask.constprop.0>
    37f4:	00040513          	mv	a0,s0
    37f8:	c65ff0ef          	jal	ra,345c <prvAddNewTaskToReadyList>
    37fc:	00c12783          	lw	a5,12(sp)
    3800:	02078663          	beqz	a5,382c <vTaskStartScheduler+0xa0>
    3804:	30047073          	csrci	mstatus,8
    3808:	fff00793          	li	a5,-1
    380c:	0001d717          	auipc	a4,0x1d
    3810:	54f72e23          	sw	a5,1372(a4) # 20d68 <xNextTaskUnblockTime>
    3814:	00100793          	li	a5,1
    3818:	0001d717          	auipc	a4,0x1d
    381c:	56f72223          	sw	a5,1380(a4) # 20d7c <xSchedulerRunning>
    3820:	0001d797          	auipc	a5,0x1d
    3824:	5607a223          	sw	zero,1380(a5) # 20d84 <xTickCount>
    3828:	0e1010ef          	jal	ra,5108 <xPortStartScheduler>
    382c:	01c12083          	lw	ra,28(sp)
    3830:	01812403          	lw	s0,24(sp)
    3834:	0001d797          	auipc	a5,0x1d
    3838:	8947a783          	lw	a5,-1900(a5) # 200c8 <uxTopUsedPriority>
    383c:	02010113          	addi	sp,sp,32
    3840:	00008067          	ret

00003844 <vTaskDelete>:
    3844:	fe010113          	addi	sp,sp,-32
    3848:	00812c23          	sw	s0,24(sp)
    384c:	00112e23          	sw	ra,28(sp)
    3850:	00912a23          	sw	s1,20(sp)
    3854:	01212823          	sw	s2,16(sp)
    3858:	01312623          	sw	s3,12(sp)
    385c:	00050413          	mv	s0,a0
    3860:	30047073          	csrci	mstatus,8
    3864:	0001d917          	auipc	s2,0x1d
    3868:	51890913          	addi	s2,s2,1304 # 20d7c <xSchedulerRunning>
    386c:	00092783          	lw	a5,0(s2)
    3870:	0001d497          	auipc	s1,0x1d
    3874:	52c48493          	addi	s1,s1,1324 # 20d9c <pxCurrentTCB>
    3878:	00078c63          	beqz	a5,3890 <vTaskDelete+0x4c>
    387c:	0004a703          	lw	a4,0(s1)
    3880:	0004a783          	lw	a5,0(s1)
    3884:	03c72783          	lw	a5,60(a4)
    3888:	00178793          	addi	a5,a5,1
    388c:	02f72e23          	sw	a5,60(a4)
    3890:	16040063          	beqz	s0,39f0 <vTaskDelete+0x1ac>
    3894:	00440993          	addi	s3,s0,4
    3898:	00098513          	mv	a0,s3
    389c:	169010ef          	jal	ra,5204 <uxListRemove>
    38a0:	02051463          	bnez	a0,38c8 <vTaskDelete+0x84>
    38a4:	02c42683          	lw	a3,44(s0)
    38a8:	0001d717          	auipc	a4,0x1d
    38ac:	58870713          	addi	a4,a4,1416 # 20e30 <xSuspendedTaskList>
    38b0:	00269793          	slli	a5,a3,0x2
    38b4:	00d787b3          	add	a5,a5,a3
    38b8:	00279793          	slli	a5,a5,0x2
    38bc:	00f707b3          	add	a5,a4,a5
    38c0:	0147a783          	lw	a5,20(a5)
    38c4:	0a078263          	beqz	a5,3968 <vTaskDelete+0x124>
    38c8:	02842783          	lw	a5,40(s0)
    38cc:	00078663          	beqz	a5,38d8 <vTaskDelete+0x94>
    38d0:	01840513          	addi	a0,s0,24
    38d4:	131010ef          	jal	ra,5204 <uxListRemove>
    38d8:	0001d717          	auipc	a4,0x1d
    38dc:	49470713          	addi	a4,a4,1172 # 20d6c <uxTaskNumber>
    38e0:	00072783          	lw	a5,0(a4)
    38e4:	0004a683          	lw	a3,0(s1)
    38e8:	00178793          	addi	a5,a5,1
    38ec:	00f72023          	sw	a5,0(a4)
    38f0:	0c868c63          	beq	a3,s0,39c8 <vTaskDelete+0x184>
    38f4:	0001d717          	auipc	a4,0x1d
    38f8:	49470713          	addi	a4,a4,1172 # 20d88 <uxCurrentNumberOfTasks>
    38fc:	00072783          	lw	a5,0(a4)
    3900:	05144683          	lbu	a3,81(s0)
    3904:	fff78793          	addi	a5,a5,-1
    3908:	00f72023          	sw	a5,0(a4)
    390c:	08068063          	beqz	a3,398c <vTaskDelete+0x148>
    3910:	00100793          	li	a5,1
    3914:	10f68263          	beq	a3,a5,3a18 <vTaskDelete+0x1d4>
    3918:	0001d797          	auipc	a5,0x1d
    391c:	48078793          	addi	a5,a5,1152 # 20d98 <pxDelayedTaskList>
    3920:	0007a703          	lw	a4,0(a5)
    3924:	00072703          	lw	a4,0(a4)
    3928:	08071463          	bnez	a4,39b0 <vTaskDelete+0x16c>
    392c:	fff00793          	li	a5,-1
    3930:	0001d717          	auipc	a4,0x1d
    3934:	42f72c23          	sw	a5,1080(a4) # 20d68 <xNextTaskUnblockTime>
    3938:	ae1ff0ef          	jal	ra,3418 <vTaskExitCritical>
    393c:	00092783          	lw	a5,0(s2)
    3940:	00078663          	beqz	a5,394c <vTaskDelete+0x108>
    3944:	0004a783          	lw	a5,0(s1)
    3948:	0a878863          	beq	a5,s0,39f8 <vTaskDelete+0x1b4>
    394c:	01c12083          	lw	ra,28(sp)
    3950:	01812403          	lw	s0,24(sp)
    3954:	01412483          	lw	s1,20(sp)
    3958:	01012903          	lw	s2,16(sp)
    395c:	00c12983          	lw	s3,12(sp)
    3960:	02010113          	addi	sp,sp,32
    3964:	00008067          	ret
    3968:	0001d717          	auipc	a4,0x1d
    396c:	41870713          	addi	a4,a4,1048 # 20d80 <uxTopReadyPriority>
    3970:	00072603          	lw	a2,0(a4)
    3974:	00100793          	li	a5,1
    3978:	00d797b3          	sll	a5,a5,a3
    397c:	fff7c793          	not	a5,a5
    3980:	00c7f7b3          	and	a5,a5,a2
    3984:	00f72023          	sw	a5,0(a4)
    3988:	f41ff06f          	j	38c8 <vTaskDelete+0x84>
    398c:	03042503          	lw	a0,48(s0)
    3990:	2dc010ef          	jal	ra,4c6c <vPortFree>
    3994:	00040513          	mv	a0,s0
    3998:	2d4010ef          	jal	ra,4c6c <vPortFree>
    399c:	0001d797          	auipc	a5,0x1d
    39a0:	3fc78793          	addi	a5,a5,1020 # 20d98 <pxDelayedTaskList>
    39a4:	0007a703          	lw	a4,0(a5)
    39a8:	00072703          	lw	a4,0(a4)
    39ac:	f80700e3          	beqz	a4,392c <vTaskDelete+0xe8>
    39b0:	0007a783          	lw	a5,0(a5)
    39b4:	00c7a783          	lw	a5,12(a5)
    39b8:	0007a783          	lw	a5,0(a5)
    39bc:	0001d717          	auipc	a4,0x1d
    39c0:	3af72623          	sw	a5,940(a4) # 20d68 <xNextTaskUnblockTime>
    39c4:	f75ff06f          	j	3938 <vTaskDelete+0xf4>
    39c8:	00098593          	mv	a1,s3
    39cc:	0001d517          	auipc	a0,0x1d
    39d0:	5b850513          	addi	a0,a0,1464 # 20f84 <xTasksWaitingTermination>
    39d4:	7b0010ef          	jal	ra,5184 <vListInsertEnd>
    39d8:	0001d717          	auipc	a4,0x1d
    39dc:	3b870713          	addi	a4,a4,952 # 20d90 <uxDeletedTasksWaitingCleanUp>
    39e0:	00072783          	lw	a5,0(a4)
    39e4:	00178793          	addi	a5,a5,1
    39e8:	00f72023          	sw	a5,0(a4)
    39ec:	f4dff06f          	j	3938 <vTaskDelete+0xf4>
    39f0:	0004a403          	lw	s0,0(s1)
    39f4:	ea1ff06f          	j	3894 <vTaskDelete+0x50>
    39f8:	00000073          	ecall
    39fc:	01c12083          	lw	ra,28(sp)
    3a00:	01812403          	lw	s0,24(sp)
    3a04:	01412483          	lw	s1,20(sp)
    3a08:	01012903          	lw	s2,16(sp)
    3a0c:	00c12983          	lw	s3,12(sp)
    3a10:	02010113          	addi	sp,sp,32
    3a14:	00008067          	ret
    3a18:	00040513          	mv	a0,s0
    3a1c:	250010ef          	jal	ra,4c6c <vPortFree>
    3a20:	ef9ff06f          	j	3918 <vTaskDelete+0xd4>

00003a24 <vTaskPrioritySet>:
    3a24:	fe010113          	addi	sp,sp,-32
    3a28:	00812c23          	sw	s0,24(sp)
    3a2c:	00112e23          	sw	ra,28(sp)
    3a30:	00912a23          	sw	s1,20(sp)
    3a34:	01212823          	sw	s2,16(sp)
    3a38:	01312623          	sw	s3,12(sp)
    3a3c:	01412423          	sw	s4,8(sp)
    3a40:	00f00793          	li	a5,15
    3a44:	00050413          	mv	s0,a0
    3a48:	00b7f463          	bgeu	a5,a1,3a50 <vTaskPrioritySet+0x2c>
    3a4c:	00f00593          	li	a1,15
    3a50:	30047073          	csrci	mstatus,8
    3a54:	0001d797          	auipc	a5,0x1d
    3a58:	3287a783          	lw	a5,808(a5) # 20d7c <xSchedulerRunning>
    3a5c:	02078063          	beqz	a5,3a7c <vTaskPrioritySet+0x58>
    3a60:	0001d797          	auipc	a5,0x1d
    3a64:	33c78793          	addi	a5,a5,828 # 20d9c <pxCurrentTCB>
    3a68:	0007a703          	lw	a4,0(a5)
    3a6c:	0007a783          	lw	a5,0(a5)
    3a70:	03c72783          	lw	a5,60(a4)
    3a74:	00178793          	addi	a5,a5,1
    3a78:	02f72e23          	sw	a5,60(a4)
    3a7c:	0a040a63          	beqz	s0,3b30 <vTaskPrioritySet+0x10c>
    3a80:	04042783          	lw	a5,64(s0)
    3a84:	06f58263          	beq	a1,a5,3ae8 <vTaskPrioritySet+0xc4>
    3a88:	08b7e063          	bltu	a5,a1,3b08 <vTaskPrioritySet+0xe4>
    3a8c:	0001d497          	auipc	s1,0x1d
    3a90:	3104a483          	lw	s1,784(s1) # 20d9c <pxCurrentTCB>
    3a94:	408484b3          	sub	s1,s1,s0
    3a98:	0014b493          	seqz	s1,s1
    3a9c:	02c42903          	lw	s2,44(s0)
    3aa0:	01279463          	bne	a5,s2,3aa8 <vTaskPrioritySet+0x84>
    3aa4:	02b42623          	sw	a1,44(s0)
    3aa8:	01842783          	lw	a5,24(s0)
    3aac:	04b42023          	sw	a1,64(s0)
    3ab0:	0007c863          	bltz	a5,3ac0 <vTaskPrioritySet+0x9c>
    3ab4:	01000793          	li	a5,16
    3ab8:	40b785b3          	sub	a1,a5,a1
    3abc:	00b42c23          	sw	a1,24(s0)
    3ac0:	00291793          	slli	a5,s2,0x2
    3ac4:	012787b3          	add	a5,a5,s2
    3ac8:	01442703          	lw	a4,20(s0)
    3acc:	0001d997          	auipc	s3,0x1d
    3ad0:	37898993          	addi	s3,s3,888 # 20e44 <pxReadyTasksLists>
    3ad4:	00279793          	slli	a5,a5,0x2
    3ad8:	00f987b3          	add	a5,s3,a5
    3adc:	06f70063          	beq	a4,a5,3b3c <vTaskPrioritySet+0x118>
    3ae0:	00048463          	beqz	s1,3ae8 <vTaskPrioritySet+0xc4>
    3ae4:	00000073          	ecall
    3ae8:	01812403          	lw	s0,24(sp)
    3aec:	01c12083          	lw	ra,28(sp)
    3af0:	01412483          	lw	s1,20(sp)
    3af4:	01012903          	lw	s2,16(sp)
    3af8:	00c12983          	lw	s3,12(sp)
    3afc:	00812a03          	lw	s4,8(sp)
    3b00:	02010113          	addi	sp,sp,32
    3b04:	915ff06f          	j	3418 <vTaskExitCritical>
    3b08:	0001d717          	auipc	a4,0x1d
    3b0c:	29470713          	addi	a4,a4,660 # 20d9c <pxCurrentTCB>
    3b10:	00072683          	lw	a3,0(a4)
    3b14:	00000493          	li	s1,0
    3b18:	f88682e3          	beq	a3,s0,3a9c <vTaskPrioritySet+0x78>
    3b1c:	00072703          	lw	a4,0(a4)
    3b20:	02c72483          	lw	s1,44(a4)
    3b24:	0095b4b3          	sltu	s1,a1,s1
    3b28:	0014c493          	xori	s1,s1,1
    3b2c:	f71ff06f          	j	3a9c <vTaskPrioritySet+0x78>
    3b30:	0001d417          	auipc	s0,0x1d
    3b34:	26c42403          	lw	s0,620(s0) # 20d9c <pxCurrentTCB>
    3b38:	f49ff06f          	j	3a80 <vTaskPrioritySet+0x5c>
    3b3c:	00440a13          	addi	s4,s0,4
    3b40:	000a0513          	mv	a0,s4
    3b44:	6c0010ef          	jal	ra,5204 <uxListRemove>
    3b48:	0001d817          	auipc	a6,0x1d
    3b4c:	23880813          	addi	a6,a6,568 # 20d80 <uxTopReadyPriority>
    3b50:	00051e63          	bnez	a0,3b6c <vTaskPrioritySet+0x148>
    3b54:	00082703          	lw	a4,0(a6)
    3b58:	00100793          	li	a5,1
    3b5c:	012797b3          	sll	a5,a5,s2
    3b60:	fff7c793          	not	a5,a5
    3b64:	00e7f7b3          	and	a5,a5,a4
    3b68:	00f82023          	sw	a5,0(a6)
    3b6c:	02c42583          	lw	a1,44(s0)
    3b70:	0001d717          	auipc	a4,0x1d
    3b74:	2c070713          	addi	a4,a4,704 # 20e30 <xSuspendedTaskList>
    3b78:	00100693          	li	a3,1
    3b7c:	00259793          	slli	a5,a1,0x2
    3b80:	00b787b3          	add	a5,a5,a1
    3b84:	00279793          	slli	a5,a5,0x2
    3b88:	00f70733          	add	a4,a4,a5
    3b8c:	01872603          	lw	a2,24(a4)
    3b90:	00b696b3          	sll	a3,a3,a1
    3b94:	00082503          	lw	a0,0(a6)
    3b98:	00862583          	lw	a1,8(a2)
    3b9c:	00f989b3          	add	s3,s3,a5
    3ba0:	00a6e6b3          	or	a3,a3,a0
    3ba4:	00b42623          	sw	a1,12(s0)
    3ba8:	00862583          	lw	a1,8(a2)
    3bac:	00d82023          	sw	a3,0(a6)
    3bb0:	01472683          	lw	a3,20(a4)
    3bb4:	00c42423          	sw	a2,8(s0)
    3bb8:	0145a223          	sw	s4,4(a1)
    3bbc:	01462423          	sw	s4,8(a2)
    3bc0:	01342a23          	sw	s3,20(s0)
    3bc4:	00168793          	addi	a5,a3,1
    3bc8:	00f72a23          	sw	a5,20(a4)
    3bcc:	f15ff06f          	j	3ae0 <vTaskPrioritySet+0xbc>

00003bd0 <vTaskSuspend>:
    3bd0:	fe010113          	addi	sp,sp,-32
    3bd4:	00812c23          	sw	s0,24(sp)
    3bd8:	00112e23          	sw	ra,28(sp)
    3bdc:	00912a23          	sw	s1,20(sp)
    3be0:	01212823          	sw	s2,16(sp)
    3be4:	01312623          	sw	s3,12(sp)
    3be8:	00050413          	mv	s0,a0
    3bec:	30047073          	csrci	mstatus,8
    3bf0:	0001d497          	auipc	s1,0x1d
    3bf4:	18c48493          	addi	s1,s1,396 # 20d7c <xSchedulerRunning>
    3bf8:	0004a783          	lw	a5,0(s1)
    3bfc:	0001d917          	auipc	s2,0x1d
    3c00:	1a090913          	addi	s2,s2,416 # 20d9c <pxCurrentTCB>
    3c04:	00078c63          	beqz	a5,3c1c <vTaskSuspend+0x4c>
    3c08:	00092703          	lw	a4,0(s2)
    3c0c:	00092783          	lw	a5,0(s2)
    3c10:	03c72783          	lw	a5,60(a4)
    3c14:	00178793          	addi	a5,a5,1
    3c18:	02f72e23          	sw	a5,60(a4)
    3c1c:	12040e63          	beqz	s0,3d58 <vTaskSuspend+0x188>
    3c20:	00440993          	addi	s3,s0,4
    3c24:	00098513          	mv	a0,s3
    3c28:	5dc010ef          	jal	ra,5204 <uxListRemove>
    3c2c:	02051463          	bnez	a0,3c54 <vTaskSuspend+0x84>
    3c30:	02c42683          	lw	a3,44(s0)
    3c34:	0001d717          	auipc	a4,0x1d
    3c38:	1fc70713          	addi	a4,a4,508 # 20e30 <xSuspendedTaskList>
    3c3c:	00269793          	slli	a5,a3,0x2
    3c40:	00d787b3          	add	a5,a5,a3
    3c44:	00279793          	slli	a5,a5,0x2
    3c48:	00f707b3          	add	a5,a4,a5
    3c4c:	0147a783          	lw	a5,20(a5)
    3c50:	06078463          	beqz	a5,3cb8 <vTaskSuspend+0xe8>
    3c54:	02842783          	lw	a5,40(s0)
    3c58:	00078663          	beqz	a5,3c64 <vTaskSuspend+0x94>
    3c5c:	01840513          	addi	a0,s0,24
    3c60:	5a4010ef          	jal	ra,5204 <uxListRemove>
    3c64:	00098593          	mv	a1,s3
    3c68:	0001d517          	auipc	a0,0x1d
    3c6c:	1c850513          	addi	a0,a0,456 # 20e30 <xSuspendedTaskList>
    3c70:	514010ef          	jal	ra,5184 <vListInsertEnd>
    3c74:	05044783          	lbu	a5,80(s0)
    3c78:	00100713          	li	a4,1
    3c7c:	0ff7f793          	zext.b	a5,a5
    3c80:	00e79463          	bne	a5,a4,3c88 <vTaskSuspend+0xb8>
    3c84:	04040823          	sb	zero,80(s0)
    3c88:	f90ff0ef          	jal	ra,3418 <vTaskExitCritical>
    3c8c:	0004a783          	lw	a5,0(s1)
    3c90:	04079663          	bnez	a5,3cdc <vTaskSuspend+0x10c>
    3c94:	00092783          	lw	a5,0(s2)
    3c98:	08878c63          	beq	a5,s0,3d30 <vTaskSuspend+0x160>
    3c9c:	01c12083          	lw	ra,28(sp)
    3ca0:	01812403          	lw	s0,24(sp)
    3ca4:	01412483          	lw	s1,20(sp)
    3ca8:	01012903          	lw	s2,16(sp)
    3cac:	00c12983          	lw	s3,12(sp)
    3cb0:	02010113          	addi	sp,sp,32
    3cb4:	00008067          	ret
    3cb8:	0001d717          	auipc	a4,0x1d
    3cbc:	0c870713          	addi	a4,a4,200 # 20d80 <uxTopReadyPriority>
    3cc0:	00072603          	lw	a2,0(a4)
    3cc4:	00100793          	li	a5,1
    3cc8:	00d797b3          	sll	a5,a5,a3
    3ccc:	fff7c793          	not	a5,a5
    3cd0:	00c7f7b3          	and	a5,a5,a2
    3cd4:	00f72023          	sw	a5,0(a4)
    3cd8:	f7dff06f          	j	3c54 <vTaskSuspend+0x84>
    3cdc:	30047073          	csrci	mstatus,8
    3ce0:	0004a783          	lw	a5,0(s1)
    3ce4:	00078c63          	beqz	a5,3cfc <vTaskSuspend+0x12c>
    3ce8:	00092703          	lw	a4,0(s2)
    3cec:	00092783          	lw	a5,0(s2)
    3cf0:	03c72783          	lw	a5,60(a4)
    3cf4:	00178793          	addi	a5,a5,1
    3cf8:	02f72e23          	sw	a5,60(a4)
    3cfc:	0001d797          	auipc	a5,0x1d
    3d00:	09c78793          	addi	a5,a5,156 # 20d98 <pxDelayedTaskList>
    3d04:	0007a703          	lw	a4,0(a5)
    3d08:	00072703          	lw	a4,0(a4)
    3d0c:	04070a63          	beqz	a4,3d60 <vTaskSuspend+0x190>
    3d10:	0007a783          	lw	a5,0(a5)
    3d14:	00c7a783          	lw	a5,12(a5)
    3d18:	0007a783          	lw	a5,0(a5)
    3d1c:	0001d717          	auipc	a4,0x1d
    3d20:	04f72623          	sw	a5,76(a4) # 20d68 <xNextTaskUnblockTime>
    3d24:	ef4ff0ef          	jal	ra,3418 <vTaskExitCritical>
    3d28:	00092783          	lw	a5,0(s2)
    3d2c:	f68798e3          	bne	a5,s0,3c9c <vTaskSuspend+0xcc>
    3d30:	0004a783          	lw	a5,0(s1)
    3d34:	02079e63          	bnez	a5,3d70 <vTaskSuspend+0x1a0>
    3d38:	0001d717          	auipc	a4,0x1d
    3d3c:	0f872703          	lw	a4,248(a4) # 20e30 <xSuspendedTaskList>
    3d40:	0001d797          	auipc	a5,0x1d
    3d44:	0487a783          	lw	a5,72(a5) # 20d88 <uxCurrentNumberOfTasks>
    3d48:	04f71463          	bne	a4,a5,3d90 <vTaskSuspend+0x1c0>
    3d4c:	0001d797          	auipc	a5,0x1d
    3d50:	0407a823          	sw	zero,80(a5) # 20d9c <pxCurrentTCB>
    3d54:	f49ff06f          	j	3c9c <vTaskSuspend+0xcc>
    3d58:	00092403          	lw	s0,0(s2)
    3d5c:	ec5ff06f          	j	3c20 <vTaskSuspend+0x50>
    3d60:	fff00793          	li	a5,-1
    3d64:	0001d717          	auipc	a4,0x1d
    3d68:	00f72223          	sw	a5,4(a4) # 20d68 <xNextTaskUnblockTime>
    3d6c:	fb9ff06f          	j	3d24 <vTaskSuspend+0x154>
    3d70:	00000073          	ecall
    3d74:	01c12083          	lw	ra,28(sp)
    3d78:	01812403          	lw	s0,24(sp)
    3d7c:	01412483          	lw	s1,20(sp)
    3d80:	01012903          	lw	s2,16(sp)
    3d84:	00c12983          	lw	s3,12(sp)
    3d88:	02010113          	addi	sp,sp,32
    3d8c:	00008067          	ret
    3d90:	0001d797          	auipc	a5,0x1d
    3d94:	fd47a783          	lw	a5,-44(a5) # 20d64 <uxSchedulerSuspended>
    3d98:	00078a63          	beqz	a5,3dac <vTaskSuspend+0x1dc>
    3d9c:	00100793          	li	a5,1
    3da0:	0001d717          	auipc	a4,0x1d
    3da4:	fcf72a23          	sw	a5,-44(a4) # 20d74 <xYieldPending>
    3da8:	ef5ff06f          	j	3c9c <vTaskSuspend+0xcc>
    3dac:	01812403          	lw	s0,24(sp)
    3db0:	01c12083          	lw	ra,28(sp)
    3db4:	01412483          	lw	s1,20(sp)
    3db8:	01012903          	lw	s2,16(sp)
    3dbc:	00c12983          	lw	s3,12(sp)
    3dc0:	02010113          	addi	sp,sp,32
    3dc4:	cb4fe06f          	j	2278 <vTaskSwitchContext.part.0>

00003dc8 <vTaskResume>:
    3dc8:	fe010113          	addi	sp,sp,-32
    3dcc:	00912a23          	sw	s1,20(sp)
    3dd0:	0001d497          	auipc	s1,0x1d
    3dd4:	fcc48493          	addi	s1,s1,-52 # 20d9c <pxCurrentTCB>
    3dd8:	0004a783          	lw	a5,0(s1)
    3ddc:	00112e23          	sw	ra,28(sp)
    3de0:	00812c23          	sw	s0,24(sp)
    3de4:	01212823          	sw	s2,16(sp)
    3de8:	01312623          	sw	s3,12(sp)
    3dec:	04a78463          	beq	a5,a0,3e34 <vTaskResume+0x6c>
    3df0:	00050413          	mv	s0,a0
    3df4:	04050063          	beqz	a0,3e34 <vTaskResume+0x6c>
    3df8:	30047073          	csrci	mstatus,8
    3dfc:	0001d797          	auipc	a5,0x1d
    3e00:	f807a783          	lw	a5,-128(a5) # 20d7c <xSchedulerRunning>
    3e04:	04079663          	bnez	a5,3e50 <vTaskResume+0x88>
    3e08:	01442903          	lw	s2,20(s0)
    3e0c:	0001d797          	auipc	a5,0x1d
    3e10:	02478793          	addi	a5,a5,36 # 20e30 <xSuspendedTaskList>
    3e14:	06f90063          	beq	s2,a5,3e74 <vTaskResume+0xac>
    3e18:	01812403          	lw	s0,24(sp)
    3e1c:	01c12083          	lw	ra,28(sp)
    3e20:	01412483          	lw	s1,20(sp)
    3e24:	01012903          	lw	s2,16(sp)
    3e28:	00c12983          	lw	s3,12(sp)
    3e2c:	02010113          	addi	sp,sp,32
    3e30:	de8ff06f          	j	3418 <vTaskExitCritical>
    3e34:	01c12083          	lw	ra,28(sp)
    3e38:	01812403          	lw	s0,24(sp)
    3e3c:	01412483          	lw	s1,20(sp)
    3e40:	01012903          	lw	s2,16(sp)
    3e44:	00c12983          	lw	s3,12(sp)
    3e48:	02010113          	addi	sp,sp,32
    3e4c:	00008067          	ret
    3e50:	0004a703          	lw	a4,0(s1)
    3e54:	0004a783          	lw	a5,0(s1)
    3e58:	01442903          	lw	s2,20(s0)
    3e5c:	03c72783          	lw	a5,60(a4)
    3e60:	00178793          	addi	a5,a5,1
    3e64:	02f72e23          	sw	a5,60(a4)
    3e68:	0001d797          	auipc	a5,0x1d
    3e6c:	fc878793          	addi	a5,a5,-56 # 20e30 <xSuspendedTaskList>
    3e70:	faf914e3          	bne	s2,a5,3e18 <vTaskResume+0x50>
    3e74:	02842783          	lw	a5,40(s0)
    3e78:	0001d717          	auipc	a4,0x1d
    3e7c:	12070713          	addi	a4,a4,288 # 20f98 <xPendingReadyList>
    3e80:	f8e78ce3          	beq	a5,a4,3e18 <vTaskResume+0x50>
    3e84:	f8079ae3          	bnez	a5,3e18 <vTaskResume+0x50>
    3e88:	00440993          	addi	s3,s0,4
    3e8c:	00098513          	mv	a0,s3
    3e90:	374010ef          	jal	ra,5204 <uxListRemove>
    3e94:	02c42683          	lw	a3,44(s0)
    3e98:	0001d597          	auipc	a1,0x1d
    3e9c:	ee858593          	addi	a1,a1,-280 # 20d80 <uxTopReadyPriority>
    3ea0:	0005a803          	lw	a6,0(a1)
    3ea4:	00269793          	slli	a5,a3,0x2
    3ea8:	00d787b3          	add	a5,a5,a3
    3eac:	00279793          	slli	a5,a5,0x2
    3eb0:	00f90933          	add	s2,s2,a5
    3eb4:	01892603          	lw	a2,24(s2)
    3eb8:	00100713          	li	a4,1
    3ebc:	00d71733          	sll	a4,a4,a3
    3ec0:	00862503          	lw	a0,8(a2)
    3ec4:	01076733          	or	a4,a4,a6
    3ec8:	00e5a023          	sw	a4,0(a1)
    3ecc:	00a42623          	sw	a0,12(s0)
    3ed0:	00862583          	lw	a1,8(a2)
    3ed4:	01492703          	lw	a4,20(s2)
    3ed8:	00c42423          	sw	a2,8(s0)
    3edc:	0135a223          	sw	s3,4(a1)
    3ee0:	01362423          	sw	s3,8(a2)
    3ee4:	0001d617          	auipc	a2,0x1d
    3ee8:	f6060613          	addi	a2,a2,-160 # 20e44 <pxReadyTasksLists>
    3eec:	00f607b3          	add	a5,a2,a5
    3ef0:	00f42a23          	sw	a5,20(s0)
    3ef4:	00170793          	addi	a5,a4,1
    3ef8:	00f92a23          	sw	a5,20(s2)
    3efc:	0004a783          	lw	a5,0(s1)
    3f00:	02c7a783          	lw	a5,44(a5)
    3f04:	f0f6eae3          	bltu	a3,a5,3e18 <vTaskResume+0x50>
    3f08:	00000073          	ecall
    3f0c:	f0dff06f          	j	3e18 <vTaskResume+0x50>

00003f10 <xTaskResumeAll>:
    3f10:	fe010113          	addi	sp,sp,-32
    3f14:	00112e23          	sw	ra,28(sp)
    3f18:	00812c23          	sw	s0,24(sp)
    3f1c:	00912a23          	sw	s1,20(sp)
    3f20:	01212823          	sw	s2,16(sp)
    3f24:	01312623          	sw	s3,12(sp)
    3f28:	01412423          	sw	s4,8(sp)
    3f2c:	30047073          	csrci	mstatus,8
    3f30:	0001d797          	auipc	a5,0x1d
    3f34:	e4c7a783          	lw	a5,-436(a5) # 20d7c <xSchedulerRunning>
    3f38:	02078063          	beqz	a5,3f58 <xTaskResumeAll+0x48>
    3f3c:	0001de97          	auipc	t4,0x1d
    3f40:	e60e8e93          	addi	t4,t4,-416 # 20d9c <pxCurrentTCB>
    3f44:	000ea703          	lw	a4,0(t4)
    3f48:	000ea783          	lw	a5,0(t4)
    3f4c:	03c72783          	lw	a5,60(a4)
    3f50:	00178793          	addi	a5,a5,1
    3f54:	02f72e23          	sw	a5,60(a4)
    3f58:	0001d497          	auipc	s1,0x1d
    3f5c:	e0c48493          	addi	s1,s1,-500 # 20d64 <uxSchedulerSuspended>
    3f60:	0004a783          	lw	a5,0(s1)
    3f64:	fff78793          	addi	a5,a5,-1
    3f68:	00f4a023          	sw	a5,0(s1)
    3f6c:	0004a783          	lw	a5,0(s1)
    3f70:	12079c63          	bnez	a5,40a8 <xTaskResumeAll+0x198>
    3f74:	0001d797          	auipc	a5,0x1d
    3f78:	e147a783          	lw	a5,-492(a5) # 20d88 <uxCurrentNumberOfTasks>
    3f7c:	12078663          	beqz	a5,40a8 <xTaskResumeAll+0x198>
    3f80:	0001d317          	auipc	t1,0x1d
    3f84:	eb030313          	addi	t1,t1,-336 # 20e30 <xSuspendedTaskList>
    3f88:	16832783          	lw	a5,360(t1)
    3f8c:	0001d417          	auipc	s0,0x1d
    3f90:	de840413          	addi	s0,s0,-536 # 20d74 <xYieldPending>
    3f94:	16078863          	beqz	a5,4104 <xTaskResumeAll+0x1f4>
    3f98:	0001de97          	auipc	t4,0x1d
    3f9c:	e04e8e93          	addi	t4,t4,-508 # 20d9c <pxCurrentTCB>
    3fa0:	0001de17          	auipc	t3,0x1d
    3fa4:	de0e0e13          	addi	t3,t3,-544 # 20d80 <uxTopReadyPriority>
    3fa8:	0001df97          	auipc	t6,0x1d
    3fac:	e9cf8f93          	addi	t6,t6,-356 # 20e44 <pxReadyTasksLists>
    3fb0:	0001d417          	auipc	s0,0x1d
    3fb4:	dc440413          	addi	s0,s0,-572 # 20d74 <xYieldPending>
    3fb8:	00100f13          	li	t5,1
    3fbc:	0ac0006f          	j	4068 <xTaskResumeAll+0x158>
    3fc0:	00072683          	lw	a3,0(a4)
    3fc4:	0207a423          	sw	zero,40(a5)
    3fc8:	fff68693          	addi	a3,a3,-1
    3fcc:	00d72023          	sw	a3,0(a4)
    3fd0:	0147a583          	lw	a1,20(a5)
    3fd4:	0087a683          	lw	a3,8(a5)
    3fd8:	00c7a703          	lw	a4,12(a5)
    3fdc:	0045a603          	lw	a2,4(a1)
    3fe0:	00478813          	addi	a6,a5,4
    3fe4:	00e6a423          	sw	a4,8(a3)
    3fe8:	00d72223          	sw	a3,4(a4)
    3fec:	0f060463          	beq	a2,a6,40d4 <xTaskResumeAll+0x1c4>
    3ff0:	02c7a683          	lw	a3,44(a5)
    3ff4:	0005a883          	lw	a7,0(a1)
    3ff8:	00269713          	slli	a4,a3,0x2
    3ffc:	00d70733          	add	a4,a4,a3
    4000:	00271713          	slli	a4,a4,0x2
    4004:	00e30533          	add	a0,t1,a4
    4008:	01852603          	lw	a2,24(a0)
    400c:	fff88893          	addi	a7,a7,-1
    4010:	0115a023          	sw	a7,0(a1)
    4014:	00862883          	lw	a7,8(a2)
    4018:	000e2283          	lw	t0,0(t3)
    401c:	00df15b3          	sll	a1,t5,a3
    4020:	0117a623          	sw	a7,12(a5)
    4024:	00862883          	lw	a7,8(a2)
    4028:	0055e5b3          	or	a1,a1,t0
    402c:	00be2023          	sw	a1,0(t3)
    4030:	01452583          	lw	a1,20(a0)
    4034:	00c7a423          	sw	a2,8(a5)
    4038:	0108a223          	sw	a6,4(a7)
    403c:	01062423          	sw	a6,8(a2)
    4040:	00ef8733          	add	a4,t6,a4
    4044:	00e7aa23          	sw	a4,20(a5)
    4048:	00158793          	addi	a5,a1,1
    404c:	00f52a23          	sw	a5,20(a0)
    4050:	000ea783          	lw	a5,0(t4)
    4054:	02c7a783          	lw	a5,44(a5)
    4058:	00f6e463          	bltu	a3,a5,4060 <xTaskResumeAll+0x150>
    405c:	01e42023          	sw	t5,0(s0)
    4060:	16832783          	lw	a5,360(t1)
    4064:	06078c63          	beqz	a5,40dc <xTaskResumeAll+0x1cc>
    4068:	17432783          	lw	a5,372(t1)
    406c:	00c7a783          	lw	a5,12(a5)
    4070:	0287a703          	lw	a4,40(a5)
    4074:	01c7a603          	lw	a2,28(a5)
    4078:	0207a683          	lw	a3,32(a5)
    407c:	00472503          	lw	a0,4(a4)
    4080:	01878593          	addi	a1,a5,24
    4084:	00d62423          	sw	a3,8(a2)
    4088:	00c6a223          	sw	a2,4(a3)
    408c:	f2b51ae3          	bne	a0,a1,3fc0 <xTaskResumeAll+0xb0>
    4090:	00d72223          	sw	a3,4(a4)
    4094:	f2dff06f          	j	3fc0 <xTaskResumeAll+0xb0>
    4098:	0001d797          	auipc	a5,0x1d
    409c:	ce07a023          	sw	zero,-800(a5) # 20d78 <xPendedTicks>
    40a0:	00042783          	lw	a5,0(s0)
    40a4:	0a079463          	bnez	a5,414c <xTaskResumeAll+0x23c>
    40a8:	00000413          	li	s0,0
    40ac:	b6cff0ef          	jal	ra,3418 <vTaskExitCritical>
    40b0:	01c12083          	lw	ra,28(sp)
    40b4:	00040513          	mv	a0,s0
    40b8:	01812403          	lw	s0,24(sp)
    40bc:	01412483          	lw	s1,20(sp)
    40c0:	01012903          	lw	s2,16(sp)
    40c4:	00c12983          	lw	s3,12(sp)
    40c8:	00812a03          	lw	s4,8(sp)
    40cc:	02010113          	addi	sp,sp,32
    40d0:	00008067          	ret
    40d4:	00e5a223          	sw	a4,4(a1)
    40d8:	f19ff06f          	j	3ff0 <xTaskResumeAll+0xe0>
    40dc:	0001d797          	auipc	a5,0x1d
    40e0:	cbc78793          	addi	a5,a5,-836 # 20d98 <pxDelayedTaskList>
    40e4:	0007a703          	lw	a4,0(a5)
    40e8:	00072703          	lw	a4,0(a4)
    40ec:	06070663          	beqz	a4,4158 <xTaskResumeAll+0x248>
    40f0:	0007a783          	lw	a5,0(a5)
    40f4:	00c7a783          	lw	a5,12(a5)
    40f8:	0007a783          	lw	a5,0(a5)
    40fc:	0001d717          	auipc	a4,0x1d
    4100:	c6f72623          	sw	a5,-916(a4) # 20d68 <xNextTaskUnblockTime>
    4104:	0001d997          	auipc	s3,0x1d
    4108:	c7498993          	addi	s3,s3,-908 # 20d78 <xPendedTicks>
    410c:	0009a903          	lw	s2,0(s3)
    4110:	f80908e3          	beqz	s2,40a0 <xTaskResumeAll+0x190>
    4114:	00100a13          	li	s4,1
    4118:	0180006f          	j	4130 <xTaskResumeAll+0x220>
    411c:	c7cfe0ef          	jal	ra,2598 <xTaskIncrementTick.part.0>
    4120:	00050463          	beqz	a0,4128 <xTaskResumeAll+0x218>
    4124:	01442023          	sw	s4,0(s0)
    4128:	fff90913          	addi	s2,s2,-1
    412c:	f60906e3          	beqz	s2,4098 <xTaskResumeAll+0x188>
    4130:	0004a783          	lw	a5,0(s1)
    4134:	fe0784e3          	beqz	a5,411c <xTaskResumeAll+0x20c>
    4138:	0009a783          	lw	a5,0(s3)
    413c:	00178793          	addi	a5,a5,1
    4140:	00f9a023          	sw	a5,0(s3)
    4144:	978fc0ef          	jal	ra,2bc <vApplicationTickHook>
    4148:	fe1ff06f          	j	4128 <xTaskResumeAll+0x218>
    414c:	00000073          	ecall
    4150:	00100413          	li	s0,1
    4154:	f59ff06f          	j	40ac <xTaskResumeAll+0x19c>
    4158:	fff00793          	li	a5,-1
    415c:	0001d717          	auipc	a4,0x1d
    4160:	c0f72623          	sw	a5,-1012(a4) # 20d68 <xNextTaskUnblockTime>
    4164:	fa1ff06f          	j	4104 <xTaskResumeAll+0x1f4>

00004168 <xTaskDelayUntil>:
    4168:	0001d717          	auipc	a4,0x1d
    416c:	bfc70713          	addi	a4,a4,-1028 # 20d64 <uxSchedulerSuspended>
    4170:	00072783          	lw	a5,0(a4)
    4174:	ff010113          	addi	sp,sp,-16
    4178:	00112623          	sw	ra,12(sp)
    417c:	00812423          	sw	s0,8(sp)
    4180:	00178793          	addi	a5,a5,1
    4184:	00f72023          	sw	a5,0(a4)
    4188:	00052703          	lw	a4,0(a0)
    418c:	0001d697          	auipc	a3,0x1d
    4190:	bf86a683          	lw	a3,-1032(a3) # 20d84 <xTickCount>
    4194:	00b707b3          	add	a5,a4,a1
    4198:	00f52023          	sw	a5,0(a0)
    419c:	02e6f663          	bgeu	a3,a4,41c8 <xTaskDelayUntil+0x60>
    41a0:	02e7e663          	bltu	a5,a4,41cc <xTaskDelayUntil+0x64>
    41a4:	00000413          	li	s0,0
    41a8:	d69ff0ef          	jal	ra,3f10 <xTaskResumeAll>
    41ac:	00051463          	bnez	a0,41b4 <xTaskDelayUntil+0x4c>
    41b0:	00000073          	ecall
    41b4:	00c12083          	lw	ra,12(sp)
    41b8:	00040513          	mv	a0,s0
    41bc:	00812403          	lw	s0,8(sp)
    41c0:	01010113          	addi	sp,sp,16
    41c4:	00008067          	ret
    41c8:	00e7e463          	bltu	a5,a4,41d0 <xTaskDelayUntil+0x68>
    41cc:	fcf6fce3          	bgeu	a3,a5,41a4 <xTaskDelayUntil+0x3c>
    41d0:	00000593          	li	a1,0
    41d4:	40d78533          	sub	a0,a5,a3
    41d8:	f41fd0ef          	jal	ra,2118 <prvAddCurrentTaskToDelayedList>
    41dc:	00100413          	li	s0,1
    41e0:	fc9ff06f          	j	41a8 <xTaskDelayUntil+0x40>

000041e4 <vTaskDelay>:
    41e4:	00051663          	bnez	a0,41f0 <vTaskDelay+0xc>
    41e8:	00000073          	ecall
    41ec:	00008067          	ret
    41f0:	0001d717          	auipc	a4,0x1d
    41f4:	b7470713          	addi	a4,a4,-1164 # 20d64 <uxSchedulerSuspended>
    41f8:	00072783          	lw	a5,0(a4)
    41fc:	ff010113          	addi	sp,sp,-16
    4200:	00112623          	sw	ra,12(sp)
    4204:	00178793          	addi	a5,a5,1
    4208:	00f72023          	sw	a5,0(a4)
    420c:	00000593          	li	a1,0
    4210:	f09fd0ef          	jal	ra,2118 <prvAddCurrentTaskToDelayedList>
    4214:	cfdff0ef          	jal	ra,3f10 <xTaskResumeAll>
    4218:	00051463          	bnez	a0,4220 <vTaskDelay+0x3c>
    421c:	00000073          	ecall
    4220:	00c12083          	lw	ra,12(sp)
    4224:	01010113          	addi	sp,sp,16
    4228:	00008067          	ret

0000422c <xTaskCatchUpTicks>:
    422c:	0001d717          	auipc	a4,0x1d
    4230:	b3870713          	addi	a4,a4,-1224 # 20d64 <uxSchedulerSuspended>
    4234:	00072783          	lw	a5,0(a4)
    4238:	00178793          	addi	a5,a5,1
    423c:	00f72023          	sw	a5,0(a4)
    4240:	0001d717          	auipc	a4,0x1d
    4244:	b3870713          	addi	a4,a4,-1224 # 20d78 <xPendedTicks>
    4248:	00072783          	lw	a5,0(a4)
    424c:	00a78533          	add	a0,a5,a0
    4250:	00a72023          	sw	a0,0(a4)
    4254:	cbdff06f          	j	3f10 <xTaskResumeAll>

00004258 <xTaskCheckForTimeOut>:
    4258:	ff010113          	addi	sp,sp,-16
    425c:	00112623          	sw	ra,12(sp)
    4260:	00812423          	sw	s0,8(sp)
    4264:	00050793          	mv	a5,a0
    4268:	30047073          	csrci	mstatus,8
    426c:	0001d717          	auipc	a4,0x1d
    4270:	b1072703          	lw	a4,-1264(a4) # 20d7c <xSchedulerRunning>
    4274:	02070063          	beqz	a4,4294 <xTaskCheckForTimeOut+0x3c>
    4278:	0001d717          	auipc	a4,0x1d
    427c:	b2470713          	addi	a4,a4,-1244 # 20d9c <pxCurrentTCB>
    4280:	00072683          	lw	a3,0(a4)
    4284:	00072703          	lw	a4,0(a4)
    4288:	03c6a703          	lw	a4,60(a3)
    428c:	00170713          	addi	a4,a4,1
    4290:	02e6ae23          	sw	a4,60(a3)
    4294:	0001d697          	auipc	a3,0x1d
    4298:	af068693          	addi	a3,a3,-1296 # 20d84 <xTickCount>
    429c:	0005a703          	lw	a4,0(a1)
    42a0:	0006a603          	lw	a2,0(a3)
    42a4:	fff00513          	li	a0,-1
    42a8:	00000413          	li	s0,0
    42ac:	02a70463          	beq	a4,a0,42d4 <xTaskCheckForTimeOut+0x7c>
    42b0:	0001d817          	auipc	a6,0x1d
    42b4:	ac080813          	addi	a6,a6,-1344 # 20d70 <xNumOfOverflows>
    42b8:	00082883          	lw	a7,0(a6)
    42bc:	0007a303          	lw	t1,0(a5)
    42c0:	0047a503          	lw	a0,4(a5)
    42c4:	03130463          	beq	t1,a7,42ec <xTaskCheckForTimeOut+0x94>
    42c8:	02a66263          	bltu	a2,a0,42ec <xTaskCheckForTimeOut+0x94>
    42cc:	0005a023          	sw	zero,0(a1)
    42d0:	00100413          	li	s0,1
    42d4:	944ff0ef          	jal	ra,3418 <vTaskExitCritical>
    42d8:	00c12083          	lw	ra,12(sp)
    42dc:	00040513          	mv	a0,s0
    42e0:	00812403          	lw	s0,8(sp)
    42e4:	01010113          	addi	sp,sp,16
    42e8:	00008067          	ret
    42ec:	40a608b3          	sub	a7,a2,a0
    42f0:	fce8fee3          	bgeu	a7,a4,42cc <xTaskCheckForTimeOut+0x74>
    42f4:	00082803          	lw	a6,0(a6)
    42f8:	40c70733          	sub	a4,a4,a2
    42fc:	0006a683          	lw	a3,0(a3)
    4300:	00a70733          	add	a4,a4,a0
    4304:	00e5a023          	sw	a4,0(a1)
    4308:	0107a023          	sw	a6,0(a5)
    430c:	00d7a223          	sw	a3,4(a5)
    4310:	908ff0ef          	jal	ra,3418 <vTaskExitCritical>
    4314:	00000413          	li	s0,0
    4318:	00c12083          	lw	ra,12(sp)
    431c:	00040513          	mv	a0,s0
    4320:	00812403          	lw	s0,8(sp)
    4324:	01010113          	addi	sp,sp,16
    4328:	00008067          	ret

0000432c <uxTaskResetEventItemValue>:
    432c:	0001d797          	auipc	a5,0x1d
    4330:	a7078793          	addi	a5,a5,-1424 # 20d9c <pxCurrentTCB>
    4334:	0007a603          	lw	a2,0(a5)
    4338:	0007a683          	lw	a3,0(a5)
    433c:	0007a703          	lw	a4,0(a5)
    4340:	01000793          	li	a5,16
    4344:	02c6a683          	lw	a3,44(a3)
    4348:	01862503          	lw	a0,24(a2)
    434c:	40d787b3          	sub	a5,a5,a3
    4350:	00f72c23          	sw	a5,24(a4)
    4354:	00008067          	ret

00004358 <pvTaskIncrementMutexHeldCount>:
    4358:	0001d797          	auipc	a5,0x1d
    435c:	a4478793          	addi	a5,a5,-1468 # 20d9c <pxCurrentTCB>
    4360:	0007a703          	lw	a4,0(a5)
    4364:	00070a63          	beqz	a4,4378 <pvTaskIncrementMutexHeldCount+0x20>
    4368:	0007a683          	lw	a3,0(a5)
    436c:	0446a703          	lw	a4,68(a3)
    4370:	00170713          	addi	a4,a4,1
    4374:	04e6a223          	sw	a4,68(a3)
    4378:	0007a503          	lw	a0,0(a5)
    437c:	00008067          	ret

00004380 <ulTaskGenericNotifyTake>:
    4380:	fe010113          	addi	sp,sp,-32
    4384:	00912a23          	sw	s1,20(sp)
    4388:	01312623          	sw	s3,12(sp)
    438c:	00112e23          	sw	ra,28(sp)
    4390:	00812c23          	sw	s0,24(sp)
    4394:	01212823          	sw	s2,16(sp)
    4398:	01412423          	sw	s4,8(sp)
    439c:	00050493          	mv	s1,a0
    43a0:	00058993          	mv	s3,a1
    43a4:	30047073          	csrci	mstatus,8
    43a8:	0001da17          	auipc	s4,0x1d
    43ac:	9d4a0a13          	addi	s4,s4,-1580 # 20d7c <xSchedulerRunning>
    43b0:	000a2783          	lw	a5,0(s4)
    43b4:	0001d417          	auipc	s0,0x1d
    43b8:	9e840413          	addi	s0,s0,-1560 # 20d9c <pxCurrentTCB>
    43bc:	00078c63          	beqz	a5,43d4 <ulTaskGenericNotifyTake+0x54>
    43c0:	00042703          	lw	a4,0(s0)
    43c4:	00042783          	lw	a5,0(s0)
    43c8:	03c72783          	lw	a5,60(a4)
    43cc:	00178793          	addi	a5,a5,1
    43d0:	02f72e23          	sw	a5,60(a4)
    43d4:	00042783          	lw	a5,0(s0)
    43d8:	01048913          	addi	s2,s1,16
    43dc:	00291713          	slli	a4,s2,0x2
    43e0:	00e787b3          	add	a5,a5,a4
    43e4:	00c7a783          	lw	a5,12(a5)
    43e8:	00079c63          	bnez	a5,4400 <ulTaskGenericNotifyTake+0x80>
    43ec:	00042783          	lw	a5,0(s0)
    43f0:	00100713          	li	a4,1
    43f4:	009787b3          	add	a5,a5,s1
    43f8:	04e78823          	sb	a4,80(a5)
    43fc:	08061863          	bnez	a2,448c <ulTaskGenericNotifyTake+0x10c>
    4400:	818ff0ef          	jal	ra,3418 <vTaskExitCritical>
    4404:	30047073          	csrci	mstatus,8
    4408:	000a2783          	lw	a5,0(s4)
    440c:	00078c63          	beqz	a5,4424 <ulTaskGenericNotifyTake+0xa4>
    4410:	00042703          	lw	a4,0(s0)
    4414:	00042783          	lw	a5,0(s0)
    4418:	03c72783          	lw	a5,60(a4)
    441c:	00178793          	addi	a5,a5,1
    4420:	02f72e23          	sw	a5,60(a4)
    4424:	00042783          	lw	a5,0(s0)
    4428:	00291913          	slli	s2,s2,0x2
    442c:	012787b3          	add	a5,a5,s2
    4430:	00c7aa03          	lw	s4,12(a5)
    4434:	000a0a63          	beqz	s4,4448 <ulTaskGenericNotifyTake+0xc8>
    4438:	00042783          	lw	a5,0(s0)
    443c:	04098063          	beqz	s3,447c <ulTaskGenericNotifyTake+0xfc>
    4440:	01278933          	add	s2,a5,s2
    4444:	00092623          	sw	zero,12(s2)
    4448:	00042783          	lw	a5,0(s0)
    444c:	009784b3          	add	s1,a5,s1
    4450:	04048823          	sb	zero,80(s1)
    4454:	fc5fe0ef          	jal	ra,3418 <vTaskExitCritical>
    4458:	01c12083          	lw	ra,28(sp)
    445c:	01812403          	lw	s0,24(sp)
    4460:	01412483          	lw	s1,20(sp)
    4464:	01012903          	lw	s2,16(sp)
    4468:	00c12983          	lw	s3,12(sp)
    446c:	000a0513          	mv	a0,s4
    4470:	00812a03          	lw	s4,8(sp)
    4474:	02010113          	addi	sp,sp,32
    4478:	00008067          	ret
    447c:	fffa0713          	addi	a4,s4,-1
    4480:	01278933          	add	s2,a5,s2
    4484:	00e92623          	sw	a4,12(s2)
    4488:	fc1ff06f          	j	4448 <ulTaskGenericNotifyTake+0xc8>
    448c:	00100593          	li	a1,1
    4490:	00060513          	mv	a0,a2
    4494:	c85fd0ef          	jal	ra,2118 <prvAddCurrentTaskToDelayedList>
    4498:	00000073          	ecall
    449c:	f65ff06f          	j	4400 <ulTaskGenericNotifyTake+0x80>

000044a0 <xTaskGenericNotifyWait>:
    44a0:	fe010113          	addi	sp,sp,-32
    44a4:	00812c23          	sw	s0,24(sp)
    44a8:	01212823          	sw	s2,16(sp)
    44ac:	01312623          	sw	s3,12(sp)
    44b0:	00112e23          	sw	ra,28(sp)
    44b4:	00912a23          	sw	s1,20(sp)
    44b8:	01412423          	sw	s4,8(sp)
    44bc:	00050413          	mv	s0,a0
    44c0:	00060913          	mv	s2,a2
    44c4:	00068993          	mv	s3,a3
    44c8:	30047073          	csrci	mstatus,8
    44cc:	0001da17          	auipc	s4,0x1d
    44d0:	8b0a0a13          	addi	s4,s4,-1872 # 20d7c <xSchedulerRunning>
    44d4:	000a2783          	lw	a5,0(s4)
    44d8:	0001d497          	auipc	s1,0x1d
    44dc:	8c448493          	addi	s1,s1,-1852 # 20d9c <pxCurrentTCB>
    44e0:	00078c63          	beqz	a5,44f8 <xTaskGenericNotifyWait+0x58>
    44e4:	0004a683          	lw	a3,0(s1)
    44e8:	0004a783          	lw	a5,0(s1)
    44ec:	03c6a783          	lw	a5,60(a3)
    44f0:	00178793          	addi	a5,a5,1
    44f4:	02f6ae23          	sw	a5,60(a3)
    44f8:	0004a783          	lw	a5,0(s1)
    44fc:	00200693          	li	a3,2
    4500:	008787b3          	add	a5,a5,s0
    4504:	0507c783          	lbu	a5,80(a5)
    4508:	0ff7f793          	zext.b	a5,a5
    450c:	02d78a63          	beq	a5,a3,4540 <xTaskGenericNotifyWait+0xa0>
    4510:	0004a683          	lw	a3,0(s1)
    4514:	00241793          	slli	a5,s0,0x2
    4518:	fff5c593          	not	a1,a1
    451c:	00f687b3          	add	a5,a3,a5
    4520:	04c7a683          	lw	a3,76(a5)
    4524:	00d5f5b3          	and	a1,a1,a3
    4528:	04b7a623          	sw	a1,76(a5)
    452c:	0004a783          	lw	a5,0(s1)
    4530:	00100693          	li	a3,1
    4534:	008787b3          	add	a5,a5,s0
    4538:	04d78823          	sb	a3,80(a5)
    453c:	0a071a63          	bnez	a4,45f0 <xTaskGenericNotifyWait+0x150>
    4540:	ed9fe0ef          	jal	ra,3418 <vTaskExitCritical>
    4544:	30047073          	csrci	mstatus,8
    4548:	000a2783          	lw	a5,0(s4)
    454c:	00078c63          	beqz	a5,4564 <xTaskGenericNotifyWait+0xc4>
    4550:	0004a703          	lw	a4,0(s1)
    4554:	0004a783          	lw	a5,0(s1)
    4558:	03c72783          	lw	a5,60(a4)
    455c:	00178793          	addi	a5,a5,1
    4560:	02f72e23          	sw	a5,60(a4)
    4564:	00098e63          	beqz	s3,4580 <xTaskGenericNotifyWait+0xe0>
    4568:	0004a783          	lw	a5,0(s1)
    456c:	01040713          	addi	a4,s0,16
    4570:	00271713          	slli	a4,a4,0x2
    4574:	00e787b3          	add	a5,a5,a4
    4578:	00c7a783          	lw	a5,12(a5)
    457c:	00f9a023          	sw	a5,0(s3)
    4580:	0004a783          	lw	a5,0(s1)
    4584:	00200713          	li	a4,2
    4588:	00000993          	li	s3,0
    458c:	008787b3          	add	a5,a5,s0
    4590:	0507c783          	lbu	a5,80(a5)
    4594:	0ff7f793          	zext.b	a5,a5
    4598:	02e79263          	bne	a5,a4,45bc <xTaskGenericNotifyWait+0x11c>
    459c:	0004a703          	lw	a4,0(s1)
    45a0:	00241793          	slli	a5,s0,0x2
    45a4:	fff94913          	not	s2,s2
    45a8:	00f707b3          	add	a5,a4,a5
    45ac:	04c7a603          	lw	a2,76(a5)
    45b0:	00100993          	li	s3,1
    45b4:	00c97933          	and	s2,s2,a2
    45b8:	0527a623          	sw	s2,76(a5)
    45bc:	0004a783          	lw	a5,0(s1)
    45c0:	00878433          	add	s0,a5,s0
    45c4:	04040823          	sb	zero,80(s0)
    45c8:	e51fe0ef          	jal	ra,3418 <vTaskExitCritical>
    45cc:	01c12083          	lw	ra,28(sp)
    45d0:	01812403          	lw	s0,24(sp)
    45d4:	01412483          	lw	s1,20(sp)
    45d8:	01012903          	lw	s2,16(sp)
    45dc:	00812a03          	lw	s4,8(sp)
    45e0:	00098513          	mv	a0,s3
    45e4:	00c12983          	lw	s3,12(sp)
    45e8:	02010113          	addi	sp,sp,32
    45ec:	00008067          	ret
    45f0:	00100593          	li	a1,1
    45f4:	00070513          	mv	a0,a4
    45f8:	b21fd0ef          	jal	ra,2118 <prvAddCurrentTaskToDelayedList>
    45fc:	00000073          	ecall
    4600:	f41ff06f          	j	4540 <xTaskGenericNotifyWait+0xa0>

00004604 <xTaskGenericNotify>:
    4604:	ff010113          	addi	sp,sp,-16
    4608:	00112623          	sw	ra,12(sp)
    460c:	00812423          	sw	s0,8(sp)
    4610:	00050793          	mv	a5,a0
    4614:	30047073          	csrci	mstatus,8
    4618:	0001c517          	auipc	a0,0x1c
    461c:	76452503          	lw	a0,1892(a0) # 20d7c <xSchedulerRunning>
    4620:	02050063          	beqz	a0,4640 <xTaskGenericNotify+0x3c>
    4624:	0001c517          	auipc	a0,0x1c
    4628:	77850513          	addi	a0,a0,1912 # 20d9c <pxCurrentTCB>
    462c:	00052803          	lw	a6,0(a0)
    4630:	00052503          	lw	a0,0(a0)
    4634:	03c82503          	lw	a0,60(a6)
    4638:	00150513          	addi	a0,a0,1
    463c:	02a82e23          	sw	a0,60(a6)
    4640:	00070c63          	beqz	a4,4658 <xTaskGenericNotify+0x54>
    4644:	01058513          	addi	a0,a1,16
    4648:	00251513          	slli	a0,a0,0x2
    464c:	00a78533          	add	a0,a5,a0
    4650:	00c52503          	lw	a0,12(a0)
    4654:	00a72023          	sw	a0,0(a4)
    4658:	00b78533          	add	a0,a5,a1
    465c:	05054703          	lbu	a4,80(a0)
    4660:	00200813          	li	a6,2
    4664:	05050823          	sb	a6,80(a0)
    4668:	00300513          	li	a0,3
    466c:	0ff77713          	zext.b	a4,a4
    4670:	04a68e63          	beq	a3,a0,46cc <xTaskGenericNotify+0xc8>
    4674:	04d56463          	bltu	a0,a3,46bc <xTaskGenericNotify+0xb8>
    4678:	00100513          	li	a0,1
    467c:	10a68e63          	beq	a3,a0,4798 <xTaskGenericNotify+0x194>
    4680:	01069c63          	bne	a3,a6,4698 <xTaskGenericNotify+0x94>
    4684:	00259593          	slli	a1,a1,0x2
    4688:	00b785b3          	add	a1,a5,a1
    468c:	04c5a683          	lw	a3,76(a1)
    4690:	00168693          	addi	a3,a3,1
    4694:	04d5a623          	sw	a3,76(a1)
    4698:	00100693          	li	a3,1
    469c:	04d70463          	beq	a4,a3,46e4 <xTaskGenericNotify+0xe0>
    46a0:	00100413          	li	s0,1
    46a4:	d75fe0ef          	jal	ra,3418 <vTaskExitCritical>
    46a8:	00c12083          	lw	ra,12(sp)
    46ac:	00040513          	mv	a0,s0
    46b0:	00812403          	lw	s0,8(sp)
    46b4:	01010113          	addi	sp,sp,16
    46b8:	00008067          	ret
    46bc:	00400513          	li	a0,4
    46c0:	fca69ce3          	bne	a3,a0,4698 <xTaskGenericNotify+0x94>
    46c4:	00000413          	li	s0,0
    46c8:	fd070ee3          	beq	a4,a6,46a4 <xTaskGenericNotify+0xa0>
    46cc:	01058593          	addi	a1,a1,16
    46d0:	00259593          	slli	a1,a1,0x2
    46d4:	00b785b3          	add	a1,a5,a1
    46d8:	00c5a623          	sw	a2,12(a1)
    46dc:	00100693          	li	a3,1
    46e0:	fcd710e3          	bne	a4,a3,46a0 <xTaskGenericNotify+0x9c>
    46e4:	0147a603          	lw	a2,20(a5)
    46e8:	0087a683          	lw	a3,8(a5)
    46ec:	00c7a703          	lw	a4,12(a5)
    46f0:	00462583          	lw	a1,4(a2)
    46f4:	00478813          	addi	a6,a5,4
    46f8:	00e6a423          	sw	a4,8(a3)
    46fc:	00d72223          	sw	a3,4(a4)
    4700:	0b058c63          	beq	a1,a6,47b8 <xTaskGenericNotify+0x1b4>
    4704:	02c7a583          	lw	a1,44(a5)
    4708:	0001c697          	auipc	a3,0x1c
    470c:	72868693          	addi	a3,a3,1832 # 20e30 <xSuspendedTaskList>
    4710:	00062883          	lw	a7,0(a2)
    4714:	00259713          	slli	a4,a1,0x2
    4718:	00b70733          	add	a4,a4,a1
    471c:	00271713          	slli	a4,a4,0x2
    4720:	00e686b3          	add	a3,a3,a4
    4724:	0186a503          	lw	a0,24(a3)
    4728:	fff88893          	addi	a7,a7,-1
    472c:	01162023          	sw	a7,0(a2)
    4730:	00852603          	lw	a2,8(a0)
    4734:	0001c897          	auipc	a7,0x1c
    4738:	64c88893          	addi	a7,a7,1612 # 20d80 <uxTopReadyPriority>
    473c:	0008ae03          	lw	t3,0(a7)
    4740:	00c7a623          	sw	a2,12(a5)
    4744:	00100613          	li	a2,1
    4748:	00b61633          	sll	a2,a2,a1
    474c:	00852303          	lw	t1,8(a0)
    4750:	01c66633          	or	a2,a2,t3
    4754:	00c8a023          	sw	a2,0(a7)
    4758:	0146a603          	lw	a2,20(a3)
    475c:	00a7a423          	sw	a0,8(a5)
    4760:	01032223          	sw	a6,4(t1)
    4764:	01052423          	sw	a6,8(a0)
    4768:	0001c517          	auipc	a0,0x1c
    476c:	6dc50513          	addi	a0,a0,1756 # 20e44 <pxReadyTasksLists>
    4770:	00e50733          	add	a4,a0,a4
    4774:	00e7aa23          	sw	a4,20(a5)
    4778:	00160793          	addi	a5,a2,1
    477c:	00f6aa23          	sw	a5,20(a3)
    4780:	0001c797          	auipc	a5,0x1c
    4784:	61c7a783          	lw	a5,1564(a5) # 20d9c <pxCurrentTCB>
    4788:	02c7a783          	lw	a5,44(a5)
    478c:	f0b7fae3          	bgeu	a5,a1,46a0 <xTaskGenericNotify+0x9c>
    4790:	00000073          	ecall
    4794:	f0dff06f          	j	46a0 <xTaskGenericNotify+0x9c>
    4798:	00259593          	slli	a1,a1,0x2
    479c:	00b785b3          	add	a1,a5,a1
    47a0:	04c5a683          	lw	a3,76(a1)
    47a4:	00c6e633          	or	a2,a3,a2
    47a8:	04c5a623          	sw	a2,76(a1)
    47ac:	00100693          	li	a3,1
    47b0:	eed718e3          	bne	a4,a3,46a0 <xTaskGenericNotify+0x9c>
    47b4:	f31ff06f          	j	46e4 <xTaskGenericNotify+0xe0>
    47b8:	00e62223          	sw	a4,4(a2)
    47bc:	f49ff06f          	j	4704 <xTaskGenericNotify+0x100>

000047c0 <xTaskGenericNotifyFromISR>:
    47c0:	00050813          	mv	a6,a0
    47c4:	00070c63          	beqz	a4,47dc <xTaskGenericNotifyFromISR+0x1c>
    47c8:	01058513          	addi	a0,a1,16
    47cc:	00251513          	slli	a0,a0,0x2
    47d0:	00a80533          	add	a0,a6,a0
    47d4:	00c52503          	lw	a0,12(a0)
    47d8:	00a72023          	sw	a0,0(a4)
    47dc:	00b80533          	add	a0,a6,a1
    47e0:	05054703          	lbu	a4,80(a0)
    47e4:	00200893          	li	a7,2
    47e8:	05150823          	sb	a7,80(a0)
    47ec:	00300513          	li	a0,3
    47f0:	0ff77713          	zext.b	a4,a4
    47f4:	04a68463          	beq	a3,a0,483c <xTaskGenericNotifyFromISR+0x7c>
    47f8:	02d56a63          	bltu	a0,a3,482c <xTaskGenericNotifyFromISR+0x6c>
    47fc:	00100513          	li	a0,1
    4800:	0ca68a63          	beq	a3,a0,48d4 <xTaskGenericNotifyFromISR+0x114>
    4804:	01169c63          	bne	a3,a7,481c <xTaskGenericNotifyFromISR+0x5c>
    4808:	00259593          	slli	a1,a1,0x2
    480c:	00b805b3          	add	a1,a6,a1
    4810:	04c5a683          	lw	a3,76(a1)
    4814:	00168693          	addi	a3,a3,1
    4818:	04d5a623          	sw	a3,76(a1)
    481c:	00100693          	li	a3,1
    4820:	02d70a63          	beq	a4,a3,4854 <xTaskGenericNotifyFromISR+0x94>
    4824:	00100513          	li	a0,1
    4828:	00008067          	ret
    482c:	00400513          	li	a0,4
    4830:	fea696e3          	bne	a3,a0,481c <xTaskGenericNotifyFromISR+0x5c>
    4834:	00000513          	li	a0,0
    4838:	ff1708e3          	beq	a4,a7,4828 <xTaskGenericNotifyFromISR+0x68>
    483c:	01058593          	addi	a1,a1,16
    4840:	00259593          	slli	a1,a1,0x2
    4844:	00b805b3          	add	a1,a6,a1
    4848:	00c5a623          	sw	a2,12(a1)
    484c:	00100693          	li	a3,1
    4850:	fcd71ae3          	bne	a4,a3,4824 <xTaskGenericNotifyFromISR+0x64>
    4854:	0001c697          	auipc	a3,0x1c
    4858:	5106a683          	lw	a3,1296(a3) # 20d64 <uxSchedulerSuspended>
    485c:	02c82703          	lw	a4,44(a6)
    4860:	08068a63          	beqz	a3,48f4 <xTaskGenericNotifyFromISR+0x134>
    4864:	0001c617          	auipc	a2,0x1c
    4868:	5cc60613          	addi	a2,a2,1484 # 20e30 <xSuspendedTaskList>
    486c:	16c62683          	lw	a3,364(a2)
    4870:	16862583          	lw	a1,360(a2)
    4874:	01880513          	addi	a0,a6,24
    4878:	0086a883          	lw	a7,8(a3)
    487c:	00d82e23          	sw	a3,28(a6)
    4880:	00158593          	addi	a1,a1,1
    4884:	03182023          	sw	a7,32(a6)
    4888:	0086a883          	lw	a7,8(a3)
    488c:	16b62423          	sw	a1,360(a2)
    4890:	00a8a223          	sw	a0,4(a7)
    4894:	00a6a423          	sw	a0,8(a3)
    4898:	0001c697          	auipc	a3,0x1c
    489c:	70068693          	addi	a3,a3,1792 # 20f98 <xPendingReadyList>
    48a0:	02d82423          	sw	a3,40(a6)
    48a4:	0001c697          	auipc	a3,0x1c
    48a8:	4f86a683          	lw	a3,1272(a3) # 20d9c <pxCurrentTCB>
    48ac:	02c6a683          	lw	a3,44(a3)
    48b0:	f6e6fae3          	bgeu	a3,a4,4824 <xTaskGenericNotifyFromISR+0x64>
    48b4:	00078663          	beqz	a5,48c0 <xTaskGenericNotifyFromISR+0x100>
    48b8:	00100713          	li	a4,1
    48bc:	00e7a023          	sw	a4,0(a5)
    48c0:	00100793          	li	a5,1
    48c4:	0001c717          	auipc	a4,0x1c
    48c8:	4af72823          	sw	a5,1200(a4) # 20d74 <xYieldPending>
    48cc:	00100513          	li	a0,1
    48d0:	f59ff06f          	j	4828 <xTaskGenericNotifyFromISR+0x68>
    48d4:	00259593          	slli	a1,a1,0x2
    48d8:	00b805b3          	add	a1,a6,a1
    48dc:	04c5a683          	lw	a3,76(a1)
    48e0:	00c6e633          	or	a2,a3,a2
    48e4:	04c5a623          	sw	a2,76(a1)
    48e8:	00100693          	li	a3,1
    48ec:	f2d71ce3          	bne	a4,a3,4824 <xTaskGenericNotifyFromISR+0x64>
    48f0:	f65ff06f          	j	4854 <xTaskGenericNotifyFromISR+0x94>
    48f4:	01482583          	lw	a1,20(a6)
    48f8:	00882603          	lw	a2,8(a6)
    48fc:	00c82683          	lw	a3,12(a6)
    4900:	0045a503          	lw	a0,4(a1)
    4904:	00480893          	addi	a7,a6,4
    4908:	00d62423          	sw	a3,8(a2)
    490c:	00c6a223          	sw	a2,4(a3)
    4910:	09150063          	beq	a0,a7,4990 <xTaskGenericNotifyFromISR+0x1d0>
    4914:	00271693          	slli	a3,a4,0x2
    4918:	00e686b3          	add	a3,a3,a4
    491c:	00269693          	slli	a3,a3,0x2
    4920:	0001c617          	auipc	a2,0x1c
    4924:	51060613          	addi	a2,a2,1296 # 20e30 <xSuspendedTaskList>
    4928:	0005a303          	lw	t1,0(a1)
    492c:	00d60633          	add	a2,a2,a3
    4930:	01862503          	lw	a0,24(a2)
    4934:	fff30313          	addi	t1,t1,-1
    4938:	0065a023          	sw	t1,0(a1)
    493c:	00852583          	lw	a1,8(a0)
    4940:	0001c317          	auipc	t1,0x1c
    4944:	44030313          	addi	t1,t1,1088 # 20d80 <uxTopReadyPriority>
    4948:	00032e83          	lw	t4,0(t1)
    494c:	00b82623          	sw	a1,12(a6)
    4950:	00100593          	li	a1,1
    4954:	00852e03          	lw	t3,8(a0)
    4958:	00e595b3          	sll	a1,a1,a4
    495c:	01d5e5b3          	or	a1,a1,t4
    4960:	00a82423          	sw	a0,8(a6)
    4964:	00b32023          	sw	a1,0(t1)
    4968:	01462583          	lw	a1,20(a2)
    496c:	011e2223          	sw	a7,4(t3)
    4970:	01152423          	sw	a7,8(a0)
    4974:	0001c517          	auipc	a0,0x1c
    4978:	4d050513          	addi	a0,a0,1232 # 20e44 <pxReadyTasksLists>
    497c:	00d506b3          	add	a3,a0,a3
    4980:	00d82a23          	sw	a3,20(a6)
    4984:	00158693          	addi	a3,a1,1
    4988:	00d62a23          	sw	a3,20(a2)
    498c:	f19ff06f          	j	48a4 <xTaskGenericNotifyFromISR+0xe4>
    4990:	00d5a223          	sw	a3,4(a1)
    4994:	f81ff06f          	j	4914 <xTaskGenericNotifyFromISR+0x154>

00004998 <vTaskGenericNotifyGiveFromISR>:
    4998:	00b50733          	add	a4,a0,a1
    499c:	00200693          	li	a3,2
    49a0:	00259593          	slli	a1,a1,0x2
    49a4:	05074783          	lbu	a5,80(a4)
    49a8:	00b505b3          	add	a1,a0,a1
    49ac:	04d70823          	sb	a3,80(a4)
    49b0:	04c5a703          	lw	a4,76(a1)
    49b4:	0ff7f793          	zext.b	a5,a5
    49b8:	00170713          	addi	a4,a4,1
    49bc:	04e5a623          	sw	a4,76(a1)
    49c0:	00100713          	li	a4,1
    49c4:	00e78463          	beq	a5,a4,49cc <vTaskGenericNotifyGiveFromISR+0x34>
    49c8:	00008067          	ret
    49cc:	0001c717          	auipc	a4,0x1c
    49d0:	39872703          	lw	a4,920(a4) # 20d64 <uxSchedulerSuspended>
    49d4:	02c52783          	lw	a5,44(a0)
    49d8:	06070863          	beqz	a4,4a48 <vTaskGenericNotifyGiveFromISR+0xb0>
    49dc:	0001c697          	auipc	a3,0x1c
    49e0:	45468693          	addi	a3,a3,1108 # 20e30 <xSuspendedTaskList>
    49e4:	16c6a703          	lw	a4,364(a3)
    49e8:	1686a583          	lw	a1,360(a3)
    49ec:	01850813          	addi	a6,a0,24
    49f0:	00872883          	lw	a7,8(a4)
    49f4:	00e52e23          	sw	a4,28(a0)
    49f8:	00158593          	addi	a1,a1,1
    49fc:	03152023          	sw	a7,32(a0)
    4a00:	00872883          	lw	a7,8(a4)
    4a04:	16b6a423          	sw	a1,360(a3)
    4a08:	0108a223          	sw	a6,4(a7)
    4a0c:	01072423          	sw	a6,8(a4)
    4a10:	0001c717          	auipc	a4,0x1c
    4a14:	58870713          	addi	a4,a4,1416 # 20f98 <xPendingReadyList>
    4a18:	02e52423          	sw	a4,40(a0)
    4a1c:	0001c717          	auipc	a4,0x1c
    4a20:	38072703          	lw	a4,896(a4) # 20d9c <pxCurrentTCB>
    4a24:	02c72703          	lw	a4,44(a4)
    4a28:	faf770e3          	bgeu	a4,a5,49c8 <vTaskGenericNotifyGiveFromISR+0x30>
    4a2c:	00060663          	beqz	a2,4a38 <vTaskGenericNotifyGiveFromISR+0xa0>
    4a30:	00100793          	li	a5,1
    4a34:	00f62023          	sw	a5,0(a2)
    4a38:	00100793          	li	a5,1
    4a3c:	0001c717          	auipc	a4,0x1c
    4a40:	32f72c23          	sw	a5,824(a4) # 20d74 <xYieldPending>
    4a44:	00008067          	ret
    4a48:	01452583          	lw	a1,20(a0)
    4a4c:	00852683          	lw	a3,8(a0)
    4a50:	00c52703          	lw	a4,12(a0)
    4a54:	0045a803          	lw	a6,4(a1)
    4a58:	00450893          	addi	a7,a0,4
    4a5c:	00e6a423          	sw	a4,8(a3)
    4a60:	00d72223          	sw	a3,4(a4)
    4a64:	09180063          	beq	a6,a7,4ae4 <vTaskGenericNotifyGiveFromISR+0x14c>
    4a68:	00279713          	slli	a4,a5,0x2
    4a6c:	00f70733          	add	a4,a4,a5
    4a70:	00271713          	slli	a4,a4,0x2
    4a74:	0001c697          	auipc	a3,0x1c
    4a78:	3bc68693          	addi	a3,a3,956 # 20e30 <xSuspendedTaskList>
    4a7c:	0005a303          	lw	t1,0(a1)
    4a80:	00e686b3          	add	a3,a3,a4
    4a84:	0186a803          	lw	a6,24(a3)
    4a88:	fff30313          	addi	t1,t1,-1
    4a8c:	0065a023          	sw	t1,0(a1)
    4a90:	00882583          	lw	a1,8(a6)
    4a94:	0001c317          	auipc	t1,0x1c
    4a98:	2ec30313          	addi	t1,t1,748 # 20d80 <uxTopReadyPriority>
    4a9c:	00032e83          	lw	t4,0(t1)
    4aa0:	00b52623          	sw	a1,12(a0)
    4aa4:	00100593          	li	a1,1
    4aa8:	00882e03          	lw	t3,8(a6)
    4aac:	00f595b3          	sll	a1,a1,a5
    4ab0:	01d5e5b3          	or	a1,a1,t4
    4ab4:	01052423          	sw	a6,8(a0)
    4ab8:	00b32023          	sw	a1,0(t1)
    4abc:	0146a583          	lw	a1,20(a3)
    4ac0:	011e2223          	sw	a7,4(t3)
    4ac4:	01182423          	sw	a7,8(a6)
    4ac8:	0001c817          	auipc	a6,0x1c
    4acc:	37c80813          	addi	a6,a6,892 # 20e44 <pxReadyTasksLists>
    4ad0:	00e80733          	add	a4,a6,a4
    4ad4:	00e52a23          	sw	a4,20(a0)
    4ad8:	00158713          	addi	a4,a1,1
    4adc:	00e6aa23          	sw	a4,20(a3)
    4ae0:	f3dff06f          	j	4a1c <vTaskGenericNotifyGiveFromISR+0x84>
    4ae4:	00e5a223          	sw	a4,4(a1)
    4ae8:	f81ff06f          	j	4a68 <vTaskGenericNotifyGiveFromISR+0xd0>

00004aec <xTaskGenericNotifyStateClear>:
    4aec:	08050a63          	beqz	a0,4b80 <xTaskGenericNotifyStateClear+0x94>
    4af0:	30047073          	csrci	mstatus,8
    4af4:	0001c717          	auipc	a4,0x1c
    4af8:	28870713          	addi	a4,a4,648 # 20d7c <xSchedulerRunning>
    4afc:	00072783          	lw	a5,0(a4)
    4b00:	02078063          	beqz	a5,4b20 <xTaskGenericNotifyStateClear+0x34>
    4b04:	0001c797          	auipc	a5,0x1c
    4b08:	29878793          	addi	a5,a5,664 # 20d9c <pxCurrentTCB>
    4b0c:	0007a683          	lw	a3,0(a5)
    4b10:	0007a783          	lw	a5,0(a5)
    4b14:	03c6a783          	lw	a5,60(a3)
    4b18:	00178793          	addi	a5,a5,1
    4b1c:	02f6ae23          	sw	a5,60(a3)
    4b20:	00b505b3          	add	a1,a0,a1
    4b24:	0505c783          	lbu	a5,80(a1)
    4b28:	00200693          	li	a3,2
    4b2c:	00000513          	li	a0,0
    4b30:	0ff7f793          	zext.b	a5,a5
    4b34:	00d79663          	bne	a5,a3,4b40 <xTaskGenericNotifyStateClear+0x54>
    4b38:	04058823          	sb	zero,80(a1)
    4b3c:	00100513          	li	a0,1
    4b40:	00072783          	lw	a5,0(a4)
    4b44:	02078c63          	beqz	a5,4b7c <xTaskGenericNotifyStateClear+0x90>
    4b48:	0001c797          	auipc	a5,0x1c
    4b4c:	25478793          	addi	a5,a5,596 # 20d9c <pxCurrentTCB>
    4b50:	0007a703          	lw	a4,0(a5)
    4b54:	03c72703          	lw	a4,60(a4)
    4b58:	02070263          	beqz	a4,4b7c <xTaskGenericNotifyStateClear+0x90>
    4b5c:	0007a703          	lw	a4,0(a5)
    4b60:	0007a683          	lw	a3,0(a5)
    4b64:	03c72783          	lw	a5,60(a4)
    4b68:	fff78793          	addi	a5,a5,-1
    4b6c:	02f72e23          	sw	a5,60(a4)
    4b70:	03c6a783          	lw	a5,60(a3)
    4b74:	00079463          	bnez	a5,4b7c <xTaskGenericNotifyStateClear+0x90>
    4b78:	30046073          	csrsi	mstatus,8
    4b7c:	00008067          	ret
    4b80:	0001c517          	auipc	a0,0x1c
    4b84:	21c52503          	lw	a0,540(a0) # 20d9c <pxCurrentTCB>
    4b88:	f69ff06f          	j	4af0 <xTaskGenericNotifyStateClear+0x4>

00004b8c <ulTaskGenericNotifyValueClear>:
    4b8c:	08050863          	beqz	a0,4c1c <ulTaskGenericNotifyValueClear+0x90>
    4b90:	30047073          	csrci	mstatus,8
    4b94:	0001c797          	auipc	a5,0x1c
    4b98:	1e878793          	addi	a5,a5,488 # 20d7c <xSchedulerRunning>
    4b9c:	0007a703          	lw	a4,0(a5)
    4ba0:	02070063          	beqz	a4,4bc0 <ulTaskGenericNotifyValueClear+0x34>
    4ba4:	0001c717          	auipc	a4,0x1c
    4ba8:	1f870713          	addi	a4,a4,504 # 20d9c <pxCurrentTCB>
    4bac:	00072683          	lw	a3,0(a4)
    4bb0:	00072703          	lw	a4,0(a4)
    4bb4:	03c6a703          	lw	a4,60(a3)
    4bb8:	00170713          	addi	a4,a4,1
    4bbc:	02e6ae23          	sw	a4,60(a3)
    4bc0:	00259593          	slli	a1,a1,0x2
    4bc4:	00b505b3          	add	a1,a0,a1
    4bc8:	04c5a503          	lw	a0,76(a1)
    4bcc:	04c5a703          	lw	a4,76(a1)
    4bd0:	fff64613          	not	a2,a2
    4bd4:	00e67633          	and	a2,a2,a4
    4bd8:	04c5a623          	sw	a2,76(a1)
    4bdc:	0007a783          	lw	a5,0(a5)
    4be0:	02078c63          	beqz	a5,4c18 <ulTaskGenericNotifyValueClear+0x8c>
    4be4:	0001c797          	auipc	a5,0x1c
    4be8:	1b878793          	addi	a5,a5,440 # 20d9c <pxCurrentTCB>
    4bec:	0007a703          	lw	a4,0(a5)
    4bf0:	03c72703          	lw	a4,60(a4)
    4bf4:	02070263          	beqz	a4,4c18 <ulTaskGenericNotifyValueClear+0x8c>
    4bf8:	0007a703          	lw	a4,0(a5)
    4bfc:	0007a683          	lw	a3,0(a5)
    4c00:	03c72783          	lw	a5,60(a4)
    4c04:	fff78793          	addi	a5,a5,-1
    4c08:	02f72e23          	sw	a5,60(a4)
    4c0c:	03c6a783          	lw	a5,60(a3)
    4c10:	00079463          	bnez	a5,4c18 <ulTaskGenericNotifyValueClear+0x8c>
    4c14:	30046073          	csrsi	mstatus,8
    4c18:	00008067          	ret
    4c1c:	0001c517          	auipc	a0,0x1c
    4c20:	18052503          	lw	a0,384(a0) # 20d9c <pxCurrentTCB>
    4c24:	f6dff06f          	j	4b90 <ulTaskGenericNotifyValueClear+0x4>

00004c28 <pvPortMalloc>:
    4c28:	ff010113          	addi	sp,sp,-16
    4c2c:	00112623          	sw	ra,12(sp)
    4c30:	00812423          	sw	s0,8(sp)
    4c34:	00050413          	mv	s0,a0
    4c38:	dadfd0ef          	jal	ra,29e4 <vTaskSuspendAll>
    4c3c:	00040513          	mv	a0,s0
    4c40:	3f8030ef          	jal	ra,8038 <malloc>
    4c44:	00050413          	mv	s0,a0
    4c48:	ac8ff0ef          	jal	ra,3f10 <xTaskResumeAll>
    4c4c:	00040c63          	beqz	s0,4c64 <pvPortMalloc+0x3c>
    4c50:	00c12083          	lw	ra,12(sp)
    4c54:	00040513          	mv	a0,s0
    4c58:	00812403          	lw	s0,8(sp)
    4c5c:	01010113          	addi	sp,sp,16
    4c60:	00008067          	ret
    4c64:	e20fb0ef          	jal	ra,284 <vApplicationMallocFailedHook>
    4c68:	fe9ff06f          	j	4c50 <pvPortMalloc+0x28>

00004c6c <vPortFree>:
    4c6c:	02050863          	beqz	a0,4c9c <vPortFree+0x30>
    4c70:	ff010113          	addi	sp,sp,-16
    4c74:	00112623          	sw	ra,12(sp)
    4c78:	00812423          	sw	s0,8(sp)
    4c7c:	00050413          	mv	s0,a0
    4c80:	d65fd0ef          	jal	ra,29e4 <vTaskSuspendAll>
    4c84:	00040513          	mv	a0,s0
    4c88:	3c0030ef          	jal	ra,8048 <free>
    4c8c:	00812403          	lw	s0,8(sp)
    4c90:	00c12083          	lw	ra,12(sp)
    4c94:	01010113          	addi	sp,sp,16
    4c98:	a78ff06f          	j	3f10 <xTaskResumeAll>
    4c9c:	00008067          	ret
	...

00004d00 <freertos_risc_v_trap_handler>:
    4d00:	f8810113          	addi	sp,sp,-120
    4d04:	00112223          	sw	ra,4(sp)
    4d08:	00512423          	sw	t0,8(sp)
    4d0c:	00612623          	sw	t1,12(sp)
    4d10:	00712823          	sw	t2,16(sp)
    4d14:	00812a23          	sw	s0,20(sp)
    4d18:	00912c23          	sw	s1,24(sp)
    4d1c:	00a12e23          	sw	a0,28(sp)
    4d20:	02b12023          	sw	a1,32(sp)
    4d24:	02c12223          	sw	a2,36(sp)
    4d28:	02d12423          	sw	a3,40(sp)
    4d2c:	02e12623          	sw	a4,44(sp)
    4d30:	02f12823          	sw	a5,48(sp)
    4d34:	03012a23          	sw	a6,52(sp)
    4d38:	03112c23          	sw	a7,56(sp)
    4d3c:	03212e23          	sw	s2,60(sp)
    4d40:	05312023          	sw	s3,64(sp)
    4d44:	05412223          	sw	s4,68(sp)
    4d48:	05512423          	sw	s5,72(sp)
    4d4c:	05612623          	sw	s6,76(sp)
    4d50:	05712823          	sw	s7,80(sp)
    4d54:	05812a23          	sw	s8,84(sp)
    4d58:	05912c23          	sw	s9,88(sp)
    4d5c:	05a12e23          	sw	s10,92(sp)
    4d60:	07b12023          	sw	s11,96(sp)
    4d64:	07c12223          	sw	t3,100(sp)
    4d68:	07d12423          	sw	t4,104(sp)
    4d6c:	07e12623          	sw	t5,108(sp)
    4d70:	07f12823          	sw	t6,112(sp)
    4d74:	300022f3          	csrr	t0,mstatus
    4d78:	06512a23          	sw	t0,116(sp)
    4d7c:	0001c297          	auipc	t0,0x1c
    4d80:	0202a283          	lw	t0,32(t0) # 20d9c <pxCurrentTCB>
    4d84:	0022a023          	sw	sp,0(t0)
    4d88:	34202573          	csrr	a0,mcause
    4d8c:	341025f3          	csrr	a1,mepc

00004d90 <test_if_asynchronous>:
    4d90:	01f55613          	srli	a2,a0,0x1f
    4d94:	08060663          	beqz	a2,4e20 <handle_synchronous>
    4d98:	00b12023          	sw	a1,0(sp)

00004d9c <handle_asynchronous>:
    4d9c:	00100293          	li	t0,1
    4da0:	01f29293          	slli	t0,t0,0x1f
    4da4:	00728313          	addi	t1,t0,7
    4da8:	06651063          	bne	a0,t1,4e08 <test_if_external_interrupt>
    4dac:	0001c297          	auipc	t0,0x1c
    4db0:	ff42a283          	lw	t0,-12(t0) # 20da0 <pullMachineTimerCompareRegister>
    4db4:	0001b317          	auipc	t1,0x1b
    4db8:	31832303          	lw	t1,792(t1) # 200cc <pullNextTime>
    4dbc:	fff00e93          	li	t4,-1
    4dc0:	00032383          	lw	t2,0(t1)
    4dc4:	00432e03          	lw	t3,4(t1)
    4dc8:	01d2a023          	sw	t4,0(t0)
    4dcc:	01c2a223          	sw	t3,4(t0)
    4dd0:	0072a023          	sw	t2,0(t0)
    4dd4:	0001b297          	auipc	t0,0x1b
    4dd8:	2e82a283          	lw	t0,744(t0) # 200bc <uxTimerIncrementsForOneTick>
    4ddc:	00728eb3          	add	t4,t0,t2
    4de0:	007ebf33          	sltu	t5,t4,t2
    4de4:	01ee0fb3          	add	t6,t3,t5
    4de8:	01d32023          	sw	t4,0(t1)
    4dec:	01f32223          	sw	t6,4(t1)
    4df0:	0001b117          	auipc	sp,0x1b
    4df4:	2d012103          	lw	sp,720(sp) # 200c0 <xISRStackTop>
    4df8:	c45fd0ef          	jal	ra,2a3c <xTaskIncrementTick>
    4dfc:	04050e63          	beqz	a0,4e58 <processed_source>
    4e00:	dd1fd0ef          	jal	ra,2bd0 <vTaskSwitchContext>
    4e04:	0540006f          	j	4e58 <processed_source>

00004e08 <test_if_external_interrupt>:
    4e08:	00430313          	addi	t1,t1,4
    4e0c:	04651263          	bne	a0,t1,4e50 <as_yet_unhandled>
    4e10:	0001b117          	auipc	sp,0x1b
    4e14:	2b012103          	lw	sp,688(sp) # 200c0 <xISRStackTop>
    4e18:	9e8fb0ef          	jal	ra,0 <_start>
    4e1c:	03c0006f          	j	4e58 <processed_source>

00004e20 <handle_synchronous>:
    4e20:	00458593          	addi	a1,a1,4
    4e24:	00b12023          	sw	a1,0(sp)

00004e28 <test_if_environment_call>:
    4e28:	00b00293          	li	t0,11
    4e2c:	00551a63          	bne	a0,t0,4e40 <is_exception>
    4e30:	0001b117          	auipc	sp,0x1b
    4e34:	29012103          	lw	sp,656(sp) # 200c0 <xISRStackTop>
    4e38:	d99fd0ef          	jal	ra,2bd0 <vTaskSwitchContext>
    4e3c:	01c0006f          	j	4e58 <processed_source>

00004e40 <is_exception>:
    4e40:	342022f3          	csrr	t0,mcause
    4e44:	34102373          	csrr	t1,mepc
    4e48:	300023f3          	csrr	t2,mstatus
    4e4c:	ff5ff06f          	j	4e40 <is_exception>

00004e50 <as_yet_unhandled>:
    4e50:	342022f3          	csrr	t0,mcause
    4e54:	ffdff06f          	j	4e50 <as_yet_unhandled>

00004e58 <processed_source>:
    4e58:	0001c317          	auipc	t1,0x1c
    4e5c:	f4432303          	lw	t1,-188(t1) # 20d9c <pxCurrentTCB>
    4e60:	00032103          	lw	sp,0(t1)
    4e64:	00012283          	lw	t0,0(sp)
    4e68:	34129073          	csrw	mepc,t0
    4e6c:	07412283          	lw	t0,116(sp)
    4e70:	30029073          	csrw	mstatus,t0
    4e74:	00412083          	lw	ra,4(sp)
    4e78:	00812283          	lw	t0,8(sp)
    4e7c:	00c12303          	lw	t1,12(sp)
    4e80:	01012383          	lw	t2,16(sp)
    4e84:	01412403          	lw	s0,20(sp)
    4e88:	01812483          	lw	s1,24(sp)
    4e8c:	01c12503          	lw	a0,28(sp)
    4e90:	02012583          	lw	a1,32(sp)
    4e94:	02412603          	lw	a2,36(sp)
    4e98:	02812683          	lw	a3,40(sp)
    4e9c:	02c12703          	lw	a4,44(sp)
    4ea0:	03012783          	lw	a5,48(sp)
    4ea4:	03412803          	lw	a6,52(sp)
    4ea8:	03812883          	lw	a7,56(sp)
    4eac:	03c12903          	lw	s2,60(sp)
    4eb0:	04012983          	lw	s3,64(sp)
    4eb4:	04412a03          	lw	s4,68(sp)
    4eb8:	04812a83          	lw	s5,72(sp)
    4ebc:	04c12b03          	lw	s6,76(sp)
    4ec0:	05012b83          	lw	s7,80(sp)
    4ec4:	05412c03          	lw	s8,84(sp)
    4ec8:	05812c83          	lw	s9,88(sp)
    4ecc:	05c12d03          	lw	s10,92(sp)
    4ed0:	06012d83          	lw	s11,96(sp)
    4ed4:	06412e03          	lw	t3,100(sp)
    4ed8:	06812e83          	lw	t4,104(sp)
    4edc:	06c12f03          	lw	t5,108(sp)
    4ee0:	07012f83          	lw	t6,112(sp)
    4ee4:	07810113          	addi	sp,sp,120
    4ee8:	30200073          	mret
    4eec:	00000013          	nop
    4ef0:	00000013          	nop
    4ef4:	00000013          	nop
    4ef8:	00000013          	nop
    4efc:	00000013          	nop

00004f00 <xPortStartFirstTask>:
    4f00:	00000297          	auipc	t0,0x0
    4f04:	e0028293          	addi	t0,t0,-512 # 4d00 <freertos_risc_v_trap_handler>
    4f08:	30529073          	csrw	mtvec,t0
    4f0c:	0001c117          	auipc	sp,0x1c
    4f10:	e9012103          	lw	sp,-368(sp) # 20d9c <pxCurrentTCB>
    4f14:	00012103          	lw	sp,0(sp)
    4f18:	00012083          	lw	ra,0(sp)
    4f1c:	00c12303          	lw	t1,12(sp)
    4f20:	01012383          	lw	t2,16(sp)
    4f24:	01412403          	lw	s0,20(sp)
    4f28:	01812483          	lw	s1,24(sp)
    4f2c:	01c12503          	lw	a0,28(sp)
    4f30:	02012583          	lw	a1,32(sp)
    4f34:	02412603          	lw	a2,36(sp)
    4f38:	02812683          	lw	a3,40(sp)
    4f3c:	02c12703          	lw	a4,44(sp)
    4f40:	03012783          	lw	a5,48(sp)
    4f44:	03412803          	lw	a6,52(sp)
    4f48:	03812883          	lw	a7,56(sp)
    4f4c:	03c12903          	lw	s2,60(sp)
    4f50:	04012983          	lw	s3,64(sp)
    4f54:	04412a03          	lw	s4,68(sp)
    4f58:	04812a83          	lw	s5,72(sp)
    4f5c:	04c12b03          	lw	s6,76(sp)
    4f60:	05012b83          	lw	s7,80(sp)
    4f64:	05412c03          	lw	s8,84(sp)
    4f68:	05812c83          	lw	s9,88(sp)
    4f6c:	05c12d03          	lw	s10,92(sp)
    4f70:	06012d83          	lw	s11,96(sp)
    4f74:	06412e03          	lw	t3,100(sp)
    4f78:	06812e83          	lw	t4,104(sp)
    4f7c:	06c12f03          	lw	t5,108(sp)
    4f80:	07012f83          	lw	t6,112(sp)
    4f84:	07412283          	lw	t0,116(sp)
    4f88:	00828293          	addi	t0,t0,8
    4f8c:	30029073          	csrw	mstatus,t0
    4f90:	00812283          	lw	t0,8(sp)
    4f94:	07810113          	addi	sp,sp,120
    4f98:	00008067          	ret
    4f9c:	00000013          	nop
    4fa0:	00000013          	nop
    4fa4:	00000013          	nop
    4fa8:	00000013          	nop
    4fac:	00000013          	nop
    4fb0:	00000013          	nop
    4fb4:	00000013          	nop
    4fb8:	00000013          	nop
    4fbc:	00000013          	nop
    4fc0:	00000013          	nop
    4fc4:	00000013          	nop
    4fc8:	00000013          	nop
    4fcc:	00000013          	nop
    4fd0:	00000013          	nop
    4fd4:	00000013          	nop
    4fd8:	00000013          	nop
    4fdc:	00000013          	nop
    4fe0:	00000013          	nop
    4fe4:	00000013          	nop
    4fe8:	00000013          	nop
    4fec:	00000013          	nop
    4ff0:	00000013          	nop
    4ff4:	00000013          	nop
    4ff8:	00000013          	nop
    4ffc:	00000013          	nop

00005000 <pxPortInitialiseStack>:
    5000:	300022f3          	csrr	t0,mstatus
    5004:	ff72f293          	andi	t0,t0,-9
    5008:	18800313          	li	t1,392
    500c:	00431313          	slli	t1,t1,0x4
    5010:	0062e2b3          	or	t0,t0,t1
    5014:	ffc50513          	addi	a0,a0,-4
    5018:	00552023          	sw	t0,0(a0)
    501c:	fa850513          	addi	a0,a0,-88
    5020:	00c52023          	sw	a2,0(a0)
    5024:	fe850513          	addi	a0,a0,-24
    5028:	00052023          	sw	zero,0(a0)
    502c:	00000293          	li	t0,0

00005030 <chip_specific_stack_frame>:
    5030:	00028a63          	beqz	t0,5044 <chip_specific_stack_frame+0x14>
    5034:	ffc50513          	addi	a0,a0,-4
    5038:	00052023          	sw	zero,0(a0)
    503c:	fff28293          	addi	t0,t0,-1
    5040:	ff1ff06f          	j	5030 <chip_specific_stack_frame>
    5044:	ffc50513          	addi	a0,a0,-4
    5048:	00b52023          	sw	a1,0(a0)
    504c:	00008067          	ret
	...

00005084 <vPortSetupTimerInterrupt>:
    5084:	ff010113          	addi	sp,sp,-16
    5088:	f14027f3          	csrr	a5,mhartid
    508c:	00f12623          	sw	a5,12(sp)
    5090:	00c12583          	lw	a1,12(sp)
    5094:	120007b7          	lui	a5,0x12000
    5098:	00178793          	addi	a5,a5,1 # 12000001 <_stack+0x11fc0001>
    509c:	00f585b3          	add	a1,a1,a5
    50a0:	00359593          	slli	a1,a1,0x3
    50a4:	0001c797          	auipc	a5,0x1c
    50a8:	ceb7ae23          	sw	a1,-772(a5) # 20da0 <pullMachineTimerCompareRegister>
    50ac:	900007b7          	lui	a5,0x90000
    50b0:	0047a683          	lw	a3,4(a5) # 90000004 <_stack+0x8ffc0004>
    50b4:	0007a603          	lw	a2,0(a5)
    50b8:	0047a703          	lw	a4,4(a5)
    50bc:	fed71ae3          	bne	a4,a3,50b0 <vPortSetupTimerInterrupt+0x2c>
    50c0:	000026b7          	lui	a3,0x2
    50c4:	71068693          	addi	a3,a3,1808 # 2710 <xTaskIncrementTick.part.0+0x178>
    50c8:	000057b7          	lui	a5,0x5
    50cc:	00d606b3          	add	a3,a2,a3
    50d0:	e2078793          	addi	a5,a5,-480 # 4e20 <handle_synchronous>
    50d4:	00c6b533          	sltu	a0,a3,a2
    50d8:	00f607b3          	add	a5,a2,a5
    50dc:	00d5a023          	sw	a3,0(a1)
    50e0:	00e508b3          	add	a7,a0,a4
    50e4:	00c7b633          	sltu	a2,a5,a2
    50e8:	0115a223          	sw	a7,4(a1)
    50ec:	0001c697          	auipc	a3,0x1c
    50f0:	cbc68693          	addi	a3,a3,-836 # 20da8 <ullNextTime>
    50f4:	00e60733          	add	a4,a2,a4
    50f8:	00f6a023          	sw	a5,0(a3)
    50fc:	00e6a223          	sw	a4,4(a3)
    5100:	01010113          	addi	sp,sp,16
    5104:	00008067          	ret

00005108 <xPortStartScheduler>:
    5108:	ff010113          	addi	sp,sp,-16
    510c:	00112623          	sw	ra,12(sp)
    5110:	f75ff0ef          	jal	ra,5084 <vPortSetupTimerInterrupt>
    5114:	000017b7          	lui	a5,0x1
    5118:	88078793          	addi	a5,a5,-1920 # 880 <_ntoa_long+0xbc>
    511c:	3047a073          	csrs	mie,a5
    5120:	de1ff0ef          	jal	ra,4f00 <xPortStartFirstTask>
    5124:	00c12083          	lw	ra,12(sp)
    5128:	00000513          	li	a0,0
    512c:	01010113          	addi	sp,sp,16
    5130:	00008067          	ret

00005134 <vPortEndScheduler>:
    5134:	0000006f          	j	5134 <vPortEndScheduler>

00005138 <vApplicationGetIdleTaskMemory>:
    5138:	0001c797          	auipc	a5,0x1c
    513c:	e9c78793          	addi	a5,a5,-356 # 20fd4 <xIdleTaskTCB.1>
    5140:	00f52023          	sw	a5,0(a0)
    5144:	0001c797          	auipc	a5,0x1c
    5148:	ee878793          	addi	a5,a5,-280 # 2102c <uxIdleTaskStack.0>
    514c:	00f5a023          	sw	a5,0(a1)
    5150:	40000793          	li	a5,1024
    5154:	00f62023          	sw	a5,0(a2)
    5158:	00008067          	ret

0000515c <vListInitialise>:
    515c:	00850793          	addi	a5,a0,8
    5160:	fff00713          	li	a4,-1
    5164:	00f52223          	sw	a5,4(a0)
    5168:	00e52423          	sw	a4,8(a0)
    516c:	00f52623          	sw	a5,12(a0)
    5170:	00f52823          	sw	a5,16(a0)
    5174:	00052023          	sw	zero,0(a0)
    5178:	00008067          	ret

0000517c <vListInitialiseItem>:
    517c:	00052823          	sw	zero,16(a0)
    5180:	00008067          	ret

00005184 <vListInsertEnd>:
    5184:	00452783          	lw	a5,4(a0)
    5188:	00052703          	lw	a4,0(a0)
    518c:	0087a683          	lw	a3,8(a5)
    5190:	00f5a223          	sw	a5,4(a1)
    5194:	00170713          	addi	a4,a4,1
    5198:	00d5a423          	sw	a3,8(a1)
    519c:	0087a683          	lw	a3,8(a5)
    51a0:	00b6a223          	sw	a1,4(a3)
    51a4:	00b7a423          	sw	a1,8(a5)
    51a8:	00a5a823          	sw	a0,16(a1)
    51ac:	00e52023          	sw	a4,0(a0)
    51b0:	00008067          	ret

000051b4 <vListInsert>:
    51b4:	0005a603          	lw	a2,0(a1)
    51b8:	fff00713          	li	a4,-1
    51bc:	00850793          	addi	a5,a0,8
    51c0:	02e60c63          	beq	a2,a4,51f8 <vListInsert+0x44>
    51c4:	00078693          	mv	a3,a5
    51c8:	0047a783          	lw	a5,4(a5)
    51cc:	0007a703          	lw	a4,0(a5)
    51d0:	fee67ae3          	bgeu	a2,a4,51c4 <vListInsert+0x10>
    51d4:	00f5a223          	sw	a5,4(a1)
    51d8:	00b7a423          	sw	a1,8(a5)
    51dc:	00052783          	lw	a5,0(a0)
    51e0:	00d5a423          	sw	a3,8(a1)
    51e4:	00b6a223          	sw	a1,4(a3)
    51e8:	00a5a823          	sw	a0,16(a1)
    51ec:	00178793          	addi	a5,a5,1
    51f0:	00f52023          	sw	a5,0(a0)
    51f4:	00008067          	ret
    51f8:	01052683          	lw	a3,16(a0)
    51fc:	0046a783          	lw	a5,4(a3)
    5200:	fd5ff06f          	j	51d4 <vListInsert+0x20>

00005204 <uxListRemove>:
    5204:	01052783          	lw	a5,16(a0)
    5208:	00452683          	lw	a3,4(a0)
    520c:	00852703          	lw	a4,8(a0)
    5210:	0047a603          	lw	a2,4(a5)
    5214:	00e6a423          	sw	a4,8(a3)
    5218:	00d72223          	sw	a3,4(a4)
    521c:	00a60e63          	beq	a2,a0,5238 <uxListRemove+0x34>
    5220:	0007a703          	lw	a4,0(a5)
    5224:	00052823          	sw	zero,16(a0)
    5228:	fff70713          	addi	a4,a4,-1
    522c:	00e7a023          	sw	a4,0(a5)
    5230:	0007a503          	lw	a0,0(a5)
    5234:	00008067          	ret
    5238:	00e7a223          	sw	a4,4(a5)
    523c:	0007a703          	lw	a4,0(a5)
    5240:	00052823          	sw	zero,16(a0)
    5244:	fff70713          	addi	a4,a4,-1
    5248:	00e7a023          	sw	a4,0(a5)
    524c:	0007a503          	lw	a0,0(a5)
    5250:	00008067          	ret

00005254 <prvExitThread>:
    5254:	ff010113          	addi	sp,sp,-16
    5258:	00000513          	li	a0,0
    525c:	00112623          	sw	ra,12(sp)
    5260:	8a1fd0ef          	jal	ra,2b00 <xTaskGetApplicationTaskTag>
    5264:	00251703          	lh	a4,2(a0)
    5268:	00074c63          	bltz	a4,5280 <prvExitThread+0x2c>
    526c:	a01ff0ef          	jal	ra,4c6c <vPortFree>
    5270:	00c12083          	lw	ra,12(sp)
    5274:	00000513          	li	a0,0
    5278:	01010113          	addi	sp,sp,16
    527c:	dc8fe06f          	j	3844 <vTaskDelete>
    5280:	00000693          	li	a3,0
    5284:	00000613          	li	a2,0
    5288:	00000593          	li	a1,0
    528c:	01050513          	addi	a0,a0,16
    5290:	57c010ef          	jal	ra,680c <xQueueGenericSend>
    5294:	00c12083          	lw	ra,12(sp)
    5298:	00000513          	li	a0,0
    529c:	01010113          	addi	sp,sp,16
    52a0:	931fe06f          	j	3bd0 <vTaskSuspend>

000052a4 <prvRunThread>:
    52a4:	ff010113          	addi	sp,sp,-16
    52a8:	00812423          	sw	s0,8(sp)
    52ac:	00452783          	lw	a5,4(a0)
    52b0:	00050413          	mv	s0,a0
    52b4:	00852503          	lw	a0,8(a0)
    52b8:	00112623          	sw	ra,12(sp)
    52bc:	000780e7          	jalr	a5
    52c0:	0aa42023          	sw	a0,160(s0)
    52c4:	00812403          	lw	s0,8(sp)
    52c8:	00c12083          	lw	ra,12(sp)
    52cc:	01010113          	addi	sp,sp,16
    52d0:	f85ff06f          	j	5254 <prvExitThread>

000052d4 <pthread_attr_destroy>:
    52d4:	00000513          	li	a0,0
    52d8:	00008067          	ret

000052dc <pthread_attr_getdetachstate>:
    52dc:	00251783          	lh	a5,2(a0)
    52e0:	00000513          	li	a0,0
    52e4:	01f7d793          	srli	a5,a5,0x1f
    52e8:	00f5a023          	sw	a5,0(a1)
    52ec:	00008067          	ret

000052f0 <pthread_attr_getschedparam>:
    52f0:	00255783          	lhu	a5,2(a0)
    52f4:	00000513          	li	a0,0
    52f8:	01179793          	slli	a5,a5,0x11
    52fc:	0117d793          	srli	a5,a5,0x11
    5300:	00f5a023          	sw	a5,0(a1)
    5304:	00008067          	ret

00005308 <pthread_attr_getstacksize>:
    5308:	00055783          	lhu	a5,0(a0)
    530c:	00000513          	li	a0,0
    5310:	00f5a023          	sw	a5,0(a1)
    5314:	00008067          	ret

00005318 <pthread_attr_init>:
    5318:	000017b7          	lui	a5,0x1
    531c:	00f51023          	sh	a5,0(a0)
    5320:	ffff87b7          	lui	a5,0xffff8
    5324:	00f51123          	sh	a5,2(a0)
    5328:	00000513          	li	a0,0
    532c:	00008067          	ret

00005330 <pthread_attr_setdetachstate>:
    5330:	00100793          	li	a5,1
    5334:	00050713          	mv	a4,a0
    5338:	02b7e263          	bltu	a5,a1,535c <pthread_attr_setdetachstate+0x2c>
    533c:	00255783          	lhu	a5,2(a0)
    5340:	00f59593          	slli	a1,a1,0xf
    5344:	00000513          	li	a0,0
    5348:	01179793          	slli	a5,a5,0x11
    534c:	0117d793          	srli	a5,a5,0x11
    5350:	00b7e5b3          	or	a1,a5,a1
    5354:	00b71123          	sh	a1,2(a4)
    5358:	00008067          	ret
    535c:	01600513          	li	a0,22
    5360:	00008067          	ret

00005364 <pthread_attr_setschedparam>:
    5364:	06058863          	beqz	a1,53d4 <pthread_attr_setschedparam+0x70>
    5368:	ff010113          	addi	sp,sp,-16
    536c:	00912223          	sw	s1,4(sp)
    5370:	01212023          	sw	s2,0(sp)
    5374:	00050493          	mv	s1,a0
    5378:	0005a903          	lw	s2,0(a1)
    537c:	00000513          	li	a0,0
    5380:	00812423          	sw	s0,8(sp)
    5384:	00112623          	sw	ra,12(sp)
    5388:	00058413          	mv	s0,a1
    538c:	6f8000ef          	jal	ra,5a84 <sched_get_priority_max>
    5390:	00050793          	mv	a5,a0
    5394:	05f00513          	li	a0,95
    5398:	0327c263          	blt	a5,s2,53bc <pthread_attr_setschedparam+0x58>
    539c:	00042703          	lw	a4,0(s0)
    53a0:	00074e63          	bltz	a4,53bc <pthread_attr_setschedparam+0x58>
    53a4:	0024d783          	lhu	a5,2(s1)
    53a8:	ffff86b7          	lui	a3,0xffff8
    53ac:	00000513          	li	a0,0
    53b0:	00d7f7b3          	and	a5,a5,a3
    53b4:	00e7e7b3          	or	a5,a5,a4
    53b8:	00f49123          	sh	a5,2(s1)
    53bc:	00c12083          	lw	ra,12(sp)
    53c0:	00812403          	lw	s0,8(sp)
    53c4:	00412483          	lw	s1,4(sp)
    53c8:	00012903          	lw	s2,0(sp)
    53cc:	01010113          	addi	sp,sp,16
    53d0:	00008067          	ret
    53d4:	01600513          	li	a0,22
    53d8:	00008067          	ret

000053dc <pthread_attr_setschedpolicy>:
    53dc:	00000513          	li	a0,0
