
dhrystone.elf:     file format elf32-littleriscv


Disassembly of section .text:

00000000 <_start>:
       0:	00014297          	auipc	t0,0x14
       4:	44028293          	addi	t0,t0,1088 # 14440 <trap_handler>
       8:	30529073          	csrw	mtvec,t0
       c:	3050e073          	csrsi	mtvec,1
      10:	00022297          	auipc	t0,0x22
      14:	e2428293          	addi	t0,t0,-476 # 21e34 <Dhrystones_Per_Second>
      18:	00024317          	auipc	t1,0x24
      1c:	66c30313          	addi	t1,t1,1644 # 24684 <_bss_end>

00000020 <_bss_clear>:
      20:	0002a023          	sw	zero,0(t0)
      24:	00428293          	addi	t0,t0,4
      28:	fe62ece3          	bltu	t0,t1,20 <_bss_clear>
      2c:	00040117          	auipc	sp,0x40
      30:	fd410113          	addi	sp,sp,-44 # 40000 <_stack>
      34:	224000ef          	jal	ra,258 <main>
      38:	7141406f          	j	1474c <exit>

0000003c <Proc_1>:
      3c:	ff010113          	addi	sp,sp,-16
      40:	01212023          	sw	s2,0(sp)
      44:	00022937          	lui	s2,0x22
      48:	e6892783          	lw	a5,-408(s2) # 21e68 <Ptr_Glob>
      4c:	00812423          	sw	s0,8(sp)
      50:	00052403          	lw	s0,0(a0)
      54:	0007a683          	lw	a3,0(a5)
      58:	0047af03          	lw	t5,4(a5)
      5c:	0087ae83          	lw	t4,8(a5)
      60:	0107ae03          	lw	t3,16(a5)
      64:	0147a303          	lw	t1,20(a5)
      68:	0187a883          	lw	a7,24(a5)
      6c:	01c7a803          	lw	a6,28(a5)
      70:	0287a603          	lw	a2,40(a5)
      74:	02c7a703          	lw	a4,44(a5)
      78:	0247a583          	lw	a1,36(a5)
      7c:	00112623          	sw	ra,12(sp)
      80:	00912223          	sw	s1,4(sp)
      84:	00050493          	mv	s1,a0
      88:	0207a503          	lw	a0,32(a5)
      8c:	00d42023          	sw	a3,0(s0)
      90:	0004a683          	lw	a3,0(s1)
      94:	01e42223          	sw	t5,4(s0)
      98:	01d42423          	sw	t4,8(s0)
      9c:	01c42823          	sw	t3,16(s0)
      a0:	00642a23          	sw	t1,20(s0)
      a4:	01142c23          	sw	a7,24(s0)
      a8:	01042e23          	sw	a6,28(s0)
      ac:	02a42023          	sw	a0,32(s0)
      b0:	02c42423          	sw	a2,40(s0)
      b4:	02e42623          	sw	a4,44(s0)
      b8:	02b42223          	sw	a1,36(s0)
      bc:	00500713          	li	a4,5
      c0:	00e4a623          	sw	a4,12(s1)
      c4:	00d42023          	sw	a3,0(s0)
      c8:	0007a783          	lw	a5,0(a5)
      cc:	000226b7          	lui	a3,0x22
      d0:	e606a583          	lw	a1,-416(a3) # 21e60 <Int_Glob>
      d4:	00f42023          	sw	a5,0(s0)
      d8:	e6892603          	lw	a2,-408(s2)
      dc:	00e42623          	sw	a4,12(s0)
      e0:	00a00513          	li	a0,10
      e4:	00c60613          	addi	a2,a2,12
      e8:	1ed000ef          	jal	ra,ad4 <Proc_7>
      ec:	00442783          	lw	a5,4(s0)
      f0:	08078063          	beqz	a5,170 <Proc_1+0x134>
      f4:	0004a783          	lw	a5,0(s1)
      f8:	00c12083          	lw	ra,12(sp)
      fc:	00812403          	lw	s0,8(sp)
     100:	0007af83          	lw	t6,0(a5)
     104:	0047af03          	lw	t5,4(a5)
     108:	0087ae83          	lw	t4,8(a5)
     10c:	00c7ae03          	lw	t3,12(a5)
     110:	0107a303          	lw	t1,16(a5)
     114:	0147a883          	lw	a7,20(a5)
     118:	0187a803          	lw	a6,24(a5)
     11c:	01c7a583          	lw	a1,28(a5)
     120:	0207a603          	lw	a2,32(a5)
     124:	0247a683          	lw	a3,36(a5)
     128:	0287a703          	lw	a4,40(a5)
     12c:	02c7a783          	lw	a5,44(a5)
     130:	01f4a023          	sw	t6,0(s1)
     134:	01e4a223          	sw	t5,4(s1)
     138:	01d4a423          	sw	t4,8(s1)
     13c:	01c4a623          	sw	t3,12(s1)
     140:	0064a823          	sw	t1,16(s1)
     144:	0114aa23          	sw	a7,20(s1)
     148:	0104ac23          	sw	a6,24(s1)
     14c:	00b4ae23          	sw	a1,28(s1)
     150:	02c4a023          	sw	a2,32(s1)
     154:	02d4a223          	sw	a3,36(s1)
     158:	02e4a423          	sw	a4,40(s1)
     15c:	02f4a623          	sw	a5,44(s1)
     160:	00012903          	lw	s2,0(sp)
     164:	00412483          	lw	s1,4(sp)
     168:	01010113          	addi	sp,sp,16
     16c:	00008067          	ret
     170:	0084a503          	lw	a0,8(s1)
     174:	00600793          	li	a5,6
     178:	00840593          	addi	a1,s0,8
     17c:	00f42623          	sw	a5,12(s0)
     180:	101000ef          	jal	ra,a80 <Proc_6>
     184:	e6892783          	lw	a5,-408(s2)
     188:	00c42503          	lw	a0,12(s0)
     18c:	00c40613          	addi	a2,s0,12
     190:	0007a783          	lw	a5,0(a5)
     194:	00c12083          	lw	ra,12(sp)
     198:	00412483          	lw	s1,4(sp)
     19c:	00f42023          	sw	a5,0(s0)
     1a0:	00812403          	lw	s0,8(sp)
     1a4:	00012903          	lw	s2,0(sp)
     1a8:	00a00593          	li	a1,10
     1ac:	01010113          	addi	sp,sp,16
     1b0:	1250006f          	j	ad4 <Proc_7>

000001b4 <Proc_2>:
     1b4:	000227b7          	lui	a5,0x22
     1b8:	e597c703          	lbu	a4,-423(a5) # 21e59 <Ch_1_Glob>
     1bc:	04100793          	li	a5,65
     1c0:	00f70463          	beq	a4,a5,1c8 <Proc_2+0x14>
     1c4:	00008067          	ret
     1c8:	00052783          	lw	a5,0(a0)
     1cc:	00022737          	lui	a4,0x22
     1d0:	e6072703          	lw	a4,-416(a4) # 21e60 <Int_Glob>
     1d4:	00978793          	addi	a5,a5,9
     1d8:	40e787b3          	sub	a5,a5,a4
     1dc:	00f52023          	sw	a5,0(a0)
     1e0:	00008067          	ret

000001e4 <Proc_3>:
     1e4:	000227b7          	lui	a5,0x22
     1e8:	e687a603          	lw	a2,-408(a5) # 21e68 <Ptr_Glob>
     1ec:	00060863          	beqz	a2,1fc <Proc_3+0x18>
     1f0:	00062703          	lw	a4,0(a2)
     1f4:	00e52023          	sw	a4,0(a0)
     1f8:	e687a603          	lw	a2,-408(a5)
     1fc:	000227b7          	lui	a5,0x22
     200:	e607a583          	lw	a1,-416(a5) # 21e60 <Int_Glob>
     204:	00c60613          	addi	a2,a2,12
     208:	00a00513          	li	a0,10
     20c:	0c90006f          	j	ad4 <Proc_7>

00000210 <Proc_4>:
     210:	000227b7          	lui	a5,0x22
     214:	e597c783          	lbu	a5,-423(a5) # 21e59 <Ch_1_Glob>
     218:	00022737          	lui	a4,0x22
     21c:	e5c72683          	lw	a3,-420(a4) # 21e5c <Bool_Glob>
     220:	fbf78793          	addi	a5,a5,-65
     224:	0017b793          	seqz	a5,a5
     228:	00d7e7b3          	or	a5,a5,a3
     22c:	e4f72e23          	sw	a5,-420(a4)
     230:	000227b7          	lui	a5,0x22
     234:	04200713          	li	a4,66
     238:	e4e78c23          	sb	a4,-424(a5) # 21e58 <Ch_2_Glob>
     23c:	00008067          	ret

00000240 <Proc_5>:
     240:	000227b7          	lui	a5,0x22
     244:	04100713          	li	a4,65
     248:	e4e78ca3          	sb	a4,-423(a5) # 21e59 <Ch_1_Glob>
     24c:	000227b7          	lui	a5,0x22
     250:	e407ae23          	sw	zero,-420(a5) # 21e5c <Bool_Glob>
     254:	00008067          	ret

00000258 <main>:
     258:	f5010113          	addi	sp,sp,-176
     25c:	03000513          	li	a0,48
     260:	0a112623          	sw	ra,172(sp)
     264:	0a812423          	sw	s0,168(sp)
     268:	09612823          	sw	s6,144(sp)
     26c:	09812423          	sw	s8,136(sp)
     270:	0a912223          	sw	s1,164(sp)
     274:	0b212023          	sw	s2,160(sp)
     278:	09312e23          	sw	s3,156(sp)
     27c:	09412c23          	sw	s4,152(sp)
     280:	09512a23          	sw	s5,148(sp)
     284:	09712623          	sw	s7,140(sp)
     288:	09912223          	sw	s9,132(sp)
     28c:	09a12023          	sw	s10,128(sp)
     290:	07b12e23          	sw	s11,124(sp)
     294:	13d000ef          	jal	ra,bd0 <malloc>
     298:	00050413          	mv	s0,a0
     29c:	000227b7          	lui	a5,0x22
     2a0:	03000513          	li	a0,48
     2a4:	e687a223          	sw	s0,-412(a5) # 21e64 <Next_Ptr_Glob>
     2a8:	129000ef          	jal	ra,bd0 <malloc>
     2ac:	000207b7          	lui	a5,0x20
     2b0:	00020737          	lui	a4,0x20
     2b4:	03c78793          	addi	a5,a5,60 # 2003c <_impure_ptr+0x4>
     2b8:	59c70713          	addi	a4,a4,1436 # 2059c <_impure_ptr+0x564>
     2bc:	0007a383          	lw	t2,0(a5)
     2c0:	0047af03          	lw	t5,4(a5)
     2c4:	0087ae83          	lw	t4,8(a5)
     2c8:	00c7ae03          	lw	t3,12(a5)
     2cc:	0107a303          	lw	t1,16(a5)
     2d0:	00072283          	lw	t0,0(a4)
     2d4:	00472f83          	lw	t6,4(a4)
     2d8:	0147a883          	lw	a7,20(a5)
     2dc:	0187a803          	lw	a6,24(a5)
     2e0:	01c7d583          	lhu	a1,28(a5)
     2e4:	01e7c603          	lbu	a2,30(a5)
     2e8:	00852023          	sw	s0,0(a0)
     2ec:	00050793          	mv	a5,a0
     2f0:	00052223          	sw	zero,4(a0)
     2f4:	00872683          	lw	a3,8(a4)
     2f8:	00200513          	li	a0,2
     2fc:	00a7a423          	sw	a0,8(a5)
     300:	00022b37          	lui	s6,0x22
     304:	02800513          	li	a0,40
     308:	0077a823          	sw	t2,16(a5)
     30c:	01e7aa23          	sw	t5,20(a5)
     310:	01d7ac23          	sw	t4,24(a5)
     314:	01c7ae23          	sw	t3,28(a5)
     318:	0267a023          	sw	t1,32(a5)
     31c:	02512823          	sw	t0,48(sp)
     320:	03f12a23          	sw	t6,52(sp)
     324:	00a7a623          	sw	a0,12(a5)
     328:	0317a223          	sw	a7,36(a5)
     32c:	0307a423          	sw	a6,40(a5)
     330:	02b79623          	sh	a1,44(a5)
     334:	02c78723          	sb	a2,46(a5)
     338:	e6fb2423          	sw	a5,-408(s6) # 21e68 <Ptr_Glob>
     33c:	00c72883          	lw	a7,12(a4)
     340:	01072803          	lw	a6,16(a4)
     344:	01472583          	lw	a1,20(a4)
     348:	01872603          	lw	a2,24(a4)
     34c:	02d12c23          	sw	a3,56(sp)
     350:	01e74783          	lbu	a5,30(a4)
     354:	01c75683          	lhu	a3,28(a4)
     358:	00022c37          	lui	s8,0x22
     35c:	f4cc0713          	addi	a4,s8,-180 # 21f4c <Arr_2_Glob>
     360:	04f10723          	sb	a5,78(sp)
     364:	00a00793          	li	a5,10
     368:	64f72e23          	sw	a5,1628(a4)
     36c:	00a00513          	li	a0,10
     370:	03112e23          	sw	a7,60(sp)
     374:	05012023          	sw	a6,64(sp)
     378:	04b12223          	sw	a1,68(sp)
     37c:	04c12423          	sw	a2,72(sp)
     380:	04d11623          	sh	a3,76(sp)
     384:	0d8010ef          	jal	ra,145c <putchar>
     388:	00020537          	lui	a0,0x20
     38c:	05c50513          	addi	a0,a0,92 # 2005c <_impure_ptr+0x24>
     390:	2f0010ef          	jal	ra,1680 <puts>
     394:	00a00513          	li	a0,10
     398:	0c4010ef          	jal	ra,145c <putchar>
     39c:	000227b7          	lui	a5,0x22
     3a0:	e547a783          	lw	a5,-428(a5) # 21e54 <Reg>
     3a4:	6c078263          	beqz	a5,a68 <main+0x810>
     3a8:	00020537          	lui	a0,0x20
     3ac:	08c50513          	addi	a0,a0,140 # 2008c <_impure_ptr+0x54>
     3b0:	2d0010ef          	jal	ra,1680 <puts>
     3b4:	00a00513          	li	a0,10
     3b8:	0a4010ef          	jal	ra,145c <putchar>
     3bc:	00020537          	lui	a0,0x20
     3c0:	0e850513          	addi	a0,a0,232 # 200e8 <_impure_ptr+0xb0>
     3c4:	040010ef          	jal	ra,1404 <printf>
     3c8:	00a00513          	li	a0,10
     3cc:	090010ef          	jal	ra,145c <putchar>
     3d0:	00020537          	lui	a0,0x20
     3d4:	06400593          	li	a1,100
     3d8:	12050513          	addi	a0,a0,288 # 20120 <_impure_ptr+0xe8>
     3dc:	028010ef          	jal	ra,1404 <printf>
     3e0:	00000513          	li	a0,0
     3e4:	7dc000ef          	jal	ra,bc0 <time>
     3e8:	00050793          	mv	a5,a0
     3ec:	00022737          	lui	a4,0x22
     3f0:	00000513          	li	a0,0
     3f4:	e4f72823          	sw	a5,-432(a4) # 21e50 <Begin_Time>
     3f8:	7d0000ef          	jal	ra,bc8 <insn>
     3fc:	000207b7          	lui	a5,0x20
     400:	5bc78793          	addi	a5,a5,1468 # 205bc <_impure_ptr+0x584>
     404:	0047a703          	lw	a4,4(a5)
     408:	0007ad83          	lw	s11,0(a5)
     40c:	00020837          	lui	a6,0x20
     410:	00e12023          	sw	a4,0(sp)
     414:	0087a703          	lw	a4,8(a5)
     418:	00100493          	li	s1,1
     41c:	000229b7          	lui	s3,0x22
     420:	00e12223          	sw	a4,4(sp)
     424:	00c7a703          	lw	a4,12(a5)
     428:	00022a37          	lui	s4,0x22
     42c:	00022437          	lui	s0,0x22
     430:	00e12423          	sw	a4,8(sp)
     434:	0107a703          	lw	a4,16(a5)
     438:	00022bb7          	lui	s7,0x22
     43c:	00022ab7          	lui	s5,0x22
     440:	00e12623          	sw	a4,12(sp)
     444:	0147a703          	lw	a4,20(a5)
     448:	5dc80c93          	addi	s9,a6,1500 # 205dc <_impure_ptr+0x5a4>
     44c:	00e12823          	sw	a4,16(sp)
     450:	0187a703          	lw	a4,24(a5)
     454:	00e12a23          	sw	a4,20(sp)
     458:	01c7d703          	lhu	a4,28(a5)
     45c:	01e7c783          	lbu	a5,30(a5)
     460:	00e12c23          	sw	a4,24(sp)
     464:	00f12e23          	sw	a5,28(sp)
     468:	000227b7          	lui	a5,0x22
     46c:	e4a7a223          	sw	a0,-444(a5) # 21e44 <Begin_Insn>
     470:	04100713          	li	a4,65
     474:	e4e98ca3          	sb	a4,-423(s3) # 21e59 <Ch_1_Glob>
     478:	04200713          	li	a4,66
     47c:	e4e40c23          	sb	a4,-424(s0) # 21e58 <Ch_2_Glob>
     480:	00012703          	lw	a4,0(sp)
     484:	00100793          	li	a5,1
     488:	05010593          	addi	a1,sp,80
     48c:	04e12a23          	sw	a4,84(sp)
     490:	00412703          	lw	a4,4(sp)
     494:	03010513          	addi	a0,sp,48
     498:	e4fa2e23          	sw	a5,-420(s4) # 21e5c <Bool_Glob>
     49c:	04e12c23          	sw	a4,88(sp)
     4a0:	00812703          	lw	a4,8(sp)
     4a4:	02f12623          	sw	a5,44(sp)
     4a8:	05b12823          	sw	s11,80(sp)
     4ac:	04e12e23          	sw	a4,92(sp)
     4b0:	00c12703          	lw	a4,12(sp)
     4b4:	06e12023          	sw	a4,96(sp)
     4b8:	01012703          	lw	a4,16(sp)
     4bc:	06e12223          	sw	a4,100(sp)
     4c0:	01412703          	lw	a4,20(sp)
     4c4:	06e12423          	sw	a4,104(sp)
     4c8:	01812703          	lw	a4,24(sp)
     4cc:	06e11623          	sh	a4,108(sp)
     4d0:	01c12703          	lw	a4,28(sp)
     4d4:	06e10723          	sb	a4,110(sp)
     4d8:	698000ef          	jal	ra,b70 <Func_2>
     4dc:	00153793          	seqz	a5,a0
     4e0:	02810613          	addi	a2,sp,40
     4e4:	00300593          	li	a1,3
     4e8:	e4fa2e23          	sw	a5,-420(s4)
     4ec:	00200513          	li	a0,2
     4f0:	00700793          	li	a5,7
     4f4:	02f12423          	sw	a5,40(sp)
     4f8:	5dc000ef          	jal	ra,ad4 <Proc_7>
     4fc:	02812683          	lw	a3,40(sp)
     500:	00300613          	li	a2,3
     504:	f4cc0593          	addi	a1,s8,-180
     508:	e84b8513          	addi	a0,s7,-380 # 21e84 <Arr_1_Glob>
     50c:	5d8000ef          	jal	ra,ae4 <Proc_8>
     510:	e68b2503          	lw	a0,-408(s6)
     514:	b29ff0ef          	jal	ra,3c <Proc_1>
     518:	e5844703          	lbu	a4,-424(s0)
     51c:	04000793          	li	a5,64
     520:	54e7f063          	bgeu	a5,a4,a60 <main+0x808>
     524:	04100d13          	li	s10,65
     528:	00300913          	li	s2,3
     52c:	000d0513          	mv	a0,s10
     530:	04300593          	li	a1,67
     534:	618000ef          	jal	ra,b4c <Func_1>
     538:	02c12783          	lw	a5,44(sp)
     53c:	001d0713          	addi	a4,s10,1
     540:	4af50863          	beq	a0,a5,9f0 <main+0x798>
     544:	e5844783          	lbu	a5,-424(s0)
     548:	0ff77d13          	zext.b	s10,a4
     54c:	ffa7f0e3          	bgeu	a5,s10,52c <main+0x2d4>
     550:	00191793          	slli	a5,s2,0x1
     554:	012787b3          	add	a5,a5,s2
     558:	02812303          	lw	t1,40(sp)
     55c:	e599c603          	lbu	a2,-423(s3)
     560:	04100693          	li	a3,65
     564:	0267c8b3          	div	a7,a5,t1
     568:	00088713          	mv	a4,a7
     56c:	00d61863          	bne	a2,a3,57c <main+0x324>
     570:	e60aa683          	lw	a3,-416(s5) # 21e60 <Int_Glob>
     574:	00988713          	addi	a4,a7,9
     578:	40d70733          	sub	a4,a4,a3
     57c:	00148493          	addi	s1,s1,1
     580:	06500693          	li	a3,101
     584:	eed496e3          	bne	s1,a3,470 <main+0x218>
     588:	00000513          	li	a0,0
     58c:	00612623          	sw	t1,12(sp)
     590:	01112423          	sw	a7,8(sp)
     594:	00e12223          	sw	a4,4(sp)
     598:	00f12023          	sw	a5,0(sp)
     59c:	624000ef          	jal	ra,bc0 <time>
     5a0:	000226b7          	lui	a3,0x22
     5a4:	00050613          	mv	a2,a0
     5a8:	00000513          	li	a0,0
     5ac:	e4c6a623          	sw	a2,-436(a3) # 21e4c <End_Time>
     5b0:	618000ef          	jal	ra,bc8 <insn>
     5b4:	00050613          	mv	a2,a0
     5b8:	00020537          	lui	a0,0x20
     5bc:	00022db7          	lui	s11,0x22
     5c0:	15050513          	addi	a0,a0,336 # 20150 <_impure_ptr+0x118>
     5c4:	e4cda023          	sw	a2,-448(s11) # 21e40 <End_Insn>
     5c8:	0b8010ef          	jal	ra,1680 <puts>
     5cc:	00a00513          	li	a0,10
     5d0:	68d000ef          	jal	ra,145c <putchar>
     5d4:	00020537          	lui	a0,0x20
     5d8:	16050513          	addi	a0,a0,352 # 20160 <_impure_ptr+0x128>
     5dc:	0a4010ef          	jal	ra,1680 <puts>
     5e0:	00a00513          	li	a0,10
     5e4:	679000ef          	jal	ra,145c <putchar>
     5e8:	e60aa583          	lw	a1,-416(s5)
     5ec:	00020537          	lui	a0,0x20
     5f0:	19850513          	addi	a0,a0,408 # 20198 <_impure_ptr+0x160>
     5f4:	000204b7          	lui	s1,0x20
     5f8:	60d000ef          	jal	ra,1404 <printf>
     5fc:	00500593          	li	a1,5
     600:	1b448513          	addi	a0,s1,436 # 201b4 <_impure_ptr+0x17c>
     604:	601000ef          	jal	ra,1404 <printf>
     608:	e5ca2583          	lw	a1,-420(s4)
     60c:	00020537          	lui	a0,0x20
     610:	1d050513          	addi	a0,a0,464 # 201d0 <_impure_ptr+0x198>
     614:	5f1000ef          	jal	ra,1404 <printf>
     618:	00100593          	li	a1,1
     61c:	1b448513          	addi	a0,s1,436
     620:	5e5000ef          	jal	ra,1404 <printf>
     624:	e599c583          	lbu	a1,-423(s3)
     628:	00020537          	lui	a0,0x20
     62c:	1ec50513          	addi	a0,a0,492 # 201ec <_impure_ptr+0x1b4>
     630:	5d5000ef          	jal	ra,1404 <printf>
     634:	00020937          	lui	s2,0x20
     638:	04100593          	li	a1,65
     63c:	20890513          	addi	a0,s2,520 # 20208 <_impure_ptr+0x1d0>
     640:	5c5000ef          	jal	ra,1404 <printf>
     644:	e5844583          	lbu	a1,-424(s0)
     648:	00020537          	lui	a0,0x20
     64c:	22450513          	addi	a0,a0,548 # 20224 <_impure_ptr+0x1ec>
     650:	5b5000ef          	jal	ra,1404 <printf>
     654:	04200593          	li	a1,66
     658:	20890513          	addi	a0,s2,520
     65c:	5a9000ef          	jal	ra,1404 <printf>
     660:	e84b8b93          	addi	s7,s7,-380
     664:	020ba583          	lw	a1,32(s7)
     668:	00020537          	lui	a0,0x20
     66c:	24050513          	addi	a0,a0,576 # 20240 <_impure_ptr+0x208>
     670:	595000ef          	jal	ra,1404 <printf>
     674:	00700593          	li	a1,7
     678:	1b448513          	addi	a0,s1,436
     67c:	589000ef          	jal	ra,1404 <printf>
     680:	000227b7          	lui	a5,0x22
     684:	f4c78793          	addi	a5,a5,-180 # 21f4c <Arr_2_Glob>
     688:	65c7a583          	lw	a1,1628(a5)
     68c:	00020537          	lui	a0,0x20
     690:	25c50513          	addi	a0,a0,604 # 2025c <_impure_ptr+0x224>
     694:	571000ef          	jal	ra,1404 <printf>
     698:	00020537          	lui	a0,0x20
     69c:	27850513          	addi	a0,a0,632 # 20278 <_impure_ptr+0x240>
     6a0:	7e1000ef          	jal	ra,1680 <puts>
     6a4:	00020537          	lui	a0,0x20
     6a8:	2a450513          	addi	a0,a0,676 # 202a4 <_impure_ptr+0x26c>
     6ac:	7d5000ef          	jal	ra,1680 <puts>
     6b0:	e68b2583          	lw	a1,-408(s6)
     6b4:	00020637          	lui	a2,0x20
     6b8:	2b060513          	addi	a0,a2,688 # 202b0 <_impure_ptr+0x278>
     6bc:	0005a583          	lw	a1,0(a1)
     6c0:	00020c37          	lui	s8,0x20
     6c4:	00020bb7          	lui	s7,0x20
     6c8:	53d000ef          	jal	ra,1404 <printf>
     6cc:	00020537          	lui	a0,0x20
     6d0:	2cc50513          	addi	a0,a0,716 # 202cc <_impure_ptr+0x294>
     6d4:	7ad000ef          	jal	ra,1680 <puts>
     6d8:	e68b2583          	lw	a1,-408(s6)
     6dc:	2fcc0513          	addi	a0,s8,764 # 202fc <_impure_ptr+0x2c4>
     6e0:	00020ab7          	lui	s5,0x20
     6e4:	0045a583          	lw	a1,4(a1)
     6e8:	00020a37          	lui	s4,0x20
     6ec:	000209b7          	lui	s3,0x20
     6f0:	515000ef          	jal	ra,1404 <printf>
     6f4:	00000593          	li	a1,0
     6f8:	1b448513          	addi	a0,s1,436
     6fc:	509000ef          	jal	ra,1404 <printf>
     700:	e68b2583          	lw	a1,-408(s6)
     704:	318b8513          	addi	a0,s7,792 # 20318 <_impure_ptr+0x2e0>
     708:	00022437          	lui	s0,0x22
     70c:	0085a583          	lw	a1,8(a1)
     710:	00022937          	lui	s2,0x22
     714:	3e800d13          	li	s10,1000
     718:	4ed000ef          	jal	ra,1404 <printf>
     71c:	00200593          	li	a1,2
     720:	1b448513          	addi	a0,s1,436
     724:	4e1000ef          	jal	ra,1404 <printf>
     728:	e68b2583          	lw	a1,-408(s6)
     72c:	334a8513          	addi	a0,s5,820 # 20334 <_impure_ptr+0x2fc>
     730:	00a00c93          	li	s9,10
     734:	00c5a583          	lw	a1,12(a1)
     738:	4cd000ef          	jal	ra,1404 <printf>
     73c:	01100593          	li	a1,17
     740:	1b448513          	addi	a0,s1,436
     744:	4c1000ef          	jal	ra,1404 <printf>
     748:	e68b2583          	lw	a1,-408(s6)
     74c:	350a0513          	addi	a0,s4,848 # 20350 <_impure_ptr+0x318>
     750:	00022b37          	lui	s6,0x22
     754:	01058593          	addi	a1,a1,16
     758:	4ad000ef          	jal	ra,1404 <printf>
     75c:	36c98513          	addi	a0,s3,876 # 2036c <_impure_ptr+0x334>
     760:	721000ef          	jal	ra,1680 <puts>
     764:	00020537          	lui	a0,0x20
     768:	3a050513          	addi	a0,a0,928 # 203a0 <_impure_ptr+0x368>
     76c:	715000ef          	jal	ra,1680 <puts>
     770:	e64b2583          	lw	a1,-412(s6) # 21e64 <Next_Ptr_Glob>
     774:	00020637          	lui	a2,0x20
     778:	2b060513          	addi	a0,a2,688 # 202b0 <_impure_ptr+0x278>
     77c:	0005a583          	lw	a1,0(a1)
     780:	485000ef          	jal	ra,1404 <printf>
     784:	00020537          	lui	a0,0x20
     788:	3b050513          	addi	a0,a0,944 # 203b0 <_impure_ptr+0x378>
     78c:	6f5000ef          	jal	ra,1680 <puts>
     790:	e64b2603          	lw	a2,-412(s6)
     794:	2fcc0513          	addi	a0,s8,764
     798:	00462583          	lw	a1,4(a2)
     79c:	469000ef          	jal	ra,1404 <printf>
     7a0:	00000593          	li	a1,0
     7a4:	1b448513          	addi	a0,s1,436
     7a8:	45d000ef          	jal	ra,1404 <printf>
     7ac:	e64b2603          	lw	a2,-412(s6)
     7b0:	318b8513          	addi	a0,s7,792
     7b4:	00862583          	lw	a1,8(a2)
     7b8:	44d000ef          	jal	ra,1404 <printf>
     7bc:	00100593          	li	a1,1
     7c0:	1b448513          	addi	a0,s1,436
     7c4:	441000ef          	jal	ra,1404 <printf>
     7c8:	e64b2603          	lw	a2,-412(s6)
     7cc:	334a8513          	addi	a0,s5,820
     7d0:	00c62583          	lw	a1,12(a2)
     7d4:	431000ef          	jal	ra,1404 <printf>
     7d8:	01200593          	li	a1,18
     7dc:	1b448513          	addi	a0,s1,436
     7e0:	425000ef          	jal	ra,1404 <printf>
     7e4:	e64b2583          	lw	a1,-412(s6)
     7e8:	350a0513          	addi	a0,s4,848
     7ec:	01058593          	addi	a1,a1,16
     7f0:	415000ef          	jal	ra,1404 <printf>
     7f4:	36c98513          	addi	a0,s3,876
     7f8:	689000ef          	jal	ra,1680 <puts>
     7fc:	00412703          	lw	a4,4(sp)
     800:	00020537          	lui	a0,0x20
     804:	3f050513          	addi	a0,a0,1008 # 203f0 <_impure_ptr+0x3b8>
     808:	00070593          	mv	a1,a4
     80c:	3f9000ef          	jal	ra,1404 <printf>
     810:	00500593          	li	a1,5
     814:	1b448513          	addi	a0,s1,436
     818:	3ed000ef          	jal	ra,1404 <printf>
     81c:	00c12303          	lw	t1,12(sp)
     820:	00012783          	lw	a5,0(sp)
     824:	00812883          	lw	a7,8(sp)
     828:	00020537          	lui	a0,0x20
     82c:	406787b3          	sub	a5,a5,t1
     830:	00379593          	slli	a1,a5,0x3
     834:	40f585b3          	sub	a1,a1,a5
     838:	411585b3          	sub	a1,a1,a7
     83c:	40c50513          	addi	a0,a0,1036 # 2040c <_impure_ptr+0x3d4>
     840:	3c5000ef          	jal	ra,1404 <printf>
     844:	00d00593          	li	a1,13
     848:	1b448513          	addi	a0,s1,436
     84c:	3b9000ef          	jal	ra,1404 <printf>
     850:	02812583          	lw	a1,40(sp)
     854:	00020537          	lui	a0,0x20
     858:	42850513          	addi	a0,a0,1064 # 20428 <_impure_ptr+0x3f0>
     85c:	3a9000ef          	jal	ra,1404 <printf>
     860:	00700593          	li	a1,7
     864:	1b448513          	addi	a0,s1,436
     868:	39d000ef          	jal	ra,1404 <printf>
     86c:	02c12583          	lw	a1,44(sp)
     870:	00020537          	lui	a0,0x20
     874:	44450513          	addi	a0,a0,1092 # 20444 <_impure_ptr+0x40c>
     878:	38d000ef          	jal	ra,1404 <printf>
     87c:	00100593          	li	a1,1
     880:	1b448513          	addi	a0,s1,436
     884:	381000ef          	jal	ra,1404 <printf>
     888:	00020537          	lui	a0,0x20
     88c:	03010593          	addi	a1,sp,48
     890:	46050513          	addi	a0,a0,1120 # 20460 <_impure_ptr+0x428>
     894:	371000ef          	jal	ra,1404 <printf>
     898:	00020537          	lui	a0,0x20
     89c:	47c50513          	addi	a0,a0,1148 # 2047c <_impure_ptr+0x444>
     8a0:	5e1000ef          	jal	ra,1680 <puts>
     8a4:	00020537          	lui	a0,0x20
     8a8:	05010593          	addi	a1,sp,80
     8ac:	4b050513          	addi	a0,a0,1200 # 204b0 <_impure_ptr+0x478>
     8b0:	355000ef          	jal	ra,1404 <printf>
     8b4:	00020537          	lui	a0,0x20
     8b8:	4cc50513          	addi	a0,a0,1228 # 204cc <_impure_ptr+0x494>
     8bc:	5c5000ef          	jal	ra,1680 <puts>
     8c0:	00a00513          	li	a0,10
     8c4:	399000ef          	jal	ra,145c <putchar>
     8c8:	000226b7          	lui	a3,0x22
     8cc:	e4c6a703          	lw	a4,-436(a3) # 21e4c <End_Time>
     8d0:	000227b7          	lui	a5,0x22
     8d4:	000226b7          	lui	a3,0x22
     8d8:	e507a603          	lw	a2,-432(a5) # 21e50 <Begin_Time>
     8dc:	e446a683          	lw	a3,-444(a3) # 21e44 <Begin_Insn>
     8e0:	e40da783          	lw	a5,-448(s11)
     8e4:	00020537          	lui	a0,0x20
     8e8:	40c70733          	sub	a4,a4,a2
     8ec:	40d787b3          	sub	a5,a5,a3
     8f0:	06400593          	li	a1,100
     8f4:	50050513          	addi	a0,a0,1280 # 20500 <_impure_ptr+0x4c8>
     8f8:	e4e42423          	sw	a4,-440(s0) # 21e48 <User_Time>
     8fc:	e2f92e23          	sw	a5,-452(s2) # 21e3c <User_Insn>
     900:	305000ef          	jal	ra,1404 <printf>
     904:	e3c92603          	lw	a2,-452(s2)
     908:	e4842583          	lw	a1,-440(s0)
     90c:	00020537          	lui	a0,0x20
     910:	51450513          	addi	a0,a0,1300 # 20514 <_impure_ptr+0x4dc>
     914:	2f1000ef          	jal	ra,1404 <printf>
     918:	e4842583          	lw	a1,-440(s0)
     91c:	e3c92783          	lw	a5,-452(s2)
     920:	06400613          	li	a2,100
     924:	02bd05b3          	mul	a1,s10,a1
     928:	00020537          	lui	a0,0x20
     92c:	53850513          	addi	a0,a0,1336 # 20538 <_impure_ptr+0x500>
     930:	02f5c5b3          	div	a1,a1,a5
     934:	0395c6b3          	div	a3,a1,s9
     938:	02c5c633          	div	a2,a1,a2
     93c:	0395e733          	rem	a4,a1,s9
     940:	0396e6b3          	rem	a3,a3,s9
     944:	03966633          	rem	a2,a2,s9
     948:	03a5c5b3          	div	a1,a1,s10
     94c:	2b9000ef          	jal	ra,1404 <printf>
     950:	e4842703          	lw	a4,-440(s0)
     954:	05f5e7b7          	lui	a5,0x5f5e
     958:	10078793          	addi	a5,a5,256 # 5f5e100 <_stack+0x5f1e100>
     95c:	02e7c433          	div	s0,a5,a4
     960:	00020537          	lui	a0,0x20
     964:	55c50513          	addi	a0,a0,1372 # 2055c <_impure_ptr+0x524>
     968:	00040593          	mv	a1,s0
     96c:	03a40433          	mul	s0,s0,s10
     970:	295000ef          	jal	ra,1404 <printf>
     974:	6dd00713          	li	a4,1757
     978:	0002b637          	lui	a2,0x2b
     97c:	e5460613          	addi	a2,a2,-428 # 2ae54 <_bss_end+0x67d0>
     980:	001ad5b7          	lui	a1,0x1ad
     984:	f4858593          	addi	a1,a1,-184 # 1acf48 <_stack+0x16cf48>
     988:	00020537          	lui	a0,0x20
     98c:	58050513          	addi	a0,a0,1408 # 20580 <_impure_ptr+0x548>
     990:	02e44733          	div	a4,s0,a4
     994:	02c44633          	div	a2,s0,a2
     998:	039746b3          	div	a3,a4,s9
     99c:	03966633          	rem	a2,a2,s9
     9a0:	03976733          	rem	a4,a4,s9
     9a4:	0396e6b3          	rem	a3,a3,s9
     9a8:	02b445b3          	div	a1,s0,a1
     9ac:	259000ef          	jal	ra,1404 <printf>
     9b0:	0ac12083          	lw	ra,172(sp)
     9b4:	0a812403          	lw	s0,168(sp)
     9b8:	0a412483          	lw	s1,164(sp)
     9bc:	0a012903          	lw	s2,160(sp)
     9c0:	09c12983          	lw	s3,156(sp)
     9c4:	09812a03          	lw	s4,152(sp)
     9c8:	09412a83          	lw	s5,148(sp)
     9cc:	09012b03          	lw	s6,144(sp)
     9d0:	08c12b83          	lw	s7,140(sp)
     9d4:	08812c03          	lw	s8,136(sp)
     9d8:	08412c83          	lw	s9,132(sp)
     9dc:	08012d03          	lw	s10,128(sp)
     9e0:	07c12d83          	lw	s11,124(sp)
     9e4:	00000513          	li	a0,0
     9e8:	0b010113          	addi	sp,sp,176
     9ec:	00008067          	ret
     9f0:	02c10593          	addi	a1,sp,44
     9f4:	00000513          	li	a0,0
     9f8:	088000ef          	jal	ra,a80 <Proc_6>
     9fc:	000cae03          	lw	t3,0(s9)
     a00:	004ca303          	lw	t1,4(s9)
     a04:	008ca883          	lw	a7,8(s9)
     a08:	00cca803          	lw	a6,12(s9)
     a0c:	010ca503          	lw	a0,16(s9)
     a10:	014ca583          	lw	a1,20(s9)
     a14:	018ca603          	lw	a2,24(s9)
     a18:	01ccd703          	lhu	a4,28(s9)
     a1c:	01ecc783          	lbu	a5,30(s9)
     a20:	e5844683          	lbu	a3,-424(s0)
     a24:	001d0d13          	addi	s10,s10,1
     a28:	05c12823          	sw	t3,80(sp)
     a2c:	04612a23          	sw	t1,84(sp)
     a30:	05112c23          	sw	a7,88(sp)
     a34:	05012e23          	sw	a6,92(sp)
     a38:	06a12023          	sw	a0,96(sp)
     a3c:	06b12223          	sw	a1,100(sp)
     a40:	06c12423          	sw	a2,104(sp)
     a44:	06e11623          	sh	a4,108(sp)
     a48:	06f10723          	sb	a5,110(sp)
     a4c:	e69aa023          	sw	s1,-416(s5)
     a50:	0ffd7d13          	zext.b	s10,s10
     a54:	00048913          	mv	s2,s1
     a58:	ada6fae3          	bgeu	a3,s10,52c <main+0x2d4>
     a5c:	af5ff06f          	j	550 <main+0x2f8>
     a60:	00900793          	li	a5,9
     a64:	af5ff06f          	j	558 <main+0x300>
     a68:	00020537          	lui	a0,0x20
     a6c:	0b850513          	addi	a0,a0,184 # 200b8 <_impure_ptr+0x80>
     a70:	411000ef          	jal	ra,1680 <puts>
     a74:	00a00513          	li	a0,10
     a78:	1e5000ef          	jal	ra,145c <putchar>
     a7c:	941ff06f          	j	3bc <main+0x164>

00000a80 <Proc_6>:
     a80:	00200713          	li	a4,2
     a84:	04e50263          	beq	a0,a4,ac8 <Proc_6+0x48>
     a88:	00300793          	li	a5,3
     a8c:	00f5a023          	sw	a5,0(a1)
     a90:	00100793          	li	a5,1
     a94:	00f50c63          	beq	a0,a5,aac <Proc_6+0x2c>
     a98:	02a7f263          	bgeu	a5,a0,abc <Proc_6+0x3c>
     a9c:	00400793          	li	a5,4
     aa0:	02f51263          	bne	a0,a5,ac4 <Proc_6+0x44>
     aa4:	00e5a023          	sw	a4,0(a1)
     aa8:	00008067          	ret
     aac:	000227b7          	lui	a5,0x22
     ab0:	e607a703          	lw	a4,-416(a5) # 21e60 <Int_Glob>
     ab4:	06400793          	li	a5,100
     ab8:	fee7d8e3          	bge	a5,a4,aa8 <Proc_6+0x28>
     abc:	0005a023          	sw	zero,0(a1)
     ac0:	00008067          	ret
     ac4:	00008067          	ret
     ac8:	00100793          	li	a5,1
     acc:	00f5a023          	sw	a5,0(a1)
     ad0:	00008067          	ret

00000ad4 <Proc_7>:
     ad4:	00250513          	addi	a0,a0,2
     ad8:	00b505b3          	add	a1,a0,a1
     adc:	00b62023          	sw	a1,0(a2)
     ae0:	00008067          	ret

00000ae4 <Proc_8>:
     ae4:	00560713          	addi	a4,a2,5
     ae8:	0c800813          	li	a6,200
     aec:	03070833          	mul	a6,a4,a6
     af0:	00261613          	slli	a2,a2,0x2
     af4:	00271793          	slli	a5,a4,0x2
     af8:	00f50533          	add	a0,a0,a5
     afc:	00d52023          	sw	a3,0(a0)
     b00:	06e52c23          	sw	a4,120(a0)
     b04:	00d52223          	sw	a3,4(a0)
     b08:	00c807b3          	add	a5,a6,a2
     b0c:	00f587b3          	add	a5,a1,a5
     b10:	0107a683          	lw	a3,16(a5)
     b14:	00e7aa23          	sw	a4,20(a5)
     b18:	00e7ac23          	sw	a4,24(a5)
     b1c:	00168713          	addi	a4,a3,1
     b20:	00e7a823          	sw	a4,16(a5)
     b24:	00052703          	lw	a4,0(a0)
     b28:	010585b3          	add	a1,a1,a6
     b2c:	00c585b3          	add	a1,a1,a2
     b30:	000017b7          	lui	a5,0x1
     b34:	00b787b3          	add	a5,a5,a1
     b38:	fae7aa23          	sw	a4,-76(a5) # fb4 <_malloc_r+0x3c4>
     b3c:	000227b7          	lui	a5,0x22
     b40:	00500713          	li	a4,5
     b44:	e6e7a023          	sw	a4,-416(a5) # 21e60 <Int_Glob>
     b48:	00008067          	ret

00000b4c <Func_1>:
     b4c:	0ff57513          	zext.b	a0,a0
     b50:	0ff5f593          	zext.b	a1,a1
     b54:	00b50663          	beq	a0,a1,b60 <Func_1+0x14>
     b58:	00000513          	li	a0,0
     b5c:	00008067          	ret
     b60:	000227b7          	lui	a5,0x22
     b64:	e4a78ca3          	sb	a0,-423(a5) # 21e59 <Ch_1_Glob>
     b68:	00100513          	li	a0,1
     b6c:	00008067          	ret

00000b70 <Func_2>:
     b70:	00254703          	lbu	a4,2(a0)
     b74:	0035c783          	lbu	a5,3(a1)
     b78:	02f70c63          	beq	a4,a5,bb0 <Func_2+0x40>
     b7c:	ff010113          	addi	sp,sp,-16
     b80:	00112623          	sw	ra,12(sp)
     b84:	36d000ef          	jal	ra,16f0 <strcmp>
     b88:	00000793          	li	a5,0
     b8c:	00a05a63          	blez	a0,ba0 <Func_2+0x30>
     b90:	000227b7          	lui	a5,0x22
     b94:	00a00713          	li	a4,10
     b98:	e6e7a023          	sw	a4,-416(a5) # 21e60 <Int_Glob>
     b9c:	00100793          	li	a5,1
     ba0:	00c12083          	lw	ra,12(sp)
     ba4:	00078513          	mv	a0,a5
     ba8:	01010113          	addi	sp,sp,16
     bac:	00008067          	ret
     bb0:	0000006f          	j	bb0 <Func_2+0x40>

00000bb4 <Func_3>:
     bb4:	ffe50513          	addi	a0,a0,-2
     bb8:	00153513          	seqz	a0,a0
     bbc:	00008067          	ret

00000bc0 <time>:
     bc0:	c0002573          	rdcycle	a0
     bc4:	00008067          	ret

00000bc8 <insn>:
     bc8:	c0202573          	rdinstret	a0
     bcc:	00008067          	ret

00000bd0 <malloc>:
     bd0:	000207b7          	lui	a5,0x20
     bd4:	00050593          	mv	a1,a0
     bd8:	0387a503          	lw	a0,56(a5) # 20038 <_impure_ptr>
     bdc:	0140006f          	j	bf0 <_malloc_r>

00000be0 <free>:
     be0:	000207b7          	lui	a5,0x20
     be4:	00050593          	mv	a1,a0
     be8:	0387a503          	lw	a0,56(a5) # 20038 <_impure_ptr>
     bec:	2f80406f          	j	4ee4 <_free_r>

00000bf0 <_malloc_r>:
     bf0:	fd010113          	addi	sp,sp,-48
     bf4:	01312e23          	sw	s3,28(sp)
     bf8:	02112623          	sw	ra,44(sp)
     bfc:	02812423          	sw	s0,40(sp)
     c00:	02912223          	sw	s1,36(sp)
     c04:	03212023          	sw	s2,32(sp)
     c08:	01412c23          	sw	s4,24(sp)
     c0c:	01512a23          	sw	s5,20(sp)
     c10:	01612823          	sw	s6,16(sp)
     c14:	01712623          	sw	s7,12(sp)
     c18:	01812423          	sw	s8,8(sp)
     c1c:	01912223          	sw	s9,4(sp)
     c20:	01a12023          	sw	s10,0(sp)
     c24:	00b58793          	addi	a5,a1,11
     c28:	01600713          	li	a4,22
     c2c:	00050993          	mv	s3,a0
     c30:	06f76663          	bltu	a4,a5,c9c <_malloc_r+0xac>
     c34:	01000793          	li	a5,16
     c38:	1eb7e663          	bltu	a5,a1,e24 <_malloc_r+0x234>
     c3c:	780000ef          	jal	ra,13bc <__malloc_lock>
     c40:	01000493          	li	s1,16
     c44:	01800793          	li	a5,24
     c48:	00200613          	li	a2,2
     c4c:	00021937          	lui	s2,0x21
     c50:	49890913          	addi	s2,s2,1176 # 21498 <__malloc_av_>
     c54:	00f907b3          	add	a5,s2,a5
     c58:	0047a403          	lw	s0,4(a5)
     c5c:	ff878713          	addi	a4,a5,-8
     c60:	20e40c63          	beq	s0,a4,e78 <_malloc_r+0x288>
     c64:	00442783          	lw	a5,4(s0)
     c68:	00c42683          	lw	a3,12(s0)
     c6c:	00842603          	lw	a2,8(s0)
     c70:	ffc7f793          	andi	a5,a5,-4
     c74:	00f407b3          	add	a5,s0,a5
     c78:	0047a703          	lw	a4,4(a5)
     c7c:	00d62623          	sw	a3,12(a2)
     c80:	00c6a423          	sw	a2,8(a3)
     c84:	00176713          	ori	a4,a4,1
     c88:	00098513          	mv	a0,s3
     c8c:	00e7a223          	sw	a4,4(a5)
     c90:	730000ef          	jal	ra,13c0 <__malloc_unlock>
     c94:	00840513          	addi	a0,s0,8
     c98:	1980006f          	j	e30 <_malloc_r+0x240>
     c9c:	ff87f493          	andi	s1,a5,-8
     ca0:	1807c263          	bltz	a5,e24 <_malloc_r+0x234>
     ca4:	18b4e063          	bltu	s1,a1,e24 <_malloc_r+0x234>
     ca8:	714000ef          	jal	ra,13bc <__malloc_lock>
     cac:	1f700793          	li	a5,503
     cb0:	4697fe63          	bgeu	a5,s1,112c <_malloc_r+0x53c>
     cb4:	0094d793          	srli	a5,s1,0x9
     cb8:	1a078863          	beqz	a5,e68 <_malloc_r+0x278>
     cbc:	00400713          	li	a4,4
     cc0:	3ef76463          	bltu	a4,a5,10a8 <_malloc_r+0x4b8>
     cc4:	0064d793          	srli	a5,s1,0x6
     cc8:	03978613          	addi	a2,a5,57
     ccc:	03878513          	addi	a0,a5,56
     cd0:	00361693          	slli	a3,a2,0x3
     cd4:	00021937          	lui	s2,0x21
     cd8:	49890913          	addi	s2,s2,1176 # 21498 <__malloc_av_>
     cdc:	00d906b3          	add	a3,s2,a3
     ce0:	0046a403          	lw	s0,4(a3)
     ce4:	ff868693          	addi	a3,a3,-8
     ce8:	02868663          	beq	a3,s0,d14 <_malloc_r+0x124>
     cec:	00f00593          	li	a1,15
     cf0:	0100006f          	j	d00 <_malloc_r+0x110>
     cf4:	34075463          	bgez	a4,103c <_malloc_r+0x44c>
     cf8:	00c42403          	lw	s0,12(s0)
     cfc:	00868c63          	beq	a3,s0,d14 <_malloc_r+0x124>
     d00:	00442783          	lw	a5,4(s0)
     d04:	ffc7f793          	andi	a5,a5,-4
     d08:	40978733          	sub	a4,a5,s1
     d0c:	fee5d4e3          	bge	a1,a4,cf4 <_malloc_r+0x104>
     d10:	00050613          	mv	a2,a0
     d14:	01092403          	lw	s0,16(s2)
     d18:	00890893          	addi	a7,s2,8
     d1c:	17140a63          	beq	s0,a7,e90 <_malloc_r+0x2a0>
     d20:	00442583          	lw	a1,4(s0)
     d24:	00f00713          	li	a4,15
     d28:	ffc5f593          	andi	a1,a1,-4
     d2c:	409587b3          	sub	a5,a1,s1
     d30:	42f74463          	blt	a4,a5,1158 <_malloc_r+0x568>
     d34:	01192a23          	sw	a7,20(s2)
     d38:	01192823          	sw	a7,16(s2)
     d3c:	3e07de63          	bgez	a5,1138 <_malloc_r+0x548>
     d40:	1ff00793          	li	a5,511
     d44:	30b7e263          	bltu	a5,a1,1048 <_malloc_r+0x458>
     d48:	ff85f793          	andi	a5,a1,-8
     d4c:	00878793          	addi	a5,a5,8
     d50:	00492503          	lw	a0,4(s2)
     d54:	00f907b3          	add	a5,s2,a5
     d58:	0007a683          	lw	a3,0(a5)
     d5c:	0055d593          	srli	a1,a1,0x5
     d60:	00100713          	li	a4,1
     d64:	00b71733          	sll	a4,a4,a1
     d68:	00a76733          	or	a4,a4,a0
     d6c:	ff878593          	addi	a1,a5,-8
     d70:	00b42623          	sw	a1,12(s0)
     d74:	00d42423          	sw	a3,8(s0)
     d78:	00e92223          	sw	a4,4(s2)
     d7c:	0087a023          	sw	s0,0(a5)
     d80:	0086a623          	sw	s0,12(a3)
     d84:	40265793          	srai	a5,a2,0x2
     d88:	00100593          	li	a1,1
     d8c:	00f595b3          	sll	a1,a1,a5
     d90:	10b76a63          	bltu	a4,a1,ea4 <_malloc_r+0x2b4>
     d94:	00e5f7b3          	and	a5,a1,a4
     d98:	02079463          	bnez	a5,dc0 <_malloc_r+0x1d0>
     d9c:	00159593          	slli	a1,a1,0x1
     da0:	ffc67613          	andi	a2,a2,-4
     da4:	00e5f7b3          	and	a5,a1,a4
     da8:	00460613          	addi	a2,a2,4
     dac:	00079a63          	bnez	a5,dc0 <_malloc_r+0x1d0>
     db0:	00159593          	slli	a1,a1,0x1
     db4:	00e5f7b3          	and	a5,a1,a4
     db8:	00460613          	addi	a2,a2,4
     dbc:	fe078ae3          	beqz	a5,db0 <_malloc_r+0x1c0>
     dc0:	00f00813          	li	a6,15
     dc4:	00361313          	slli	t1,a2,0x3
     dc8:	00690333          	add	t1,s2,t1
     dcc:	00030513          	mv	a0,t1
     dd0:	00c52783          	lw	a5,12(a0)
     dd4:	00060e13          	mv	t3,a2
     dd8:	2ef50a63          	beq	a0,a5,10cc <_malloc_r+0x4dc>
     ddc:	0047a703          	lw	a4,4(a5)
     de0:	00078413          	mv	s0,a5
     de4:	00c7a783          	lw	a5,12(a5)
     de8:	ffc77713          	andi	a4,a4,-4
     dec:	409706b3          	sub	a3,a4,s1
     df0:	2ed84a63          	blt	a6,a3,10e4 <_malloc_r+0x4f4>
     df4:	fe06c2e3          	bltz	a3,dd8 <_malloc_r+0x1e8>
     df8:	00e40733          	add	a4,s0,a4
     dfc:	00472683          	lw	a3,4(a4)
     e00:	00842603          	lw	a2,8(s0)
     e04:	00098513          	mv	a0,s3
     e08:	0016e693          	ori	a3,a3,1
     e0c:	00d72223          	sw	a3,4(a4)
     e10:	00f62623          	sw	a5,12(a2)
     e14:	00c7a423          	sw	a2,8(a5)
     e18:	5a8000ef          	jal	ra,13c0 <__malloc_unlock>
     e1c:	00840513          	addi	a0,s0,8
     e20:	0100006f          	j	e30 <_malloc_r+0x240>
     e24:	00c00793          	li	a5,12
     e28:	00f9a023          	sw	a5,0(s3)
     e2c:	00000513          	li	a0,0
     e30:	02c12083          	lw	ra,44(sp)
     e34:	02812403          	lw	s0,40(sp)
     e38:	02412483          	lw	s1,36(sp)
     e3c:	02012903          	lw	s2,32(sp)
     e40:	01c12983          	lw	s3,28(sp)
     e44:	01812a03          	lw	s4,24(sp)
     e48:	01412a83          	lw	s5,20(sp)
     e4c:	01012b03          	lw	s6,16(sp)
     e50:	00c12b83          	lw	s7,12(sp)
     e54:	00812c03          	lw	s8,8(sp)
     e58:	00412c83          	lw	s9,4(sp)
     e5c:	00012d03          	lw	s10,0(sp)
     e60:	03010113          	addi	sp,sp,48
     e64:	00008067          	ret
     e68:	20000693          	li	a3,512
     e6c:	04000613          	li	a2,64
     e70:	03f00513          	li	a0,63
     e74:	e61ff06f          	j	cd4 <_malloc_r+0xe4>
     e78:	00c7a403          	lw	s0,12(a5)
     e7c:	00260613          	addi	a2,a2,2
     e80:	de8792e3          	bne	a5,s0,c64 <_malloc_r+0x74>
     e84:	01092403          	lw	s0,16(s2)
     e88:	00890893          	addi	a7,s2,8
     e8c:	e9141ae3          	bne	s0,a7,d20 <_malloc_r+0x130>
     e90:	00492703          	lw	a4,4(s2)
     e94:	40265793          	srai	a5,a2,0x2
     e98:	00100593          	li	a1,1
     e9c:	00f595b3          	sll	a1,a1,a5
     ea0:	eeb77ae3          	bgeu	a4,a1,d94 <_malloc_r+0x1a4>
     ea4:	00892403          	lw	s0,8(s2)
     ea8:	00442b03          	lw	s6,4(s0)
     eac:	ffcb7b13          	andi	s6,s6,-4
     eb0:	009b6863          	bltu	s6,s1,ec0 <_malloc_r+0x2d0>
     eb4:	409b07b3          	sub	a5,s6,s1
     eb8:	00f00713          	li	a4,15
     ebc:	14f74c63          	blt	a4,a5,1014 <_malloc_r+0x424>
     ec0:	00020c37          	lui	s8,0x20
     ec4:	000227b7          	lui	a5,0x22
     ec8:	030c0c13          	addi	s8,s8,48 # 20030 <__malloc_sbrk_base>
     ecc:	e747aa83          	lw	s5,-396(a5) # 21e74 <__malloc_top_pad>
     ed0:	000c2703          	lw	a4,0(s8)
     ed4:	fff00793          	li	a5,-1
     ed8:	01640cb3          	add	s9,s0,s6
     edc:	01548ab3          	add	s5,s1,s5
     ee0:	34f70e63          	beq	a4,a5,123c <_malloc_r+0x64c>
     ee4:	000017b7          	lui	a5,0x1
     ee8:	00f78793          	addi	a5,a5,15 # 100f <_malloc_r+0x41f>
     eec:	00fa8ab3          	add	s5,s5,a5
     ef0:	fffff7b7          	lui	a5,0xfffff
     ef4:	00fafab3          	and	s5,s5,a5
     ef8:	000a8593          	mv	a1,s5
     efc:	00098513          	mv	a0,s3
     f00:	790000ef          	jal	ra,1690 <_sbrk_r>
     f04:	fff00793          	li	a5,-1
     f08:	00050b93          	mv	s7,a0
     f0c:	2af50063          	beq	a0,a5,11ac <_malloc_r+0x5bc>
     f10:	29956c63          	bltu	a0,s9,11a8 <_malloc_r+0x5b8>
     f14:	00024d37          	lui	s10,0x24
     f18:	65cd0d13          	addi	s10,s10,1628 # 2465c <__malloc_current_mallinfo>
     f1c:	000d2a03          	lw	s4,0(s10)
     f20:	014a8a33          	add	s4,s5,s4
     f24:	014d2023          	sw	s4,0(s10)
     f28:	000a0793          	mv	a5,s4
     f2c:	3aac8863          	beq	s9,a0,12dc <_malloc_r+0x6ec>
     f30:	000c2683          	lw	a3,0(s8)
     f34:	fff00713          	li	a4,-1
     f38:	3ce68063          	beq	a3,a4,12f8 <_malloc_r+0x708>
     f3c:	419b8cb3          	sub	s9,s7,s9
     f40:	00fc87b3          	add	a5,s9,a5
     f44:	00fd2023          	sw	a5,0(s10)
     f48:	007bfc13          	andi	s8,s7,7
     f4c:	300c0a63          	beqz	s8,1260 <_malloc_r+0x670>
     f50:	000017b7          	lui	a5,0x1
     f54:	418b8bb3          	sub	s7,s7,s8
     f58:	00878a13          	addi	s4,a5,8 # 1008 <_malloc_r+0x418>
     f5c:	008b8b93          	addi	s7,s7,8
     f60:	418a0a33          	sub	s4,s4,s8
     f64:	015b8ab3          	add	s5,s7,s5
     f68:	fff78793          	addi	a5,a5,-1
     f6c:	415a0a33          	sub	s4,s4,s5
     f70:	00fa7a33          	and	s4,s4,a5
     f74:	000a0593          	mv	a1,s4
     f78:	00098513          	mv	a0,s3
     f7c:	714000ef          	jal	ra,1690 <_sbrk_r>
     f80:	fff00793          	li	a5,-1
     f84:	3cf50463          	beq	a0,a5,134c <_malloc_r+0x75c>
     f88:	41750533          	sub	a0,a0,s7
     f8c:	01450ab3          	add	s5,a0,s4
     f90:	000d2783          	lw	a5,0(s10)
     f94:	01792423          	sw	s7,8(s2)
     f98:	001aea93          	ori	s5,s5,1
     f9c:	00fa0a33          	add	s4,s4,a5
     fa0:	014d2023          	sw	s4,0(s10)
     fa4:	015ba223          	sw	s5,4(s7)
     fa8:	35240c63          	beq	s0,s2,1300 <_malloc_r+0x710>
     fac:	00f00693          	li	a3,15
     fb0:	3566fc63          	bgeu	a3,s6,1308 <_malloc_r+0x718>
     fb4:	00442703          	lw	a4,4(s0)
     fb8:	ff4b0793          	addi	a5,s6,-12
     fbc:	ff87f793          	andi	a5,a5,-8
     fc0:	00177713          	andi	a4,a4,1
     fc4:	00f76733          	or	a4,a4,a5
     fc8:	00e42223          	sw	a4,4(s0)
     fcc:	00500613          	li	a2,5
     fd0:	00f40733          	add	a4,s0,a5
     fd4:	00c72223          	sw	a2,4(a4)
     fd8:	00c72423          	sw	a2,8(a4)
     fdc:	38f6e263          	bltu	a3,a5,1360 <_malloc_r+0x770>
     fe0:	004baa83          	lw	s5,4(s7)
     fe4:	000b8413          	mv	s0,s7
     fe8:	000227b7          	lui	a5,0x22
     fec:	e6c78793          	addi	a5,a5,-404 # 21e6c <__malloc_max_sbrked_mem>
     ff0:	0007a703          	lw	a4,0(a5)
     ff4:	01477463          	bgeu	a4,s4,ffc <_malloc_r+0x40c>
     ff8:	0147a023          	sw	s4,0(a5)
     ffc:	000227b7          	lui	a5,0x22
    1000:	e7078793          	addi	a5,a5,-400 # 21e70 <__malloc_max_total_mem>
    1004:	0007a703          	lw	a4,0(a5)
    1008:	1b477663          	bgeu	a4,s4,11b4 <_malloc_r+0x5c4>
    100c:	0147a023          	sw	s4,0(a5)
    1010:	1a40006f          	j	11b4 <_malloc_r+0x5c4>
    1014:	0014e713          	ori	a4,s1,1
    1018:	00e42223          	sw	a4,4(s0)
    101c:	009404b3          	add	s1,s0,s1
    1020:	00992423          	sw	s1,8(s2)
    1024:	0017e793          	ori	a5,a5,1
    1028:	00098513          	mv	a0,s3
    102c:	00f4a223          	sw	a5,4(s1)
    1030:	390000ef          	jal	ra,13c0 <__malloc_unlock>
    1034:	00840513          	addi	a0,s0,8
    1038:	df9ff06f          	j	e30 <_malloc_r+0x240>
    103c:	00c42683          	lw	a3,12(s0)
    1040:	00842603          	lw	a2,8(s0)
    1044:	c31ff06f          	j	c74 <_malloc_r+0x84>
    1048:	0095d793          	srli	a5,a1,0x9
    104c:	00400713          	li	a4,4
    1050:	14f77263          	bgeu	a4,a5,1194 <_malloc_r+0x5a4>
    1054:	01400713          	li	a4,20
    1058:	22f76a63          	bltu	a4,a5,128c <_malloc_r+0x69c>
    105c:	05c78693          	addi	a3,a5,92
    1060:	05b78713          	addi	a4,a5,91
    1064:	00369693          	slli	a3,a3,0x3
    1068:	00d906b3          	add	a3,s2,a3
    106c:	0006a783          	lw	a5,0(a3)
    1070:	ff868693          	addi	a3,a3,-8
    1074:	1cf68863          	beq	a3,a5,1244 <_malloc_r+0x654>
    1078:	0047a703          	lw	a4,4(a5)
    107c:	ffc77713          	andi	a4,a4,-4
    1080:	00e5f663          	bgeu	a1,a4,108c <_malloc_r+0x49c>
    1084:	0087a783          	lw	a5,8(a5)
    1088:	fef698e3          	bne	a3,a5,1078 <_malloc_r+0x488>
    108c:	00c7a683          	lw	a3,12(a5)
    1090:	00492703          	lw	a4,4(s2)
    1094:	00d42623          	sw	a3,12(s0)
    1098:	00f42423          	sw	a5,8(s0)
    109c:	0086a423          	sw	s0,8(a3)
    10a0:	0087a623          	sw	s0,12(a5)
    10a4:	ce1ff06f          	j	d84 <_malloc_r+0x194>
    10a8:	01400713          	li	a4,20
    10ac:	12f77663          	bgeu	a4,a5,11d8 <_malloc_r+0x5e8>
    10b0:	05400713          	li	a4,84
    10b4:	1ef76a63          	bltu	a4,a5,12a8 <_malloc_r+0x6b8>
    10b8:	00c4d793          	srli	a5,s1,0xc
    10bc:	06f78613          	addi	a2,a5,111
    10c0:	06e78513          	addi	a0,a5,110
    10c4:	00361693          	slli	a3,a2,0x3
    10c8:	c0dff06f          	j	cd4 <_malloc_r+0xe4>
    10cc:	001e0e13          	addi	t3,t3,1
    10d0:	003e7793          	andi	a5,t3,3
    10d4:	00850513          	addi	a0,a0,8
    10d8:	10078e63          	beqz	a5,11f4 <_malloc_r+0x604>
    10dc:	00c52783          	lw	a5,12(a0)
    10e0:	cf9ff06f          	j	dd8 <_malloc_r+0x1e8>
    10e4:	00842603          	lw	a2,8(s0)
    10e8:	0014e593          	ori	a1,s1,1
    10ec:	00b42223          	sw	a1,4(s0)
    10f0:	00f62623          	sw	a5,12(a2)
    10f4:	00c7a423          	sw	a2,8(a5)
    10f8:	009404b3          	add	s1,s0,s1
    10fc:	00992a23          	sw	s1,20(s2)
    1100:	00992823          	sw	s1,16(s2)
    1104:	0016e793          	ori	a5,a3,1
    1108:	0114a623          	sw	a7,12(s1)
    110c:	0114a423          	sw	a7,8(s1)
    1110:	00f4a223          	sw	a5,4(s1)
    1114:	00e40733          	add	a4,s0,a4
    1118:	00098513          	mv	a0,s3
    111c:	00d72023          	sw	a3,0(a4)
    1120:	2a0000ef          	jal	ra,13c0 <__malloc_unlock>
    1124:	00840513          	addi	a0,s0,8
    1128:	d09ff06f          	j	e30 <_malloc_r+0x240>
    112c:	0034d613          	srli	a2,s1,0x3
    1130:	00848793          	addi	a5,s1,8
    1134:	b19ff06f          	j	c4c <_malloc_r+0x5c>
    1138:	00b405b3          	add	a1,s0,a1
    113c:	0045a783          	lw	a5,4(a1)
    1140:	00098513          	mv	a0,s3
    1144:	0017e793          	ori	a5,a5,1
    1148:	00f5a223          	sw	a5,4(a1)
    114c:	274000ef          	jal	ra,13c0 <__malloc_unlock>
    1150:	00840513          	addi	a0,s0,8
    1154:	cddff06f          	j	e30 <_malloc_r+0x240>
    1158:	0014e713          	ori	a4,s1,1
    115c:	00e42223          	sw	a4,4(s0)
    1160:	009404b3          	add	s1,s0,s1
    1164:	00992a23          	sw	s1,20(s2)
    1168:	00992823          	sw	s1,16(s2)
    116c:	0017e713          	ori	a4,a5,1
    1170:	0114a623          	sw	a7,12(s1)
    1174:	0114a423          	sw	a7,8(s1)
    1178:	00e4a223          	sw	a4,4(s1)
    117c:	00b405b3          	add	a1,s0,a1
    1180:	00098513          	mv	a0,s3
    1184:	00f5a023          	sw	a5,0(a1)
    1188:	238000ef          	jal	ra,13c0 <__malloc_unlock>
    118c:	00840513          	addi	a0,s0,8
    1190:	ca1ff06f          	j	e30 <_malloc_r+0x240>
    1194:	0065d793          	srli	a5,a1,0x6
    1198:	03978693          	addi	a3,a5,57
    119c:	03878713          	addi	a4,a5,56
    11a0:	00369693          	slli	a3,a3,0x3
    11a4:	ec5ff06f          	j	1068 <_malloc_r+0x478>
    11a8:	11240e63          	beq	s0,s2,12c4 <_malloc_r+0x6d4>
    11ac:	00892403          	lw	s0,8(s2)
    11b0:	00442a83          	lw	s5,4(s0)
    11b4:	ffcafa93          	andi	s5,s5,-4
    11b8:	409a87b3          	sub	a5,s5,s1
    11bc:	009ae663          	bltu	s5,s1,11c8 <_malloc_r+0x5d8>
    11c0:	00f00713          	li	a4,15
    11c4:	e4f748e3          	blt	a4,a5,1014 <_malloc_r+0x424>
    11c8:	00098513          	mv	a0,s3
    11cc:	1f4000ef          	jal	ra,13c0 <__malloc_unlock>
    11d0:	00000513          	li	a0,0
    11d4:	c5dff06f          	j	e30 <_malloc_r+0x240>
    11d8:	05c78613          	addi	a2,a5,92
    11dc:	05b78513          	addi	a0,a5,91
    11e0:	00361693          	slli	a3,a2,0x3
    11e4:	af1ff06f          	j	cd4 <_malloc_r+0xe4>
    11e8:	00832783          	lw	a5,8(t1)
    11ec:	fff60613          	addi	a2,a2,-1
    11f0:	1c679263          	bne	a5,t1,13b4 <_malloc_r+0x7c4>
    11f4:	00367793          	andi	a5,a2,3
    11f8:	ff830313          	addi	t1,t1,-8
    11fc:	fe0796e3          	bnez	a5,11e8 <_malloc_r+0x5f8>
    1200:	00492703          	lw	a4,4(s2)
    1204:	fff5c793          	not	a5,a1
    1208:	00e7f7b3          	and	a5,a5,a4
    120c:	00f92223          	sw	a5,4(s2)
    1210:	00159593          	slli	a1,a1,0x1
    1214:	c8b7e8e3          	bltu	a5,a1,ea4 <_malloc_r+0x2b4>
    1218:	c80586e3          	beqz	a1,ea4 <_malloc_r+0x2b4>
    121c:	00f5f733          	and	a4,a1,a5
    1220:	00071a63          	bnez	a4,1234 <_malloc_r+0x644>
    1224:	00159593          	slli	a1,a1,0x1
    1228:	00f5f733          	and	a4,a1,a5
    122c:	004e0e13          	addi	t3,t3,4
    1230:	fe070ae3          	beqz	a4,1224 <_malloc_r+0x634>
    1234:	000e0613          	mv	a2,t3
    1238:	b8dff06f          	j	dc4 <_malloc_r+0x1d4>
    123c:	010a8a93          	addi	s5,s5,16
    1240:	cb9ff06f          	j	ef8 <_malloc_r+0x308>
    1244:	00492503          	lw	a0,4(s2)
    1248:	40275593          	srai	a1,a4,0x2
    124c:	00100713          	li	a4,1
    1250:	00b71733          	sll	a4,a4,a1
    1254:	00a76733          	or	a4,a4,a0
    1258:	00e92223          	sw	a4,4(s2)
    125c:	e39ff06f          	j	1094 <_malloc_r+0x4a4>
    1260:	015b8a33          	add	s4,s7,s5
    1264:	41400a33          	neg	s4,s4
    1268:	014a1a13          	slli	s4,s4,0x14
    126c:	014a5a13          	srli	s4,s4,0x14
    1270:	000a0593          	mv	a1,s4
    1274:	00098513          	mv	a0,s3
    1278:	418000ef          	jal	ra,1690 <_sbrk_r>
    127c:	fff00793          	li	a5,-1
    1280:	d0f514e3          	bne	a0,a5,f88 <_malloc_r+0x398>
    1284:	00000a13          	li	s4,0
    1288:	d09ff06f          	j	f90 <_malloc_r+0x3a0>
    128c:	05400713          	li	a4,84
    1290:	08f76263          	bltu	a4,a5,1314 <_malloc_r+0x724>
    1294:	00c5d793          	srli	a5,a1,0xc
    1298:	06f78693          	addi	a3,a5,111
    129c:	06e78713          	addi	a4,a5,110
    12a0:	00369693          	slli	a3,a3,0x3
    12a4:	dc5ff06f          	j	1068 <_malloc_r+0x478>
    12a8:	15400713          	li	a4,340
    12ac:	08f76263          	bltu	a4,a5,1330 <_malloc_r+0x740>
    12b0:	00f4d793          	srli	a5,s1,0xf
    12b4:	07878613          	addi	a2,a5,120
    12b8:	07778513          	addi	a0,a5,119
    12bc:	00361693          	slli	a3,a2,0x3
    12c0:	a15ff06f          	j	cd4 <_malloc_r+0xe4>
    12c4:	00024d37          	lui	s10,0x24
    12c8:	65cd0d13          	addi	s10,s10,1628 # 2465c <__malloc_current_mallinfo>
    12cc:	000d2783          	lw	a5,0(s10)
    12d0:	00fa87b3          	add	a5,s5,a5
    12d4:	00fd2023          	sw	a5,0(s10)
    12d8:	c59ff06f          	j	f30 <_malloc_r+0x340>
    12dc:	014c9713          	slli	a4,s9,0x14
    12e0:	c40718e3          	bnez	a4,f30 <_malloc_r+0x340>
    12e4:	00892403          	lw	s0,8(s2)
    12e8:	015b0ab3          	add	s5,s6,s5
    12ec:	001aea93          	ori	s5,s5,1
    12f0:	01542223          	sw	s5,4(s0)
    12f4:	cf5ff06f          	j	fe8 <_malloc_r+0x3f8>
    12f8:	017c2023          	sw	s7,0(s8)
    12fc:	c4dff06f          	j	f48 <_malloc_r+0x358>
    1300:	000b8413          	mv	s0,s7
    1304:	ce5ff06f          	j	fe8 <_malloc_r+0x3f8>
    1308:	00100793          	li	a5,1
    130c:	00fba223          	sw	a5,4(s7)
    1310:	eb9ff06f          	j	11c8 <_malloc_r+0x5d8>
    1314:	15400713          	li	a4,340
    1318:	06f76263          	bltu	a4,a5,137c <_malloc_r+0x78c>
    131c:	00f5d793          	srli	a5,a1,0xf
    1320:	07878693          	addi	a3,a5,120
    1324:	07778713          	addi	a4,a5,119
    1328:	00369693          	slli	a3,a3,0x3
    132c:	d3dff06f          	j	1068 <_malloc_r+0x478>
    1330:	55400713          	li	a4,1364
    1334:	06f76263          	bltu	a4,a5,1398 <_malloc_r+0x7a8>
    1338:	0124d793          	srli	a5,s1,0x12
    133c:	07d78613          	addi	a2,a5,125
    1340:	07c78513          	addi	a0,a5,124
    1344:	00361693          	slli	a3,a2,0x3
    1348:	98dff06f          	j	cd4 <_malloc_r+0xe4>
    134c:	ff8c0c13          	addi	s8,s8,-8
    1350:	018a8ab3          	add	s5,s5,s8
    1354:	417a8ab3          	sub	s5,s5,s7
    1358:	00000a13          	li	s4,0
    135c:	c35ff06f          	j	f90 <_malloc_r+0x3a0>
    1360:	00840593          	addi	a1,s0,8
    1364:	00098513          	mv	a0,s3
    1368:	37d030ef          	jal	ra,4ee4 <_free_r>
    136c:	00892403          	lw	s0,8(s2)
    1370:	000d2a03          	lw	s4,0(s10)
    1374:	00442a83          	lw	s5,4(s0)
    1378:	c71ff06f          	j	fe8 <_malloc_r+0x3f8>
    137c:	55400713          	li	a4,1364
    1380:	02f76463          	bltu	a4,a5,13a8 <_malloc_r+0x7b8>
    1384:	0125d793          	srli	a5,a1,0x12
    1388:	07d78693          	addi	a3,a5,125
    138c:	07c78713          	addi	a4,a5,124
    1390:	00369693          	slli	a3,a3,0x3
    1394:	cd5ff06f          	j	1068 <_malloc_r+0x478>
    1398:	3f800693          	li	a3,1016
    139c:	07f00613          	li	a2,127
    13a0:	07e00513          	li	a0,126
    13a4:	931ff06f          	j	cd4 <_malloc_r+0xe4>
    13a8:	3f800693          	li	a3,1016
    13ac:	07e00713          	li	a4,126
    13b0:	cb9ff06f          	j	1068 <_malloc_r+0x478>
    13b4:	00492783          	lw	a5,4(s2)
    13b8:	e59ff06f          	j	1210 <_malloc_r+0x620>

000013bc <__malloc_lock>:
    13bc:	00008067          	ret

000013c0 <__malloc_unlock>:
    13c0:	00008067          	ret

000013c4 <_printf_r>:
    13c4:	fc010113          	addi	sp,sp,-64
    13c8:	02c12423          	sw	a2,40(sp)
    13cc:	02d12623          	sw	a3,44(sp)
    13d0:	02e12823          	sw	a4,48(sp)
    13d4:	02f12a23          	sw	a5,52(sp)
    13d8:	03012c23          	sw	a6,56(sp)
    13dc:	03112e23          	sw	a7,60(sp)
    13e0:	00058613          	mv	a2,a1
    13e4:	00852583          	lw	a1,8(a0)
    13e8:	02810693          	addi	a3,sp,40
    13ec:	00112e23          	sw	ra,28(sp)
    13f0:	00d12623          	sw	a3,12(sp)
    13f4:	504000ef          	jal	ra,18f8 <_vfprintf_r>
    13f8:	01c12083          	lw	ra,28(sp)
    13fc:	04010113          	addi	sp,sp,64
    1400:	00008067          	ret

00001404 <printf>:
    1404:	00020337          	lui	t1,0x20
    1408:	03832303          	lw	t1,56(t1) # 20038 <_impure_ptr>
    140c:	fc010113          	addi	sp,sp,-64
    1410:	02c12423          	sw	a2,40(sp)
    1414:	02d12623          	sw	a3,44(sp)
    1418:	02b12223          	sw	a1,36(sp)
    141c:	02e12823          	sw	a4,48(sp)
    1420:	02f12a23          	sw	a5,52(sp)
    1424:	03012c23          	sw	a6,56(sp)
    1428:	03112e23          	sw	a7,60(sp)
    142c:	00832583          	lw	a1,8(t1)
    1430:	02410693          	addi	a3,sp,36
    1434:	00050613          	mv	a2,a0
    1438:	00030513          	mv	a0,t1
    143c:	00112e23          	sw	ra,28(sp)
    1440:	00d12623          	sw	a3,12(sp)
    1444:	4b4000ef          	jal	ra,18f8 <_vfprintf_r>
    1448:	01c12083          	lw	ra,28(sp)
    144c:	04010113          	addi	sp,sp,64
    1450:	00008067          	ret

00001454 <_putchar_r>:
    1454:	00852603          	lw	a2,8(a0)
    1458:	01c0006f          	j	1474 <_putc_r>

0000145c <putchar>:
    145c:	000207b7          	lui	a5,0x20
    1460:	0387a783          	lw	a5,56(a5) # 20038 <_impure_ptr>
    1464:	00050593          	mv	a1,a0
    1468:	0087a603          	lw	a2,8(a5)
    146c:	00078513          	mv	a0,a5
    1470:	0040006f          	j	1474 <_putc_r>

00001474 <_putc_r>:
    1474:	fe010113          	addi	sp,sp,-32
    1478:	01212c23          	sw	s2,24(sp)
    147c:	00112e23          	sw	ra,28(sp)
    1480:	00050913          	mv	s2,a0
    1484:	00050663          	beqz	a0,1490 <_putc_r+0x1c>
    1488:	03852783          	lw	a5,56(a0)
    148c:	04078663          	beqz	a5,14d8 <_putc_r+0x64>
    1490:	00862783          	lw	a5,8(a2)
    1494:	fff78793          	addi	a5,a5,-1
    1498:	00f62423          	sw	a5,8(a2)
    149c:	0007dc63          	bgez	a5,14b4 <_putc_r+0x40>
    14a0:	01862703          	lw	a4,24(a2)
    14a4:	04e7c663          	blt	a5,a4,14f0 <_putc_r+0x7c>
    14a8:	0ff5f793          	zext.b	a5,a1
    14ac:	00a00713          	li	a4,10
    14b0:	04e78063          	beq	a5,a4,14f0 <_putc_r+0x7c>
    14b4:	00062783          	lw	a5,0(a2)
    14b8:	0ff5f513          	zext.b	a0,a1
    14bc:	00178713          	addi	a4,a5,1
    14c0:	00e62023          	sw	a4,0(a2)
    14c4:	00b78023          	sb	a1,0(a5)
    14c8:	01c12083          	lw	ra,28(sp)
    14cc:	01812903          	lw	s2,24(sp)
    14d0:	02010113          	addi	sp,sp,32
    14d4:	00008067          	ret
    14d8:	00c12623          	sw	a2,12(sp)
    14dc:	00b12423          	sw	a1,8(sp)
    14e0:	07d030ef          	jal	ra,4d5c <__sinit>
    14e4:	00c12603          	lw	a2,12(sp)
    14e8:	00812583          	lw	a1,8(sp)
    14ec:	fa5ff06f          	j	1490 <_putc_r+0x1c>
    14f0:	01c12083          	lw	ra,28(sp)
    14f4:	00090513          	mv	a0,s2
    14f8:	01812903          	lw	s2,24(sp)
    14fc:	02010113          	addi	sp,sp,32
    1500:	6b10206f          	j	43b0 <__swbuf_r>

00001504 <putc>:
    1504:	ff010113          	addi	sp,sp,-16
    1508:	000207b7          	lui	a5,0x20
    150c:	01212023          	sw	s2,0(sp)
    1510:	0387a903          	lw	s2,56(a5) # 20038 <_impure_ptr>
    1514:	00812423          	sw	s0,8(sp)
    1518:	00912223          	sw	s1,4(sp)
    151c:	00112623          	sw	ra,12(sp)
    1520:	00050493          	mv	s1,a0
    1524:	00058413          	mv	s0,a1
    1528:	00090663          	beqz	s2,1534 <putc+0x30>
    152c:	03892783          	lw	a5,56(s2)
    1530:	04078a63          	beqz	a5,1584 <putc+0x80>
    1534:	00842783          	lw	a5,8(s0)
    1538:	fff78793          	addi	a5,a5,-1
    153c:	00f42423          	sw	a5,8(s0)
    1540:	0007dc63          	bgez	a5,1558 <putc+0x54>
    1544:	01842703          	lw	a4,24(s0)
    1548:	04e7c463          	blt	a5,a4,1590 <putc+0x8c>
    154c:	0ff4f793          	zext.b	a5,s1
    1550:	00a00713          	li	a4,10
    1554:	02e78e63          	beq	a5,a4,1590 <putc+0x8c>
    1558:	00042783          	lw	a5,0(s0)
    155c:	0ff4f513          	zext.b	a0,s1
    1560:	00178713          	addi	a4,a5,1
    1564:	00e42023          	sw	a4,0(s0)
    1568:	00978023          	sb	s1,0(a5)
    156c:	00c12083          	lw	ra,12(sp)
    1570:	00812403          	lw	s0,8(sp)
    1574:	00412483          	lw	s1,4(sp)
    1578:	00012903          	lw	s2,0(sp)
    157c:	01010113          	addi	sp,sp,16
    1580:	00008067          	ret
    1584:	00090513          	mv	a0,s2
    1588:	7d4030ef          	jal	ra,4d5c <__sinit>
    158c:	fa9ff06f          	j	1534 <putc+0x30>
    1590:	00040613          	mv	a2,s0
    1594:	00812403          	lw	s0,8(sp)
    1598:	00c12083          	lw	ra,12(sp)
    159c:	00048593          	mv	a1,s1
    15a0:	00090513          	mv	a0,s2
    15a4:	00412483          	lw	s1,4(sp)
    15a8:	00012903          	lw	s2,0(sp)
    15ac:	01010113          	addi	sp,sp,16
    15b0:	6010206f          	j	43b0 <__swbuf_r>

000015b4 <_puts_r>:
    15b4:	fc010113          	addi	sp,sp,-64
    15b8:	02812c23          	sw	s0,56(sp)
    15bc:	00050413          	mv	s0,a0
    15c0:	00058513          	mv	a0,a1
    15c4:	02912a23          	sw	s1,52(sp)
    15c8:	02112e23          	sw	ra,60(sp)
    15cc:	00058493          	mv	s1,a1
    15d0:	29c000ef          	jal	ra,186c <strlen>
    15d4:	000207b7          	lui	a5,0x20
    15d8:	59878793          	addi	a5,a5,1432 # 20598 <_impure_ptr+0x560>
    15dc:	02f12423          	sw	a5,40(sp)
    15e0:	00100793          	li	a5,1
    15e4:	02f12623          	sw	a5,44(sp)
    15e8:	03842703          	lw	a4,56(s0)
    15ec:	02010793          	addi	a5,sp,32
    15f0:	00150693          	addi	a3,a0,1
    15f4:	00f12a23          	sw	a5,20(sp)
    15f8:	00200793          	li	a5,2
    15fc:	02912023          	sw	s1,32(sp)
    1600:	02a12223          	sw	a0,36(sp)
    1604:	00d12e23          	sw	a3,28(sp)
    1608:	00f12c23          	sw	a5,24(sp)
    160c:	00842583          	lw	a1,8(s0)
    1610:	04070e63          	beqz	a4,166c <_puts_r+0xb8>
    1614:	00c59783          	lh	a5,12(a1)
    1618:	01279713          	slli	a4,a5,0x12
    161c:	02074263          	bltz	a4,1640 <_puts_r+0x8c>
    1620:	0645a703          	lw	a4,100(a1)
    1624:	000026b7          	lui	a3,0x2
    1628:	00d7e7b3          	or	a5,a5,a3
    162c:	ffffe6b7          	lui	a3,0xffffe
    1630:	fff68693          	addi	a3,a3,-1 # ffffdfff <_stack+0xfffbdfff>
    1634:	00d77733          	and	a4,a4,a3
    1638:	00f59623          	sh	a5,12(a1)
    163c:	06e5a223          	sw	a4,100(a1)
    1640:	01410613          	addi	a2,sp,20
    1644:	00040513          	mv	a0,s0
    1648:	3b1030ef          	jal	ra,51f8 <__sfvwrite_r>
    164c:	03c12083          	lw	ra,60(sp)
    1650:	03812403          	lw	s0,56(sp)
    1654:	00a03533          	snez	a0,a0
    1658:	40a00533          	neg	a0,a0
    165c:	03412483          	lw	s1,52(sp)
    1660:	00a56513          	ori	a0,a0,10
    1664:	04010113          	addi	sp,sp,64
    1668:	00008067          	ret
    166c:	00040513          	mv	a0,s0
    1670:	00b12623          	sw	a1,12(sp)
    1674:	6e8030ef          	jal	ra,4d5c <__sinit>
    1678:	00c12583          	lw	a1,12(sp)
    167c:	f99ff06f          	j	1614 <_puts_r+0x60>

00001680 <puts>:
    1680:	000207b7          	lui	a5,0x20
    1684:	00050593          	mv	a1,a0
    1688:	0387a503          	lw	a0,56(a5) # 20038 <_impure_ptr>
    168c:	f29ff06f          	j	15b4 <_puts_r>

00001690 <_sbrk_r>:
    1690:	ff010113          	addi	sp,sp,-16
    1694:	00812423          	sw	s0,8(sp)
    1698:	00912223          	sw	s1,4(sp)
    169c:	00050413          	mv	s0,a0
    16a0:	000224b7          	lui	s1,0x22
    16a4:	00058513          	mv	a0,a1
    16a8:	00112623          	sw	ra,12(sp)
    16ac:	e604ae23          	sw	zero,-388(s1) # 21e7c <errno>
    16b0:	0b4130ef          	jal	ra,14764 <_sbrk>
    16b4:	fff00793          	li	a5,-1
    16b8:	00f50c63          	beq	a0,a5,16d0 <_sbrk_r+0x40>
    16bc:	00c12083          	lw	ra,12(sp)
    16c0:	00812403          	lw	s0,8(sp)
    16c4:	00412483          	lw	s1,4(sp)
    16c8:	01010113          	addi	sp,sp,16
    16cc:	00008067          	ret
    16d0:	e7c4a783          	lw	a5,-388(s1)
    16d4:	fe0784e3          	beqz	a5,16bc <_sbrk_r+0x2c>
    16d8:	00c12083          	lw	ra,12(sp)
    16dc:	00f42023          	sw	a5,0(s0)
    16e0:	00812403          	lw	s0,8(sp)
    16e4:	00412483          	lw	s1,4(sp)
    16e8:	01010113          	addi	sp,sp,16
    16ec:	00008067          	ret

000016f0 <strcmp>:
    16f0:	00b56733          	or	a4,a0,a1
    16f4:	fff00393          	li	t2,-1
    16f8:	00377713          	andi	a4,a4,3
    16fc:	10071063          	bnez	a4,17fc <strcmp+0x10c>
    1700:	7f7f87b7          	lui	a5,0x7f7f8
    1704:	f7f78793          	addi	a5,a5,-129 # 7f7f7f7f <_stack+0x7f7b7f7f>
    1708:	00052603          	lw	a2,0(a0)
    170c:	0005a683          	lw	a3,0(a1)
    1710:	00f672b3          	and	t0,a2,a5
    1714:	00f66333          	or	t1,a2,a5
    1718:	00f282b3          	add	t0,t0,a5
    171c:	0062e2b3          	or	t0,t0,t1
    1720:	10729263          	bne	t0,t2,1824 <strcmp+0x134>
    1724:	08d61663          	bne	a2,a3,17b0 <strcmp+0xc0>
    1728:	00452603          	lw	a2,4(a0)
    172c:	0045a683          	lw	a3,4(a1)
    1730:	00f672b3          	and	t0,a2,a5
    1734:	00f66333          	or	t1,a2,a5
    1738:	00f282b3          	add	t0,t0,a5
    173c:	0062e2b3          	or	t0,t0,t1
    1740:	0c729e63          	bne	t0,t2,181c <strcmp+0x12c>
    1744:	06d61663          	bne	a2,a3,17b0 <strcmp+0xc0>
    1748:	00852603          	lw	a2,8(a0)
    174c:	0085a683          	lw	a3,8(a1)
    1750:	00f672b3          	and	t0,a2,a5
    1754:	00f66333          	or	t1,a2,a5
    1758:	00f282b3          	add	t0,t0,a5
    175c:	0062e2b3          	or	t0,t0,t1
    1760:	0c729863          	bne	t0,t2,1830 <strcmp+0x140>
    1764:	04d61663          	bne	a2,a3,17b0 <strcmp+0xc0>
    1768:	00c52603          	lw	a2,12(a0)
    176c:	00c5a683          	lw	a3,12(a1)
    1770:	00f672b3          	and	t0,a2,a5
    1774:	00f66333          	or	t1,a2,a5
    1778:	00f282b3          	add	t0,t0,a5
    177c:	0062e2b3          	or	t0,t0,t1
    1780:	0c729263          	bne	t0,t2,1844 <strcmp+0x154>
    1784:	02d61663          	bne	a2,a3,17b0 <strcmp+0xc0>
    1788:	01052603          	lw	a2,16(a0)
    178c:	0105a683          	lw	a3,16(a1)
    1790:	00f672b3          	and	t0,a2,a5
    1794:	00f66333          	or	t1,a2,a5
    1798:	00f282b3          	add	t0,t0,a5
    179c:	0062e2b3          	or	t0,t0,t1
    17a0:	0a729c63          	bne	t0,t2,1858 <strcmp+0x168>
    17a4:	01450513          	addi	a0,a0,20
    17a8:	01458593          	addi	a1,a1,20
    17ac:	f4d60ee3          	beq	a2,a3,1708 <strcmp+0x18>
    17b0:	01061713          	slli	a4,a2,0x10
    17b4:	01069793          	slli	a5,a3,0x10
    17b8:	00f71e63          	bne	a4,a5,17d4 <strcmp+0xe4>
    17bc:	01065713          	srli	a4,a2,0x10
    17c0:	0106d793          	srli	a5,a3,0x10
    17c4:	40f70533          	sub	a0,a4,a5
    17c8:	0ff57593          	zext.b	a1,a0
    17cc:	02059063          	bnez	a1,17ec <strcmp+0xfc>
    17d0:	00008067          	ret
    17d4:	01075713          	srli	a4,a4,0x10
    17d8:	0107d793          	srli	a5,a5,0x10
    17dc:	40f70533          	sub	a0,a4,a5
    17e0:	0ff57593          	zext.b	a1,a0
    17e4:	00059463          	bnez	a1,17ec <strcmp+0xfc>
    17e8:	00008067          	ret
    17ec:	0ff77713          	zext.b	a4,a4
    17f0:	0ff7f793          	zext.b	a5,a5
    17f4:	40f70533          	sub	a0,a4,a5
    17f8:	00008067          	ret
    17fc:	00054603          	lbu	a2,0(a0)
    1800:	0005c683          	lbu	a3,0(a1)
    1804:	00150513          	addi	a0,a0,1
    1808:	00158593          	addi	a1,a1,1
    180c:	00d61463          	bne	a2,a3,1814 <strcmp+0x124>
    1810:	fe0616e3          	bnez	a2,17fc <strcmp+0x10c>
    1814:	40d60533          	sub	a0,a2,a3
    1818:	00008067          	ret
    181c:	00450513          	addi	a0,a0,4
    1820:	00458593          	addi	a1,a1,4
    1824:	fcd61ce3          	bne	a2,a3,17fc <strcmp+0x10c>
    1828:	00000513          	li	a0,0
    182c:	00008067          	ret
    1830:	00850513          	addi	a0,a0,8
    1834:	00858593          	addi	a1,a1,8
    1838:	fcd612e3          	bne	a2,a3,17fc <strcmp+0x10c>
    183c:	00000513          	li	a0,0
    1840:	00008067          	ret
    1844:	00c50513          	addi	a0,a0,12
    1848:	00c58593          	addi	a1,a1,12
    184c:	fad618e3          	bne	a2,a3,17fc <strcmp+0x10c>
    1850:	00000513          	li	a0,0
    1854:	00008067          	ret
    1858:	01050513          	addi	a0,a0,16
    185c:	01058593          	addi	a1,a1,16
    1860:	f8d61ee3          	bne	a2,a3,17fc <strcmp+0x10c>
    1864:	00000513          	li	a0,0
    1868:	00008067          	ret

0000186c <strlen>:
    186c:	00357793          	andi	a5,a0,3
    1870:	00050713          	mv	a4,a0
    1874:	04079c63          	bnez	a5,18cc <strlen+0x60>
    1878:	7f7f86b7          	lui	a3,0x7f7f8
    187c:	f7f68693          	addi	a3,a3,-129 # 7f7f7f7f <_stack+0x7f7b7f7f>
    1880:	fff00593          	li	a1,-1
    1884:	00072603          	lw	a2,0(a4)
    1888:	00470713          	addi	a4,a4,4
    188c:	00d677b3          	and	a5,a2,a3
    1890:	00d787b3          	add	a5,a5,a3
    1894:	00c7e7b3          	or	a5,a5,a2
    1898:	00d7e7b3          	or	a5,a5,a3
    189c:	feb784e3          	beq	a5,a1,1884 <strlen+0x18>
    18a0:	ffc74683          	lbu	a3,-4(a4)
    18a4:	40a707b3          	sub	a5,a4,a0
    18a8:	04068463          	beqz	a3,18f0 <strlen+0x84>
    18ac:	ffd74683          	lbu	a3,-3(a4)
    18b0:	02068c63          	beqz	a3,18e8 <strlen+0x7c>
    18b4:	ffe74503          	lbu	a0,-2(a4)
    18b8:	00a03533          	snez	a0,a0
    18bc:	00f50533          	add	a0,a0,a5
    18c0:	ffe50513          	addi	a0,a0,-2
    18c4:	00008067          	ret
    18c8:	fa0688e3          	beqz	a3,1878 <strlen+0xc>
    18cc:	00074783          	lbu	a5,0(a4)
    18d0:	00170713          	addi	a4,a4,1
    18d4:	00377693          	andi	a3,a4,3
    18d8:	fe0798e3          	bnez	a5,18c8 <strlen+0x5c>
    18dc:	40a70733          	sub	a4,a4,a0
    18e0:	fff70513          	addi	a0,a4,-1
    18e4:	00008067          	ret
    18e8:	ffd78513          	addi	a0,a5,-3
    18ec:	00008067          	ret
    18f0:	ffc78513          	addi	a0,a5,-4
    18f4:	00008067          	ret

000018f8 <_vfprintf_r>:
    18f8:	e1010113          	addi	sp,sp,-496
    18fc:	1e112623          	sw	ra,492(sp)
    1900:	1d512a23          	sw	s5,468(sp)
    1904:	1d612823          	sw	s6,464(sp)
    1908:	1d712623          	sw	s7,460(sp)
    190c:	00060a93          	mv	s5,a2
    1910:	00058b93          	mv	s7,a1
    1914:	00d12a23          	sw	a3,20(sp)
    1918:	1e812423          	sw	s0,488(sp)
    191c:	1e912223          	sw	s1,484(sp)
    1920:	1f212023          	sw	s2,480(sp)
    1924:	1d312e23          	sw	s3,476(sp)
    1928:	1d412c23          	sw	s4,472(sp)
    192c:	1d812423          	sw	s8,456(sp)
    1930:	1d912223          	sw	s9,452(sp)
    1934:	1da12023          	sw	s10,448(sp)
    1938:	1bb12e23          	sw	s11,444(sp)
    193c:	00050b13          	mv	s6,a0
    1940:	22d060ef          	jal	ra,836c <_localeconv_r>
    1944:	00052783          	lw	a5,0(a0)
    1948:	00078513          	mv	a0,a5
    194c:	02f12823          	sw	a5,48(sp)
    1950:	f1dff0ef          	jal	ra,186c <strlen>
    1954:	02a12623          	sw	a0,44(sp)
    1958:	0e012823          	sw	zero,240(sp)
    195c:	0e012a23          	sw	zero,244(sp)
    1960:	0e012c23          	sw	zero,248(sp)
    1964:	0e012e23          	sw	zero,252(sp)
    1968:	000b0663          	beqz	s6,1974 <_vfprintf_r+0x7c>
    196c:	038b2783          	lw	a5,56(s6)
    1970:	70078263          	beqz	a5,2074 <_vfprintf_r+0x77c>
    1974:	00cb9703          	lh	a4,12(s7)
    1978:	000026b7          	lui	a3,0x2
    197c:	01071793          	slli	a5,a4,0x10
    1980:	0107d793          	srli	a5,a5,0x10
    1984:	00d7f633          	and	a2,a5,a3
    1988:	02061863          	bnez	a2,19b8 <_vfprintf_r+0xc0>
    198c:	064ba603          	lw	a2,100(s7)
    1990:	00d767b3          	or	a5,a4,a3
    1994:	01079793          	slli	a5,a5,0x10
    1998:	ffffe737          	lui	a4,0xffffe
    199c:	4107d793          	srai	a5,a5,0x10
    19a0:	fff70713          	addi	a4,a4,-1 # ffffdfff <_stack+0xfffbdfff>
    19a4:	00e67733          	and	a4,a2,a4
    19a8:	00fb9623          	sh	a5,12(s7)
    19ac:	01079793          	slli	a5,a5,0x10
    19b0:	06eba223          	sw	a4,100(s7)
    19b4:	0107d793          	srli	a5,a5,0x10
    19b8:	0087f713          	andi	a4,a5,8
    19bc:	2e070a63          	beqz	a4,1cb0 <_vfprintf_r+0x3b8>
    19c0:	010ba703          	lw	a4,16(s7)
    19c4:	2e070663          	beqz	a4,1cb0 <_vfprintf_r+0x3b8>
    19c8:	01a7f793          	andi	a5,a5,26
    19cc:	00a00713          	li	a4,10
    19d0:	30e78263          	beq	a5,a4,1cd4 <_vfprintf_r+0x3dc>
    19d4:	10c10793          	addi	a5,sp,268
    19d8:	0ef12223          	sw	a5,228(sp)
    19dc:	00078893          	mv	a7,a5
    19e0:	000207b7          	lui	a5,0x20
    19e4:	64078793          	addi	a5,a5,1600 # 20640 <_impure_ptr+0x608>
    19e8:	000a8d13          	mv	s10,s5
    19ec:	00f12c23          	sw	a5,24(sp)
    19f0:	000d4703          	lbu	a4,0(s10)
    19f4:	000217b7          	lui	a5,0x21
    19f8:	85478793          	addi	a5,a5,-1964 # 20854 <zeroes.0>
    19fc:	0e012623          	sw	zero,236(sp)
    1a00:	0e012423          	sw	zero,232(sp)
    1a04:	02012023          	sw	zero,32(sp)
    1a08:	02012a23          	sw	zero,52(sp)
    1a0c:	02012c23          	sw	zero,56(sp)
    1a10:	02012e23          	sw	zero,60(sp)
    1a14:	04012423          	sw	zero,72(sp)
    1a18:	04012623          	sw	zero,76(sp)
    1a1c:	00012623          	sw	zero,12(sp)
    1a20:	00f12423          	sw	a5,8(sp)
    1a24:	22070863          	beqz	a4,1c54 <_vfprintf_r+0x35c>
    1a28:	000d0413          	mv	s0,s10
    1a2c:	02500693          	li	a3,37
    1a30:	30d70a63          	beq	a4,a3,1d44 <_vfprintf_r+0x44c>
    1a34:	00144703          	lbu	a4,1(s0)
    1a38:	00140413          	addi	s0,s0,1
    1a3c:	fe071ae3          	bnez	a4,1a30 <_vfprintf_r+0x138>
    1a40:	41a404b3          	sub	s1,s0,s10
    1a44:	21a40863          	beq	s0,s10,1c54 <_vfprintf_r+0x35c>
    1a48:	0ec12683          	lw	a3,236(sp)
    1a4c:	0e812703          	lw	a4,232(sp)
    1a50:	01a8a023          	sw	s10,0(a7)
    1a54:	009686b3          	add	a3,a3,s1
    1a58:	00170713          	addi	a4,a4,1
    1a5c:	0098a223          	sw	s1,4(a7)
    1a60:	0ed12623          	sw	a3,236(sp)
    1a64:	0ee12423          	sw	a4,232(sp)
    1a68:	00700693          	li	a3,7
    1a6c:	00888893          	addi	a7,a7,8
    1a70:	2ee6c263          	blt	a3,a4,1d54 <_vfprintf_r+0x45c>
    1a74:	00c12783          	lw	a5,12(sp)
    1a78:	00044703          	lbu	a4,0(s0)
    1a7c:	009787b3          	add	a5,a5,s1
    1a80:	00f12623          	sw	a5,12(sp)
    1a84:	1c070863          	beqz	a4,1c54 <_vfprintf_r+0x35c>
    1a88:	fff00313          	li	t1,-1
    1a8c:	00144e03          	lbu	t3,1(s0)
    1a90:	0c0103a3          	sb	zero,199(sp)
    1a94:	00140413          	addi	s0,s0,1
    1a98:	00000493          	li	s1,0
    1a9c:	00000913          	li	s2,0
    1aa0:	05a00993          	li	s3,90
    1aa4:	00900a93          	li	s5,9
    1aa8:	02a00c13          	li	s8,42
    1aac:	00030a13          	mv	s4,t1
    1ab0:	00088d93          	mv	s11,a7
    1ab4:	00140413          	addi	s0,s0,1
    1ab8:	000e0c93          	mv	s9,t3
    1abc:	fe0c8793          	addi	a5,s9,-32
    1ac0:	04f9e463          	bltu	s3,a5,1b08 <_vfprintf_r+0x210>
    1ac4:	01812703          	lw	a4,24(sp)
    1ac8:	00279793          	slli	a5,a5,0x2
    1acc:	00e787b3          	add	a5,a5,a4
    1ad0:	0007a783          	lw	a5,0(a5)
    1ad4:	00078067          	jr	a5
    1ad8:	00000493          	li	s1,0
    1adc:	fd0c8693          	addi	a3,s9,-48
    1ae0:	00044c83          	lbu	s9,0(s0)
    1ae4:	00249793          	slli	a5,s1,0x2
    1ae8:	009787b3          	add	a5,a5,s1
    1aec:	00179793          	slli	a5,a5,0x1
    1af0:	00f684b3          	add	s1,a3,a5
    1af4:	fd0c8693          	addi	a3,s9,-48
    1af8:	00140413          	addi	s0,s0,1
    1afc:	fedaf2e3          	bgeu	s5,a3,1ae0 <_vfprintf_r+0x1e8>
    1b00:	fe0c8793          	addi	a5,s9,-32
    1b04:	fcf9f0e3          	bgeu	s3,a5,1ac4 <_vfprintf_r+0x1cc>
    1b08:	000d8893          	mv	a7,s11
    1b0c:	140c8463          	beqz	s9,1c54 <_vfprintf_r+0x35c>
    1b10:	15910623          	sb	s9,332(sp)
    1b14:	0c0103a3          	sb	zero,199(sp)
    1b18:	00100993          	li	s3,1
    1b1c:	00100c13          	li	s8,1
    1b20:	14c10d13          	addi	s10,sp,332
    1b24:	00012823          	sw	zero,16(sp)
    1b28:	00000313          	li	t1,0
    1b2c:	02012423          	sw	zero,40(sp)
    1b30:	02012223          	sw	zero,36(sp)
    1b34:	00012e23          	sw	zero,28(sp)
    1b38:	00297a93          	andi	s5,s2,2
    1b3c:	000a8463          	beqz	s5,1b44 <_vfprintf_r+0x24c>
    1b40:	00298993          	addi	s3,s3,2
    1b44:	08497a13          	andi	s4,s2,132
    1b48:	0ec12703          	lw	a4,236(sp)
    1b4c:	000a1663          	bnez	s4,1b58 <_vfprintf_r+0x260>
    1b50:	41348833          	sub	a6,s1,s3
    1b54:	490044e3          	bgtz	a6,27dc <_vfprintf_r+0xee4>
    1b58:	0c714683          	lbu	a3,199(sp)
    1b5c:	02068a63          	beqz	a3,1b90 <_vfprintf_r+0x298>
    1b60:	0e812683          	lw	a3,232(sp)
    1b64:	0c710613          	addi	a2,sp,199
    1b68:	00c8a023          	sw	a2,0(a7)
    1b6c:	00170713          	addi	a4,a4,1
    1b70:	00100613          	li	a2,1
    1b74:	00168693          	addi	a3,a3,1 # 2001 <_vfprintf_r+0x709>
    1b78:	00c8a223          	sw	a2,4(a7)
    1b7c:	0ee12623          	sw	a4,236(sp)
    1b80:	0ed12423          	sw	a3,232(sp)
    1b84:	00700613          	li	a2,7
    1b88:	00888893          	addi	a7,a7,8
    1b8c:	2ed64463          	blt	a2,a3,1e74 <_vfprintf_r+0x57c>
    1b90:	020a8a63          	beqz	s5,1bc4 <_vfprintf_r+0x2cc>
    1b94:	0e812683          	lw	a3,232(sp)
    1b98:	0c810613          	addi	a2,sp,200
    1b9c:	00c8a023          	sw	a2,0(a7)
    1ba0:	00270713          	addi	a4,a4,2
    1ba4:	00200613          	li	a2,2
    1ba8:	00168693          	addi	a3,a3,1
    1bac:	00c8a223          	sw	a2,4(a7)
    1bb0:	0ee12623          	sw	a4,236(sp)
    1bb4:	0ed12423          	sw	a3,232(sp)
    1bb8:	00700613          	li	a2,7
    1bbc:	00888893          	addi	a7,a7,8
    1bc0:	52d644e3          	blt	a2,a3,28e8 <_vfprintf_r+0xff0>
    1bc4:	08000693          	li	a3,128
    1bc8:	24da02e3          	beq	s4,a3,260c <_vfprintf_r+0xd14>
    1bcc:	41830db3          	sub	s11,t1,s8
    1bd0:	33b048e3          	bgtz	s11,2700 <_vfprintf_r+0xe08>
    1bd4:	10097693          	andi	a3,s2,256
    1bd8:	0e069ce3          	bnez	a3,24d0 <_vfprintf_r+0xbd8>
    1bdc:	0e812783          	lw	a5,232(sp)
    1be0:	01870733          	add	a4,a4,s8
    1be4:	01a8a023          	sw	s10,0(a7)
    1be8:	00178793          	addi	a5,a5,1
    1bec:	0188a223          	sw	s8,4(a7)
    1bf0:	0ee12623          	sw	a4,236(sp)
    1bf4:	0ef12423          	sw	a5,232(sp)
    1bf8:	00700693          	li	a3,7
    1bfc:	3af6c463          	blt	a3,a5,1fa4 <_vfprintf_r+0x6ac>
    1c00:	00888893          	addi	a7,a7,8
    1c04:	00497913          	andi	s2,s2,4
    1c08:	00090663          	beqz	s2,1c14 <_vfprintf_r+0x31c>
    1c0c:	41348933          	sub	s2,s1,s3
    1c10:	3b204a63          	bgtz	s2,1fc4 <_vfprintf_r+0x6cc>
    1c14:	0134d463          	bge	s1,s3,1c1c <_vfprintf_r+0x324>
    1c18:	00098493          	mv	s1,s3
    1c1c:	00c12783          	lw	a5,12(sp)
    1c20:	009787b3          	add	a5,a5,s1
    1c24:	00f12623          	sw	a5,12(sp)
    1c28:	380716e3          	bnez	a4,27b4 <_vfprintf_r+0xebc>
    1c2c:	01012783          	lw	a5,16(sp)
    1c30:	0e012423          	sw	zero,232(sp)
    1c34:	00078863          	beqz	a5,1c44 <_vfprintf_r+0x34c>
    1c38:	01012583          	lw	a1,16(sp)
    1c3c:	000b0513          	mv	a0,s6
    1c40:	2a4030ef          	jal	ra,4ee4 <_free_r>
    1c44:	10c10893          	addi	a7,sp,268
    1c48:	00040d13          	mv	s10,s0
    1c4c:	000d4703          	lbu	a4,0(s10)
    1c50:	dc071ce3          	bnez	a4,1a28 <_vfprintf_r+0x130>
    1c54:	0ec12783          	lw	a5,236(sp)
    1c58:	00078463          	beqz	a5,1c60 <_vfprintf_r+0x368>
    1c5c:	44d0106f          	j	38a8 <_vfprintf_r+0x1fb0>
    1c60:	00cbd783          	lhu	a5,12(s7)
    1c64:	0407f793          	andi	a5,a5,64
    1c68:	00078463          	beqz	a5,1c70 <_vfprintf_r+0x378>
    1c6c:	2940206f          	j	3f00 <_vfprintf_r+0x2608>
    1c70:	1ec12083          	lw	ra,492(sp)
    1c74:	1e812403          	lw	s0,488(sp)
    1c78:	00c12503          	lw	a0,12(sp)
    1c7c:	1e412483          	lw	s1,484(sp)
    1c80:	1e012903          	lw	s2,480(sp)
    1c84:	1dc12983          	lw	s3,476(sp)
    1c88:	1d812a03          	lw	s4,472(sp)
    1c8c:	1d412a83          	lw	s5,468(sp)
    1c90:	1d012b03          	lw	s6,464(sp)
    1c94:	1cc12b83          	lw	s7,460(sp)
    1c98:	1c812c03          	lw	s8,456(sp)
    1c9c:	1c412c83          	lw	s9,452(sp)
    1ca0:	1c012d03          	lw	s10,448(sp)
    1ca4:	1bc12d83          	lw	s11,444(sp)
    1ca8:	1f010113          	addi	sp,sp,496
    1cac:	00008067          	ret
    1cb0:	000b8593          	mv	a1,s7
    1cb4:	000b0513          	mv	a0,s6
    1cb8:	099020ef          	jal	ra,4550 <__swsetup_r>
    1cbc:	00050463          	beqz	a0,1cc4 <_vfprintf_r+0x3cc>
    1cc0:	2400206f          	j	3f00 <_vfprintf_r+0x2608>
    1cc4:	00cbd783          	lhu	a5,12(s7)
    1cc8:	00a00713          	li	a4,10
    1ccc:	01a7f793          	andi	a5,a5,26
    1cd0:	d0e792e3          	bne	a5,a4,19d4 <_vfprintf_r+0xdc>
    1cd4:	00eb9783          	lh	a5,14(s7)
    1cd8:	ce07cee3          	bltz	a5,19d4 <_vfprintf_r+0xdc>
    1cdc:	01412683          	lw	a3,20(sp)
    1ce0:	000a8613          	mv	a2,s5
    1ce4:	000b8593          	mv	a1,s7
    1ce8:	000b0513          	mv	a0,s6
    1cec:	604020ef          	jal	ra,42f0 <__sbprintf>
    1cf0:	00a12623          	sw	a0,12(sp)
    1cf4:	f7dff06f          	j	1c70 <_vfprintf_r+0x378>
    1cf8:	000b0513          	mv	a0,s6
    1cfc:	670060ef          	jal	ra,836c <_localeconv_r>
    1d00:	00452783          	lw	a5,4(a0)
    1d04:	00078513          	mv	a0,a5
    1d08:	04f12623          	sw	a5,76(sp)
    1d0c:	b61ff0ef          	jal	ra,186c <strlen>
    1d10:	00050793          	mv	a5,a0
    1d14:	000b0513          	mv	a0,s6
    1d18:	00078c93          	mv	s9,a5
    1d1c:	04f12423          	sw	a5,72(sp)
    1d20:	64c060ef          	jal	ra,836c <_localeconv_r>
    1d24:	00852783          	lw	a5,8(a0)
    1d28:	02f12e23          	sw	a5,60(sp)
    1d2c:	740c98e3          	bnez	s9,2c7c <_vfprintf_r+0x1384>
    1d30:	00044e03          	lbu	t3,0(s0)
    1d34:	d81ff06f          	j	1ab4 <_vfprintf_r+0x1bc>
    1d38:	00044e03          	lbu	t3,0(s0)
    1d3c:	02096913          	ori	s2,s2,32
    1d40:	d75ff06f          	j	1ab4 <_vfprintf_r+0x1bc>
    1d44:	41a404b3          	sub	s1,s0,s10
    1d48:	d1a410e3          	bne	s0,s10,1a48 <_vfprintf_r+0x150>
    1d4c:	00044703          	lbu	a4,0(s0)
    1d50:	d35ff06f          	j	1a84 <_vfprintf_r+0x18c>
    1d54:	0e410613          	addi	a2,sp,228
    1d58:	000b8593          	mv	a1,s7
    1d5c:	000b0513          	mv	a0,s6
    1d60:	5880b0ef          	jal	ra,d2e8 <__sprint_r>
    1d64:	ee051ee3          	bnez	a0,1c60 <_vfprintf_r+0x368>
    1d68:	10c10893          	addi	a7,sp,268
    1d6c:	d09ff06f          	j	1a74 <_vfprintf_r+0x17c>
    1d70:	00897713          	andi	a4,s2,8
    1d74:	000a0313          	mv	t1,s4
    1d78:	000d8893          	mv	a7,s11
    1d7c:	720712e3          	bnez	a4,2ca0 <_vfprintf_r+0x13a8>
    1d80:	01412783          	lw	a5,20(sp)
    1d84:	01412823          	sw	s4,16(sp)
    1d88:	0b010513          	addi	a0,sp,176
    1d8c:	00778a13          	addi	s4,a5,7
    1d90:	ff8a7a13          	andi	s4,s4,-8
    1d94:	000a2583          	lw	a1,0(s4)
    1d98:	004a2603          	lw	a2,4(s4)
    1d9c:	008a0793          	addi	a5,s4,8
    1da0:	01b12e23          	sw	s11,28(sp)
    1da4:	00f12a23          	sw	a5,20(sp)
    1da8:	0f4120ef          	jal	ra,13e9c <__extenddftf2>
    1dac:	0b012583          	lw	a1,176(sp)
    1db0:	0b412603          	lw	a2,180(sp)
    1db4:	0b812683          	lw	a3,184(sp)
    1db8:	0bc12703          	lw	a4,188(sp)
    1dbc:	01c12883          	lw	a7,28(sp)
    1dc0:	01012303          	lw	t1,16(sp)
    1dc4:	0f010513          	addi	a0,sp,240
    1dc8:	01112e23          	sw	a7,28(sp)
    1dcc:	00612823          	sw	t1,16(sp)
    1dd0:	0ee12e23          	sw	a4,252(sp)
    1dd4:	0eb12823          	sw	a1,240(sp)
    1dd8:	0ec12a23          	sw	a2,244(sp)
    1ddc:	0ed12c23          	sw	a3,248(sp)
    1de0:	50c060ef          	jal	ra,82ec <_ldcheck>
    1de4:	0ca12623          	sw	a0,204(sp)
    1de8:	00200713          	li	a4,2
    1dec:	01012303          	lw	t1,16(sp)
    1df0:	01c12883          	lw	a7,28(sp)
    1df4:	00e51463          	bne	a0,a4,1dfc <_vfprintf_r+0x504>
    1df8:	5a40106f          	j	339c <_vfprintf_r+0x1aa4>
    1dfc:	00100713          	li	a4,1
    1e00:	00e51463          	bne	a0,a4,1e08 <_vfprintf_r+0x510>
    1e04:	6f40106f          	j	34f8 <_vfprintf_r+0x1c00>
    1e08:	06100713          	li	a4,97
    1e0c:	00ec9463          	bne	s9,a4,1e14 <_vfprintf_r+0x51c>
    1e10:	0200106f          	j	2e30 <_vfprintf_r+0x1538>
    1e14:	04100713          	li	a4,65
    1e18:	05800793          	li	a5,88
    1e1c:	00ec9463          	bne	s9,a4,1e24 <_vfprintf_r+0x52c>
    1e20:	0140106f          	j	2e34 <_vfprintf_r+0x153c>
    1e24:	fdfcf793          	andi	a5,s9,-33
    1e28:	fff00713          	li	a4,-1
    1e2c:	02f12423          	sw	a5,40(sp)
    1e30:	00e31463          	bne	t1,a4,1e38 <_vfprintf_r+0x540>
    1e34:	1d80206f          	j	400c <_vfprintf_r+0x2714>
    1e38:	04700713          	li	a4,71
    1e3c:	00e79463          	bne	a5,a4,1e44 <_vfprintf_r+0x54c>
    1e40:	1bc0206f          	j	3ffc <_vfprintf_r+0x2704>
    1e44:	0fc12a83          	lw	s5,252(sp)
    1e48:	05212023          	sw	s2,64(sp)
    1e4c:	0f012a03          	lw	s4,240(sp)
    1e50:	0f412e83          	lw	t4,244(sp)
    1e54:	0f812f03          	lw	t5,248(sp)
    1e58:	10096713          	ori	a4,s2,256
    1e5c:	000ad463          	bgez	s5,1e64 <_vfprintf_r+0x56c>
    1e60:	25d0106f          	j	38bc <_vfprintf_r+0x1fc4>
    1e64:	04012c23          	sw	zero,88(sp)
    1e68:	00070913          	mv	s2,a4
    1e6c:	00012823          	sw	zero,16(sp)
    1e70:	0180106f          	j	2e88 <_vfprintf_r+0x1590>
    1e74:	0e410613          	addi	a2,sp,228
    1e78:	000b8593          	mv	a1,s7
    1e7c:	000b0513          	mv	a0,s6
    1e80:	04612023          	sw	t1,64(sp)
    1e84:	4640b0ef          	jal	ra,d2e8 <__sprint_r>
    1e88:	140510e3          	bnez	a0,27c8 <_vfprintf_r+0xed0>
    1e8c:	0ec12703          	lw	a4,236(sp)
    1e90:	04012303          	lw	t1,64(sp)
    1e94:	10c10893          	addi	a7,sp,268
    1e98:	cf9ff06f          	j	1b90 <_vfprintf_r+0x298>
    1e9c:	0e812a83          	lw	s5,232(sp)
    1ea0:	02012783          	lw	a5,32(sp)
    1ea4:	00100693          	li	a3,1
    1ea8:	01a8a023          	sw	s10,0(a7)
    1eac:	00170d93          	addi	s11,a4,1
    1eb0:	001a8a93          	addi	s5,s5,1
    1eb4:	00888c93          	addi	s9,a7,8
    1eb8:	3cf6d8e3          	bge	a3,a5,2a88 <_vfprintf_r+0x1190>
    1ebc:	00100693          	li	a3,1
    1ec0:	00d8a223          	sw	a3,4(a7)
    1ec4:	0fb12623          	sw	s11,236(sp)
    1ec8:	0f512423          	sw	s5,232(sp)
    1ecc:	00700693          	li	a3,7
    1ed0:	0156d463          	bge	a3,s5,1ed8 <_vfprintf_r+0x5e0>
    1ed4:	2600106f          	j	3134 <_vfprintf_r+0x183c>
    1ed8:	02c12783          	lw	a5,44(sp)
    1edc:	03012703          	lw	a4,48(sp)
    1ee0:	001a8a93          	addi	s5,s5,1
    1ee4:	00fd8db3          	add	s11,s11,a5
    1ee8:	00eca023          	sw	a4,0(s9)
    1eec:	00fca223          	sw	a5,4(s9)
    1ef0:	0fb12623          	sw	s11,236(sp)
    1ef4:	0f512423          	sw	s5,232(sp)
    1ef8:	00700693          	li	a3,7
    1efc:	008c8c93          	addi	s9,s9,8
    1f00:	0156d463          	bge	a3,s5,1f08 <_vfprintf_r+0x610>
    1f04:	2540106f          	j	3158 <_vfprintf_r+0x1860>
    1f08:	0f012683          	lw	a3,240(sp)
    1f0c:	0a010593          	addi	a1,sp,160
    1f10:	0b010513          	addi	a0,sp,176
    1f14:	0ad12823          	sw	a3,176(sp)
    1f18:	0f412683          	lw	a3,244(sp)
    1f1c:	0a012023          	sw	zero,160(sp)
    1f20:	0a012223          	sw	zero,164(sp)
    1f24:	0ad12a23          	sw	a3,180(sp)
    1f28:	0f812683          	lw	a3,248(sp)
    1f2c:	0a012423          	sw	zero,168(sp)
    1f30:	0a012623          	sw	zero,172(sp)
    1f34:	0ad12c23          	sw	a3,184(sp)
    1f38:	0fc12683          	lw	a3,252(sp)
    1f3c:	0ad12e23          	sw	a3,188(sp)
    1f40:	4c00f0ef          	jal	ra,11400 <__eqtf2>
    1f44:	02012783          	lw	a5,32(sp)
    1f48:	fff78c13          	addi	s8,a5,-1
    1f4c:	36050ee3          	beqz	a0,2ac8 <_vfprintf_r+0x11d0>
    1f50:	001a8a93          	addi	s5,s5,1
    1f54:	001d0793          	addi	a5,s10,1
    1f58:	018d8db3          	add	s11,s11,s8
    1f5c:	00fca023          	sw	a5,0(s9)
    1f60:	018ca223          	sw	s8,4(s9)
    1f64:	0fb12623          	sw	s11,236(sp)
    1f68:	0f512423          	sw	s5,232(sp)
    1f6c:	00700793          	li	a5,7
    1f70:	008c8c93          	addi	s9,s9,8
    1f74:	3357c8e3          	blt	a5,s5,2aa4 <_vfprintf_r+0x11ac>
    1f78:	03812683          	lw	a3,56(sp)
    1f7c:	0d410793          	addi	a5,sp,212
    1f80:	001a8a93          	addi	s5,s5,1
    1f84:	01b68733          	add	a4,a3,s11
    1f88:	00fca023          	sw	a5,0(s9)
    1f8c:	00dca223          	sw	a3,4(s9)
    1f90:	0ee12623          	sw	a4,236(sp)
    1f94:	0f512423          	sw	s5,232(sp)
    1f98:	00700793          	li	a5,7
    1f9c:	008c8893          	addi	a7,s9,8
    1fa0:	c757d2e3          	bge	a5,s5,1c04 <_vfprintf_r+0x30c>
    1fa4:	0e410613          	addi	a2,sp,228
    1fa8:	000b8593          	mv	a1,s7
    1fac:	000b0513          	mv	a0,s6
    1fb0:	3380b0ef          	jal	ra,d2e8 <__sprint_r>
    1fb4:	00051ae3          	bnez	a0,27c8 <_vfprintf_r+0xed0>
    1fb8:	0ec12703          	lw	a4,236(sp)
    1fbc:	10c10893          	addi	a7,sp,268
    1fc0:	c45ff06f          	j	1c04 <_vfprintf_r+0x30c>
    1fc4:	01000693          	li	a3,16
    1fc8:	0e812783          	lw	a5,232(sp)
    1fcc:	0126c463          	blt	a3,s2,1fd4 <_vfprintf_r+0x6dc>
    1fd0:	73d0106f          	j	3f0c <_vfprintf_r+0x2614>
    1fd4:	000216b7          	lui	a3,0x21
    1fd8:	84468d93          	addi	s11,a3,-1980 # 20844 <blanks.1>
    1fdc:	01000a93          	li	s5,16
    1fe0:	00700c13          	li	s8,7
    1fe4:	00c0006f          	j	1ff0 <_vfprintf_r+0x6f8>
    1fe8:	ff090913          	addi	s2,s2,-16
    1fec:	052ad663          	bge	s5,s2,2038 <_vfprintf_r+0x740>
    1ff0:	01070713          	addi	a4,a4,16
    1ff4:	00178793          	addi	a5,a5,1
    1ff8:	01b8a023          	sw	s11,0(a7)
    1ffc:	0158a223          	sw	s5,4(a7)
    2000:	0ee12623          	sw	a4,236(sp)
    2004:	0ef12423          	sw	a5,232(sp)
    2008:	00888893          	addi	a7,a7,8
    200c:	fcfc5ee3          	bge	s8,a5,1fe8 <_vfprintf_r+0x6f0>
    2010:	0e410613          	addi	a2,sp,228
    2014:	000b8593          	mv	a1,s7
    2018:	000b0513          	mv	a0,s6
    201c:	2cc0b0ef          	jal	ra,d2e8 <__sprint_r>
    2020:	7a051463          	bnez	a0,27c8 <_vfprintf_r+0xed0>
    2024:	ff090913          	addi	s2,s2,-16
    2028:	0ec12703          	lw	a4,236(sp)
    202c:	0e812783          	lw	a5,232(sp)
    2030:	10c10893          	addi	a7,sp,268
    2034:	fb2acee3          	blt	s5,s2,1ff0 <_vfprintf_r+0x6f8>
    2038:	01270733          	add	a4,a4,s2
    203c:	00178793          	addi	a5,a5,1
    2040:	01b8a023          	sw	s11,0(a7)
    2044:	0128a223          	sw	s2,4(a7)
    2048:	0ee12623          	sw	a4,236(sp)
    204c:	0ef12423          	sw	a5,232(sp)
    2050:	00700693          	li	a3,7
    2054:	bcf6d0e3          	bge	a3,a5,1c14 <_vfprintf_r+0x31c>
    2058:	0e410613          	addi	a2,sp,228
    205c:	000b8593          	mv	a1,s7
    2060:	000b0513          	mv	a0,s6
    2064:	2840b0ef          	jal	ra,d2e8 <__sprint_r>
    2068:	76051063          	bnez	a0,27c8 <_vfprintf_r+0xed0>
    206c:	0ec12703          	lw	a4,236(sp)
    2070:	ba5ff06f          	j	1c14 <_vfprintf_r+0x31c>
    2074:	000b0513          	mv	a0,s6
    2078:	4e5020ef          	jal	ra,4d5c <__sinit>
    207c:	8f9ff06f          	j	1974 <_vfprintf_r+0x7c>
    2080:	01412703          	lw	a4,20(sp)
    2084:	000d8893          	mv	a7,s11
    2088:	0c0103a3          	sb	zero,199(sp)
    208c:	00072783          	lw	a5,0(a4)
    2090:	00470713          	addi	a4,a4,4
    2094:	00e12a23          	sw	a4,20(sp)
    2098:	14f10623          	sb	a5,332(sp)
    209c:	00100993          	li	s3,1
    20a0:	00100c13          	li	s8,1
    20a4:	14c10d13          	addi	s10,sp,332
    20a8:	a7dff06f          	j	1b24 <_vfprintf_r+0x22c>
    20ac:	01412783          	lw	a5,20(sp)
    20b0:	0c0103a3          	sb	zero,199(sp)
    20b4:	000a0313          	mv	t1,s4
    20b8:	0007ad03          	lw	s10,0(a5)
    20bc:	000d8893          	mv	a7,s11
    20c0:	00478a13          	addi	s4,a5,4
    20c4:	4e0d02e3          	beqz	s10,2da8 <_vfprintf_r+0x14b0>
    20c8:	fff00713          	li	a4,-1
    20cc:	00e31463          	bne	t1,a4,20d4 <_vfprintf_r+0x7dc>
    20d0:	3700106f          	j	3440 <_vfprintf_r+0x1b48>
    20d4:	00030613          	mv	a2,t1
    20d8:	00000593          	li	a1,0
    20dc:	000d0513          	mv	a0,s10
    20e0:	00612a23          	sw	t1,20(sp)
    20e4:	01b12e23          	sw	s11,28(sp)
    20e8:	680060ef          	jal	ra,8768 <memchr>
    20ec:	00a12823          	sw	a0,16(sp)
    20f0:	01412303          	lw	t1,20(sp)
    20f4:	01c12883          	lw	a7,28(sp)
    20f8:	00051463          	bnez	a0,2100 <_vfprintf_r+0x808>
    20fc:	4d90106f          	j	3dd4 <_vfprintf_r+0x24dc>
    2100:	01012783          	lw	a5,16(sp)
    2104:	0c714703          	lbu	a4,199(sp)
    2108:	01412a23          	sw	s4,20(sp)
    210c:	41a78c33          	sub	s8,a5,s10
    2110:	fffc4993          	not	s3,s8
    2114:	41f9d993          	srai	s3,s3,0x1f
    2118:	00012823          	sw	zero,16(sp)
    211c:	02012423          	sw	zero,40(sp)
    2120:	02012223          	sw	zero,36(sp)
    2124:	00012e23          	sw	zero,28(sp)
    2128:	013c79b3          	and	s3,s8,s3
    212c:	00000313          	li	t1,0
    2130:	a00704e3          	beqz	a4,1b38 <_vfprintf_r+0x240>
    2134:	00198993          	addi	s3,s3,1
    2138:	a01ff06f          	j	1b38 <_vfprintf_r+0x240>
    213c:	01412783          	lw	a5,20(sp)
    2140:	0007a483          	lw	s1,0(a5)
    2144:	00478793          	addi	a5,a5,4
    2148:	2a04dee3          	bgez	s1,2c04 <_vfprintf_r+0x130c>
    214c:	409004b3          	neg	s1,s1
    2150:	00f12a23          	sw	a5,20(sp)
    2154:	00044e03          	lbu	t3,0(s0)
    2158:	00496913          	ori	s2,s2,4
    215c:	959ff06f          	j	1ab4 <_vfprintf_r+0x1bc>
    2160:	01412683          	lw	a3,20(sp)
    2164:	02097793          	andi	a5,s2,32
    2168:	000d8893          	mv	a7,s11
    216c:	00468713          	addi	a4,a3,4
    2170:	2e0796e3          	bnez	a5,2c5c <_vfprintf_r+0x1364>
    2174:	01097793          	andi	a5,s2,16
    2178:	00078463          	beqz	a5,2180 <_vfprintf_r+0x888>
    217c:	2a80106f          	j	3424 <_vfprintf_r+0x1b2c>
    2180:	04097793          	andi	a5,s2,64
    2184:	00078463          	beqz	a5,218c <_vfprintf_r+0x894>
    2188:	6c80106f          	j	3850 <_vfprintf_r+0x1f58>
    218c:	20097913          	andi	s2,s2,512
    2190:	00091463          	bnez	s2,2198 <_vfprintf_r+0x8a0>
    2194:	2900106f          	j	3424 <_vfprintf_r+0x1b2c>
    2198:	01412783          	lw	a5,20(sp)
    219c:	00e12a23          	sw	a4,20(sp)
    21a0:	00c12703          	lw	a4,12(sp)
    21a4:	0007a783          	lw	a5,0(a5)
    21a8:	00040d13          	mv	s10,s0
    21ac:	00e78023          	sb	a4,0(a5)
    21b0:	a9dff06f          	j	1c4c <_vfprintf_r+0x354>
    21b4:	00044e03          	lbu	t3,0(s0)
    21b8:	06c00793          	li	a5,108
    21bc:	38fe0ae3          	beq	t3,a5,2d50 <_vfprintf_r+0x1458>
    21c0:	01096913          	ori	s2,s2,16
    21c4:	8f1ff06f          	j	1ab4 <_vfprintf_r+0x1bc>
    21c8:	01412703          	lw	a4,20(sp)
    21cc:	ffff87b7          	lui	a5,0xffff8
    21d0:	8307c793          	xori	a5,a5,-2000
    21d4:	0cf11423          	sh	a5,200(sp)
    21d8:	00470793          	addi	a5,a4,4
    21dc:	00f12a23          	sw	a5,20(sp)
    21e0:	00072983          	lw	s3,0(a4)
    21e4:	000207b7          	lui	a5,0x20
    21e8:	60c78793          	addi	a5,a5,1548 # 2060c <_impure_ptr+0x5d4>
    21ec:	000d8893          	mv	a7,s11
    21f0:	02f12a23          	sw	a5,52(sp)
    21f4:	000a0313          	mv	t1,s4
    21f8:	00000a93          	li	s5,0
    21fc:	00296d93          	ori	s11,s2,2
    2200:	00200793          	li	a5,2
    2204:	07800c93          	li	s9,120
    2208:	00000713          	li	a4,0
    220c:	0ce103a3          	sb	a4,199(sp)
    2210:	fff00713          	li	a4,-1
    2214:	1ee30a63          	beq	t1,a4,2408 <_vfprintf_r+0xb10>
    2218:	0159e733          	or	a4,s3,s5
    221c:	f7fdf913          	andi	s2,s11,-129
    2220:	1e071263          	bnez	a4,2404 <_vfprintf_r+0xb0c>
    2224:	24031863          	bnez	t1,2474 <_vfprintf_r+0xb7c>
    2228:	1a079463          	bnez	a5,23d0 <_vfprintf_r+0xad8>
    222c:	001dfc13          	andi	s8,s11,1
    2230:	1b010d13          	addi	s10,sp,432
    2234:	1c0c1ee3          	bnez	s8,2c10 <_vfprintf_r+0x1318>
    2238:	0c714703          	lbu	a4,199(sp)
    223c:	000c0993          	mv	s3,s8
    2240:	006c5463          	bge	s8,t1,2248 <_vfprintf_r+0x950>
    2244:	00030993          	mv	s3,t1
    2248:	00012823          	sw	zero,16(sp)
    224c:	02012423          	sw	zero,40(sp)
    2250:	02012223          	sw	zero,36(sp)
    2254:	00012e23          	sw	zero,28(sp)
    2258:	ec071ee3          	bnez	a4,2134 <_vfprintf_r+0x83c>
    225c:	8ddff06f          	j	1b38 <_vfprintf_r+0x240>
    2260:	00044e03          	lbu	t3,0(s0)
    2264:	06800793          	li	a5,104
    2268:	2efe0ce3          	beq	t3,a5,2d60 <_vfprintf_r+0x1468>
    226c:	04096913          	ori	s2,s2,64
    2270:	845ff06f          	j	1ab4 <_vfprintf_r+0x1bc>
    2274:	02b00793          	li	a5,43
    2278:	00044e03          	lbu	t3,0(s0)
    227c:	0cf103a3          	sb	a5,199(sp)
    2280:	835ff06f          	j	1ab4 <_vfprintf_r+0x1bc>
    2284:	00044e03          	lbu	t3,0(s0)
    2288:	08096913          	ori	s2,s2,128
    228c:	829ff06f          	j	1ab4 <_vfprintf_r+0x1bc>
    2290:	00044c83          	lbu	s9,0(s0)
    2294:	00140713          	addi	a4,s0,1
    2298:	018c9463          	bne	s9,s8,22a0 <_vfprintf_r+0x9a8>
    229c:	7f90106f          	j	4294 <_vfprintf_r+0x299c>
    22a0:	fd0c8693          	addi	a3,s9,-48
    22a4:	00070413          	mv	s0,a4
    22a8:	00000a13          	li	s4,0
    22ac:	80dae8e3          	bltu	s5,a3,1abc <_vfprintf_r+0x1c4>
    22b0:	00044c83          	lbu	s9,0(s0)
    22b4:	002a1793          	slli	a5,s4,0x2
    22b8:	014787b3          	add	a5,a5,s4
    22bc:	00179793          	slli	a5,a5,0x1
    22c0:	00d78a33          	add	s4,a5,a3
    22c4:	fd0c8693          	addi	a3,s9,-48
    22c8:	00140413          	addi	s0,s0,1
    22cc:	fedaf2e3          	bgeu	s5,a3,22b0 <_vfprintf_r+0x9b8>
    22d0:	fecff06f          	j	1abc <_vfprintf_r+0x1c4>
    22d4:	00044e03          	lbu	t3,0(s0)
    22d8:	00196913          	ori	s2,s2,1
    22dc:	fd8ff06f          	j	1ab4 <_vfprintf_r+0x1bc>
    22e0:	0c714783          	lbu	a5,199(sp)
    22e4:	00044e03          	lbu	t3,0(s0)
    22e8:	fc079663          	bnez	a5,1ab4 <_vfprintf_r+0x1bc>
    22ec:	02000793          	li	a5,32
    22f0:	0cf103a3          	sb	a5,199(sp)
    22f4:	fc0ff06f          	j	1ab4 <_vfprintf_r+0x1bc>
    22f8:	000a0313          	mv	t1,s4
    22fc:	000d8893          	mv	a7,s11
    2300:	01096913          	ori	s2,s2,16
    2304:	02097793          	andi	a5,s2,32
    2308:	06078ee3          	beqz	a5,2b84 <_vfprintf_r+0x128c>
    230c:	01412783          	lw	a5,20(sp)
    2310:	00778a13          	addi	s4,a5,7
    2314:	ff8a7a13          	andi	s4,s4,-8
    2318:	000a2983          	lw	s3,0(s4)
    231c:	004a2a83          	lw	s5,4(s4)
    2320:	008a0793          	addi	a5,s4,8
    2324:	00f12a23          	sw	a5,20(sp)
    2328:	bff97d93          	andi	s11,s2,-1025
    232c:	00000793          	li	a5,0
    2330:	ed9ff06f          	j	2208 <_vfprintf_r+0x910>
    2334:	000d8893          	mv	a7,s11
    2338:	000a0313          	mv	t1,s4
    233c:	01096d93          	ori	s11,s2,16
    2340:	020df793          	andi	a5,s11,32
    2344:	060788e3          	beqz	a5,2bb4 <_vfprintf_r+0x12bc>
    2348:	01412783          	lw	a5,20(sp)
    234c:	00778a13          	addi	s4,a5,7
    2350:	ff8a7a13          	andi	s4,s4,-8
    2354:	008a0793          	addi	a5,s4,8
    2358:	00f12a23          	sw	a5,20(sp)
    235c:	000a2983          	lw	s3,0(s4)
    2360:	004a2a83          	lw	s5,4(s4)
    2364:	00100793          	li	a5,1
    2368:	ea1ff06f          	j	2208 <_vfprintf_r+0x910>
    236c:	00044e03          	lbu	t3,0(s0)
    2370:	00896913          	ori	s2,s2,8
    2374:	f40ff06f          	j	1ab4 <_vfprintf_r+0x1bc>
    2378:	000a0313          	mv	t1,s4
    237c:	000d8893          	mv	a7,s11
    2380:	01096913          	ori	s2,s2,16
    2384:	02097793          	andi	a5,s2,32
    2388:	7a078463          	beqz	a5,2b30 <_vfprintf_r+0x1238>
    238c:	01412783          	lw	a5,20(sp)
    2390:	00778a13          	addi	s4,a5,7
    2394:	ff8a7a13          	andi	s4,s4,-8
    2398:	004a2783          	lw	a5,4(s4)
    239c:	000a2983          	lw	s3,0(s4)
    23a0:	008a0713          	addi	a4,s4,8
    23a4:	00e12a23          	sw	a4,20(sp)
    23a8:	00078a93          	mv	s5,a5
    23ac:	7a07cc63          	bltz	a5,2b64 <_vfprintf_r+0x126c>
    23b0:	fff00793          	li	a5,-1
    23b4:	00090d93          	mv	s11,s2
    23b8:	02f30463          	beq	t1,a5,23e0 <_vfprintf_r+0xae8>
    23bc:	0159e7b3          	or	a5,s3,s5
    23c0:	f7f97d93          	andi	s11,s2,-129
    23c4:	00079e63          	bnez	a5,23e0 <_vfprintf_r+0xae8>
    23c8:	02031263          	bnez	t1,23ec <_vfprintf_r+0xaf4>
    23cc:	000d8913          	mv	s2,s11
    23d0:	00000313          	li	t1,0
    23d4:	00000c13          	li	s8,0
    23d8:	1b010d13          	addi	s10,sp,432
    23dc:	e5dff06f          	j	2238 <_vfprintf_r+0x940>
    23e0:	5a0a96e3          	bnez	s5,318c <_vfprintf_r+0x1894>
    23e4:	00900793          	li	a5,9
    23e8:	5b37e2e3          	bltu	a5,s3,318c <_vfprintf_r+0x1894>
    23ec:	03098993          	addi	s3,s3,48
    23f0:	1b3107a3          	sb	s3,431(sp)
    23f4:	000d8913          	mv	s2,s11
    23f8:	00100c13          	li	s8,1
    23fc:	1af10d13          	addi	s10,sp,431
    2400:	e39ff06f          	j	2238 <_vfprintf_r+0x940>
    2404:	00090d93          	mv	s11,s2
    2408:	00100713          	li	a4,1
    240c:	fce78ae3          	beq	a5,a4,23e0 <_vfprintf_r+0xae8>
    2410:	00200713          	li	a4,2
    2414:	06e78c63          	beq	a5,a4,248c <_vfprintf_r+0xb94>
    2418:	1b010d13          	addi	s10,sp,432
    241c:	01da9793          	slli	a5,s5,0x1d
    2420:	0079f713          	andi	a4,s3,7
    2424:	0039d993          	srli	s3,s3,0x3
    2428:	03070713          	addi	a4,a4,48
    242c:	0137e9b3          	or	s3,a5,s3
    2430:	003ada93          	srli	s5,s5,0x3
    2434:	feed0fa3          	sb	a4,-1(s10)
    2438:	0159e7b3          	or	a5,s3,s5
    243c:	000d0613          	mv	a2,s10
    2440:	fffd0d13          	addi	s10,s10,-1
    2444:	fc079ce3          	bnez	a5,241c <_vfprintf_r+0xb24>
    2448:	001df693          	andi	a3,s11,1
    244c:	06068a63          	beqz	a3,24c0 <_vfprintf_r+0xbc8>
    2450:	03000693          	li	a3,48
    2454:	06d70663          	beq	a4,a3,24c0 <_vfprintf_r+0xbc8>
    2458:	ffe60613          	addi	a2,a2,-2
    245c:	1b010793          	addi	a5,sp,432
    2460:	fedd0fa3          	sb	a3,-1(s10)
    2464:	40c78c33          	sub	s8,a5,a2
    2468:	000d8913          	mv	s2,s11
    246c:	00060d13          	mv	s10,a2
    2470:	dc9ff06f          	j	2238 <_vfprintf_r+0x940>
    2474:	00100713          	li	a4,1
    2478:	00e79463          	bne	a5,a4,2480 <_vfprintf_r+0xb88>
    247c:	2cd0106f          	j	3f48 <_vfprintf_r+0x2650>
    2480:	00200713          	li	a4,2
    2484:	00090d93          	mv	s11,s2
    2488:	f8e798e3          	bne	a5,a4,2418 <_vfprintf_r+0xb20>
    248c:	03412683          	lw	a3,52(sp)
    2490:	1b010d13          	addi	s10,sp,432
    2494:	00f9f793          	andi	a5,s3,15
    2498:	00f687b3          	add	a5,a3,a5
    249c:	0007c703          	lbu	a4,0(a5)
    24a0:	0049d993          	srli	s3,s3,0x4
    24a4:	01ca9793          	slli	a5,s5,0x1c
    24a8:	0137e9b3          	or	s3,a5,s3
    24ac:	004ada93          	srli	s5,s5,0x4
    24b0:	feed0fa3          	sb	a4,-1(s10)
    24b4:	0159e7b3          	or	a5,s3,s5
    24b8:	fffd0d13          	addi	s10,s10,-1
    24bc:	fc079ce3          	bnez	a5,2494 <_vfprintf_r+0xb9c>
    24c0:	1b010793          	addi	a5,sp,432
    24c4:	41a78c33          	sub	s8,a5,s10
    24c8:	000d8913          	mv	s2,s11
    24cc:	d6dff06f          	j	2238 <_vfprintf_r+0x940>
    24d0:	06500693          	li	a3,101
    24d4:	9d96d4e3          	bge	a3,s9,1e9c <_vfprintf_r+0x5a4>
    24d8:	0f012683          	lw	a3,240(sp)
    24dc:	0a010593          	addi	a1,sp,160
    24e0:	0b010513          	addi	a0,sp,176
    24e4:	0ad12823          	sw	a3,176(sp)
    24e8:	0f412683          	lw	a3,244(sp)
    24ec:	05112223          	sw	a7,68(sp)
    24f0:	04e12023          	sw	a4,64(sp)
    24f4:	0ad12a23          	sw	a3,180(sp)
    24f8:	0f812683          	lw	a3,248(sp)
    24fc:	0a012023          	sw	zero,160(sp)
    2500:	0a012223          	sw	zero,164(sp)
    2504:	0ad12c23          	sw	a3,184(sp)
    2508:	0fc12683          	lw	a3,252(sp)
    250c:	0a012423          	sw	zero,168(sp)
    2510:	0a012623          	sw	zero,172(sp)
    2514:	0ad12e23          	sw	a3,188(sp)
    2518:	6e90e0ef          	jal	ra,11400 <__eqtf2>
    251c:	04012703          	lw	a4,64(sp)
    2520:	04412883          	lw	a7,68(sp)
    2524:	3e051663          	bnez	a0,2910 <_vfprintf_r+0x1018>
    2528:	0e812783          	lw	a5,232(sp)
    252c:	000206b7          	lui	a3,0x20
    2530:	63c68693          	addi	a3,a3,1596 # 2063c <_impure_ptr+0x604>
    2534:	00d8a023          	sw	a3,0(a7)
    2538:	00170713          	addi	a4,a4,1
    253c:	00100693          	li	a3,1
    2540:	00178793          	addi	a5,a5,1
    2544:	00d8a223          	sw	a3,4(a7)
    2548:	0ee12623          	sw	a4,236(sp)
    254c:	0ef12423          	sw	a5,232(sp)
    2550:	00700693          	li	a3,7
    2554:	00888893          	addi	a7,a7,8
    2558:	5ef6c6e3          	blt	a3,a5,3344 <_vfprintf_r+0x1a4c>
    255c:	0cc12783          	lw	a5,204(sp)
    2560:	02012683          	lw	a3,32(sp)
    2564:	68d7d263          	bge	a5,a3,2be8 <_vfprintf_r+0x12f0>
    2568:	03012783          	lw	a5,48(sp)
    256c:	02c12683          	lw	a3,44(sp)
    2570:	00888893          	addi	a7,a7,8
    2574:	fef8ac23          	sw	a5,-8(a7)
    2578:	0e812783          	lw	a5,232(sp)
    257c:	00d70733          	add	a4,a4,a3
    2580:	fed8ae23          	sw	a3,-4(a7)
    2584:	00178793          	addi	a5,a5,1
    2588:	0ee12623          	sw	a4,236(sp)
    258c:	0ef12423          	sw	a5,232(sp)
    2590:	00700693          	li	a3,7
    2594:	7ef6ca63          	blt	a3,a5,2d88 <_vfprintf_r+0x1490>
    2598:	02012783          	lw	a5,32(sp)
    259c:	fff78a93          	addi	s5,a5,-1
    25a0:	e7505263          	blez	s5,1c04 <_vfprintf_r+0x30c>
    25a4:	01000693          	li	a3,16
    25a8:	0e812783          	lw	a5,232(sp)
    25ac:	5b56dce3          	bge	a3,s5,3364 <_vfprintf_r+0x1a6c>
    25b0:	01000c13          	li	s8,16
    25b4:	00700c93          	li	s9,7
    25b8:	00c0006f          	j	25c4 <_vfprintf_r+0xccc>
    25bc:	ff0a8a93          	addi	s5,s5,-16
    25c0:	5b5c52e3          	bge	s8,s5,3364 <_vfprintf_r+0x1a6c>
    25c4:	00812683          	lw	a3,8(sp)
    25c8:	01070713          	addi	a4,a4,16
    25cc:	00178793          	addi	a5,a5,1
    25d0:	00d8a023          	sw	a3,0(a7)
    25d4:	0188a223          	sw	s8,4(a7)
    25d8:	0ee12623          	sw	a4,236(sp)
    25dc:	0ef12423          	sw	a5,232(sp)
    25e0:	00888893          	addi	a7,a7,8
    25e4:	fcfcdce3          	bge	s9,a5,25bc <_vfprintf_r+0xcc4>
    25e8:	0e410613          	addi	a2,sp,228
    25ec:	000b8593          	mv	a1,s7
    25f0:	000b0513          	mv	a0,s6
    25f4:	4f50a0ef          	jal	ra,d2e8 <__sprint_r>
    25f8:	1c051863          	bnez	a0,27c8 <_vfprintf_r+0xed0>
    25fc:	0ec12703          	lw	a4,236(sp)
    2600:	0e812783          	lw	a5,232(sp)
    2604:	10c10893          	addi	a7,sp,268
    2608:	fb5ff06f          	j	25bc <_vfprintf_r+0xcc4>
    260c:	41348a33          	sub	s4,s1,s3
    2610:	db405e63          	blez	s4,1bcc <_vfprintf_r+0x2d4>
    2614:	01000613          	li	a2,16
    2618:	0e812683          	lw	a3,232(sp)
    261c:	09465a63          	bge	a2,s4,26b0 <_vfprintf_r+0xdb8>
    2620:	04812023          	sw	s0,64(sp)
    2624:	01000d93          	li	s11,16
    2628:	000b8413          	mv	s0,s7
    262c:	00700a93          	li	s5,7
    2630:	000b0b93          	mv	s7,s6
    2634:	000a0b13          	mv	s6,s4
    2638:	00098a13          	mv	s4,s3
    263c:	00030993          	mv	s3,t1
    2640:	00c0006f          	j	264c <_vfprintf_r+0xd54>
    2644:	ff0b0b13          	addi	s6,s6,-16
    2648:	056dd863          	bge	s11,s6,2698 <_vfprintf_r+0xda0>
    264c:	00812783          	lw	a5,8(sp)
    2650:	01070713          	addi	a4,a4,16
    2654:	00168693          	addi	a3,a3,1
    2658:	00f8a023          	sw	a5,0(a7)
    265c:	01b8a223          	sw	s11,4(a7)
    2660:	0ee12623          	sw	a4,236(sp)
    2664:	0ed12423          	sw	a3,232(sp)
    2668:	00888893          	addi	a7,a7,8
    266c:	fcdadce3          	bge	s5,a3,2644 <_vfprintf_r+0xd4c>
    2670:	0e410613          	addi	a2,sp,228
    2674:	00040593          	mv	a1,s0
    2678:	000b8513          	mv	a0,s7
    267c:	46d0a0ef          	jal	ra,d2e8 <__sprint_r>
    2680:	500518e3          	bnez	a0,3390 <_vfprintf_r+0x1a98>
    2684:	ff0b0b13          	addi	s6,s6,-16
    2688:	0ec12703          	lw	a4,236(sp)
    268c:	0e812683          	lw	a3,232(sp)
    2690:	10c10893          	addi	a7,sp,268
    2694:	fb6dcce3          	blt	s11,s6,264c <_vfprintf_r+0xd54>
    2698:	00098313          	mv	t1,s3
    269c:	000a0993          	mv	s3,s4
    26a0:	000b0a13          	mv	s4,s6
    26a4:	000b8b13          	mv	s6,s7
    26a8:	00040b93          	mv	s7,s0
    26ac:	04012403          	lw	s0,64(sp)
    26b0:	00812783          	lw	a5,8(sp)
    26b4:	01470733          	add	a4,a4,s4
    26b8:	00168693          	addi	a3,a3,1
    26bc:	00f8a023          	sw	a5,0(a7)
    26c0:	0148a223          	sw	s4,4(a7)
    26c4:	0ee12623          	sw	a4,236(sp)
    26c8:	0ed12423          	sw	a3,232(sp)
    26cc:	00700613          	li	a2,7
    26d0:	00888893          	addi	a7,a7,8
    26d4:	ced65c63          	bge	a2,a3,1bcc <_vfprintf_r+0x2d4>
    26d8:	0e410613          	addi	a2,sp,228
    26dc:	000b8593          	mv	a1,s7
    26e0:	000b0513          	mv	a0,s6
    26e4:	04612023          	sw	t1,64(sp)
    26e8:	4010a0ef          	jal	ra,d2e8 <__sprint_r>
    26ec:	0c051e63          	bnez	a0,27c8 <_vfprintf_r+0xed0>
    26f0:	0ec12703          	lw	a4,236(sp)
    26f4:	04012303          	lw	t1,64(sp)
    26f8:	10c10893          	addi	a7,sp,268
    26fc:	cd0ff06f          	j	1bcc <_vfprintf_r+0x2d4>
    2700:	01000613          	li	a2,16
    2704:	0e812683          	lw	a3,232(sp)
    2708:	07b65263          	bge	a2,s11,276c <_vfprintf_r+0xe74>
    270c:	01000a13          	li	s4,16
    2710:	00700a93          	li	s5,7
    2714:	00c0006f          	j	2720 <_vfprintf_r+0xe28>
    2718:	ff0d8d93          	addi	s11,s11,-16
    271c:	05ba5863          	bge	s4,s11,276c <_vfprintf_r+0xe74>
    2720:	00812783          	lw	a5,8(sp)
    2724:	01070713          	addi	a4,a4,16
    2728:	00168693          	addi	a3,a3,1
    272c:	00f8a023          	sw	a5,0(a7)
    2730:	0148a223          	sw	s4,4(a7)
    2734:	0ee12623          	sw	a4,236(sp)
    2738:	0ed12423          	sw	a3,232(sp)
    273c:	00888893          	addi	a7,a7,8
    2740:	fcdadce3          	bge	s5,a3,2718 <_vfprintf_r+0xe20>
    2744:	0e410613          	addi	a2,sp,228
    2748:	000b8593          	mv	a1,s7
    274c:	000b0513          	mv	a0,s6
    2750:	3990a0ef          	jal	ra,d2e8 <__sprint_r>
    2754:	06051a63          	bnez	a0,27c8 <_vfprintf_r+0xed0>
    2758:	ff0d8d93          	addi	s11,s11,-16
    275c:	0ec12703          	lw	a4,236(sp)
    2760:	0e812683          	lw	a3,232(sp)
    2764:	10c10893          	addi	a7,sp,268
    2768:	fbba4ce3          	blt	s4,s11,2720 <_vfprintf_r+0xe28>
    276c:	00812783          	lw	a5,8(sp)
    2770:	01b70733          	add	a4,a4,s11
    2774:	00168693          	addi	a3,a3,1
    2778:	00f8a023          	sw	a5,0(a7)
    277c:	01b8a223          	sw	s11,4(a7)
    2780:	0ee12623          	sw	a4,236(sp)
    2784:	0ed12423          	sw	a3,232(sp)
    2788:	00700613          	li	a2,7
    278c:	00888893          	addi	a7,a7,8
    2790:	c4d65263          	bge	a2,a3,1bd4 <_vfprintf_r+0x2dc>
    2794:	0e410613          	addi	a2,sp,228
    2798:	000b8593          	mv	a1,s7
    279c:	000b0513          	mv	a0,s6
    27a0:	3490a0ef          	jal	ra,d2e8 <__sprint_r>
    27a4:	02051263          	bnez	a0,27c8 <_vfprintf_r+0xed0>
    27a8:	0ec12703          	lw	a4,236(sp)
    27ac:	10c10893          	addi	a7,sp,268
    27b0:	c24ff06f          	j	1bd4 <_vfprintf_r+0x2dc>
    27b4:	0e410613          	addi	a2,sp,228
    27b8:	000b8593          	mv	a1,s7
    27bc:	000b0513          	mv	a0,s6
    27c0:	3290a0ef          	jal	ra,d2e8 <__sprint_r>
    27c4:	c6050463          	beqz	a0,1c2c <_vfprintf_r+0x334>
    27c8:	01012583          	lw	a1,16(sp)
    27cc:	c8058a63          	beqz	a1,1c60 <_vfprintf_r+0x368>
    27d0:	000b0513          	mv	a0,s6
    27d4:	710020ef          	jal	ra,4ee4 <_free_r>
    27d8:	c88ff06f          	j	1c60 <_vfprintf_r+0x368>
    27dc:	000217b7          	lui	a5,0x21
    27e0:	01000613          	li	a2,16
    27e4:	0e812683          	lw	a3,232(sp)
    27e8:	84478d93          	addi	s11,a5,-1980 # 20844 <blanks.1>
    27ec:	0b065863          	bge	a2,a6,289c <_vfprintf_r+0xfa4>
    27f0:	04812023          	sw	s0,64(sp)
    27f4:	04912223          	sw	s1,68(sp)
    27f8:	000b0413          	mv	s0,s6
    27fc:	000b8493          	mv	s1,s7
    2800:	01000f13          	li	t5,16
    2804:	000d8b93          	mv	s7,s11
    2808:	00700393          	li	t2,7
    280c:	000d0d93          	mv	s11,s10
    2810:	00080b13          	mv	s6,a6
    2814:	00098d13          	mv	s10,s3
    2818:	00030993          	mv	s3,t1
    281c:	00c0006f          	j	2828 <_vfprintf_r+0xf30>
    2820:	ff0b0b13          	addi	s6,s6,-16
    2824:	056f5a63          	bge	t5,s6,2878 <_vfprintf_r+0xf80>
    2828:	01070713          	addi	a4,a4,16
    282c:	00168693          	addi	a3,a3,1
    2830:	0178a023          	sw	s7,0(a7)
    2834:	01e8a223          	sw	t5,4(a7)
    2838:	0ee12623          	sw	a4,236(sp)
    283c:	0ed12423          	sw	a3,232(sp)
    2840:	00888893          	addi	a7,a7,8
    2844:	fcd3dee3          	bge	t2,a3,2820 <_vfprintf_r+0xf28>
    2848:	0e410613          	addi	a2,sp,228
    284c:	00048593          	mv	a1,s1
    2850:	00040513          	mv	a0,s0
    2854:	2950a0ef          	jal	ra,d2e8 <__sprint_r>
    2858:	2e0510e3          	bnez	a0,3338 <_vfprintf_r+0x1a40>
    285c:	01000f13          	li	t5,16
    2860:	ff0b0b13          	addi	s6,s6,-16
    2864:	0ec12703          	lw	a4,236(sp)
    2868:	0e812683          	lw	a3,232(sp)
    286c:	10c10893          	addi	a7,sp,268
    2870:	00700393          	li	t2,7
    2874:	fb6f4ae3          	blt	t5,s6,2828 <_vfprintf_r+0xf30>
    2878:	00098313          	mv	t1,s3
    287c:	000b0813          	mv	a6,s6
    2880:	000d0993          	mv	s3,s10
    2884:	00040b13          	mv	s6,s0
    2888:	000d8d13          	mv	s10,s11
    288c:	04012403          	lw	s0,64(sp)
    2890:	000b8d93          	mv	s11,s7
    2894:	00048b93          	mv	s7,s1
    2898:	04412483          	lw	s1,68(sp)
    289c:	01070733          	add	a4,a4,a6
    28a0:	00168693          	addi	a3,a3,1
    28a4:	01b8a023          	sw	s11,0(a7)
    28a8:	0108a223          	sw	a6,4(a7)
    28ac:	0ee12623          	sw	a4,236(sp)
    28b0:	0ed12423          	sw	a3,232(sp)
    28b4:	00700613          	li	a2,7
    28b8:	00888893          	addi	a7,a7,8
    28bc:	a8d65e63          	bge	a2,a3,1b58 <_vfprintf_r+0x260>
    28c0:	0e410613          	addi	a2,sp,228
    28c4:	000b8593          	mv	a1,s7
    28c8:	000b0513          	mv	a0,s6
    28cc:	04612023          	sw	t1,64(sp)
    28d0:	2190a0ef          	jal	ra,d2e8 <__sprint_r>
    28d4:	ee051ae3          	bnez	a0,27c8 <_vfprintf_r+0xed0>
    28d8:	0ec12703          	lw	a4,236(sp)
    28dc:	04012303          	lw	t1,64(sp)
    28e0:	10c10893          	addi	a7,sp,268
    28e4:	a74ff06f          	j	1b58 <_vfprintf_r+0x260>
    28e8:	0e410613          	addi	a2,sp,228
    28ec:	000b8593          	mv	a1,s7
    28f0:	000b0513          	mv	a0,s6
    28f4:	04612023          	sw	t1,64(sp)
    28f8:	1f10a0ef          	jal	ra,d2e8 <__sprint_r>
    28fc:	ec0516e3          	bnez	a0,27c8 <_vfprintf_r+0xed0>
    2900:	0ec12703          	lw	a4,236(sp)
    2904:	04012303          	lw	t1,64(sp)
    2908:	10c10893          	addi	a7,sp,268
    290c:	ab8ff06f          	j	1bc4 <_vfprintf_r+0x2cc>
    2910:	0cc12583          	lw	a1,204(sp)
    2914:	1ab052e3          	blez	a1,32b8 <_vfprintf_r+0x19c0>
    2918:	01c12783          	lw	a5,28(sp)
    291c:	02012683          	lw	a3,32(sp)
    2920:	00078c13          	mv	s8,a5
    2924:	3af6c063          	blt	a3,a5,2cc4 <_vfprintf_r+0x13cc>
    2928:	03805663          	blez	s8,2954 <_vfprintf_r+0x105c>
    292c:	0e812683          	lw	a3,232(sp)
    2930:	01870733          	add	a4,a4,s8
    2934:	01a8a023          	sw	s10,0(a7)
    2938:	00168693          	addi	a3,a3,1
    293c:	0188a223          	sw	s8,4(a7)
    2940:	0ee12623          	sw	a4,236(sp)
    2944:	0ed12423          	sw	a3,232(sp)
    2948:	00700613          	li	a2,7
    294c:	00888893          	addi	a7,a7,8
    2950:	6ad64ce3          	blt	a2,a3,3808 <_vfprintf_r+0x1f10>
    2954:	fffc4693          	not	a3,s8
    2958:	01c12783          	lw	a5,28(sp)
    295c:	41f6d693          	srai	a3,a3,0x1f
    2960:	00dc7c33          	and	s8,s8,a3
    2964:	41878c33          	sub	s8,a5,s8
    2968:	47804063          	bgtz	s8,2dc8 <_vfprintf_r+0x14d0>
    296c:	01c12783          	lw	a5,28(sp)
    2970:	40097693          	andi	a3,s2,1024
    2974:	00fd0cb3          	add	s9,s10,a5
    2978:	4a0694e3          	bnez	a3,3620 <_vfprintf_r+0x1d28>
    297c:	0cc12683          	lw	a3,204(sp)
    2980:	02012783          	lw	a5,32(sp)
    2984:	00f6c663          	blt	a3,a5,2990 <_vfprintf_r+0x1098>
    2988:	00197613          	andi	a2,s2,1
    298c:	6a0604e3          	beqz	a2,3834 <_vfprintf_r+0x1f3c>
    2990:	03012603          	lw	a2,48(sp)
    2994:	02c12783          	lw	a5,44(sp)
    2998:	00700593          	li	a1,7
    299c:	00c8a023          	sw	a2,0(a7)
    29a0:	0e812603          	lw	a2,232(sp)
    29a4:	00f70733          	add	a4,a4,a5
    29a8:	00f8a223          	sw	a5,4(a7)
    29ac:	00160613          	addi	a2,a2,1
    29b0:	0ee12623          	sw	a4,236(sp)
    29b4:	0ec12423          	sw	a2,232(sp)
    29b8:	00888893          	addi	a7,a7,8
    29bc:	00c5d463          	bge	a1,a2,29c4 <_vfprintf_r+0x10cc>
    29c0:	3dc0106f          	j	3d9c <_vfprintf_r+0x24a4>
    29c4:	02012603          	lw	a2,32(sp)
    29c8:	00cd07b3          	add	a5,s10,a2
    29cc:	40d606b3          	sub	a3,a2,a3
    29d0:	41978ab3          	sub	s5,a5,s9
    29d4:	0156d463          	bge	a3,s5,29dc <_vfprintf_r+0x10e4>
    29d8:	00068a93          	mv	s5,a3
    29dc:	03505863          	blez	s5,2a0c <_vfprintf_r+0x1114>
    29e0:	0e812783          	lw	a5,232(sp)
    29e4:	01570733          	add	a4,a4,s5
    29e8:	0198a023          	sw	s9,0(a7)
    29ec:	00178793          	addi	a5,a5,1
    29f0:	0158a223          	sw	s5,4(a7)
    29f4:	0ee12623          	sw	a4,236(sp)
    29f8:	0ef12423          	sw	a5,232(sp)
    29fc:	00700613          	li	a2,7
    2a00:	00888893          	addi	a7,a7,8
    2a04:	00f65463          	bge	a2,a5,2a0c <_vfprintf_r+0x1114>
    2a08:	4040106f          	j	3e0c <_vfprintf_r+0x2514>
    2a0c:	fffac793          	not	a5,s5
    2a10:	41f7d793          	srai	a5,a5,0x1f
    2a14:	00fafab3          	and	s5,s5,a5
    2a18:	41568ab3          	sub	s5,a3,s5
    2a1c:	9f505463          	blez	s5,1c04 <_vfprintf_r+0x30c>
    2a20:	01000693          	li	a3,16
    2a24:	0e812783          	lw	a5,232(sp)
    2a28:	1356dee3          	bge	a3,s5,3364 <_vfprintf_r+0x1a6c>
    2a2c:	01000c13          	li	s8,16
    2a30:	00700c93          	li	s9,7
    2a34:	00c0006f          	j	2a40 <_vfprintf_r+0x1148>
    2a38:	ff0a8a93          	addi	s5,s5,-16
    2a3c:	135c54e3          	bge	s8,s5,3364 <_vfprintf_r+0x1a6c>
    2a40:	00812683          	lw	a3,8(sp)
    2a44:	01070713          	addi	a4,a4,16
    2a48:	00178793          	addi	a5,a5,1
    2a4c:	00d8a023          	sw	a3,0(a7)
    2a50:	0188a223          	sw	s8,4(a7)
    2a54:	0ee12623          	sw	a4,236(sp)
    2a58:	0ef12423          	sw	a5,232(sp)
    2a5c:	00888893          	addi	a7,a7,8
    2a60:	fcfcdce3          	bge	s9,a5,2a38 <_vfprintf_r+0x1140>
    2a64:	0e410613          	addi	a2,sp,228
    2a68:	000b8593          	mv	a1,s7
    2a6c:	000b0513          	mv	a0,s6
    2a70:	0790a0ef          	jal	ra,d2e8 <__sprint_r>
    2a74:	d4051ae3          	bnez	a0,27c8 <_vfprintf_r+0xed0>
    2a78:	0ec12703          	lw	a4,236(sp)
    2a7c:	0e812783          	lw	a5,232(sp)
    2a80:	10c10893          	addi	a7,sp,268
    2a84:	fb5ff06f          	j	2a38 <_vfprintf_r+0x1140>
    2a88:	00197593          	andi	a1,s2,1
    2a8c:	c2059863          	bnez	a1,1ebc <_vfprintf_r+0x5c4>
    2a90:	00d8a223          	sw	a3,4(a7)
    2a94:	0fb12623          	sw	s11,236(sp)
    2a98:	0f512423          	sw	s5,232(sp)
    2a9c:	00700793          	li	a5,7
    2aa0:	cd57dc63          	bge	a5,s5,1f78 <_vfprintf_r+0x680>
    2aa4:	0e410613          	addi	a2,sp,228
    2aa8:	000b8593          	mv	a1,s7
    2aac:	000b0513          	mv	a0,s6
    2ab0:	0390a0ef          	jal	ra,d2e8 <__sprint_r>
    2ab4:	d0051ae3          	bnez	a0,27c8 <_vfprintf_r+0xed0>
    2ab8:	0ec12d83          	lw	s11,236(sp)
    2abc:	0e812a83          	lw	s5,232(sp)
    2ac0:	10c10c93          	addi	s9,sp,268
    2ac4:	cb4ff06f          	j	1f78 <_vfprintf_r+0x680>
    2ac8:	cb805863          	blez	s8,1f78 <_vfprintf_r+0x680>
    2acc:	01000793          	li	a5,16
    2ad0:	2187dce3          	bge	a5,s8,34e8 <_vfprintf_r+0x1bf0>
    2ad4:	00700d13          	li	s10,7
    2ad8:	00c0006f          	j	2ae4 <_vfprintf_r+0x11ec>
    2adc:	ff0c0c13          	addi	s8,s8,-16
    2ae0:	2187d4e3          	bge	a5,s8,34e8 <_vfprintf_r+0x1bf0>
    2ae4:	00812703          	lw	a4,8(sp)
    2ae8:	010d8d93          	addi	s11,s11,16
    2aec:	001a8a93          	addi	s5,s5,1
    2af0:	00eca023          	sw	a4,0(s9)
    2af4:	00fca223          	sw	a5,4(s9)
    2af8:	0fb12623          	sw	s11,236(sp)
    2afc:	0f512423          	sw	s5,232(sp)
    2b00:	008c8c93          	addi	s9,s9,8
    2b04:	fd5d5ce3          	bge	s10,s5,2adc <_vfprintf_r+0x11e4>
    2b08:	0e410613          	addi	a2,sp,228
    2b0c:	000b8593          	mv	a1,s7
    2b10:	000b0513          	mv	a0,s6
    2b14:	7d40a0ef          	jal	ra,d2e8 <__sprint_r>
    2b18:	ca0518e3          	bnez	a0,27c8 <_vfprintf_r+0xed0>
    2b1c:	0ec12d83          	lw	s11,236(sp)
    2b20:	0e812a83          	lw	s5,232(sp)
    2b24:	10c10c93          	addi	s9,sp,268
    2b28:	01000793          	li	a5,16
    2b2c:	fb1ff06f          	j	2adc <_vfprintf_r+0x11e4>
    2b30:	01412703          	lw	a4,20(sp)
    2b34:	01097793          	andi	a5,s2,16
    2b38:	00072983          	lw	s3,0(a4)
    2b3c:	00470713          	addi	a4,a4,4
    2b40:	00e12a23          	sw	a4,20(sp)
    2b44:	10079663          	bnez	a5,2c50 <_vfprintf_r+0x1358>
    2b48:	04097793          	andi	a5,s2,64
    2b4c:	0e078e63          	beqz	a5,2c48 <_vfprintf_r+0x1350>
    2b50:	01099993          	slli	s3,s3,0x10
    2b54:	4109d993          	srai	s3,s3,0x10
    2b58:	41f9da93          	srai	s5,s3,0x1f
    2b5c:	000a8793          	mv	a5,s5
    2b60:	8407d8e3          	bgez	a5,23b0 <_vfprintf_r+0xab8>
    2b64:	013037b3          	snez	a5,s3
    2b68:	41500ab3          	neg	s5,s5
    2b6c:	40fa8ab3          	sub	s5,s5,a5
    2b70:	413009b3          	neg	s3,s3
    2b74:	00090d93          	mv	s11,s2
    2b78:	02d00713          	li	a4,45
    2b7c:	00100793          	li	a5,1
    2b80:	e8cff06f          	j	220c <_vfprintf_r+0x914>
    2b84:	01412703          	lw	a4,20(sp)
    2b88:	01097793          	andi	a5,s2,16
    2b8c:	00072983          	lw	s3,0(a4)
    2b90:	00470713          	addi	a4,a4,4
    2b94:	00e12a23          	sw	a4,20(sp)
    2b98:	0a079463          	bnez	a5,2c40 <_vfprintf_r+0x1348>
    2b9c:	04097793          	andi	a5,s2,64
    2ba0:	08078c63          	beqz	a5,2c38 <_vfprintf_r+0x1340>
    2ba4:	01099993          	slli	s3,s3,0x10
    2ba8:	0109d993          	srli	s3,s3,0x10
    2bac:	00000a93          	li	s5,0
    2bb0:	f78ff06f          	j	2328 <_vfprintf_r+0xa30>
    2bb4:	01412703          	lw	a4,20(sp)
    2bb8:	010df793          	andi	a5,s11,16
    2bbc:	00072983          	lw	s3,0(a4)
    2bc0:	00470713          	addi	a4,a4,4
    2bc4:	00e12a23          	sw	a4,20(sp)
    2bc8:	06079263          	bnez	a5,2c2c <_vfprintf_r+0x1334>
    2bcc:	040df793          	andi	a5,s11,64
    2bd0:	04078863          	beqz	a5,2c20 <_vfprintf_r+0x1328>
    2bd4:	01099993          	slli	s3,s3,0x10
    2bd8:	0109d993          	srli	s3,s3,0x10
    2bdc:	00000a93          	li	s5,0
    2be0:	00100793          	li	a5,1
    2be4:	e24ff06f          	j	2208 <_vfprintf_r+0x910>
    2be8:	00197793          	andi	a5,s2,1
    2bec:	00079463          	bnez	a5,2bf4 <_vfprintf_r+0x12fc>
    2bf0:	814ff06f          	j	1c04 <_vfprintf_r+0x30c>
    2bf4:	975ff06f          	j	2568 <_vfprintf_r+0xc70>
    2bf8:	000a0313          	mv	t1,s4
    2bfc:	000d8893          	mv	a7,s11
    2c00:	f84ff06f          	j	2384 <_vfprintf_r+0xa8c>
    2c04:	00044e03          	lbu	t3,0(s0)
    2c08:	00f12a23          	sw	a5,20(sp)
    2c0c:	ea9fe06f          	j	1ab4 <_vfprintf_r+0x1bc>
    2c10:	03000793          	li	a5,48
    2c14:	1af107a3          	sb	a5,431(sp)
    2c18:	1af10d13          	addi	s10,sp,431
    2c1c:	e1cff06f          	j	2238 <_vfprintf_r+0x940>
    2c20:	200df793          	andi	a5,s11,512
    2c24:	00078463          	beqz	a5,2c2c <_vfprintf_r+0x1334>
    2c28:	0ff9f993          	zext.b	s3,s3
    2c2c:	00000a93          	li	s5,0
    2c30:	00100793          	li	a5,1
    2c34:	dd4ff06f          	j	2208 <_vfprintf_r+0x910>
    2c38:	20097793          	andi	a5,s2,512
    2c3c:	42079ee3          	bnez	a5,3878 <_vfprintf_r+0x1f80>
    2c40:	00000a93          	li	s5,0
    2c44:	ee4ff06f          	j	2328 <_vfprintf_r+0xa30>
    2c48:	20097793          	andi	a5,s2,512
    2c4c:	42079ce3          	bnez	a5,3884 <_vfprintf_r+0x1f8c>
    2c50:	41f9da93          	srai	s5,s3,0x1f
    2c54:	000a8793          	mv	a5,s5
    2c58:	f54ff06f          	j	23ac <_vfprintf_r+0xab4>
    2c5c:	00c12603          	lw	a2,12(sp)
    2c60:	0006a783          	lw	a5,0(a3)
    2c64:	00e12a23          	sw	a4,20(sp)
    2c68:	41f65693          	srai	a3,a2,0x1f
    2c6c:	00c7a023          	sw	a2,0(a5)
    2c70:	00d7a223          	sw	a3,4(a5)
    2c74:	00040d13          	mv	s10,s0
    2c78:	fd5fe06f          	j	1c4c <_vfprintf_r+0x354>
    2c7c:	03c12783          	lw	a5,60(sp)
    2c80:	00044e03          	lbu	t3,0(s0)
    2c84:	00079463          	bnez	a5,2c8c <_vfprintf_r+0x1394>
    2c88:	e2dfe06f          	j	1ab4 <_vfprintf_r+0x1bc>
    2c8c:	0007c783          	lbu	a5,0(a5)
    2c90:	00079463          	bnez	a5,2c98 <_vfprintf_r+0x13a0>
    2c94:	e21fe06f          	j	1ab4 <_vfprintf_r+0x1bc>
    2c98:	40096913          	ori	s2,s2,1024
    2c9c:	e19fe06f          	j	1ab4 <_vfprintf_r+0x1bc>
    2ca0:	01412783          	lw	a5,20(sp)
    2ca4:	0007a703          	lw	a4,0(a5)
    2ca8:	00478793          	addi	a5,a5,4
    2cac:	00f12a23          	sw	a5,20(sp)
    2cb0:	00072583          	lw	a1,0(a4)
    2cb4:	00472603          	lw	a2,4(a4)
    2cb8:	00872683          	lw	a3,8(a4)
    2cbc:	00c72703          	lw	a4,12(a4)
    2cc0:	904ff06f          	j	1dc4 <_vfprintf_r+0x4cc>
    2cc4:	00068c13          	mv	s8,a3
    2cc8:	c78042e3          	bgtz	s8,292c <_vfprintf_r+0x1034>
    2ccc:	c89ff06f          	j	2954 <_vfprintf_r+0x105c>
    2cd0:	000d8893          	mv	a7,s11
    2cd4:	000a0313          	mv	t1,s4
    2cd8:	00090d93          	mv	s11,s2
    2cdc:	e64ff06f          	j	2340 <_vfprintf_r+0xa48>
    2ce0:	000207b7          	lui	a5,0x20
    2ce4:	60c78793          	addi	a5,a5,1548 # 2060c <_impure_ptr+0x5d4>
    2ce8:	000a0313          	mv	t1,s4
    2cec:	000d8893          	mv	a7,s11
    2cf0:	02f12a23          	sw	a5,52(sp)
    2cf4:	02097793          	andi	a5,s2,32
    2cf8:	40078663          	beqz	a5,3104 <_vfprintf_r+0x180c>
    2cfc:	01412783          	lw	a5,20(sp)
    2d00:	00778a13          	addi	s4,a5,7
    2d04:	ff8a7a13          	andi	s4,s4,-8
    2d08:	000a2983          	lw	s3,0(s4)
    2d0c:	004a2a83          	lw	s5,4(s4)
    2d10:	008a0793          	addi	a5,s4,8
    2d14:	00f12a23          	sw	a5,20(sp)
    2d18:	00197793          	andi	a5,s2,1
    2d1c:	00078e63          	beqz	a5,2d38 <_vfprintf_r+0x1440>
    2d20:	0159e7b3          	or	a5,s3,s5
    2d24:	00078a63          	beqz	a5,2d38 <_vfprintf_r+0x1440>
    2d28:	03000793          	li	a5,48
    2d2c:	0cf10423          	sb	a5,200(sp)
    2d30:	0d9104a3          	sb	s9,201(sp)
    2d34:	00296913          	ori	s2,s2,2
    2d38:	bff97d93          	andi	s11,s2,-1025
    2d3c:	00200793          	li	a5,2
    2d40:	cc8ff06f          	j	2208 <_vfprintf_r+0x910>
    2d44:	000a0313          	mv	t1,s4
    2d48:	000d8893          	mv	a7,s11
    2d4c:	db8ff06f          	j	2304 <_vfprintf_r+0xa0c>
    2d50:	00144e03          	lbu	t3,1(s0)
    2d54:	02096913          	ori	s2,s2,32
    2d58:	00140413          	addi	s0,s0,1
    2d5c:	d59fe06f          	j	1ab4 <_vfprintf_r+0x1bc>
    2d60:	00144e03          	lbu	t3,1(s0)
    2d64:	20096913          	ori	s2,s2,512
    2d68:	00140413          	addi	s0,s0,1
    2d6c:	d49fe06f          	j	1ab4 <_vfprintf_r+0x1bc>
    2d70:	000207b7          	lui	a5,0x20
    2d74:	62078793          	addi	a5,a5,1568 # 20620 <_impure_ptr+0x5e8>
    2d78:	000a0313          	mv	t1,s4
    2d7c:	000d8893          	mv	a7,s11
    2d80:	02f12a23          	sw	a5,52(sp)
    2d84:	f71ff06f          	j	2cf4 <_vfprintf_r+0x13fc>
    2d88:	0e410613          	addi	a2,sp,228
    2d8c:	000b8593          	mv	a1,s7
    2d90:	000b0513          	mv	a0,s6
    2d94:	5540a0ef          	jal	ra,d2e8 <__sprint_r>
    2d98:	a20518e3          	bnez	a0,27c8 <_vfprintf_r+0xed0>
    2d9c:	0ec12703          	lw	a4,236(sp)
    2da0:	10c10893          	addi	a7,sp,268
    2da4:	ff4ff06f          	j	2598 <_vfprintf_r+0xca0>
    2da8:	00600793          	li	a5,6
    2dac:	00030c13          	mv	s8,t1
    2db0:	2667eee3          	bltu	a5,t1,382c <_vfprintf_r+0x1f34>
    2db4:	000207b7          	lui	a5,0x20
    2db8:	000c0993          	mv	s3,s8
    2dbc:	01412a23          	sw	s4,20(sp)
    2dc0:	63478d13          	addi	s10,a5,1588 # 20634 <_impure_ptr+0x5fc>
    2dc4:	d61fe06f          	j	1b24 <_vfprintf_r+0x22c>
    2dc8:	01000613          	li	a2,16
    2dcc:	0e812683          	lw	a3,232(sp)
    2dd0:	75865463          	bge	a2,s8,3518 <_vfprintf_r+0x1c20>
    2dd4:	01000d93          	li	s11,16
    2dd8:	00700c93          	li	s9,7
    2ddc:	00c0006f          	j	2de8 <_vfprintf_r+0x14f0>
    2de0:	ff0c0c13          	addi	s8,s8,-16
    2de4:	738dda63          	bge	s11,s8,3518 <_vfprintf_r+0x1c20>
    2de8:	00812783          	lw	a5,8(sp)
    2dec:	01070713          	addi	a4,a4,16
    2df0:	00168693          	addi	a3,a3,1
    2df4:	00f8a023          	sw	a5,0(a7)
    2df8:	01b8a223          	sw	s11,4(a7)
    2dfc:	0ee12623          	sw	a4,236(sp)
    2e00:	0ed12423          	sw	a3,232(sp)
    2e04:	00888893          	addi	a7,a7,8
    2e08:	fcdcdce3          	bge	s9,a3,2de0 <_vfprintf_r+0x14e8>
    2e0c:	0e410613          	addi	a2,sp,228
    2e10:	000b8593          	mv	a1,s7
    2e14:	000b0513          	mv	a0,s6
    2e18:	4d00a0ef          	jal	ra,d2e8 <__sprint_r>
    2e1c:	9a0516e3          	bnez	a0,27c8 <_vfprintf_r+0xed0>
    2e20:	0ec12703          	lw	a4,236(sp)
    2e24:	0e812683          	lw	a3,232(sp)
    2e28:	10c10893          	addi	a7,sp,268
    2e2c:	fb5ff06f          	j	2de0 <_vfprintf_r+0x14e8>
    2e30:	07800793          	li	a5,120
    2e34:	03000713          	li	a4,48
    2e38:	0cf104a3          	sb	a5,201(sp)
    2e3c:	00296793          	ori	a5,s2,2
    2e40:	0ce10423          	sb	a4,200(sp)
    2e44:	04f12023          	sw	a5,64(sp)
    2e48:	06300713          	li	a4,99
    2e4c:	00012823          	sw	zero,16(sp)
    2e50:	14c10d13          	addi	s10,sp,332
    2e54:	2a6748e3          	blt	a4,t1,3904 <_vfprintf_r+0x200c>
    2e58:	0fc12a83          	lw	s5,252(sp)
    2e5c:	fdfcf793          	andi	a5,s9,-33
    2e60:	02f12423          	sw	a5,40(sp)
    2e64:	04012c23          	sw	zero,88(sp)
    2e68:	0f012a03          	lw	s4,240(sp)
    2e6c:	0f412e83          	lw	t4,244(sp)
    2e70:	0f812f03          	lw	t5,248(sp)
    2e74:	10296913          	ori	s2,s2,258
    2e78:	240ac6e3          	bltz	s5,38c4 <_vfprintf_r+0x1fcc>
    2e7c:	06100713          	li	a4,97
    2e80:	00ec9463          	bne	s9,a4,2e88 <_vfprintf_r+0x1590>
    2e84:	2200106f          	j	40a4 <_vfprintf_r+0x27ac>
    2e88:	fbfc8713          	addi	a4,s9,-65
    2e8c:	02500693          	li	a3,37
    2e90:	00e6ee63          	bltu	a3,a4,2eac <_vfprintf_r+0x15b4>
    2e94:	000206b7          	lui	a3,0x20
    2e98:	00271713          	slli	a4,a4,0x2
    2e9c:	7ac68693          	addi	a3,a3,1964 # 207ac <_impure_ptr+0x774>
    2ea0:	00d70733          	add	a4,a4,a3
    2ea4:	00072703          	lw	a4,0(a4)
    2ea8:	00070067          	jr	a4
    2eac:	00030693          	mv	a3,t1
    2eb0:	00200613          	li	a2,2
    2eb4:	0b010993          	addi	s3,sp,176
    2eb8:	0d010793          	addi	a5,sp,208
    2ebc:	0cc10713          	addi	a4,sp,204
    2ec0:	0dc10813          	addi	a6,sp,220
    2ec4:	00098593          	mv	a1,s3
    2ec8:	000b0513          	mv	a0,s6
    2ecc:	05112823          	sw	a7,80(sp)
    2ed0:	04612223          	sw	t1,68(sp)
    2ed4:	02d12223          	sw	a3,36(sp)
    2ed8:	0bd12a23          	sw	t4,180(sp)
    2edc:	03d12023          	sw	t4,32(sp)
    2ee0:	0be12c23          	sw	t5,184(sp)
    2ee4:	01e12e23          	sw	t5,28(sp)
    2ee8:	0b412823          	sw	s4,176(sp)
    2eec:	0b512e23          	sw	s5,188(sp)
    2ef0:	13c040ef          	jal	ra,702c <_ldtoa_r>
    2ef4:	02812783          	lw	a5,40(sp)
    2ef8:	04700713          	li	a4,71
    2efc:	01c12f03          	lw	t5,28(sp)
    2f00:	02012e83          	lw	t4,32(sp)
    2f04:	02412683          	lw	a3,36(sp)
    2f08:	04412303          	lw	t1,68(sp)
    2f0c:	05012883          	lw	a7,80(sp)
    2f10:	00050d13          	mv	s10,a0
    2f14:	64e782e3          	beq	a5,a4,3d58 <_vfprintf_r+0x2460>
    2f18:	04600713          	li	a4,70
    2f1c:	00d50633          	add	a2,a0,a3
    2f20:	20e798e3          	bne	a5,a4,3930 <_vfprintf_r+0x2038>
    2f24:	00054583          	lbu	a1,0(a0)
    2f28:	03000713          	li	a4,48
    2f2c:	00e59463          	bne	a1,a4,2f34 <_vfprintf_r+0x163c>
    2f30:	2800106f          	j	41b0 <_vfprintf_r+0x28b8>
    2f34:	0a010c13          	addi	s8,sp,160
    2f38:	0cc12703          	lw	a4,204(sp)
    2f3c:	00e60633          	add	a2,a2,a4
    2f40:	000c0593          	mv	a1,s8
    2f44:	00098513          	mv	a0,s3
    2f48:	03112223          	sw	a7,36(sp)
    2f4c:	02c12023          	sw	a2,32(sp)
    2f50:	00612e23          	sw	t1,28(sp)
    2f54:	0b412823          	sw	s4,176(sp)
    2f58:	0bd12a23          	sw	t4,180(sp)
    2f5c:	0be12c23          	sw	t5,184(sp)
    2f60:	0b512e23          	sw	s5,188(sp)
    2f64:	0a012023          	sw	zero,160(sp)
    2f68:	0a012223          	sw	zero,164(sp)
    2f6c:	0a012423          	sw	zero,168(sp)
    2f70:	0a012623          	sw	zero,172(sp)
    2f74:	48c0e0ef          	jal	ra,11400 <__eqtf2>
    2f78:	02012603          	lw	a2,32(sp)
    2f7c:	01c12303          	lw	t1,28(sp)
    2f80:	02412883          	lw	a7,36(sp)
    2f84:	00060793          	mv	a5,a2
    2f88:	02050263          	beqz	a0,2fac <_vfprintf_r+0x16b4>
    2f8c:	0dc12783          	lw	a5,220(sp)
    2f90:	00c7fe63          	bgeu	a5,a2,2fac <_vfprintf_r+0x16b4>
    2f94:	03000693          	li	a3,48
    2f98:	00178713          	addi	a4,a5,1
    2f9c:	0ce12e23          	sw	a4,220(sp)
    2fa0:	00d78023          	sb	a3,0(a5)
    2fa4:	0dc12783          	lw	a5,220(sp)
    2fa8:	fec7e8e3          	bltu	a5,a2,2f98 <_vfprintf_r+0x16a0>
    2fac:	41a787b3          	sub	a5,a5,s10
    2fb0:	02f12023          	sw	a5,32(sp)
    2fb4:	0cc12783          	lw	a5,204(sp)
    2fb8:	04700713          	li	a4,71
    2fbc:	00f12e23          	sw	a5,28(sp)
    2fc0:	02812783          	lw	a5,40(sp)
    2fc4:	50e784e3          	beq	a5,a4,3ccc <_vfprintf_r+0x23d4>
    2fc8:	02812783          	lw	a5,40(sp)
    2fcc:	04600713          	li	a4,70
    2fd0:	70e786e3          	beq	a5,a4,3edc <_vfprintf_r+0x25e4>
    2fd4:	01c12783          	lw	a5,28(sp)
    2fd8:	04100593          	li	a1,65
    2fdc:	0ffcf693          	zext.b	a3,s9
    2fe0:	fff78713          	addi	a4,a5,-1
    2fe4:	02812783          	lw	a5,40(sp)
    2fe8:	0ce12623          	sw	a4,204(sp)
    2fec:	00000613          	li	a2,0
    2ff0:	00b79863          	bne	a5,a1,3000 <_vfprintf_r+0x1708>
    2ff4:	00f68693          	addi	a3,a3,15
    2ff8:	0ff6f693          	zext.b	a3,a3
    2ffc:	00100613          	li	a2,1
    3000:	0cd10a23          	sb	a3,212(sp)
    3004:	02b00693          	li	a3,43
    3008:	00075a63          	bgez	a4,301c <_vfprintf_r+0x1724>
    300c:	01c12783          	lw	a5,28(sp)
    3010:	00100713          	li	a4,1
    3014:	02d00693          	li	a3,45
    3018:	40f70733          	sub	a4,a4,a5
    301c:	0cd10aa3          	sb	a3,213(sp)
    3020:	00900693          	li	a3,9
    3024:	6ee6dae3          	bge	a3,a4,3f18 <_vfprintf_r+0x2620>
    3028:	0e310313          	addi	t1,sp,227
    302c:	00030513          	mv	a0,t1
    3030:	00a00613          	li	a2,10
    3034:	06300e93          	li	t4,99
    3038:	02c767b3          	rem	a5,a4,a2
    303c:	00050593          	mv	a1,a0
    3040:	00070693          	mv	a3,a4
    3044:	fff50513          	addi	a0,a0,-1
    3048:	03078793          	addi	a5,a5,48
    304c:	fef58fa3          	sb	a5,-1(a1)
    3050:	02c74733          	div	a4,a4,a2
    3054:	fedec2e3          	blt	t4,a3,3038 <_vfprintf_r+0x1740>
    3058:	03070713          	addi	a4,a4,48
    305c:	0ff77613          	zext.b	a2,a4
    3060:	fec50fa3          	sb	a2,-1(a0)
    3064:	ffe58713          	addi	a4,a1,-2
    3068:	00676463          	bltu	a4,t1,3070 <_vfprintf_r+0x1778>
    306c:	1e80106f          	j	4254 <_vfprintf_r+0x295c>
    3070:	0d610693          	addi	a3,sp,214
    3074:	0080006f          	j	307c <_vfprintf_r+0x1784>
    3078:	00074603          	lbu	a2,0(a4)
    307c:	00c68023          	sb	a2,0(a3)
    3080:	00170713          	addi	a4,a4,1
    3084:	00168693          	addi	a3,a3,1
    3088:	fe6718e3          	bne	a4,t1,3078 <_vfprintf_r+0x1780>
    308c:	0e510713          	addi	a4,sp,229
    3090:	0d610793          	addi	a5,sp,214
    3094:	40b70733          	sub	a4,a4,a1
    3098:	00e78733          	add	a4,a5,a4
    309c:	0d410693          	addi	a3,sp,212
    30a0:	40d707b3          	sub	a5,a4,a3
    30a4:	02f12c23          	sw	a5,56(sp)
    30a8:	02012783          	lw	a5,32(sp)
    30ac:	03812683          	lw	a3,56(sp)
    30b0:	00100713          	li	a4,1
    30b4:	00d78c33          	add	s8,a5,a3
    30b8:	74f75ee3          	bge	a4,a5,4014 <_vfprintf_r+0x271c>
    30bc:	02c12783          	lw	a5,44(sp)
    30c0:	00fc0c33          	add	s8,s8,a5
    30c4:	04012783          	lw	a5,64(sp)
    30c8:	fffc4993          	not	s3,s8
    30cc:	41f9d993          	srai	s3,s3,0x1f
    30d0:	bff7f913          	andi	s2,a5,-1025
    30d4:	10096913          	ori	s2,s2,256
    30d8:	013c79b3          	and	s3,s8,s3
    30dc:	02012423          	sw	zero,40(sp)
    30e0:	02012223          	sw	zero,36(sp)
    30e4:	00012e23          	sw	zero,28(sp)
    30e8:	05812783          	lw	a5,88(sp)
    30ec:	400780e3          	beqz	a5,3cec <_vfprintf_r+0x23f4>
    30f0:	02d00713          	li	a4,45
    30f4:	0ce103a3          	sb	a4,199(sp)
    30f8:	00000313          	li	t1,0
    30fc:	00198993          	addi	s3,s3,1
    3100:	a39fe06f          	j	1b38 <_vfprintf_r+0x240>
    3104:	01412703          	lw	a4,20(sp)
    3108:	01097793          	andi	a5,s2,16
    310c:	00072983          	lw	s3,0(a4)
    3110:	00470713          	addi	a4,a4,4
    3114:	00e12a23          	sw	a4,20(sp)
    3118:	06079663          	bnez	a5,3184 <_vfprintf_r+0x188c>
    311c:	04097793          	andi	a5,s2,64
    3120:	04078e63          	beqz	a5,317c <_vfprintf_r+0x1884>
    3124:	01099993          	slli	s3,s3,0x10
    3128:	0109d993          	srli	s3,s3,0x10
    312c:	00000a93          	li	s5,0
    3130:	be9ff06f          	j	2d18 <_vfprintf_r+0x1420>
    3134:	0e410613          	addi	a2,sp,228
    3138:	000b8593          	mv	a1,s7
    313c:	000b0513          	mv	a0,s6
    3140:	1a80a0ef          	jal	ra,d2e8 <__sprint_r>
    3144:	e8051263          	bnez	a0,27c8 <_vfprintf_r+0xed0>
    3148:	0ec12d83          	lw	s11,236(sp)
    314c:	0e812a83          	lw	s5,232(sp)
    3150:	10c10c93          	addi	s9,sp,268
    3154:	d85fe06f          	j	1ed8 <_vfprintf_r+0x5e0>
    3158:	0e410613          	addi	a2,sp,228
    315c:	000b8593          	mv	a1,s7
    3160:	000b0513          	mv	a0,s6
    3164:	1840a0ef          	jal	ra,d2e8 <__sprint_r>
    3168:	e6051063          	bnez	a0,27c8 <_vfprintf_r+0xed0>
    316c:	0ec12d83          	lw	s11,236(sp)
    3170:	0e812a83          	lw	s5,232(sp)
    3174:	10c10c93          	addi	s9,sp,268
    3178:	d91fe06f          	j	1f08 <_vfprintf_r+0x610>
    317c:	20097793          	andi	a5,s2,512
    3180:	6e079663          	bnez	a5,386c <_vfprintf_r+0x1f74>
    3184:	00000a93          	li	s5,0
    3188:	b91ff06f          	j	2d18 <_vfprintf_r+0x1420>
    318c:	ccccdfb7          	lui	t6,0xccccd
    3190:	100006b7          	lui	a3,0x10000
    3194:	ccdf8c13          	addi	s8,t6,-819 # cccccccd <_stack+0xccc8cccd>
    3198:	03c12903          	lw	s2,60(sp)
    319c:	400df293          	andi	t0,s11,1024
    31a0:	00000713          	li	a4,0
    31a4:	1b010593          	addi	a1,sp,432
    31a8:	fff68693          	addi	a3,a3,-1 # fffffff <_stack+0xffbffff>
    31ac:	00500f13          	li	t5,5
    31b0:	cccf8f93          	addi	t6,t6,-820
    31b4:	00900e13          	li	t3,9
    31b8:	0ff00a13          	li	s4,255
    31bc:	0600006f          	j	321c <_vfprintf_r+0x1924>
    31c0:	007eeeb3          	or	t4,t4,t2
    31c4:	00d9f7b3          	and	a5,s3,a3
    31c8:	00defeb3          	and	t4,t4,a3
    31cc:	01d787b3          	add	a5,a5,t4
    31d0:	010787b3          	add	a5,a5,a6
    31d4:	03e7f7b3          	remu	a5,a5,t5
    31d8:	40f987b3          	sub	a5,s3,a5
    31dc:	00f9b633          	sltu	a2,s3,a5
    31e0:	40ca8633          	sub	a2,s5,a2
    31e4:	03f78533          	mul	a0,a5,t6
    31e8:	03860633          	mul	a2,a2,s8
    31ec:	0387b5b3          	mulhu	a1,a5,s8
    31f0:	00a60633          	add	a2,a2,a0
    31f4:	038787b3          	mul	a5,a5,s8
    31f8:	00b60633          	add	a2,a2,a1
    31fc:	01f61593          	slli	a1,a2,0x1f
    3200:	00165613          	srli	a2,a2,0x1
    3204:	0017d793          	srli	a5,a5,0x1
    3208:	00f5e7b3          	or	a5,a1,a5
    320c:	5c0a8063          	beqz	s5,37cc <_vfprintf_r+0x1ed4>
    3210:	00078993          	mv	s3,a5
    3214:	00060a93          	mv	s5,a2
    3218:	000d0593          	mv	a1,s10
    321c:	004a9e93          	slli	t4,s5,0x4
    3220:	01c9d393          	srli	t2,s3,0x1c
    3224:	007ee633          	or	a2,t4,t2
    3228:	00d67633          	and	a2,a2,a3
    322c:	00d9f7b3          	and	a5,s3,a3
    3230:	00c787b3          	add	a5,a5,a2
    3234:	018ad813          	srli	a6,s5,0x18
    3238:	010787b3          	add	a5,a5,a6
    323c:	03e7f7b3          	remu	a5,a5,t5
    3240:	fff58d13          	addi	s10,a1,-1
    3244:	00170713          	addi	a4,a4,1
    3248:	40f987b3          	sub	a5,s3,a5
    324c:	00f9b533          	sltu	a0,s3,a5
    3250:	40aa8533          	sub	a0,s5,a0
    3254:	0387b633          	mulhu	a2,a5,s8
    3258:	03850533          	mul	a0,a0,s8
    325c:	038787b3          	mul	a5,a5,s8
    3260:	00c50533          	add	a0,a0,a2
    3264:	01f51513          	slli	a0,a0,0x1f
    3268:	0017d613          	srli	a2,a5,0x1
    326c:	00c56633          	or	a2,a0,a2
    3270:	00261793          	slli	a5,a2,0x2
    3274:	00c787b3          	add	a5,a5,a2
    3278:	00179793          	slli	a5,a5,0x1
    327c:	40f987b3          	sub	a5,s3,a5
    3280:	03078793          	addi	a5,a5,48
    3284:	fef58fa3          	sb	a5,-1(a1)
    3288:	f2028ce3          	beqz	t0,31c0 <_vfprintf_r+0x18c8>
    328c:	00094783          	lbu	a5,0(s2)
    3290:	f2f718e3          	bne	a4,a5,31c0 <_vfprintf_r+0x18c8>
    3294:	f34706e3          	beq	a4,s4,31c0 <_vfprintf_r+0x18c8>
    3298:	2c0a9463          	bnez	s5,3560 <_vfprintf_r+0x1c68>
    329c:	2d3e6263          	bltu	t3,s3,3560 <_vfprintf_r+0x1c68>
    32a0:	1b010793          	addi	a5,sp,432
    32a4:	03212e23          	sw	s2,60(sp)
    32a8:	02e12023          	sw	a4,32(sp)
    32ac:	41a78c33          	sub	s8,a5,s10
    32b0:	000d8913          	mv	s2,s11
    32b4:	f85fe06f          	j	2238 <_vfprintf_r+0x940>
    32b8:	0e812683          	lw	a3,232(sp)
    32bc:	00020637          	lui	a2,0x20
    32c0:	63c60613          	addi	a2,a2,1596 # 2063c <_impure_ptr+0x604>
    32c4:	00c8a023          	sw	a2,0(a7)
    32c8:	00170713          	addi	a4,a4,1
    32cc:	00100613          	li	a2,1
    32d0:	00168693          	addi	a3,a3,1
    32d4:	00c8a223          	sw	a2,4(a7)
    32d8:	0ee12623          	sw	a4,236(sp)
    32dc:	0ed12423          	sw	a3,232(sp)
    32e0:	00700613          	li	a2,7
    32e4:	00888893          	addi	a7,a7,8
    32e8:	4ed64663          	blt	a2,a3,37d4 <_vfprintf_r+0x1edc>
    32ec:	18059e63          	bnez	a1,3488 <_vfprintf_r+0x1b90>
    32f0:	02012783          	lw	a5,32(sp)
    32f4:	00197693          	andi	a3,s2,1
    32f8:	00f6e6b3          	or	a3,a3,a5
    32fc:	00069463          	bnez	a3,3304 <_vfprintf_r+0x1a0c>
    3300:	905fe06f          	j	1c04 <_vfprintf_r+0x30c>
    3304:	03012683          	lw	a3,48(sp)
    3308:	02c12783          	lw	a5,44(sp)
    330c:	00700613          	li	a2,7
    3310:	00d8a023          	sw	a3,0(a7)
    3314:	0e812683          	lw	a3,232(sp)
    3318:	00e78733          	add	a4,a5,a4
    331c:	00f8a223          	sw	a5,4(a7)
    3320:	00168693          	addi	a3,a3,1
    3324:	0ee12623          	sw	a4,236(sp)
    3328:	0ed12423          	sw	a3,232(sp)
    332c:	5ad64663          	blt	a2,a3,38d8 <_vfprintf_r+0x1fe0>
    3330:	00888893          	addi	a7,a7,8
    3334:	1880006f          	j	34bc <_vfprintf_r+0x1bc4>
    3338:	00040b13          	mv	s6,s0
    333c:	00048b93          	mv	s7,s1
    3340:	c88ff06f          	j	27c8 <_vfprintf_r+0xed0>
    3344:	0e410613          	addi	a2,sp,228
    3348:	000b8593          	mv	a1,s7
    334c:	000b0513          	mv	a0,s6
    3350:	799090ef          	jal	ra,d2e8 <__sprint_r>
    3354:	c6051a63          	bnez	a0,27c8 <_vfprintf_r+0xed0>
    3358:	0ec12703          	lw	a4,236(sp)
    335c:	10c10893          	addi	a7,sp,268
    3360:	9fcff06f          	j	255c <_vfprintf_r+0xc64>
    3364:	00812683          	lw	a3,8(sp)
    3368:	01570733          	add	a4,a4,s5
    336c:	0158a223          	sw	s5,4(a7)
    3370:	00d8a023          	sw	a3,0(a7)
    3374:	00178793          	addi	a5,a5,1
    3378:	0ee12623          	sw	a4,236(sp)
    337c:	0ef12423          	sw	a5,232(sp)
    3380:	00700693          	li	a3,7
    3384:	00f6c463          	blt	a3,a5,338c <_vfprintf_r+0x1a94>
    3388:	879fe06f          	j	1c00 <_vfprintf_r+0x308>
    338c:	c19fe06f          	j	1fa4 <_vfprintf_r+0x6ac>
    3390:	000b8b13          	mv	s6,s7
    3394:	00040b93          	mv	s7,s0
    3398:	c30ff06f          	j	27c8 <_vfprintf_r+0xed0>
    339c:	0f012783          	lw	a5,240(sp)
    33a0:	0a010593          	addi	a1,sp,160
    33a4:	0b010513          	addi	a0,sp,176
    33a8:	0af12823          	sw	a5,176(sp)
    33ac:	0f412783          	lw	a5,244(sp)
    33b0:	01112823          	sw	a7,16(sp)
    33b4:	0a012023          	sw	zero,160(sp)
    33b8:	0af12a23          	sw	a5,180(sp)
    33bc:	0f812783          	lw	a5,248(sp)
    33c0:	0a012223          	sw	zero,164(sp)
    33c4:	0a012423          	sw	zero,168(sp)
    33c8:	0af12c23          	sw	a5,184(sp)
    33cc:	0fc12783          	lw	a5,252(sp)
    33d0:	0a012623          	sw	zero,172(sp)
    33d4:	0af12e23          	sw	a5,188(sp)
    33d8:	2380e0ef          	jal	ra,11610 <__letf2>
    33dc:	01012883          	lw	a7,16(sp)
    33e0:	1e0542e3          	bltz	a0,3dc4 <_vfprintf_r+0x24cc>
    33e4:	0c714703          	lbu	a4,199(sp)
    33e8:	04700793          	li	a5,71
    33ec:	4197d863          	bge	a5,s9,37fc <_vfprintf_r+0x1f04>
    33f0:	000207b7          	lui	a5,0x20
    33f4:	60078d13          	addi	s10,a5,1536 # 20600 <_impure_ptr+0x5c8>
    33f8:	00012823          	sw	zero,16(sp)
    33fc:	02012423          	sw	zero,40(sp)
    3400:	02012223          	sw	zero,36(sp)
    3404:	00012e23          	sw	zero,28(sp)
    3408:	f7f97913          	andi	s2,s2,-129
    340c:	00300993          	li	s3,3
    3410:	00300c13          	li	s8,3
    3414:	00000313          	li	t1,0
    3418:	00070463          	beqz	a4,3420 <_vfprintf_r+0x1b28>
    341c:	d19fe06f          	j	2134 <_vfprintf_r+0x83c>
    3420:	f18fe06f          	j	1b38 <_vfprintf_r+0x240>
    3424:	01412783          	lw	a5,20(sp)
    3428:	00040d13          	mv	s10,s0
    342c:	0007a783          	lw	a5,0(a5)
    3430:	00e12a23          	sw	a4,20(sp)
    3434:	00c12703          	lw	a4,12(sp)
    3438:	00e7a023          	sw	a4,0(a5)
    343c:	811fe06f          	j	1c4c <_vfprintf_r+0x354>
    3440:	000d0513          	mv	a0,s10
    3444:	05b12023          	sw	s11,64(sp)
    3448:	c24fe0ef          	jal	ra,186c <strlen>
    344c:	0c714703          	lbu	a4,199(sp)
    3450:	fff54993          	not	s3,a0
    3454:	41f9d993          	srai	s3,s3,0x1f
    3458:	01412a23          	sw	s4,20(sp)
    345c:	00012823          	sw	zero,16(sp)
    3460:	02012423          	sw	zero,40(sp)
    3464:	02012223          	sw	zero,36(sp)
    3468:	00012e23          	sw	zero,28(sp)
    346c:	04012883          	lw	a7,64(sp)
    3470:	00050c13          	mv	s8,a0
    3474:	013579b3          	and	s3,a0,s3
    3478:	00000313          	li	t1,0
    347c:	00070463          	beqz	a4,3484 <_vfprintf_r+0x1b8c>
    3480:	cb5fe06f          	j	2134 <_vfprintf_r+0x83c>
    3484:	eb4fe06f          	j	1b38 <_vfprintf_r+0x240>
    3488:	03012683          	lw	a3,48(sp)
    348c:	02c12783          	lw	a5,44(sp)
    3490:	00700613          	li	a2,7
    3494:	00d8a023          	sw	a3,0(a7)
    3498:	0e812683          	lw	a3,232(sp)
    349c:	00e78733          	add	a4,a5,a4
    34a0:	00f8a223          	sw	a5,4(a7)
    34a4:	00168693          	addi	a3,a3,1
    34a8:	0ee12623          	sw	a4,236(sp)
    34ac:	0ed12423          	sw	a3,232(sp)
    34b0:	00888893          	addi	a7,a7,8
    34b4:	42d64263          	blt	a2,a3,38d8 <_vfprintf_r+0x1fe0>
    34b8:	1805c2e3          	bltz	a1,3e3c <_vfprintf_r+0x2544>
    34bc:	02012783          	lw	a5,32(sp)
    34c0:	00168693          	addi	a3,a3,1
    34c4:	01a8a023          	sw	s10,0(a7)
    34c8:	00e78733          	add	a4,a5,a4
    34cc:	00f8a223          	sw	a5,4(a7)
    34d0:	0ee12623          	sw	a4,236(sp)
    34d4:	0ed12423          	sw	a3,232(sp)
    34d8:	00700793          	li	a5,7
    34dc:	00d7c463          	blt	a5,a3,34e4 <_vfprintf_r+0x1bec>
    34e0:	f20fe06f          	j	1c00 <_vfprintf_r+0x308>
    34e4:	ac1fe06f          	j	1fa4 <_vfprintf_r+0x6ac>
    34e8:	00812783          	lw	a5,8(sp)
    34ec:	018d8db3          	add	s11,s11,s8
    34f0:	001a8a93          	addi	s5,s5,1
    34f4:	a69fe06f          	j	1f5c <_vfprintf_r+0x664>
    34f8:	0fc12783          	lw	a5,252(sp)
    34fc:	3807ce63          	bltz	a5,3898 <_vfprintf_r+0x1fa0>
    3500:	0c714703          	lbu	a4,199(sp)
    3504:	04700793          	li	a5,71
    3508:	0f97dce3          	bge	a5,s9,3e00 <_vfprintf_r+0x2508>
    350c:	000207b7          	lui	a5,0x20
    3510:	60878d13          	addi	s10,a5,1544 # 20608 <_impure_ptr+0x5d0>
    3514:	ee5ff06f          	j	33f8 <_vfprintf_r+0x1b00>
    3518:	00812783          	lw	a5,8(sp)
    351c:	01870733          	add	a4,a4,s8
    3520:	00168693          	addi	a3,a3,1
    3524:	00f8a023          	sw	a5,0(a7)
    3528:	0188a223          	sw	s8,4(a7)
    352c:	0ee12623          	sw	a4,236(sp)
    3530:	0ed12423          	sw	a3,232(sp)
    3534:	00700613          	li	a2,7
    3538:	00888893          	addi	a7,a7,8
    353c:	c2d65863          	bge	a2,a3,296c <_vfprintf_r+0x1074>
    3540:	0e410613          	addi	a2,sp,228
    3544:	000b8593          	mv	a1,s7
    3548:	000b0513          	mv	a0,s6
    354c:	59d090ef          	jal	ra,d2e8 <__sprint_r>
    3550:	a6051c63          	bnez	a0,27c8 <_vfprintf_r+0xed0>
    3554:	0ec12703          	lw	a4,236(sp)
    3558:	10c10893          	addi	a7,sp,268
    355c:	c10ff06f          	j	296c <_vfprintf_r+0x1074>
    3560:	04812783          	lw	a5,72(sp)
    3564:	04c12583          	lw	a1,76(sp)
    3568:	02512e23          	sw	t0,60(sp)
    356c:	40fd0d33          	sub	s10,s10,a5
    3570:	00078613          	mv	a2,a5
    3574:	000d0513          	mv	a0,s10
    3578:	03112423          	sw	a7,40(sp)
    357c:	02612223          	sw	t1,36(sp)
    3580:	02712023          	sw	t2,32(sp)
    3584:	01012e23          	sw	a6,28(sp)
    3588:	01d12823          	sw	t4,16(sp)
    358c:	278070ef          	jal	ra,a804 <strncpy>
    3590:	01012e83          	lw	t4,16(sp)
    3594:	02012383          	lw	t2,32(sp)
    3598:	100007b7          	lui	a5,0x10000
    359c:	fff78693          	addi	a3,a5,-1 # fffffff <_stack+0xffbffff>
    35a0:	01c12803          	lw	a6,28(sp)
    35a4:	007ee733          	or	a4,t4,t2
    35a8:	00d77733          	and	a4,a4,a3
    35ac:	00d9f7b3          	and	a5,s3,a3
    35b0:	00e787b3          	add	a5,a5,a4
    35b4:	010787b3          	add	a5,a5,a6
    35b8:	00500f13          	li	t5,5
    35bc:	03e7f7b3          	remu	a5,a5,t5
    35c0:	00194603          	lbu	a2,1(s2)
    35c4:	ccccd5b7          	lui	a1,0xccccd
    35c8:	ccc58f93          	addi	t6,a1,-820 # cccccccc <_stack+0xccc8cccc>
    35cc:	00c03633          	snez	a2,a2
    35d0:	00c90933          	add	s2,s2,a2
    35d4:	02412303          	lw	t1,36(sp)
    35d8:	02812883          	lw	a7,40(sp)
    35dc:	03c12283          	lw	t0,60(sp)
    35e0:	00000713          	li	a4,0
    35e4:	00900e13          	li	t3,9
    35e8:	40f987b3          	sub	a5,s3,a5
    35ec:	00f9b633          	sltu	a2,s3,a5
    35f0:	40ca8633          	sub	a2,s5,a2
    35f4:	03f785b3          	mul	a1,a5,t6
    35f8:	03860633          	mul	a2,a2,s8
    35fc:	0387b533          	mulhu	a0,a5,s8
    3600:	00b60633          	add	a2,a2,a1
    3604:	038785b3          	mul	a1,a5,s8
    3608:	00a60633          	add	a2,a2,a0
    360c:	01f61793          	slli	a5,a2,0x1f
    3610:	00165613          	srli	a2,a2,0x1
    3614:	0015d593          	srli	a1,a1,0x1
    3618:	00b7e7b3          	or	a5,a5,a1
    361c:	bf5ff06f          	j	3210 <_vfprintf_r+0x1918>
    3620:	02012783          	lw	a5,32(sp)
    3624:	02412a83          	lw	s5,36(sp)
    3628:	00812e23          	sw	s0,28(sp)
    362c:	05212023          	sw	s2,64(sp)
    3630:	04912223          	sw	s1,68(sp)
    3634:	03312223          	sw	s3,36(sp)
    3638:	02812483          	lw	s1,40(sp)
    363c:	03a12423          	sw	s10,40(sp)
    3640:	03c12403          	lw	s0,60(sp)
    3644:	04812903          	lw	s2,72(sp)
    3648:	04c12983          	lw	s3,76(sp)
    364c:	00700c13          	li	s8,7
    3650:	00fd0a33          	add	s4,s10,a5
    3654:	01000d93          	li	s11,16
    3658:	080a8663          	beqz	s5,36e4 <_vfprintf_r+0x1dec>
    365c:	08049663          	bnez	s1,36e8 <_vfprintf_r+0x1df0>
    3660:	fff40413          	addi	s0,s0,-1
    3664:	fffa8a93          	addi	s5,s5,-1
    3668:	0e812783          	lw	a5,232(sp)
    366c:	01270733          	add	a4,a4,s2
    3670:	0138a023          	sw	s3,0(a7)
    3674:	00178793          	addi	a5,a5,1
    3678:	0128a223          	sw	s2,4(a7)
    367c:	0ee12623          	sw	a4,236(sp)
    3680:	0ef12423          	sw	a5,232(sp)
    3684:	00888893          	addi	a7,a7,8
    3688:	0efc4c63          	blt	s8,a5,3780 <_vfprintf_r+0x1e88>
    368c:	00044683          	lbu	a3,0(s0)
    3690:	419a0d33          	sub	s10,s4,s9
    3694:	01a6d463          	bge	a3,s10,369c <_vfprintf_r+0x1da4>
    3698:	00068d13          	mv	s10,a3
    369c:	03a05663          	blez	s10,36c8 <_vfprintf_r+0x1dd0>
    36a0:	0e812683          	lw	a3,232(sp)
    36a4:	01a70733          	add	a4,a4,s10
    36a8:	0198a023          	sw	s9,0(a7)
    36ac:	00168693          	addi	a3,a3,1
    36b0:	01a8a223          	sw	s10,4(a7)
    36b4:	0ee12623          	sw	a4,236(sp)
    36b8:	0ed12423          	sw	a3,232(sp)
    36bc:	0edc4463          	blt	s8,a3,37a4 <_vfprintf_r+0x1eac>
    36c0:	00044683          	lbu	a3,0(s0)
    36c4:	00888893          	addi	a7,a7,8
    36c8:	fffd4613          	not	a2,s10
    36cc:	41f65613          	srai	a2,a2,0x1f
    36d0:	00cd77b3          	and	a5,s10,a2
    36d4:	40f68d33          	sub	s10,a3,a5
    36d8:	01a04c63          	bgtz	s10,36f0 <_vfprintf_r+0x1df8>
    36dc:	00dc8cb3          	add	s9,s9,a3
    36e0:	f60a9ee3          	bnez	s5,365c <_vfprintf_r+0x1d64>
    36e4:	5a048c63          	beqz	s1,3c9c <_vfprintf_r+0x23a4>
    36e8:	fff48493          	addi	s1,s1,-1
    36ec:	f7dff06f          	j	3668 <_vfprintf_r+0x1d70>
    36f0:	0e812683          	lw	a3,232(sp)
    36f4:	01adc863          	blt	s11,s10,3704 <_vfprintf_r+0x1e0c>
    36f8:	0580006f          	j	3750 <_vfprintf_r+0x1e58>
    36fc:	ff0d0d13          	addi	s10,s10,-16
    3700:	05add863          	bge	s11,s10,3750 <_vfprintf_r+0x1e58>
    3704:	00812783          	lw	a5,8(sp)
    3708:	01070713          	addi	a4,a4,16
    370c:	00168693          	addi	a3,a3,1
    3710:	00f8a023          	sw	a5,0(a7)
    3714:	01b8a223          	sw	s11,4(a7)
    3718:	0ee12623          	sw	a4,236(sp)
    371c:	0ed12423          	sw	a3,232(sp)
    3720:	00888893          	addi	a7,a7,8
    3724:	fcdc5ce3          	bge	s8,a3,36fc <_vfprintf_r+0x1e04>
    3728:	0e410613          	addi	a2,sp,228
    372c:	000b8593          	mv	a1,s7
    3730:	000b0513          	mv	a0,s6
    3734:	3b5090ef          	jal	ra,d2e8 <__sprint_r>
    3738:	88051863          	bnez	a0,27c8 <_vfprintf_r+0xed0>
    373c:	ff0d0d13          	addi	s10,s10,-16
    3740:	0ec12703          	lw	a4,236(sp)
    3744:	0e812683          	lw	a3,232(sp)
    3748:	10c10893          	addi	a7,sp,268
    374c:	fbadcce3          	blt	s11,s10,3704 <_vfprintf_r+0x1e0c>
    3750:	00812783          	lw	a5,8(sp)
    3754:	01a70733          	add	a4,a4,s10
    3758:	00168693          	addi	a3,a3,1
    375c:	00f8a023          	sw	a5,0(a7)
    3760:	01a8a223          	sw	s10,4(a7)
    3764:	0ee12623          	sw	a4,236(sp)
    3768:	0ed12423          	sw	a3,232(sp)
    376c:	60dc4263          	blt	s8,a3,3d70 <_vfprintf_r+0x2478>
    3770:	00044683          	lbu	a3,0(s0)
    3774:	00888893          	addi	a7,a7,8
    3778:	00dc8cb3          	add	s9,s9,a3
    377c:	f65ff06f          	j	36e0 <_vfprintf_r+0x1de8>
    3780:	0e410613          	addi	a2,sp,228
    3784:	000b8593          	mv	a1,s7
    3788:	000b0513          	mv	a0,s6
    378c:	35d090ef          	jal	ra,d2e8 <__sprint_r>
    3790:	00050463          	beqz	a0,3798 <_vfprintf_r+0x1ea0>
    3794:	834ff06f          	j	27c8 <_vfprintf_r+0xed0>
    3798:	0ec12703          	lw	a4,236(sp)
    379c:	10c10893          	addi	a7,sp,268
    37a0:	eedff06f          	j	368c <_vfprintf_r+0x1d94>
    37a4:	0e410613          	addi	a2,sp,228
    37a8:	000b8593          	mv	a1,s7
    37ac:	000b0513          	mv	a0,s6
    37b0:	339090ef          	jal	ra,d2e8 <__sprint_r>
    37b4:	00050463          	beqz	a0,37bc <_vfprintf_r+0x1ec4>
    37b8:	810ff06f          	j	27c8 <_vfprintf_r+0xed0>
    37bc:	00044683          	lbu	a3,0(s0)
    37c0:	0ec12703          	lw	a4,236(sp)
    37c4:	10c10893          	addi	a7,sp,268
    37c8:	f01ff06f          	j	36c8 <_vfprintf_r+0x1dd0>
    37cc:	a53e62e3          	bltu	t3,s3,3210 <_vfprintf_r+0x1918>
    37d0:	ad1ff06f          	j	32a0 <_vfprintf_r+0x19a8>
    37d4:	0e410613          	addi	a2,sp,228
    37d8:	000b8593          	mv	a1,s7
    37dc:	000b0513          	mv	a0,s6
    37e0:	309090ef          	jal	ra,d2e8 <__sprint_r>
    37e4:	00050463          	beqz	a0,37ec <_vfprintf_r+0x1ef4>
    37e8:	fe1fe06f          	j	27c8 <_vfprintf_r+0xed0>
    37ec:	0cc12583          	lw	a1,204(sp)
    37f0:	0ec12703          	lw	a4,236(sp)
    37f4:	10c10893          	addi	a7,sp,268
    37f8:	af5ff06f          	j	32ec <_vfprintf_r+0x19f4>
    37fc:	000207b7          	lui	a5,0x20
    3800:	5fc78d13          	addi	s10,a5,1532 # 205fc <_impure_ptr+0x5c4>
    3804:	bf5ff06f          	j	33f8 <_vfprintf_r+0x1b00>
    3808:	0e410613          	addi	a2,sp,228
    380c:	000b8593          	mv	a1,s7
    3810:	000b0513          	mv	a0,s6
    3814:	2d5090ef          	jal	ra,d2e8 <__sprint_r>
    3818:	00050463          	beqz	a0,3820 <_vfprintf_r+0x1f28>
    381c:	fadfe06f          	j	27c8 <_vfprintf_r+0xed0>
    3820:	0ec12703          	lw	a4,236(sp)
    3824:	10c10893          	addi	a7,sp,268
    3828:	92cff06f          	j	2954 <_vfprintf_r+0x105c>
    382c:	00600c13          	li	s8,6
    3830:	d84ff06f          	j	2db4 <_vfprintf_r+0x14bc>
    3834:	02012603          	lw	a2,32(sp)
    3838:	00cd07b3          	add	a5,s10,a2
    383c:	40d606b3          	sub	a3,a2,a3
    3840:	41978ab3          	sub	s5,a5,s9
    3844:	9d56d463          	bge	a3,s5,2a0c <_vfprintf_r+0x1114>
    3848:	00068a93          	mv	s5,a3
    384c:	9c0ff06f          	j	2a0c <_vfprintf_r+0x1114>
    3850:	01412783          	lw	a5,20(sp)
    3854:	00e12a23          	sw	a4,20(sp)
    3858:	00c12703          	lw	a4,12(sp)
    385c:	0007a783          	lw	a5,0(a5)
    3860:	00040d13          	mv	s10,s0
    3864:	00e79023          	sh	a4,0(a5)
    3868:	be4fe06f          	j	1c4c <_vfprintf_r+0x354>
    386c:	0ff9f993          	zext.b	s3,s3
    3870:	00000a93          	li	s5,0
    3874:	ca4ff06f          	j	2d18 <_vfprintf_r+0x1420>
    3878:	0ff9f993          	zext.b	s3,s3
    387c:	00000a93          	li	s5,0
    3880:	aa9fe06f          	j	2328 <_vfprintf_r+0xa30>
    3884:	01899993          	slli	s3,s3,0x18
    3888:	4189d993          	srai	s3,s3,0x18
    388c:	41f9da93          	srai	s5,s3,0x1f
    3890:	000a8793          	mv	a5,s5
    3894:	b19fe06f          	j	23ac <_vfprintf_r+0xab4>
    3898:	02d00793          	li	a5,45
    389c:	0cf103a3          	sb	a5,199(sp)
    38a0:	02d00713          	li	a4,45
    38a4:	c61ff06f          	j	3504 <_vfprintf_r+0x1c0c>
    38a8:	0e410613          	addi	a2,sp,228
    38ac:	000b8593          	mv	a1,s7
    38b0:	000b0513          	mv	a0,s6
    38b4:	235090ef          	jal	ra,d2e8 <__sprint_r>
    38b8:	ba8fe06f          	j	1c60 <_vfprintf_r+0x368>
    38bc:	00012823          	sw	zero,16(sp)
    38c0:	00070913          	mv	s2,a4
    38c4:	80000737          	lui	a4,0x80000
    38c8:	02d00793          	li	a5,45
    38cc:	01574ab3          	xor	s5,a4,s5
    38d0:	04f12c23          	sw	a5,88(sp)
    38d4:	da8ff06f          	j	2e7c <_vfprintf_r+0x1584>
    38d8:	0e410613          	addi	a2,sp,228
    38dc:	000b8593          	mv	a1,s7
    38e0:	000b0513          	mv	a0,s6
    38e4:	205090ef          	jal	ra,d2e8 <__sprint_r>
    38e8:	00050463          	beqz	a0,38f0 <_vfprintf_r+0x1ff8>
    38ec:	eddfe06f          	j	27c8 <_vfprintf_r+0xed0>
    38f0:	0cc12583          	lw	a1,204(sp)
    38f4:	0ec12703          	lw	a4,236(sp)
    38f8:	0e812683          	lw	a3,232(sp)
    38fc:	10c10893          	addi	a7,sp,268
    3900:	bb9ff06f          	j	34b8 <_vfprintf_r+0x1bc0>
    3904:	00130593          	addi	a1,t1,1
    3908:	000b0513          	mv	a0,s6
    390c:	01112e23          	sw	a7,28(sp)
    3910:	00612823          	sw	t1,16(sp)
    3914:	adcfd0ef          	jal	ra,bf0 <_malloc_r>
    3918:	01012303          	lw	t1,16(sp)
    391c:	01c12883          	lw	a7,28(sp)
    3920:	00050d13          	mv	s10,a0
    3924:	18050ae3          	beqz	a0,42b8 <_vfprintf_r+0x29c0>
    3928:	00a12823          	sw	a0,16(sp)
    392c:	d2cff06f          	j	2e58 <_vfprintf_r+0x1560>
    3930:	0a010c13          	addi	s8,sp,160
    3934:	e0cff06f          	j	2f40 <_vfprintf_r+0x1648>
    3938:	00130693          	addi	a3,t1,1
    393c:	00200613          	li	a2,2
    3940:	d74ff06f          	j	2eb4 <_vfprintf_r+0x15bc>
    3944:	00030693          	mv	a3,t1
    3948:	00300613          	li	a2,3
    394c:	d68ff06f          	j	2eb4 <_vfprintf_r+0x15bc>
    3950:	0b010993          	addi	s3,sp,176
    3954:	00098513          	mv	a0,s3
    3958:	05112e23          	sw	a7,92(sp)
    395c:	04612a23          	sw	t1,84(sp)
    3960:	0bd12a23          	sw	t4,180(sp)
    3964:	0be12c23          	sw	t5,184(sp)
    3968:	0b512e23          	sw	s5,188(sp)
    396c:	0b412823          	sw	s4,176(sp)
    3970:	728100ef          	jal	ra,14098 <__trunctfdf2>
    3974:	0cc10613          	addi	a2,sp,204
    3978:	2ed060ef          	jal	ra,a464 <frexp>
    397c:	00058613          	mv	a2,a1
    3980:	00050593          	mv	a1,a0
    3984:	00098513          	mv	a0,s3
    3988:	514100ef          	jal	ra,13e9c <__extenddftf2>
    398c:	0b012703          	lw	a4,176(sp)
    3990:	0a010c13          	addi	s8,sp,160
    3994:	09010a93          	addi	s5,sp,144
    3998:	08e12823          	sw	a4,144(sp)
    399c:	0b412703          	lw	a4,180(sp)
    39a0:	08010613          	addi	a2,sp,128
    39a4:	000a8593          	mv	a1,s5
    39a8:	08e12a23          	sw	a4,148(sp)
    39ac:	0b812703          	lw	a4,184(sp)
    39b0:	000c0513          	mv	a0,s8
    39b4:	04c12223          	sw	a2,68(sp)
    39b8:	08e12c23          	sw	a4,152(sp)
    39bc:	0bc12703          	lw	a4,188(sp)
    39c0:	08012023          	sw	zero,128(sp)
    39c4:	08012223          	sw	zero,132(sp)
    39c8:	08e12e23          	sw	a4,156(sp)
    39cc:	3ffc0737          	lui	a4,0x3ffc0
    39d0:	08e12623          	sw	a4,140(sp)
    39d4:	08012423          	sw	zero,136(sp)
    39d8:	57d0d0ef          	jal	ra,11754 <__multf3>
    39dc:	0a012783          	lw	a5,160(sp)
    39e0:	0a412803          	lw	a6,164(sp)
    39e4:	0a812e83          	lw	t4,168(sp)
    39e8:	0ac12f03          	lw	t5,172(sp)
    39ec:	000c0593          	mv	a1,s8
    39f0:	00098513          	mv	a0,s3
    39f4:	0af12823          	sw	a5,176(sp)
    39f8:	04f12823          	sw	a5,80(sp)
    39fc:	0b012a23          	sw	a6,180(sp)
    3a00:	03012223          	sw	a6,36(sp)
    3a04:	0bd12c23          	sw	t4,184(sp)
    3a08:	03d12023          	sw	t4,32(sp)
    3a0c:	0be12e23          	sw	t5,188(sp)
    3a10:	01e12e23          	sw	t5,28(sp)
    3a14:	0a012023          	sw	zero,160(sp)
    3a18:	0a012223          	sw	zero,164(sp)
    3a1c:	0a012423          	sw	zero,168(sp)
    3a20:	0a012623          	sw	zero,172(sp)
    3a24:	1dd0d0ef          	jal	ra,11400 <__eqtf2>
    3a28:	01c12f03          	lw	t5,28(sp)
    3a2c:	02012e83          	lw	t4,32(sp)
    3a30:	02412803          	lw	a6,36(sp)
    3a34:	05012783          	lw	a5,80(sp)
    3a38:	05412303          	lw	t1,84(sp)
    3a3c:	05c12883          	lw	a7,92(sp)
    3a40:	00051663          	bnez	a0,3a4c <_vfprintf_r+0x2154>
    3a44:	00100713          	li	a4,1
    3a48:	0ce12623          	sw	a4,204(sp)
    3a4c:	00020737          	lui	a4,0x20
    3a50:	62070713          	addi	a4,a4,1568 # 20620 <_impure_ptr+0x5e8>
    3a54:	02e12223          	sw	a4,36(sp)
    3a58:	fff30d93          	addi	s11,t1,-1
    3a5c:	07212223          	sw	s2,100(sp)
    3a60:	06912423          	sw	s1,104(sp)
    3a64:	07612a23          	sw	s6,116(sp)
    3a68:	07712c23          	sw	s7,120(sp)
    3a6c:	000d8b13          	mv	s6,s11
    3a70:	000d0b93          	mv	s7,s10
    3a74:	07a12e23          	sw	s10,124(sp)
    3a78:	04812e23          	sw	s0,92(sp)
    3a7c:	07912023          	sw	s9,96(sp)
    3a80:	06612623          	sw	t1,108(sp)
    3a84:	07112823          	sw	a7,112(sp)
    3a88:	00078d13          	mv	s10,a5
    3a8c:	00080d93          	mv	s11,a6
    3a90:	000e8493          	mv	s1,t4
    3a94:	000f0913          	mv	s2,t5
    3a98:	0480006f          	j	3ae0 <_vfprintf_r+0x21e8>
    3a9c:	000c0593          	mv	a1,s8
    3aa0:	00098513          	mv	a0,s3
    3aa4:	02c12023          	sw	a2,32(sp)
    3aa8:	01f12e23          	sw	t6,28(sp)
    3aac:	0bf12c23          	sw	t6,184(sp)
    3ab0:	0ac12e23          	sw	a2,188(sp)
    3ab4:	0b412823          	sw	s4,176(sp)
    3ab8:	0b912a23          	sw	s9,180(sp)
    3abc:	0a012023          	sw	zero,160(sp)
    3ac0:	0a012223          	sw	zero,164(sp)
    3ac4:	0a012423          	sw	zero,168(sp)
    3ac8:	0a012623          	sw	zero,172(sp)
    3acc:	1350d0ef          	jal	ra,11400 <__eqtf2>
    3ad0:	fffb0b13          	addi	s6,s6,-1
    3ad4:	00048f93          	mv	t6,s1
    3ad8:	00090613          	mv	a2,s2
    3adc:	0e050263          	beqz	a0,3bc0 <_vfprintf_r+0x22c8>
    3ae0:	400307b7          	lui	a5,0x40030
    3ae4:	000a8613          	mv	a2,s5
    3ae8:	000c0593          	mv	a1,s8
    3aec:	00098513          	mv	a0,s3
    3af0:	08f12e23          	sw	a5,156(sp)
    3af4:	0ba12023          	sw	s10,160(sp)
    3af8:	0bb12223          	sw	s11,164(sp)
    3afc:	0a912423          	sw	s1,168(sp)
    3b00:	0b212623          	sw	s2,172(sp)
    3b04:	08012823          	sw	zero,144(sp)
    3b08:	08012a23          	sw	zero,148(sp)
    3b0c:	08012c23          	sw	zero,152(sp)
    3b10:	4450d0ef          	jal	ra,11754 <__multf3>
    3b14:	00098513          	mv	a0,s3
    3b18:	11c100ef          	jal	ra,13c34 <__fixtfsi>
    3b1c:	00050593          	mv	a1,a0
    3b20:	00050413          	mv	s0,a0
    3b24:	00098513          	mv	a0,s3
    3b28:	0b012c83          	lw	s9,176(sp)
    3b2c:	0b412903          	lw	s2,180(sp)
    3b30:	0b812a03          	lw	s4,184(sp)
    3b34:	0bc12483          	lw	s1,188(sp)
    3b38:	210100ef          	jal	ra,13d48 <__floatsitf>
    3b3c:	0b012783          	lw	a5,176(sp)
    3b40:	04412603          	lw	a2,68(sp)
    3b44:	000a8593          	mv	a1,s5
    3b48:	08f12023          	sw	a5,128(sp)
    3b4c:	0b412783          	lw	a5,180(sp)
    3b50:	000c0513          	mv	a0,s8
    3b54:	09912823          	sw	s9,144(sp)
    3b58:	08f12223          	sw	a5,132(sp)
    3b5c:	0b812783          	lw	a5,184(sp)
    3b60:	09212a23          	sw	s2,148(sp)
    3b64:	09412c23          	sw	s4,152(sp)
    3b68:	08f12423          	sw	a5,136(sp)
    3b6c:	0bc12783          	lw	a5,188(sp)
    3b70:	08912e23          	sw	s1,156(sp)
    3b74:	08f12623          	sw	a5,140(sp)
    3b78:	41d0e0ef          	jal	ra,12794 <__subtf3>
    3b7c:	02412783          	lw	a5,36(sp)
    3b80:	0a012a03          	lw	s4,160(sp)
    3b84:	0a412c83          	lw	s9,164(sp)
    3b88:	008787b3          	add	a5,a5,s0
    3b8c:	0007c783          	lbu	a5,0(a5) # 40030000 <_stack+0x3fff0000>
    3b90:	0a812f83          	lw	t6,168(sp)
    3b94:	0ac12603          	lw	a2,172(sp)
    3b98:	05712a23          	sw	s7,84(sp)
    3b9c:	00fb8023          	sb	a5,0(s7)
    3ba0:	05612823          	sw	s6,80(sp)
    3ba4:	fff00793          	li	a5,-1
    3ba8:	001b8b93          	addi	s7,s7,1
    3bac:	000a0d13          	mv	s10,s4
    3bb0:	000c8d93          	mv	s11,s9
    3bb4:	000f8493          	mv	s1,t6
    3bb8:	00060913          	mv	s2,a2
    3bbc:	eefb10e3          	bne	s6,a5,3a9c <_vfprintf_r+0x21a4>
    3bc0:	06c12303          	lw	t1,108(sp)
    3bc4:	07012883          	lw	a7,112(sp)
    3bc8:	000a0393          	mv	t2,s4
    3bcc:	000c8293          	mv	t0,s9
    3bd0:	3ffe0ab7          	lui	s5,0x3ffe0
    3bd4:	000c0593          	mv	a1,s8
    3bd8:	00098513          	mv	a0,s3
    3bdc:	02612023          	sw	t1,32(sp)
    3be0:	01112e23          	sw	a7,28(sp)
    3be4:	06412903          	lw	s2,100(sp)
    3be8:	06012c83          	lw	s9,96(sp)
    3bec:	00040d93          	mv	s11,s0
    3bf0:	0a712823          	sw	t2,176(sp)
    3bf4:	05c12403          	lw	s0,92(sp)
    3bf8:	06712223          	sw	t2,100(sp)
    3bfc:	0a512a23          	sw	t0,180(sp)
    3c00:	06512023          	sw	t0,96(sp)
    3c04:	0bf12c23          	sw	t6,184(sp)
    3c08:	05f12e23          	sw	t6,92(sp)
    3c0c:	0ac12e23          	sw	a2,188(sp)
    3c10:	04c12223          	sw	a2,68(sp)
    3c14:	0a012023          	sw	zero,160(sp)
    3c18:	0a012223          	sw	zero,164(sp)
    3c1c:	0a012423          	sw	zero,168(sp)
    3c20:	0b512623          	sw	s5,172(sp)
    3c24:	0a90d0ef          	jal	ra,114cc <__getf2>
    3c28:	000b8a13          	mv	s4,s7
    3c2c:	06812483          	lw	s1,104(sp)
    3c30:	07412b03          	lw	s6,116(sp)
    3c34:	07c12d03          	lw	s10,124(sp)
    3c38:	07812b83          	lw	s7,120(sp)
    3c3c:	01c12883          	lw	a7,28(sp)
    3c40:	02012303          	lw	t1,32(sp)
    3c44:	30a04663          	bgtz	a0,3f50 <_vfprintf_r+0x2658>
    3c48:	000c0593          	mv	a1,s8
    3c4c:	00098513          	mv	a0,s3
    3c50:	03112023          	sw	a7,32(sp)
    3c54:	00612e23          	sw	t1,28(sp)
    3c58:	7a80d0ef          	jal	ra,11400 <__eqtf2>
    3c5c:	01c12303          	lw	t1,28(sp)
    3c60:	02012883          	lw	a7,32(sp)
    3c64:	00051663          	bnez	a0,3c70 <_vfprintf_r+0x2378>
    3c68:	001dfa93          	andi	s5,s11,1
    3c6c:	2e0a9263          	bnez	s5,3f50 <_vfprintf_r+0x2658>
    3c70:	05012783          	lw	a5,80(sp)
    3c74:	03000613          	li	a2,48
    3c78:	00178693          	addi	a3,a5,1
    3c7c:	00da06b3          	add	a3,s4,a3
    3c80:	0007c863          	bltz	a5,3c90 <_vfprintf_r+0x2398>
    3c84:	001a0a13          	addi	s4,s4,1
    3c88:	feca0fa3          	sb	a2,-1(s4)
    3c8c:	ff469ce3          	bne	a3,s4,3c84 <_vfprintf_r+0x238c>
    3c90:	41aa07b3          	sub	a5,s4,s10
    3c94:	02f12023          	sw	a5,32(sp)
    3c98:	b1cff06f          	j	2fb4 <_vfprintf_r+0x16bc>
    3c9c:	02812d03          	lw	s10,40(sp)
    3ca0:	02012783          	lw	a5,32(sp)
    3ca4:	02812e23          	sw	s0,60(sp)
    3ca8:	04012903          	lw	s2,64(sp)
    3cac:	00fd06b3          	add	a3,s10,a5
    3cb0:	01c12403          	lw	s0,28(sp)
    3cb4:	04412483          	lw	s1,68(sp)
    3cb8:	02412983          	lw	s3,36(sp)
    3cbc:	0196e463          	bltu	a3,s9,3cc4 <_vfprintf_r+0x23cc>
    3cc0:	cbdfe06f          	j	297c <_vfprintf_r+0x1084>
    3cc4:	00068c93          	mv	s9,a3
    3cc8:	cb5fe06f          	j	297c <_vfprintf_r+0x1084>
    3ccc:	01c12783          	lw	a5,28(sp)
    3cd0:	ffd00713          	li	a4,-3
    3cd4:	00e7c463          	blt	a5,a4,3cdc <_vfprintf_r+0x23e4>
    3cd8:	02f35463          	bge	t1,a5,3d00 <_vfprintf_r+0x2408>
    3cdc:	ffec8c93          	addi	s9,s9,-2
    3ce0:	fdfcf793          	andi	a5,s9,-33
    3ce4:	02f12423          	sw	a5,40(sp)
    3ce8:	aecff06f          	j	2fd4 <_vfprintf_r+0x16dc>
    3cec:	0c714703          	lbu	a4,199(sp)
    3cf0:	00000313          	li	t1,0
    3cf4:	00070463          	beqz	a4,3cfc <_vfprintf_r+0x2404>
    3cf8:	c3cfe06f          	j	2134 <_vfprintf_r+0x83c>
    3cfc:	e3dfd06f          	j	1b38 <_vfprintf_r+0x240>
    3d00:	02012783          	lw	a5,32(sp)
    3d04:	01c12703          	lw	a4,28(sp)
    3d08:	1af74063          	blt	a4,a5,3ea8 <_vfprintf_r+0x25b0>
    3d0c:	04012783          	lw	a5,64(sp)
    3d10:	0017f713          	andi	a4,a5,1
    3d14:	01c12783          	lw	a5,28(sp)
    3d18:	00078c13          	mv	s8,a5
    3d1c:	00070663          	beqz	a4,3d28 <_vfprintf_r+0x2430>
    3d20:	02c12703          	lw	a4,44(sp)
    3d24:	00e78c33          	add	s8,a5,a4
    3d28:	04012783          	lw	a5,64(sp)
    3d2c:	4007f713          	andi	a4,a5,1024
    3d30:	00070663          	beqz	a4,3d3c <_vfprintf_r+0x2444>
    3d34:	01c12783          	lw	a5,28(sp)
    3d38:	2ef04663          	bgtz	a5,4024 <_vfprintf_r+0x272c>
    3d3c:	fffc4993          	not	s3,s8
    3d40:	41f9d993          	srai	s3,s3,0x1f
    3d44:	013c79b3          	and	s3,s8,s3
    3d48:	06700c93          	li	s9,103
    3d4c:	02012423          	sw	zero,40(sp)
    3d50:	02012223          	sw	zero,36(sp)
    3d54:	b94ff06f          	j	30e8 <_vfprintf_r+0x17f0>
    3d58:	04012783          	lw	a5,64(sp)
    3d5c:	00d50633          	add	a2,a0,a3
    3d60:	0017f713          	andi	a4,a5,1
    3d64:	bc0716e3          	bnez	a4,3930 <_vfprintf_r+0x2038>
    3d68:	0dc12783          	lw	a5,220(sp)
    3d6c:	a40ff06f          	j	2fac <_vfprintf_r+0x16b4>
    3d70:	0e410613          	addi	a2,sp,228
    3d74:	000b8593          	mv	a1,s7
    3d78:	000b0513          	mv	a0,s6
    3d7c:	56c090ef          	jal	ra,d2e8 <__sprint_r>
    3d80:	00050463          	beqz	a0,3d88 <_vfprintf_r+0x2490>
    3d84:	a45fe06f          	j	27c8 <_vfprintf_r+0xed0>
    3d88:	00044683          	lbu	a3,0(s0)
    3d8c:	0ec12703          	lw	a4,236(sp)
    3d90:	10c10893          	addi	a7,sp,268
    3d94:	00dc8cb3          	add	s9,s9,a3
    3d98:	949ff06f          	j	36e0 <_vfprintf_r+0x1de8>
    3d9c:	0e410613          	addi	a2,sp,228
    3da0:	000b8593          	mv	a1,s7
    3da4:	000b0513          	mv	a0,s6
    3da8:	540090ef          	jal	ra,d2e8 <__sprint_r>
    3dac:	00050463          	beqz	a0,3db4 <_vfprintf_r+0x24bc>
    3db0:	a19fe06f          	j	27c8 <_vfprintf_r+0xed0>
    3db4:	0cc12683          	lw	a3,204(sp)
    3db8:	0ec12703          	lw	a4,236(sp)
    3dbc:	10c10893          	addi	a7,sp,268
    3dc0:	c05fe06f          	j	29c4 <_vfprintf_r+0x10cc>
    3dc4:	02d00793          	li	a5,45
    3dc8:	0cf103a3          	sb	a5,199(sp)
    3dcc:	02d00713          	li	a4,45
    3dd0:	e18ff06f          	j	33e8 <_vfprintf_r+0x1af0>
    3dd4:	0c714703          	lbu	a4,199(sp)
    3dd8:	01412a23          	sw	s4,20(sp)
    3ddc:	02012423          	sw	zero,40(sp)
    3de0:	02012223          	sw	zero,36(sp)
    3de4:	00012e23          	sw	zero,28(sp)
    3de8:	00030993          	mv	s3,t1
    3dec:	00030c13          	mv	s8,t1
    3df0:	00000313          	li	t1,0
    3df4:	00070463          	beqz	a4,3dfc <_vfprintf_r+0x2504>
    3df8:	b3cfe06f          	j	2134 <_vfprintf_r+0x83c>
    3dfc:	d3dfd06f          	j	1b38 <_vfprintf_r+0x240>
    3e00:	000207b7          	lui	a5,0x20
    3e04:	60478d13          	addi	s10,a5,1540 # 20604 <_impure_ptr+0x5cc>
    3e08:	df0ff06f          	j	33f8 <_vfprintf_r+0x1b00>
    3e0c:	0e410613          	addi	a2,sp,228
    3e10:	000b8593          	mv	a1,s7
    3e14:	000b0513          	mv	a0,s6
    3e18:	4d0090ef          	jal	ra,d2e8 <__sprint_r>
    3e1c:	00050463          	beqz	a0,3e24 <_vfprintf_r+0x252c>
    3e20:	9a9fe06f          	j	27c8 <_vfprintf_r+0xed0>
    3e24:	0cc12683          	lw	a3,204(sp)
    3e28:	02012783          	lw	a5,32(sp)
    3e2c:	0ec12703          	lw	a4,236(sp)
    3e30:	10c10893          	addi	a7,sp,268
    3e34:	40d786b3          	sub	a3,a5,a3
    3e38:	bd5fe06f          	j	2a0c <_vfprintf_r+0x1114>
    3e3c:	ff000613          	li	a2,-16
    3e40:	40b00ab3          	neg	s5,a1
    3e44:	16c5d663          	bge	a1,a2,3fb0 <_vfprintf_r+0x26b8>
    3e48:	01000c13          	li	s8,16
    3e4c:	00700c93          	li	s9,7
    3e50:	00c0006f          	j	3e5c <_vfprintf_r+0x2564>
    3e54:	ff0a8a93          	addi	s5,s5,-16 # 3ffdfff0 <_stack+0x3ff9fff0>
    3e58:	155c5c63          	bge	s8,s5,3fb0 <_vfprintf_r+0x26b8>
    3e5c:	00812783          	lw	a5,8(sp)
    3e60:	01070713          	addi	a4,a4,16
    3e64:	00168693          	addi	a3,a3,1
    3e68:	00f8a023          	sw	a5,0(a7)
    3e6c:	0188a223          	sw	s8,4(a7)
    3e70:	0ee12623          	sw	a4,236(sp)
    3e74:	0ed12423          	sw	a3,232(sp)
    3e78:	00888893          	addi	a7,a7,8
    3e7c:	fcdcdce3          	bge	s9,a3,3e54 <_vfprintf_r+0x255c>
    3e80:	0e410613          	addi	a2,sp,228
    3e84:	000b8593          	mv	a1,s7
    3e88:	000b0513          	mv	a0,s6
    3e8c:	45c090ef          	jal	ra,d2e8 <__sprint_r>
    3e90:	00050463          	beqz	a0,3e98 <_vfprintf_r+0x25a0>
    3e94:	935fe06f          	j	27c8 <_vfprintf_r+0xed0>
    3e98:	0ec12703          	lw	a4,236(sp)
    3e9c:	0e812683          	lw	a3,232(sp)
    3ea0:	10c10893          	addi	a7,sp,268
    3ea4:	fb1ff06f          	j	3e54 <_vfprintf_r+0x255c>
    3ea8:	02012783          	lw	a5,32(sp)
    3eac:	02c12703          	lw	a4,44(sp)
    3eb0:	06700c93          	li	s9,103
    3eb4:	00e78c33          	add	s8,a5,a4
    3eb8:	01c12783          	lw	a5,28(sp)
    3ebc:	36f05663          	blez	a5,4228 <_vfprintf_r+0x2930>
    3ec0:	04012783          	lw	a5,64(sp)
    3ec4:	4007f713          	andi	a4,a5,1024
    3ec8:	16071063          	bnez	a4,4028 <_vfprintf_r+0x2730>
    3ecc:	fffc4993          	not	s3,s8
    3ed0:	41f9d993          	srai	s3,s3,0x1f
    3ed4:	013c79b3          	and	s3,s8,s3
    3ed8:	e75ff06f          	j	3d4c <_vfprintf_r+0x2454>
    3edc:	04012783          	lw	a5,64(sp)
    3ee0:	0017f713          	andi	a4,a5,1
    3ee4:	01c12783          	lw	a5,28(sp)
    3ee8:	00676733          	or	a4,a4,t1
    3eec:	36f05a63          	blez	a5,4260 <_vfprintf_r+0x2968>
    3ef0:	34071863          	bnez	a4,4240 <_vfprintf_r+0x2948>
    3ef4:	01c12c03          	lw	s8,28(sp)
    3ef8:	06600c93          	li	s9,102
    3efc:	fc5ff06f          	j	3ec0 <_vfprintf_r+0x25c8>
    3f00:	fff00793          	li	a5,-1
    3f04:	00f12623          	sw	a5,12(sp)
    3f08:	d69fd06f          	j	1c70 <_vfprintf_r+0x378>
    3f0c:	000216b7          	lui	a3,0x21
    3f10:	84468d93          	addi	s11,a3,-1980 # 20844 <blanks.1>
    3f14:	924fe06f          	j	2038 <_vfprintf_r+0x740>
    3f18:	0d610693          	addi	a3,sp,214
    3f1c:	00061863          	bnez	a2,3f2c <_vfprintf_r+0x2634>
    3f20:	03000693          	li	a3,48
    3f24:	0cd10b23          	sb	a3,214(sp)
    3f28:	0d710693          	addi	a3,sp,215
    3f2c:	1b010793          	addi	a5,sp,432
    3f30:	40f68633          	sub	a2,a3,a5
    3f34:	03070713          	addi	a4,a4,48
    3f38:	0dd60793          	addi	a5,a2,221
    3f3c:	00e68023          	sb	a4,0(a3)
    3f40:	02f12c23          	sw	a5,56(sp)
    3f44:	964ff06f          	j	30a8 <_vfprintf_r+0x17b0>
    3f48:	00090d93          	mv	s11,s2
    3f4c:	ca0fe06f          	j	23ec <_vfprintf_r+0xaf4>
    3f50:	05412783          	lw	a5,84(sp)
    3f54:	000a0693          	mv	a3,s4
    3f58:	0cf12e23          	sw	a5,220(sp)
    3f5c:	02412783          	lw	a5,36(sp)
    3f60:	fffa4603          	lbu	a2,-1(s4)
    3f64:	00f7c583          	lbu	a1,15(a5)
    3f68:	02c59063          	bne	a1,a2,3f88 <_vfprintf_r+0x2690>
    3f6c:	03000513          	li	a0,48
    3f70:	fea68fa3          	sb	a0,-1(a3)
    3f74:	0dc12683          	lw	a3,220(sp)
    3f78:	fff68793          	addi	a5,a3,-1
    3f7c:	0cf12e23          	sw	a5,220(sp)
    3f80:	fff6c603          	lbu	a2,-1(a3)
    3f84:	fec586e3          	beq	a1,a2,3f70 <_vfprintf_r+0x2678>
    3f88:	00160593          	addi	a1,a2,1
    3f8c:	03900513          	li	a0,57
    3f90:	0ff5f593          	zext.b	a1,a1
    3f94:	00a60663          	beq	a2,a0,3fa0 <_vfprintf_r+0x26a8>
    3f98:	feb68fa3          	sb	a1,-1(a3)
    3f9c:	cf5ff06f          	j	3c90 <_vfprintf_r+0x2398>
    3fa0:	02412783          	lw	a5,36(sp)
    3fa4:	00a7c583          	lbu	a1,10(a5)
    3fa8:	feb68fa3          	sb	a1,-1(a3)
    3fac:	ce5ff06f          	j	3c90 <_vfprintf_r+0x2398>
    3fb0:	00812783          	lw	a5,8(sp)
    3fb4:	01570733          	add	a4,a4,s5
    3fb8:	00168693          	addi	a3,a3,1
    3fbc:	00f8a023          	sw	a5,0(a7)
    3fc0:	0158a223          	sw	s5,4(a7)
    3fc4:	0ee12623          	sw	a4,236(sp)
    3fc8:	0ed12423          	sw	a3,232(sp)
    3fcc:	00700613          	li	a2,7
    3fd0:	b6d65063          	bge	a2,a3,3330 <_vfprintf_r+0x1a38>
    3fd4:	0e410613          	addi	a2,sp,228
    3fd8:	000b8593          	mv	a1,s7
    3fdc:	000b0513          	mv	a0,s6
    3fe0:	308090ef          	jal	ra,d2e8 <__sprint_r>
    3fe4:	00050463          	beqz	a0,3fec <_vfprintf_r+0x26f4>
    3fe8:	fe0fe06f          	j	27c8 <_vfprintf_r+0xed0>
    3fec:	0ec12703          	lw	a4,236(sp)
    3ff0:	0e812683          	lw	a3,232(sp)
    3ff4:	10c10893          	addi	a7,sp,268
    3ff8:	cc4ff06f          	j	34bc <_vfprintf_r+0x1bc4>
    3ffc:	00030463          	beqz	t1,4004 <_vfprintf_r+0x270c>
    4000:	e45fd06f          	j	1e44 <_vfprintf_r+0x54c>
    4004:	00100313          	li	t1,1
    4008:	e3dfd06f          	j	1e44 <_vfprintf_r+0x54c>
    400c:	00600313          	li	t1,6
    4010:	e35fd06f          	j	1e44 <_vfprintf_r+0x54c>
    4014:	04012783          	lw	a5,64(sp)
    4018:	0017f713          	andi	a4,a5,1
    401c:	8a070463          	beqz	a4,30c4 <_vfprintf_r+0x17cc>
    4020:	89cff06f          	j	30bc <_vfprintf_r+0x17c4>
    4024:	06700c93          	li	s9,103
    4028:	03c12603          	lw	a2,60(sp)
    402c:	0ff00693          	li	a3,255
    4030:	00064703          	lbu	a4,0(a2)
    4034:	28d70a63          	beq	a4,a3,42c8 <_vfprintf_r+0x29d0>
    4038:	01c12783          	lw	a5,28(sp)
    403c:	00000513          	li	a0,0
    4040:	00000593          	li	a1,0
    4044:	00f75e63          	bge	a4,a5,4060 <_vfprintf_r+0x2768>
    4048:	40e787b3          	sub	a5,a5,a4
    404c:	00164703          	lbu	a4,1(a2)
    4050:	04070463          	beqz	a4,4098 <_vfprintf_r+0x27a0>
    4054:	00158593          	addi	a1,a1,1
    4058:	00160613          	addi	a2,a2,1
    405c:	fed714e3          	bne	a4,a3,4044 <_vfprintf_r+0x274c>
    4060:	02c12e23          	sw	a2,60(sp)
    4064:	00f12e23          	sw	a5,28(sp)
    4068:	02b12223          	sw	a1,36(sp)
    406c:	02a12423          	sw	a0,40(sp)
    4070:	02812783          	lw	a5,40(sp)
    4074:	02412703          	lw	a4,36(sp)
    4078:	00e78733          	add	a4,a5,a4
    407c:	04812783          	lw	a5,72(sp)
    4080:	02f70733          	mul	a4,a4,a5
    4084:	01870c33          	add	s8,a4,s8
    4088:	fffc4993          	not	s3,s8
    408c:	41f9d993          	srai	s3,s3,0x1f
    4090:	013c79b3          	and	s3,s8,s3
    4094:	854ff06f          	j	30e8 <_vfprintf_r+0x17f0>
    4098:	00064703          	lbu	a4,0(a2)
    409c:	00150513          	addi	a0,a0,1
    40a0:	fbdff06f          	j	405c <_vfprintf_r+0x2764>
    40a4:	0b010993          	addi	s3,sp,176
    40a8:	00098513          	mv	a0,s3
    40ac:	05112e23          	sw	a7,92(sp)
    40b0:	04612a23          	sw	t1,84(sp)
    40b4:	0bd12a23          	sw	t4,180(sp)
    40b8:	0be12c23          	sw	t5,184(sp)
    40bc:	0b512e23          	sw	s5,188(sp)
    40c0:	0b412823          	sw	s4,176(sp)
    40c4:	7d50f0ef          	jal	ra,14098 <__trunctfdf2>
    40c8:	0cc10613          	addi	a2,sp,204
    40cc:	398060ef          	jal	ra,a464 <frexp>
    40d0:	00058613          	mv	a2,a1
    40d4:	00050593          	mv	a1,a0
    40d8:	00098513          	mv	a0,s3
    40dc:	5c10f0ef          	jal	ra,13e9c <__extenddftf2>
    40e0:	0b012703          	lw	a4,176(sp)
    40e4:	0a010c13          	addi	s8,sp,160
    40e8:	09010a93          	addi	s5,sp,144
    40ec:	08e12823          	sw	a4,144(sp)
    40f0:	0b412703          	lw	a4,180(sp)
    40f4:	08010613          	addi	a2,sp,128
    40f8:	000a8593          	mv	a1,s5
    40fc:	08e12a23          	sw	a4,148(sp)
    4100:	0b812703          	lw	a4,184(sp)
    4104:	000c0513          	mv	a0,s8
    4108:	04c12223          	sw	a2,68(sp)
    410c:	08e12c23          	sw	a4,152(sp)
    4110:	0bc12703          	lw	a4,188(sp)
    4114:	08012023          	sw	zero,128(sp)
    4118:	08012223          	sw	zero,132(sp)
    411c:	08e12e23          	sw	a4,156(sp)
    4120:	3ffc0737          	lui	a4,0x3ffc0
    4124:	08e12623          	sw	a4,140(sp)
    4128:	08012423          	sw	zero,136(sp)
    412c:	6280d0ef          	jal	ra,11754 <__multf3>
    4130:	0a012783          	lw	a5,160(sp)
    4134:	0a412803          	lw	a6,164(sp)
    4138:	0a812e83          	lw	t4,168(sp)
    413c:	0ac12f03          	lw	t5,172(sp)
    4140:	000c0593          	mv	a1,s8
    4144:	00098513          	mv	a0,s3
    4148:	0af12823          	sw	a5,176(sp)
    414c:	04f12823          	sw	a5,80(sp)
    4150:	0b012a23          	sw	a6,180(sp)
    4154:	03012223          	sw	a6,36(sp)
    4158:	0bd12c23          	sw	t4,184(sp)
    415c:	03d12023          	sw	t4,32(sp)
    4160:	0be12e23          	sw	t5,188(sp)
    4164:	01e12e23          	sw	t5,28(sp)
    4168:	0a012023          	sw	zero,160(sp)
    416c:	0a012223          	sw	zero,164(sp)
    4170:	0a012423          	sw	zero,168(sp)
    4174:	0a012623          	sw	zero,172(sp)
    4178:	2880d0ef          	jal	ra,11400 <__eqtf2>
    417c:	01c12f03          	lw	t5,28(sp)
    4180:	02012e83          	lw	t4,32(sp)
    4184:	02412803          	lw	a6,36(sp)
    4188:	05012783          	lw	a5,80(sp)
    418c:	05412303          	lw	t1,84(sp)
    4190:	05c12883          	lw	a7,92(sp)
    4194:	00051663          	bnez	a0,41a0 <_vfprintf_r+0x28a8>
    4198:	00100713          	li	a4,1
    419c:	0ce12623          	sw	a4,204(sp)
    41a0:	00020737          	lui	a4,0x20
    41a4:	60c70713          	addi	a4,a4,1548 # 2060c <_impure_ptr+0x5d4>
    41a8:	02e12223          	sw	a4,36(sp)
    41ac:	8adff06f          	j	3a58 <_vfprintf_r+0x2160>
    41b0:	0a010c13          	addi	s8,sp,160
    41b4:	000c0593          	mv	a1,s8
    41b8:	00098513          	mv	a0,s3
    41bc:	05112a23          	sw	a7,84(sp)
    41c0:	04c12823          	sw	a2,80(sp)
    41c4:	02612223          	sw	t1,36(sp)
    41c8:	0bd12a23          	sw	t4,180(sp)
    41cc:	03d12023          	sw	t4,32(sp)
    41d0:	0be12c23          	sw	t5,184(sp)
    41d4:	01e12e23          	sw	t5,28(sp)
    41d8:	04d12223          	sw	a3,68(sp)
    41dc:	0b412823          	sw	s4,176(sp)
    41e0:	0b512e23          	sw	s5,188(sp)
    41e4:	0a012023          	sw	zero,160(sp)
    41e8:	0a012223          	sw	zero,164(sp)
    41ec:	0a012423          	sw	zero,168(sp)
    41f0:	0a012623          	sw	zero,172(sp)
    41f4:	20c0d0ef          	jal	ra,11400 <__eqtf2>
    41f8:	01c12f03          	lw	t5,28(sp)
    41fc:	02012e83          	lw	t4,32(sp)
    4200:	02412303          	lw	t1,36(sp)
    4204:	05012603          	lw	a2,80(sp)
    4208:	05412883          	lw	a7,84(sp)
    420c:	00051463          	bnez	a0,4214 <_vfprintf_r+0x291c>
    4210:	d29fe06f          	j	2f38 <_vfprintf_r+0x1640>
    4214:	04412683          	lw	a3,68(sp)
    4218:	00100713          	li	a4,1
    421c:	40d70733          	sub	a4,a4,a3
    4220:	0ce12623          	sw	a4,204(sp)
    4224:	d19fe06f          	j	2f3c <_vfprintf_r+0x1644>
    4228:	40fc0c33          	sub	s8,s8,a5
    422c:	001c0c13          	addi	s8,s8,1
    4230:	fffc4993          	not	s3,s8
    4234:	41f9d993          	srai	s3,s3,0x1f
    4238:	013c79b3          	and	s3,s8,s3
    423c:	b11ff06f          	j	3d4c <_vfprintf_r+0x2454>
    4240:	02c12703          	lw	a4,44(sp)
    4244:	06600c93          	li	s9,102
    4248:	00e78c33          	add	s8,a5,a4
    424c:	006c0c33          	add	s8,s8,t1
    4250:	c71ff06f          	j	3ec0 <_vfprintf_r+0x25c8>
    4254:	00200793          	li	a5,2
    4258:	02f12c23          	sw	a5,56(sp)
    425c:	e4dfe06f          	j	30a8 <_vfprintf_r+0x17b0>
    4260:	00071a63          	bnez	a4,4274 <_vfprintf_r+0x297c>
    4264:	00100993          	li	s3,1
    4268:	06600c93          	li	s9,102
    426c:	00100c13          	li	s8,1
    4270:	addff06f          	j	3d4c <_vfprintf_r+0x2454>
    4274:	02c12783          	lw	a5,44(sp)
    4278:	06600c93          	li	s9,102
    427c:	00178c13          	addi	s8,a5,1
    4280:	006c0c33          	add	s8,s8,t1
    4284:	fffc4993          	not	s3,s8
    4288:	41f9d993          	srai	s3,s3,0x1f
    428c:	013c79b3          	and	s3,s8,s3
    4290:	abdff06f          	j	3d4c <_vfprintf_r+0x2454>
    4294:	01412783          	lw	a5,20(sp)
    4298:	0007aa03          	lw	s4,0(a5)
    429c:	00478793          	addi	a5,a5,4
    42a0:	000a5463          	bgez	s4,42a8 <_vfprintf_r+0x29b0>
    42a4:	fff00a13          	li	s4,-1
    42a8:	00144e03          	lbu	t3,1(s0)
    42ac:	00f12a23          	sw	a5,20(sp)
    42b0:	00070413          	mv	s0,a4
    42b4:	801fd06f          	j	1ab4 <_vfprintf_r+0x1bc>
    42b8:	00cbd783          	lhu	a5,12(s7)
    42bc:	0407e793          	ori	a5,a5,64
    42c0:	00fb9623          	sh	a5,12(s7)
    42c4:	99dfd06f          	j	1c60 <_vfprintf_r+0x368>
    42c8:	02012423          	sw	zero,40(sp)
    42cc:	02012223          	sw	zero,36(sp)
    42d0:	da1ff06f          	j	4070 <_vfprintf_r+0x2778>

000042d4 <vfprintf>:
    42d4:	00020737          	lui	a4,0x20
    42d8:	00050793          	mv	a5,a0
    42dc:	03872503          	lw	a0,56(a4) # 20038 <_impure_ptr>
    42e0:	00060693          	mv	a3,a2
    42e4:	00058613          	mv	a2,a1
    42e8:	00078593          	mv	a1,a5
    42ec:	e0cfd06f          	j	18f8 <_vfprintf_r>

000042f0 <__sbprintf>:
    42f0:	00c5d783          	lhu	a5,12(a1)
    42f4:	0645ae03          	lw	t3,100(a1)
    42f8:	00e5d303          	lhu	t1,14(a1)
    42fc:	01c5a883          	lw	a7,28(a1)
    4300:	0245a803          	lw	a6,36(a1)
    4304:	b8010113          	addi	sp,sp,-1152
    4308:	ffd7f793          	andi	a5,a5,-3
    430c:	40000713          	li	a4,1024
    4310:	46812c23          	sw	s0,1144(sp)
    4314:	00f11a23          	sh	a5,20(sp)
    4318:	00058413          	mv	s0,a1
    431c:	07010793          	addi	a5,sp,112
    4320:	00810593          	addi	a1,sp,8
    4324:	46912a23          	sw	s1,1140(sp)
    4328:	47212823          	sw	s2,1136(sp)
    432c:	46112e23          	sw	ra,1148(sp)
    4330:	00050913          	mv	s2,a0
    4334:	07c12623          	sw	t3,108(sp)
    4338:	00611b23          	sh	t1,22(sp)
    433c:	03112223          	sw	a7,36(sp)
    4340:	03012623          	sw	a6,44(sp)
    4344:	00f12423          	sw	a5,8(sp)
    4348:	00f12c23          	sw	a5,24(sp)
    434c:	00e12823          	sw	a4,16(sp)
    4350:	00e12e23          	sw	a4,28(sp)
    4354:	02012023          	sw	zero,32(sp)
    4358:	da0fd0ef          	jal	ra,18f8 <_vfprintf_r>
    435c:	00050493          	mv	s1,a0
    4360:	02055c63          	bgez	a0,4398 <__sbprintf+0xa8>
    4364:	01415783          	lhu	a5,20(sp)
    4368:	0407f793          	andi	a5,a5,64
    436c:	00078863          	beqz	a5,437c <__sbprintf+0x8c>
    4370:	00c45783          	lhu	a5,12(s0)
    4374:	0407e793          	ori	a5,a5,64
    4378:	00f41623          	sh	a5,12(s0)
    437c:	47c12083          	lw	ra,1148(sp)
    4380:	47812403          	lw	s0,1144(sp)
    4384:	47012903          	lw	s2,1136(sp)
    4388:	00048513          	mv	a0,s1
    438c:	47412483          	lw	s1,1140(sp)
    4390:	48010113          	addi	sp,sp,1152
    4394:	00008067          	ret
    4398:	00810593          	addi	a1,sp,8
    439c:	00090513          	mv	a0,s2
    43a0:	580000ef          	jal	ra,4920 <_fflush_r>
    43a4:	fc0500e3          	beqz	a0,4364 <__sbprintf+0x74>
    43a8:	fff00493          	li	s1,-1
    43ac:	fb9ff06f          	j	4364 <__sbprintf+0x74>

000043b0 <__swbuf_r>:
    43b0:	fe010113          	addi	sp,sp,-32
    43b4:	00812c23          	sw	s0,24(sp)
    43b8:	00912a23          	sw	s1,20(sp)
    43bc:	01212823          	sw	s2,16(sp)
    43c0:	00112e23          	sw	ra,28(sp)
    43c4:	01312623          	sw	s3,12(sp)
    43c8:	00050913          	mv	s2,a0
    43cc:	00058493          	mv	s1,a1
    43d0:	00060413          	mv	s0,a2
    43d4:	00050663          	beqz	a0,43e0 <__swbuf_r+0x30>
    43d8:	03852783          	lw	a5,56(a0)
    43dc:	14078a63          	beqz	a5,4530 <__swbuf_r+0x180>
    43e0:	00c41703          	lh	a4,12(s0)
    43e4:	01842683          	lw	a3,24(s0)
    43e8:	00877793          	andi	a5,a4,8
    43ec:	00d42423          	sw	a3,8(s0)
    43f0:	01071693          	slli	a3,a4,0x10
    43f4:	0106d693          	srli	a3,a3,0x10
    43f8:	08078463          	beqz	a5,4480 <__swbuf_r+0xd0>
    43fc:	01042783          	lw	a5,16(s0)
    4400:	08078063          	beqz	a5,4480 <__swbuf_r+0xd0>
    4404:	00002637          	lui	a2,0x2
    4408:	00c6f6b3          	and	a3,a3,a2
    440c:	0ff4f993          	zext.b	s3,s1
    4410:	0ff4f493          	zext.b	s1,s1
    4414:	0a068063          	beqz	a3,44b4 <__swbuf_r+0x104>
    4418:	00042703          	lw	a4,0(s0)
    441c:	01442683          	lw	a3,20(s0)
    4420:	40f707b3          	sub	a5,a4,a5
    4424:	0ad7de63          	bge	a5,a3,44e0 <__swbuf_r+0x130>
    4428:	00842683          	lw	a3,8(s0)
    442c:	00170613          	addi	a2,a4,1
    4430:	00c42023          	sw	a2,0(s0)
    4434:	fff68693          	addi	a3,a3,-1
    4438:	00d42423          	sw	a3,8(s0)
    443c:	01370023          	sb	s3,0(a4)
    4440:	01442703          	lw	a4,20(s0)
    4444:	00178793          	addi	a5,a5,1
    4448:	0cf70863          	beq	a4,a5,4518 <__swbuf_r+0x168>
    444c:	00c45783          	lhu	a5,12(s0)
    4450:	0017f793          	andi	a5,a5,1
    4454:	00078663          	beqz	a5,4460 <__swbuf_r+0xb0>
    4458:	00a00793          	li	a5,10
    445c:	0af48e63          	beq	s1,a5,4518 <__swbuf_r+0x168>
    4460:	01c12083          	lw	ra,28(sp)
    4464:	01812403          	lw	s0,24(sp)
    4468:	01012903          	lw	s2,16(sp)
    446c:	00c12983          	lw	s3,12(sp)
    4470:	00048513          	mv	a0,s1
    4474:	01412483          	lw	s1,20(sp)
    4478:	02010113          	addi	sp,sp,32
    447c:	00008067          	ret
    4480:	00040593          	mv	a1,s0
    4484:	00090513          	mv	a0,s2
    4488:	0c8000ef          	jal	ra,4550 <__swsetup_r>
    448c:	08051e63          	bnez	a0,4528 <__swbuf_r+0x178>
    4490:	00c41703          	lh	a4,12(s0)
    4494:	00002637          	lui	a2,0x2
    4498:	0ff4f993          	zext.b	s3,s1
    449c:	01071693          	slli	a3,a4,0x10
    44a0:	0106d693          	srli	a3,a3,0x10
    44a4:	00c6f6b3          	and	a3,a3,a2
    44a8:	01042783          	lw	a5,16(s0)
    44ac:	0ff4f493          	zext.b	s1,s1
    44b0:	f60694e3          	bnez	a3,4418 <__swbuf_r+0x68>
    44b4:	06442683          	lw	a3,100(s0)
    44b8:	00c76733          	or	a4,a4,a2
    44bc:	ffffe637          	lui	a2,0xffffe
    44c0:	fff60613          	addi	a2,a2,-1 # ffffdfff <_stack+0xfffbdfff>
    44c4:	00c6f6b3          	and	a3,a3,a2
    44c8:	00e41623          	sh	a4,12(s0)
    44cc:	00042703          	lw	a4,0(s0)
    44d0:	06d42223          	sw	a3,100(s0)
    44d4:	01442683          	lw	a3,20(s0)
    44d8:	40f707b3          	sub	a5,a4,a5
    44dc:	f4d7c6e3          	blt	a5,a3,4428 <__swbuf_r+0x78>
    44e0:	00040593          	mv	a1,s0
    44e4:	00090513          	mv	a0,s2
    44e8:	438000ef          	jal	ra,4920 <_fflush_r>
    44ec:	02051e63          	bnez	a0,4528 <__swbuf_r+0x178>
    44f0:	00042703          	lw	a4,0(s0)
    44f4:	00842683          	lw	a3,8(s0)
    44f8:	00100793          	li	a5,1
    44fc:	00170613          	addi	a2,a4,1
    4500:	fff68693          	addi	a3,a3,-1
    4504:	00c42023          	sw	a2,0(s0)
    4508:	00d42423          	sw	a3,8(s0)
    450c:	01370023          	sb	s3,0(a4)
    4510:	01442703          	lw	a4,20(s0)
    4514:	f2f71ce3          	bne	a4,a5,444c <__swbuf_r+0x9c>
    4518:	00040593          	mv	a1,s0
    451c:	00090513          	mv	a0,s2
    4520:	400000ef          	jal	ra,4920 <_fflush_r>
    4524:	f2050ee3          	beqz	a0,4460 <__swbuf_r+0xb0>
    4528:	fff00493          	li	s1,-1
    452c:	f35ff06f          	j	4460 <__swbuf_r+0xb0>
    4530:	02d000ef          	jal	ra,4d5c <__sinit>
    4534:	eadff06f          	j	43e0 <__swbuf_r+0x30>

00004538 <__swbuf>:
    4538:	00020737          	lui	a4,0x20
    453c:	00050793          	mv	a5,a0
    4540:	03872503          	lw	a0,56(a4) # 20038 <_impure_ptr>
    4544:	00058613          	mv	a2,a1
    4548:	00078593          	mv	a1,a5
    454c:	e65ff06f          	j	43b0 <__swbuf_r>

00004550 <__swsetup_r>:
    4550:	000207b7          	lui	a5,0x20
    4554:	0387a783          	lw	a5,56(a5) # 20038 <_impure_ptr>
    4558:	ff010113          	addi	sp,sp,-16
    455c:	00812423          	sw	s0,8(sp)
    4560:	00912223          	sw	s1,4(sp)
    4564:	00112623          	sw	ra,12(sp)
    4568:	00050493          	mv	s1,a0
    456c:	00058413          	mv	s0,a1
    4570:	00078663          	beqz	a5,457c <__swsetup_r+0x2c>
    4574:	0387a703          	lw	a4,56(a5)
    4578:	08070463          	beqz	a4,4600 <__swsetup_r+0xb0>
    457c:	00c41703          	lh	a4,12(s0)
    4580:	01071793          	slli	a5,a4,0x10
    4584:	00877693          	andi	a3,a4,8
    4588:	0107d793          	srli	a5,a5,0x10
    458c:	08068863          	beqz	a3,461c <__swsetup_r+0xcc>
    4590:	01042683          	lw	a3,16(s0)
    4594:	0a068863          	beqz	a3,4644 <__swsetup_r+0xf4>
    4598:	0017f613          	andi	a2,a5,1
    459c:	02060863          	beqz	a2,45cc <__swsetup_r+0x7c>
    45a0:	01442603          	lw	a2,20(s0)
    45a4:	00042423          	sw	zero,8(s0)
    45a8:	00000513          	li	a0,0
    45ac:	40c00633          	neg	a2,a2
    45b0:	00c42c23          	sw	a2,24(s0)
    45b4:	02068a63          	beqz	a3,45e8 <__swsetup_r+0x98>
    45b8:	00c12083          	lw	ra,12(sp)
    45bc:	00812403          	lw	s0,8(sp)
    45c0:	00412483          	lw	s1,4(sp)
    45c4:	01010113          	addi	sp,sp,16
    45c8:	00008067          	ret
    45cc:	0027f613          	andi	a2,a5,2
    45d0:	00000593          	li	a1,0
    45d4:	00061463          	bnez	a2,45dc <__swsetup_r+0x8c>
    45d8:	01442583          	lw	a1,20(s0)
    45dc:	00b42423          	sw	a1,8(s0)
    45e0:	00000513          	li	a0,0
    45e4:	fc069ae3          	bnez	a3,45b8 <__swsetup_r+0x68>
    45e8:	0807f793          	andi	a5,a5,128
    45ec:	fc0786e3          	beqz	a5,45b8 <__swsetup_r+0x68>
    45f0:	04076713          	ori	a4,a4,64
    45f4:	00e41623          	sh	a4,12(s0)
    45f8:	fff00513          	li	a0,-1
    45fc:	fbdff06f          	j	45b8 <__swsetup_r+0x68>
    4600:	00078513          	mv	a0,a5
    4604:	758000ef          	jal	ra,4d5c <__sinit>
    4608:	00c41703          	lh	a4,12(s0)
    460c:	01071793          	slli	a5,a4,0x10
    4610:	00877693          	andi	a3,a4,8
    4614:	0107d793          	srli	a5,a5,0x10
    4618:	f6069ce3          	bnez	a3,4590 <__swsetup_r+0x40>
    461c:	0107f693          	andi	a3,a5,16
    4620:	08068263          	beqz	a3,46a4 <__swsetup_r+0x154>
    4624:	0047f793          	andi	a5,a5,4
    4628:	04079463          	bnez	a5,4670 <__swsetup_r+0x120>
    462c:	01042683          	lw	a3,16(s0)
    4630:	00876713          	ori	a4,a4,8
    4634:	01071793          	slli	a5,a4,0x10
    4638:	00e41623          	sh	a4,12(s0)
    463c:	0107d793          	srli	a5,a5,0x10
    4640:	f4069ce3          	bnez	a3,4598 <__swsetup_r+0x48>
    4644:	2807f613          	andi	a2,a5,640
    4648:	20000593          	li	a1,512
    464c:	f4b606e3          	beq	a2,a1,4598 <__swsetup_r+0x48>
    4650:	00040593          	mv	a1,s0
    4654:	00048513          	mv	a0,s1
    4658:	631030ef          	jal	ra,8488 <__smakebuf_r>
    465c:	00c41703          	lh	a4,12(s0)
    4660:	01042683          	lw	a3,16(s0)
    4664:	01071793          	slli	a5,a4,0x10
    4668:	0107d793          	srli	a5,a5,0x10
    466c:	f2dff06f          	j	4598 <__swsetup_r+0x48>
    4670:	03042583          	lw	a1,48(s0)
    4674:	00058e63          	beqz	a1,4690 <__swsetup_r+0x140>
    4678:	04040793          	addi	a5,s0,64
    467c:	00f58863          	beq	a1,a5,468c <__swsetup_r+0x13c>
    4680:	00048513          	mv	a0,s1
    4684:	061000ef          	jal	ra,4ee4 <_free_r>
    4688:	00c41703          	lh	a4,12(s0)
    468c:	02042823          	sw	zero,48(s0)
    4690:	01042683          	lw	a3,16(s0)
    4694:	fdb77713          	andi	a4,a4,-37
    4698:	00042223          	sw	zero,4(s0)
    469c:	00d42023          	sw	a3,0(s0)
    46a0:	f91ff06f          	j	4630 <__swsetup_r+0xe0>
    46a4:	00900793          	li	a5,9
    46a8:	00f4a023          	sw	a5,0(s1)
    46ac:	04076713          	ori	a4,a4,64
    46b0:	00e41623          	sh	a4,12(s0)
    46b4:	fff00513          	li	a0,-1
    46b8:	f01ff06f          	j	45b8 <__swsetup_r+0x68>

000046bc <__sflush_r>:
    46bc:	00c59783          	lh	a5,12(a1)
    46c0:	fe010113          	addi	sp,sp,-32
    46c4:	00812c23          	sw	s0,24(sp)
    46c8:	01312623          	sw	s3,12(sp)
    46cc:	00112e23          	sw	ra,28(sp)
    46d0:	00912a23          	sw	s1,20(sp)
    46d4:	01212823          	sw	s2,16(sp)
    46d8:	0087f693          	andi	a3,a5,8
    46dc:	00058413          	mv	s0,a1
    46e0:	00050993          	mv	s3,a0
    46e4:	10069c63          	bnez	a3,47fc <__sflush_r+0x140>
    46e8:	00001737          	lui	a4,0x1
    46ec:	80070713          	addi	a4,a4,-2048 # 800 <main+0x5a8>
    46f0:	0045a683          	lw	a3,4(a1)
    46f4:	00e7e7b3          	or	a5,a5,a4
    46f8:	00f59623          	sh	a5,12(a1)
    46fc:	18d05663          	blez	a3,4888 <__sflush_r+0x1cc>
    4700:	02842703          	lw	a4,40(s0)
    4704:	0c070c63          	beqz	a4,47dc <__sflush_r+0x120>
    4708:	01079793          	slli	a5,a5,0x10
    470c:	0107d793          	srli	a5,a5,0x10
    4710:	000016b7          	lui	a3,0x1
    4714:	0009a483          	lw	s1,0(s3)
    4718:	00d7f6b3          	and	a3,a5,a3
    471c:	0009a023          	sw	zero,0(s3)
    4720:	01c42583          	lw	a1,28(s0)
    4724:	16069863          	bnez	a3,4894 <__sflush_r+0x1d8>
    4728:	00100693          	li	a3,1
    472c:	00000613          	li	a2,0
    4730:	00098513          	mv	a0,s3
    4734:	000700e7          	jalr	a4
    4738:	fff00793          	li	a5,-1
    473c:	18f50e63          	beq	a0,a5,48d8 <__sflush_r+0x21c>
    4740:	00c45783          	lhu	a5,12(s0)
    4744:	02842703          	lw	a4,40(s0)
    4748:	01c42583          	lw	a1,28(s0)
    474c:	0047f793          	andi	a5,a5,4
    4750:	00078e63          	beqz	a5,476c <__sflush_r+0xb0>
    4754:	00442683          	lw	a3,4(s0)
    4758:	03042783          	lw	a5,48(s0)
    475c:	40d50533          	sub	a0,a0,a3
    4760:	00078663          	beqz	a5,476c <__sflush_r+0xb0>
    4764:	03c42783          	lw	a5,60(s0)
    4768:	40f50533          	sub	a0,a0,a5
    476c:	00050613          	mv	a2,a0
    4770:	00000693          	li	a3,0
    4774:	00098513          	mv	a0,s3
    4778:	000700e7          	jalr	a4
    477c:	fff00793          	li	a5,-1
    4780:	10f51e63          	bne	a0,a5,489c <__sflush_r+0x1e0>
    4784:	0009a703          	lw	a4,0(s3)
    4788:	00c41783          	lh	a5,12(s0)
    478c:	16070a63          	beqz	a4,4900 <__sflush_r+0x244>
    4790:	01d00693          	li	a3,29
    4794:	00d70663          	beq	a4,a3,47a0 <__sflush_r+0xe4>
    4798:	01600693          	li	a3,22
    479c:	0cd71463          	bne	a4,a3,4864 <__sflush_r+0x1a8>
    47a0:	01042683          	lw	a3,16(s0)
    47a4:	fffff737          	lui	a4,0xfffff
    47a8:	7ff70713          	addi	a4,a4,2047 # fffff7ff <_stack+0xfffbf7ff>
    47ac:	00e7f7b3          	and	a5,a5,a4
    47b0:	00f41623          	sh	a5,12(s0)
    47b4:	00042223          	sw	zero,4(s0)
    47b8:	00d42023          	sw	a3,0(s0)
    47bc:	03042583          	lw	a1,48(s0)
    47c0:	0099a023          	sw	s1,0(s3)
    47c4:	00058c63          	beqz	a1,47dc <__sflush_r+0x120>
    47c8:	04040793          	addi	a5,s0,64
    47cc:	00f58663          	beq	a1,a5,47d8 <__sflush_r+0x11c>
    47d0:	00098513          	mv	a0,s3
    47d4:	710000ef          	jal	ra,4ee4 <_free_r>
    47d8:	02042823          	sw	zero,48(s0)
    47dc:	00000513          	li	a0,0
    47e0:	01c12083          	lw	ra,28(sp)
    47e4:	01812403          	lw	s0,24(sp)
    47e8:	01412483          	lw	s1,20(sp)
    47ec:	01012903          	lw	s2,16(sp)
    47f0:	00c12983          	lw	s3,12(sp)
    47f4:	02010113          	addi	sp,sp,32
    47f8:	00008067          	ret
    47fc:	0105a903          	lw	s2,16(a1)
    4800:	fc090ee3          	beqz	s2,47dc <__sflush_r+0x120>
    4804:	0005a483          	lw	s1,0(a1)
    4808:	01079713          	slli	a4,a5,0x10
    480c:	01075713          	srli	a4,a4,0x10
    4810:	00377713          	andi	a4,a4,3
    4814:	0125a023          	sw	s2,0(a1)
    4818:	412484b3          	sub	s1,s1,s2
    481c:	00000793          	li	a5,0
    4820:	00071463          	bnez	a4,4828 <__sflush_r+0x16c>
    4824:	0145a783          	lw	a5,20(a1)
    4828:	00f42423          	sw	a5,8(s0)
    482c:	00904863          	bgtz	s1,483c <__sflush_r+0x180>
    4830:	fadff06f          	j	47dc <__sflush_r+0x120>
    4834:	00a90933          	add	s2,s2,a0
    4838:	fa9052e3          	blez	s1,47dc <__sflush_r+0x120>
    483c:	02442783          	lw	a5,36(s0)
    4840:	01c42583          	lw	a1,28(s0)
    4844:	00048693          	mv	a3,s1
    4848:	00090613          	mv	a2,s2
    484c:	00098513          	mv	a0,s3
    4850:	000780e7          	jalr	a5
    4854:	40a484b3          	sub	s1,s1,a0
    4858:	fca04ee3          	bgtz	a0,4834 <__sflush_r+0x178>
    485c:	00c45783          	lhu	a5,12(s0)
    4860:	fff00513          	li	a0,-1
    4864:	0407e793          	ori	a5,a5,64
    4868:	01c12083          	lw	ra,28(sp)
    486c:	00f41623          	sh	a5,12(s0)
    4870:	01812403          	lw	s0,24(sp)
    4874:	01412483          	lw	s1,20(sp)
    4878:	01012903          	lw	s2,16(sp)
    487c:	00c12983          	lw	s3,12(sp)
    4880:	02010113          	addi	sp,sp,32
    4884:	00008067          	ret
    4888:	03c5a703          	lw	a4,60(a1)
    488c:	e6e04ae3          	bgtz	a4,4700 <__sflush_r+0x44>
    4890:	f4dff06f          	j	47dc <__sflush_r+0x120>
    4894:	05042503          	lw	a0,80(s0)
    4898:	eb5ff06f          	j	474c <__sflush_r+0x90>
    489c:	00c45783          	lhu	a5,12(s0)
    48a0:	fffff737          	lui	a4,0xfffff
    48a4:	7ff70713          	addi	a4,a4,2047 # fffff7ff <_stack+0xfffbf7ff>
    48a8:	00e7f7b3          	and	a5,a5,a4
    48ac:	01042683          	lw	a3,16(s0)
    48b0:	01079793          	slli	a5,a5,0x10
    48b4:	4107d793          	srai	a5,a5,0x10
    48b8:	00c7d713          	srli	a4,a5,0xc
    48bc:	00f41623          	sh	a5,12(s0)
    48c0:	00042223          	sw	zero,4(s0)
    48c4:	00d42023          	sw	a3,0(s0)
    48c8:	00177793          	andi	a5,a4,1
    48cc:	ee0788e3          	beqz	a5,47bc <__sflush_r+0x100>
    48d0:	04a42823          	sw	a0,80(s0)
    48d4:	ee9ff06f          	j	47bc <__sflush_r+0x100>
    48d8:	0009a783          	lw	a5,0(s3)
    48dc:	e60782e3          	beqz	a5,4740 <__sflush_r+0x84>
    48e0:	01d00713          	li	a4,29
    48e4:	02e78863          	beq	a5,a4,4914 <__sflush_r+0x258>
    48e8:	01600713          	li	a4,22
    48ec:	02e78463          	beq	a5,a4,4914 <__sflush_r+0x258>
    48f0:	00c45783          	lhu	a5,12(s0)
    48f4:	0407e793          	ori	a5,a5,64
    48f8:	00f41623          	sh	a5,12(s0)
    48fc:	ee5ff06f          	j	47e0 <__sflush_r+0x124>
    4900:	fffff737          	lui	a4,0xfffff
    4904:	7ff70713          	addi	a4,a4,2047 # fffff7ff <_stack+0xfffbf7ff>
    4908:	01042683          	lw	a3,16(s0)
    490c:	00e7f7b3          	and	a5,a5,a4
    4910:	fa9ff06f          	j	48b8 <__sflush_r+0x1fc>
    4914:	0099a023          	sw	s1,0(s3)
    4918:	00000513          	li	a0,0
    491c:	ec5ff06f          	j	47e0 <__sflush_r+0x124>

00004920 <_fflush_r>:
    4920:	fe010113          	addi	sp,sp,-32
    4924:	00812c23          	sw	s0,24(sp)
    4928:	00112e23          	sw	ra,28(sp)
    492c:	00050413          	mv	s0,a0
    4930:	00050663          	beqz	a0,493c <_fflush_r+0x1c>
    4934:	03852783          	lw	a5,56(a0)
    4938:	02078063          	beqz	a5,4958 <_fflush_r+0x38>
    493c:	00c59783          	lh	a5,12(a1)
    4940:	02079663          	bnez	a5,496c <_fflush_r+0x4c>
    4944:	01c12083          	lw	ra,28(sp)
    4948:	01812403          	lw	s0,24(sp)
    494c:	00000513          	li	a0,0
    4950:	02010113          	addi	sp,sp,32
    4954:	00008067          	ret
    4958:	00b12623          	sw	a1,12(sp)
    495c:	400000ef          	jal	ra,4d5c <__sinit>
    4960:	00c12583          	lw	a1,12(sp)
    4964:	00c59783          	lh	a5,12(a1)
    4968:	fc078ee3          	beqz	a5,4944 <_fflush_r+0x24>
    496c:	00040513          	mv	a0,s0
    4970:	01812403          	lw	s0,24(sp)
    4974:	01c12083          	lw	ra,28(sp)
    4978:	02010113          	addi	sp,sp,32
    497c:	d41ff06f          	j	46bc <__sflush_r>

00004980 <fflush>:
    4980:	06050863          	beqz	a0,49f0 <fflush+0x70>
    4984:	fe010113          	addi	sp,sp,-32
    4988:	000207b7          	lui	a5,0x20
    498c:	00812c23          	sw	s0,24(sp)
    4990:	00050413          	mv	s0,a0
    4994:	0387a503          	lw	a0,56(a5) # 20038 <_impure_ptr>
    4998:	00112e23          	sw	ra,28(sp)
    499c:	00050663          	beqz	a0,49a8 <fflush+0x28>
    49a0:	03852783          	lw	a5,56(a0)
    49a4:	02078a63          	beqz	a5,49d8 <fflush+0x58>
    49a8:	00c41783          	lh	a5,12(s0)
    49ac:	00079c63          	bnez	a5,49c4 <fflush+0x44>
    49b0:	01c12083          	lw	ra,28(sp)
    49b4:	01812403          	lw	s0,24(sp)
    49b8:	00000513          	li	a0,0
    49bc:	02010113          	addi	sp,sp,32
    49c0:	00008067          	ret
    49c4:	00040593          	mv	a1,s0
    49c8:	01812403          	lw	s0,24(sp)
    49cc:	01c12083          	lw	ra,28(sp)
    49d0:	02010113          	addi	sp,sp,32
    49d4:	ce9ff06f          	j	46bc <__sflush_r>
    49d8:	00a12623          	sw	a0,12(sp)
    49dc:	380000ef          	jal	ra,4d5c <__sinit>
    49e0:	00c41783          	lh	a5,12(s0)
    49e4:	00c12503          	lw	a0,12(sp)
    49e8:	fc0784e3          	beqz	a5,49b0 <fflush+0x30>
    49ec:	fd9ff06f          	j	49c4 <fflush+0x44>
    49f0:	000207b7          	lui	a5,0x20
    49f4:	0107a503          	lw	a0,16(a5) # 20010 <_global_impure_ptr>
    49f8:	000055b7          	lui	a1,0x5
    49fc:	92058593          	addi	a1,a1,-1760 # 4920 <_fflush_r>
    4a00:	54d0006f          	j	574c <_fwalk_reent>

00004a04 <__fp_lock>:
    4a04:	00000513          	li	a0,0
    4a08:	00008067          	ret

00004a0c <_cleanup_r>:
    4a0c:	0000f5b7          	lui	a1,0xf
    4a10:	8f858593          	addi	a1,a1,-1800 # e8f8 <_fclose_r>
    4a14:	5390006f          	j	574c <_fwalk_reent>

00004a18 <__fp_unlock>:
    4a18:	00000513          	li	a0,0
    4a1c:	00008067          	ret

00004a20 <__sinit.part.0>:
    4a20:	fe010113          	addi	sp,sp,-32
    4a24:	000057b7          	lui	a5,0x5
    4a28:	00112e23          	sw	ra,28(sp)
    4a2c:	00812c23          	sw	s0,24(sp)
    4a30:	00912a23          	sw	s1,20(sp)
    4a34:	01212823          	sw	s2,16(sp)
    4a38:	01312623          	sw	s3,12(sp)
    4a3c:	01412423          	sw	s4,8(sp)
    4a40:	01512223          	sw	s5,4(sp)
    4a44:	01612023          	sw	s6,0(sp)
    4a48:	00452403          	lw	s0,4(a0)
    4a4c:	a0c78793          	addi	a5,a5,-1524 # 4a0c <_cleanup_r>
    4a50:	02f52e23          	sw	a5,60(a0)
    4a54:	2ec50713          	addi	a4,a0,748
    4a58:	00300793          	li	a5,3
    4a5c:	2ee52423          	sw	a4,744(a0)
    4a60:	2ef52223          	sw	a5,740(a0)
    4a64:	2e052023          	sw	zero,736(a0)
    4a68:	00400793          	li	a5,4
    4a6c:	00050913          	mv	s2,a0
    4a70:	00f42623          	sw	a5,12(s0)
    4a74:	00800613          	li	a2,8
    4a78:	00000593          	li	a1,0
    4a7c:	06042223          	sw	zero,100(s0)
    4a80:	00042023          	sw	zero,0(s0)
    4a84:	00042223          	sw	zero,4(s0)
    4a88:	00042423          	sw	zero,8(s0)
    4a8c:	00042823          	sw	zero,16(s0)
    4a90:	00042a23          	sw	zero,20(s0)
    4a94:	00042c23          	sw	zero,24(s0)
    4a98:	05c40513          	addi	a0,s0,92
    4a9c:	7dd030ef          	jal	ra,8a78 <memset>
    4aa0:	0000ab37          	lui	s6,0xa
    4aa4:	00892483          	lw	s1,8(s2)
    4aa8:	0000aab7          	lui	s5,0xa
    4aac:	0000aa37          	lui	s4,0xa
    4ab0:	0000a9b7          	lui	s3,0xa
    4ab4:	5f8b0b13          	addi	s6,s6,1528 # a5f8 <__sread>
    4ab8:	65ca8a93          	addi	s5,s5,1628 # a65c <__swrite>
    4abc:	6e4a0a13          	addi	s4,s4,1764 # a6e4 <__sseek>
    4ac0:	74c98993          	addi	s3,s3,1868 # a74c <__sclose>
    4ac4:	000107b7          	lui	a5,0x10
    4ac8:	03642023          	sw	s6,32(s0)
    4acc:	03542223          	sw	s5,36(s0)
    4ad0:	03442423          	sw	s4,40(s0)
    4ad4:	03342623          	sw	s3,44(s0)
    4ad8:	00842e23          	sw	s0,28(s0)
    4adc:	00978793          	addi	a5,a5,9 # 10009 <_wcrtomb_r+0x11>
    4ae0:	00f4a623          	sw	a5,12(s1)
    4ae4:	00800613          	li	a2,8
    4ae8:	00000593          	li	a1,0
    4aec:	0604a223          	sw	zero,100(s1)
    4af0:	0004a023          	sw	zero,0(s1)
    4af4:	0004a223          	sw	zero,4(s1)
    4af8:	0004a423          	sw	zero,8(s1)
    4afc:	0004a823          	sw	zero,16(s1)
    4b00:	0004aa23          	sw	zero,20(s1)
    4b04:	0004ac23          	sw	zero,24(s1)
    4b08:	05c48513          	addi	a0,s1,92
    4b0c:	76d030ef          	jal	ra,8a78 <memset>
    4b10:	00c92403          	lw	s0,12(s2)
    4b14:	000207b7          	lui	a5,0x20
    4b18:	0364a023          	sw	s6,32(s1)
    4b1c:	0354a223          	sw	s5,36(s1)
    4b20:	0344a423          	sw	s4,40(s1)
    4b24:	0334a623          	sw	s3,44(s1)
    4b28:	0094ae23          	sw	s1,28(s1)
    4b2c:	01278793          	addi	a5,a5,18 # 20012 <_global_impure_ptr+0x2>
    4b30:	00f42623          	sw	a5,12(s0)
    4b34:	06042223          	sw	zero,100(s0)
    4b38:	00042023          	sw	zero,0(s0)
    4b3c:	00042223          	sw	zero,4(s0)
    4b40:	00042423          	sw	zero,8(s0)
    4b44:	00042823          	sw	zero,16(s0)
    4b48:	00042a23          	sw	zero,20(s0)
    4b4c:	00042c23          	sw	zero,24(s0)
    4b50:	05c40513          	addi	a0,s0,92
    4b54:	00800613          	li	a2,8
    4b58:	00000593          	li	a1,0
    4b5c:	71d030ef          	jal	ra,8a78 <memset>
    4b60:	01c12083          	lw	ra,28(sp)
    4b64:	03642023          	sw	s6,32(s0)
    4b68:	03542223          	sw	s5,36(s0)
    4b6c:	03442423          	sw	s4,40(s0)
    4b70:	03342623          	sw	s3,44(s0)
    4b74:	00842e23          	sw	s0,28(s0)
    4b78:	01812403          	lw	s0,24(sp)
    4b7c:	00100793          	li	a5,1
    4b80:	02f92c23          	sw	a5,56(s2)
    4b84:	01412483          	lw	s1,20(sp)
    4b88:	01012903          	lw	s2,16(sp)
    4b8c:	00c12983          	lw	s3,12(sp)
    4b90:	00812a03          	lw	s4,8(sp)
    4b94:	00412a83          	lw	s5,4(sp)
    4b98:	00012b03          	lw	s6,0(sp)
    4b9c:	02010113          	addi	sp,sp,32
    4ba0:	00008067          	ret

00004ba4 <__sfmoreglue>:
    4ba4:	ff010113          	addi	sp,sp,-16
    4ba8:	00912223          	sw	s1,4(sp)
    4bac:	06800793          	li	a5,104
    4bb0:	fff58493          	addi	s1,a1,-1
    4bb4:	02f484b3          	mul	s1,s1,a5
    4bb8:	01212023          	sw	s2,0(sp)
    4bbc:	00058913          	mv	s2,a1
    4bc0:	00812423          	sw	s0,8(sp)
    4bc4:	00112623          	sw	ra,12(sp)
    4bc8:	07448593          	addi	a1,s1,116
    4bcc:	824fc0ef          	jal	ra,bf0 <_malloc_r>
    4bd0:	00050413          	mv	s0,a0
    4bd4:	02050063          	beqz	a0,4bf4 <__sfmoreglue+0x50>
    4bd8:	00c50513          	addi	a0,a0,12
    4bdc:	00042023          	sw	zero,0(s0)
    4be0:	01242223          	sw	s2,4(s0)
    4be4:	00a42423          	sw	a0,8(s0)
    4be8:	06848613          	addi	a2,s1,104
    4bec:	00000593          	li	a1,0
    4bf0:	689030ef          	jal	ra,8a78 <memset>
    4bf4:	00c12083          	lw	ra,12(sp)
    4bf8:	00040513          	mv	a0,s0
    4bfc:	00812403          	lw	s0,8(sp)
    4c00:	00412483          	lw	s1,4(sp)
    4c04:	00012903          	lw	s2,0(sp)
    4c08:	01010113          	addi	sp,sp,16
    4c0c:	00008067          	ret

00004c10 <__sfp>:
    4c10:	fe010113          	addi	sp,sp,-32
    4c14:	000207b7          	lui	a5,0x20
    4c18:	01212823          	sw	s2,16(sp)
    4c1c:	0107a903          	lw	s2,16(a5) # 20010 <_global_impure_ptr>
    4c20:	01312623          	sw	s3,12(sp)
    4c24:	00112e23          	sw	ra,28(sp)
    4c28:	03892783          	lw	a5,56(s2)
    4c2c:	00812c23          	sw	s0,24(sp)
    4c30:	00912a23          	sw	s1,20(sp)
    4c34:	01412423          	sw	s4,8(sp)
    4c38:	00050993          	mv	s3,a0
    4c3c:	0a078a63          	beqz	a5,4cf0 <__sfp+0xe0>
    4c40:	2e090913          	addi	s2,s2,736
    4c44:	fff00493          	li	s1,-1
    4c48:	00400a13          	li	s4,4
    4c4c:	00492783          	lw	a5,4(s2)
    4c50:	00892403          	lw	s0,8(s2)
    4c54:	fff78793          	addi	a5,a5,-1
    4c58:	0007d863          	bgez	a5,4c68 <__sfp+0x58>
    4c5c:	0840006f          	j	4ce0 <__sfp+0xd0>
    4c60:	06840413          	addi	s0,s0,104
    4c64:	06978e63          	beq	a5,s1,4ce0 <__sfp+0xd0>
    4c68:	00c41703          	lh	a4,12(s0)
    4c6c:	fff78793          	addi	a5,a5,-1
    4c70:	fe0718e3          	bnez	a4,4c60 <__sfp+0x50>
    4c74:	ffff07b7          	lui	a5,0xffff0
    4c78:	00178793          	addi	a5,a5,1 # ffff0001 <_stack+0xfffb0001>
    4c7c:	06042223          	sw	zero,100(s0)
    4c80:	00042023          	sw	zero,0(s0)
    4c84:	00042223          	sw	zero,4(s0)
    4c88:	00042423          	sw	zero,8(s0)
    4c8c:	00f42623          	sw	a5,12(s0)
    4c90:	00042823          	sw	zero,16(s0)
    4c94:	00042a23          	sw	zero,20(s0)
    4c98:	00042c23          	sw	zero,24(s0)
    4c9c:	00800613          	li	a2,8
    4ca0:	00000593          	li	a1,0
    4ca4:	05c40513          	addi	a0,s0,92
    4ca8:	5d1030ef          	jal	ra,8a78 <memset>
    4cac:	02042823          	sw	zero,48(s0)
    4cb0:	02042a23          	sw	zero,52(s0)
    4cb4:	04042223          	sw	zero,68(s0)
    4cb8:	04042423          	sw	zero,72(s0)
    4cbc:	01c12083          	lw	ra,28(sp)
    4cc0:	00040513          	mv	a0,s0
    4cc4:	01812403          	lw	s0,24(sp)
    4cc8:	01412483          	lw	s1,20(sp)
    4ccc:	01012903          	lw	s2,16(sp)
    4cd0:	00c12983          	lw	s3,12(sp)
    4cd4:	00812a03          	lw	s4,8(sp)
    4cd8:	02010113          	addi	sp,sp,32
    4cdc:	00008067          	ret
    4ce0:	00092403          	lw	s0,0(s2)
    4ce4:	00040c63          	beqz	s0,4cfc <__sfp+0xec>
    4ce8:	00040913          	mv	s2,s0
    4cec:	f61ff06f          	j	4c4c <__sfp+0x3c>
    4cf0:	00090513          	mv	a0,s2
    4cf4:	d2dff0ef          	jal	ra,4a20 <__sinit.part.0>
    4cf8:	f49ff06f          	j	4c40 <__sfp+0x30>
    4cfc:	1ac00593          	li	a1,428
    4d00:	00098513          	mv	a0,s3
    4d04:	eedfb0ef          	jal	ra,bf0 <_malloc_r>
    4d08:	00050413          	mv	s0,a0
    4d0c:	02050663          	beqz	a0,4d38 <__sfp+0x128>
    4d10:	00c50513          	addi	a0,a0,12
    4d14:	00042023          	sw	zero,0(s0)
    4d18:	01442223          	sw	s4,4(s0)
    4d1c:	00a42423          	sw	a0,8(s0)
    4d20:	1a000613          	li	a2,416
    4d24:	00000593          	li	a1,0
    4d28:	551030ef          	jal	ra,8a78 <memset>
    4d2c:	00892023          	sw	s0,0(s2)
    4d30:	00040913          	mv	s2,s0
    4d34:	f19ff06f          	j	4c4c <__sfp+0x3c>
    4d38:	00092023          	sw	zero,0(s2)
    4d3c:	00c00793          	li	a5,12
    4d40:	00f9a023          	sw	a5,0(s3)
    4d44:	f79ff06f          	j	4cbc <__sfp+0xac>

00004d48 <_cleanup>:
    4d48:	000207b7          	lui	a5,0x20
    4d4c:	0107a503          	lw	a0,16(a5) # 20010 <_global_impure_ptr>
    4d50:	0000f5b7          	lui	a1,0xf
    4d54:	8f858593          	addi	a1,a1,-1800 # e8f8 <_fclose_r>
    4d58:	1f50006f          	j	574c <_fwalk_reent>

00004d5c <__sinit>:
    4d5c:	03852783          	lw	a5,56(a0)
    4d60:	00078463          	beqz	a5,4d68 <__sinit+0xc>
    4d64:	00008067          	ret
    4d68:	cb9ff06f          	j	4a20 <__sinit.part.0>

00004d6c <__sfp_lock_acquire>:
    4d6c:	00008067          	ret

00004d70 <__sfp_lock_release>:
    4d70:	00008067          	ret

00004d74 <__sinit_lock_acquire>:
    4d74:	00008067          	ret

00004d78 <__sinit_lock_release>:
    4d78:	00008067          	ret

00004d7c <__fp_lock_all>:
    4d7c:	000207b7          	lui	a5,0x20
    4d80:	0387a503          	lw	a0,56(a5) # 20038 <_impure_ptr>
    4d84:	000055b7          	lui	a1,0x5
    4d88:	a0458593          	addi	a1,a1,-1532 # 4a04 <__fp_lock>
    4d8c:	11d0006f          	j	56a8 <_fwalk>

00004d90 <__fp_unlock_all>:
    4d90:	000207b7          	lui	a5,0x20
    4d94:	0387a503          	lw	a0,56(a5) # 20038 <_impure_ptr>
    4d98:	000055b7          	lui	a1,0x5
    4d9c:	a1858593          	addi	a1,a1,-1512 # 4a18 <__fp_unlock>
    4da0:	1090006f          	j	56a8 <_fwalk>

00004da4 <_malloc_trim_r>:
    4da4:	fe010113          	addi	sp,sp,-32
    4da8:	01312623          	sw	s3,12(sp)
    4dac:	000219b7          	lui	s3,0x21
    4db0:	00812c23          	sw	s0,24(sp)
    4db4:	00912a23          	sw	s1,20(sp)
    4db8:	01212823          	sw	s2,16(sp)
    4dbc:	01412423          	sw	s4,8(sp)
    4dc0:	00112e23          	sw	ra,28(sp)
    4dc4:	00058a13          	mv	s4,a1
    4dc8:	00050913          	mv	s2,a0
    4dcc:	49898993          	addi	s3,s3,1176 # 21498 <__malloc_av_>
    4dd0:	decfc0ef          	jal	ra,13bc <__malloc_lock>
    4dd4:	0089a703          	lw	a4,8(s3)
    4dd8:	000017b7          	lui	a5,0x1
    4ddc:	fef78413          	addi	s0,a5,-17 # fef <_malloc_r+0x3ff>
    4de0:	00472483          	lw	s1,4(a4)
    4de4:	41440433          	sub	s0,s0,s4
    4de8:	ffc4f493          	andi	s1,s1,-4
    4dec:	00940433          	add	s0,s0,s1
    4df0:	00c45413          	srli	s0,s0,0xc
    4df4:	fff40413          	addi	s0,s0,-1
    4df8:	00c41413          	slli	s0,s0,0xc
    4dfc:	00f44e63          	blt	s0,a5,4e18 <_malloc_trim_r+0x74>
    4e00:	00000593          	li	a1,0
    4e04:	00090513          	mv	a0,s2
    4e08:	889fc0ef          	jal	ra,1690 <_sbrk_r>
    4e0c:	0089a783          	lw	a5,8(s3)
    4e10:	009787b3          	add	a5,a5,s1
    4e14:	02f50863          	beq	a0,a5,4e44 <_malloc_trim_r+0xa0>
    4e18:	00090513          	mv	a0,s2
    4e1c:	da4fc0ef          	jal	ra,13c0 <__malloc_unlock>
    4e20:	01c12083          	lw	ra,28(sp)
    4e24:	01812403          	lw	s0,24(sp)
    4e28:	01412483          	lw	s1,20(sp)
    4e2c:	01012903          	lw	s2,16(sp)
    4e30:	00c12983          	lw	s3,12(sp)
    4e34:	00812a03          	lw	s4,8(sp)
    4e38:	00000513          	li	a0,0
    4e3c:	02010113          	addi	sp,sp,32
    4e40:	00008067          	ret
    4e44:	408005b3          	neg	a1,s0
    4e48:	00090513          	mv	a0,s2
    4e4c:	845fc0ef          	jal	ra,1690 <_sbrk_r>
    4e50:	fff00793          	li	a5,-1
    4e54:	04f50a63          	beq	a0,a5,4ea8 <_malloc_trim_r+0x104>
    4e58:	000247b7          	lui	a5,0x24
    4e5c:	65c78793          	addi	a5,a5,1628 # 2465c <__malloc_current_mallinfo>
    4e60:	0007a703          	lw	a4,0(a5)
    4e64:	0089a683          	lw	a3,8(s3)
    4e68:	408484b3          	sub	s1,s1,s0
    4e6c:	0014e493          	ori	s1,s1,1
    4e70:	40870733          	sub	a4,a4,s0
    4e74:	00090513          	mv	a0,s2
    4e78:	0096a223          	sw	s1,4(a3) # 1004 <_malloc_r+0x414>
    4e7c:	00e7a023          	sw	a4,0(a5)
    4e80:	d40fc0ef          	jal	ra,13c0 <__malloc_unlock>
    4e84:	01c12083          	lw	ra,28(sp)
    4e88:	01812403          	lw	s0,24(sp)
    4e8c:	01412483          	lw	s1,20(sp)
    4e90:	01012903          	lw	s2,16(sp)
    4e94:	00c12983          	lw	s3,12(sp)
    4e98:	00812a03          	lw	s4,8(sp)
    4e9c:	00100513          	li	a0,1
    4ea0:	02010113          	addi	sp,sp,32
    4ea4:	00008067          	ret
    4ea8:	00000593          	li	a1,0
    4eac:	00090513          	mv	a0,s2
    4eb0:	fe0fc0ef          	jal	ra,1690 <_sbrk_r>
    4eb4:	0089a703          	lw	a4,8(s3)
    4eb8:	00f00693          	li	a3,15
    4ebc:	40e507b3          	sub	a5,a0,a4
    4ec0:	f4f6dce3          	bge	a3,a5,4e18 <_malloc_trim_r+0x74>
    4ec4:	000206b7          	lui	a3,0x20
    4ec8:	0306a683          	lw	a3,48(a3) # 20030 <__malloc_sbrk_base>
    4ecc:	0017e793          	ori	a5,a5,1
    4ed0:	00f72223          	sw	a5,4(a4)
    4ed4:	40d50533          	sub	a0,a0,a3
    4ed8:	000246b7          	lui	a3,0x24
    4edc:	64a6ae23          	sw	a0,1628(a3) # 2465c <__malloc_current_mallinfo>
    4ee0:	f39ff06f          	j	4e18 <_malloc_trim_r+0x74>

00004ee4 <_free_r>:
    4ee4:	12058a63          	beqz	a1,5018 <_free_r+0x134>
    4ee8:	ff010113          	addi	sp,sp,-16
    4eec:	00812423          	sw	s0,8(sp)
    4ef0:	00912223          	sw	s1,4(sp)
    4ef4:	00058413          	mv	s0,a1
    4ef8:	00050493          	mv	s1,a0
    4efc:	00112623          	sw	ra,12(sp)
    4f00:	cbcfc0ef          	jal	ra,13bc <__malloc_lock>
    4f04:	ffc42803          	lw	a6,-4(s0)
    4f08:	ff840713          	addi	a4,s0,-8
    4f0c:	000215b7          	lui	a1,0x21
    4f10:	ffe87793          	andi	a5,a6,-2
    4f14:	00f70633          	add	a2,a4,a5
    4f18:	49858593          	addi	a1,a1,1176 # 21498 <__malloc_av_>
    4f1c:	00462683          	lw	a3,4(a2)
    4f20:	0085a503          	lw	a0,8(a1)
    4f24:	ffc6f693          	andi	a3,a3,-4
    4f28:	1ac50a63          	beq	a0,a2,50dc <_free_r+0x1f8>
    4f2c:	00d62223          	sw	a3,4(a2)
    4f30:	00187813          	andi	a6,a6,1
    4f34:	00d60533          	add	a0,a2,a3
    4f38:	0a081063          	bnez	a6,4fd8 <_free_r+0xf4>
    4f3c:	ff842303          	lw	t1,-8(s0)
    4f40:	00452803          	lw	a6,4(a0)
    4f44:	00021537          	lui	a0,0x21
    4f48:	40670733          	sub	a4,a4,t1
    4f4c:	00872883          	lw	a7,8(a4)
    4f50:	4a050513          	addi	a0,a0,1184 # 214a0 <__malloc_av_+0x8>
    4f54:	006787b3          	add	a5,a5,t1
    4f58:	00187813          	andi	a6,a6,1
    4f5c:	14a88063          	beq	a7,a0,509c <_free_r+0x1b8>
    4f60:	00c72303          	lw	t1,12(a4)
    4f64:	0068a623          	sw	t1,12(a7)
    4f68:	01132423          	sw	a7,8(t1)
    4f6c:	1e080463          	beqz	a6,5154 <_free_r+0x270>
    4f70:	0017e693          	ori	a3,a5,1
    4f74:	00d72223          	sw	a3,4(a4)
    4f78:	00f62023          	sw	a5,0(a2)
    4f7c:	1ff00693          	li	a3,511
    4f80:	0af6e863          	bltu	a3,a5,5030 <_free_r+0x14c>
    4f84:	ff87f693          	andi	a3,a5,-8
    4f88:	00868693          	addi	a3,a3,8
    4f8c:	0045a503          	lw	a0,4(a1)
    4f90:	00d586b3          	add	a3,a1,a3
    4f94:	0006a603          	lw	a2,0(a3)
    4f98:	0057d813          	srli	a6,a5,0x5
    4f9c:	00100793          	li	a5,1
    4fa0:	010797b3          	sll	a5,a5,a6
    4fa4:	00a7e7b3          	or	a5,a5,a0
    4fa8:	ff868513          	addi	a0,a3,-8
    4fac:	00a72623          	sw	a0,12(a4)
    4fb0:	00c72423          	sw	a2,8(a4)
    4fb4:	00f5a223          	sw	a5,4(a1)
    4fb8:	00e6a023          	sw	a4,0(a3)
    4fbc:	00e62623          	sw	a4,12(a2)
    4fc0:	00812403          	lw	s0,8(sp)
    4fc4:	00c12083          	lw	ra,12(sp)
    4fc8:	00048513          	mv	a0,s1
    4fcc:	00412483          	lw	s1,4(sp)
    4fd0:	01010113          	addi	sp,sp,16
    4fd4:	becfc06f          	j	13c0 <__malloc_unlock>
    4fd8:	00452503          	lw	a0,4(a0)
    4fdc:	00157513          	andi	a0,a0,1
    4fe0:	02051e63          	bnez	a0,501c <_free_r+0x138>
    4fe4:	00021537          	lui	a0,0x21
    4fe8:	00d787b3          	add	a5,a5,a3
    4fec:	4a050513          	addi	a0,a0,1184 # 214a0 <__malloc_av_+0x8>
    4ff0:	00862683          	lw	a3,8(a2)
    4ff4:	0017e893          	ori	a7,a5,1
    4ff8:	00f70833          	add	a6,a4,a5
    4ffc:	16a68863          	beq	a3,a0,516c <_free_r+0x288>
    5000:	00c62603          	lw	a2,12(a2)
    5004:	00c6a623          	sw	a2,12(a3)
    5008:	00d62423          	sw	a3,8(a2)
    500c:	01172223          	sw	a7,4(a4)
    5010:	00f82023          	sw	a5,0(a6)
    5014:	f69ff06f          	j	4f7c <_free_r+0x98>
    5018:	00008067          	ret
    501c:	0017e693          	ori	a3,a5,1
    5020:	fed42e23          	sw	a3,-4(s0)
    5024:	00f62023          	sw	a5,0(a2)
    5028:	1ff00693          	li	a3,511
    502c:	f4f6fce3          	bgeu	a3,a5,4f84 <_free_r+0xa0>
    5030:	0097d693          	srli	a3,a5,0x9
    5034:	00400613          	li	a2,4
    5038:	0ed66c63          	bltu	a2,a3,5130 <_free_r+0x24c>
    503c:	0067d693          	srli	a3,a5,0x6
    5040:	03968813          	addi	a6,a3,57
    5044:	03868613          	addi	a2,a3,56
    5048:	00381813          	slli	a6,a6,0x3
    504c:	01058833          	add	a6,a1,a6
    5050:	00082683          	lw	a3,0(a6)
    5054:	ff880813          	addi	a6,a6,-8
    5058:	12d80863          	beq	a6,a3,5188 <_free_r+0x2a4>
    505c:	0046a603          	lw	a2,4(a3)
    5060:	ffc67613          	andi	a2,a2,-4
    5064:	00c7f663          	bgeu	a5,a2,5070 <_free_r+0x18c>
    5068:	0086a683          	lw	a3,8(a3)
    506c:	fed818e3          	bne	a6,a3,505c <_free_r+0x178>
    5070:	00c6a803          	lw	a6,12(a3)
    5074:	01072623          	sw	a6,12(a4)
    5078:	00d72423          	sw	a3,8(a4)
    507c:	00812403          	lw	s0,8(sp)
    5080:	00c12083          	lw	ra,12(sp)
    5084:	00e82423          	sw	a4,8(a6)
    5088:	00048513          	mv	a0,s1
    508c:	00412483          	lw	s1,4(sp)
    5090:	00e6a623          	sw	a4,12(a3)
    5094:	01010113          	addi	sp,sp,16
    5098:	b28fc06f          	j	13c0 <__malloc_unlock>
    509c:	14081663          	bnez	a6,51e8 <_free_r+0x304>
    50a0:	00c62583          	lw	a1,12(a2)
    50a4:	00862603          	lw	a2,8(a2)
    50a8:	00f686b3          	add	a3,a3,a5
    50ac:	00812403          	lw	s0,8(sp)
    50b0:	00b62623          	sw	a1,12(a2)
    50b4:	00c5a423          	sw	a2,8(a1)
    50b8:	0016e793          	ori	a5,a3,1
    50bc:	00c12083          	lw	ra,12(sp)
    50c0:	00f72223          	sw	a5,4(a4)
    50c4:	00048513          	mv	a0,s1
    50c8:	00d70733          	add	a4,a4,a3
    50cc:	00412483          	lw	s1,4(sp)
    50d0:	00d72023          	sw	a3,0(a4)
    50d4:	01010113          	addi	sp,sp,16
    50d8:	ae8fc06f          	j	13c0 <__malloc_unlock>
    50dc:	00187813          	andi	a6,a6,1
    50e0:	00d786b3          	add	a3,a5,a3
    50e4:	02081063          	bnez	a6,5104 <_free_r+0x220>
    50e8:	ff842503          	lw	a0,-8(s0)
    50ec:	40a70733          	sub	a4,a4,a0
    50f0:	00c72783          	lw	a5,12(a4)
    50f4:	00872603          	lw	a2,8(a4)
    50f8:	00a686b3          	add	a3,a3,a0
    50fc:	00f62623          	sw	a5,12(a2)
    5100:	00c7a423          	sw	a2,8(a5)
    5104:	000207b7          	lui	a5,0x20
    5108:	0016e613          	ori	a2,a3,1
    510c:	0347a783          	lw	a5,52(a5) # 20034 <__malloc_trim_threshold>
    5110:	00c72223          	sw	a2,4(a4)
    5114:	00e5a423          	sw	a4,8(a1)
    5118:	eaf6e4e3          	bltu	a3,a5,4fc0 <_free_r+0xdc>
    511c:	000227b7          	lui	a5,0x22
    5120:	e747a583          	lw	a1,-396(a5) # 21e74 <__malloc_top_pad>
    5124:	00048513          	mv	a0,s1
    5128:	c7dff0ef          	jal	ra,4da4 <_malloc_trim_r>
    512c:	e95ff06f          	j	4fc0 <_free_r+0xdc>
    5130:	01400613          	li	a2,20
    5134:	02d67463          	bgeu	a2,a3,515c <_free_r+0x278>
    5138:	05400613          	li	a2,84
    513c:	06d66463          	bltu	a2,a3,51a4 <_free_r+0x2c0>
    5140:	00c7d693          	srli	a3,a5,0xc
    5144:	06f68813          	addi	a6,a3,111
    5148:	06e68613          	addi	a2,a3,110
    514c:	00381813          	slli	a6,a6,0x3
    5150:	efdff06f          	j	504c <_free_r+0x168>
    5154:	00d787b3          	add	a5,a5,a3
    5158:	e99ff06f          	j	4ff0 <_free_r+0x10c>
    515c:	05c68813          	addi	a6,a3,92
    5160:	05b68613          	addi	a2,a3,91
    5164:	00381813          	slli	a6,a6,0x3
    5168:	ee5ff06f          	j	504c <_free_r+0x168>
    516c:	00e5aa23          	sw	a4,20(a1)
    5170:	00e5a823          	sw	a4,16(a1)
    5174:	00a72623          	sw	a0,12(a4)
    5178:	00a72423          	sw	a0,8(a4)
    517c:	01172223          	sw	a7,4(a4)
    5180:	00f82023          	sw	a5,0(a6)
    5184:	e3dff06f          	j	4fc0 <_free_r+0xdc>
    5188:	0045a503          	lw	a0,4(a1)
    518c:	40265613          	srai	a2,a2,0x2
    5190:	00100793          	li	a5,1
    5194:	00c797b3          	sll	a5,a5,a2
    5198:	00a7e7b3          	or	a5,a5,a0
    519c:	00f5a223          	sw	a5,4(a1)
    51a0:	ed5ff06f          	j	5074 <_free_r+0x190>
    51a4:	15400613          	li	a2,340
    51a8:	00d66c63          	bltu	a2,a3,51c0 <_free_r+0x2dc>
    51ac:	00f7d693          	srli	a3,a5,0xf
    51b0:	07868813          	addi	a6,a3,120
    51b4:	07768613          	addi	a2,a3,119
    51b8:	00381813          	slli	a6,a6,0x3
    51bc:	e91ff06f          	j	504c <_free_r+0x168>
    51c0:	55400613          	li	a2,1364
    51c4:	00d66c63          	bltu	a2,a3,51dc <_free_r+0x2f8>
    51c8:	0127d693          	srli	a3,a5,0x12
    51cc:	07d68813          	addi	a6,a3,125
    51d0:	07c68613          	addi	a2,a3,124
    51d4:	00381813          	slli	a6,a6,0x3
    51d8:	e75ff06f          	j	504c <_free_r+0x168>
    51dc:	3f800813          	li	a6,1016
    51e0:	07e00613          	li	a2,126
    51e4:	e69ff06f          	j	504c <_free_r+0x168>
    51e8:	0017e693          	ori	a3,a5,1
    51ec:	00d72223          	sw	a3,4(a4)
    51f0:	00f62023          	sw	a5,0(a2)
    51f4:	dcdff06f          	j	4fc0 <_free_r+0xdc>

000051f8 <__sfvwrite_r>:
    51f8:	00862783          	lw	a5,8(a2)
    51fc:	32078063          	beqz	a5,551c <__sfvwrite_r+0x324>
    5200:	00c5d683          	lhu	a3,12(a1)
    5204:	fd010113          	addi	sp,sp,-48
    5208:	02812423          	sw	s0,40(sp)
    520c:	01412c23          	sw	s4,24(sp)
    5210:	01712623          	sw	s7,12(sp)
    5214:	02112623          	sw	ra,44(sp)
    5218:	02912223          	sw	s1,36(sp)
    521c:	03212023          	sw	s2,32(sp)
    5220:	01312e23          	sw	s3,28(sp)
    5224:	01512a23          	sw	s5,20(sp)
    5228:	01612823          	sw	s6,16(sp)
    522c:	01812423          	sw	s8,8(sp)
    5230:	01912223          	sw	s9,4(sp)
    5234:	01a12023          	sw	s10,0(sp)
    5238:	0086f793          	andi	a5,a3,8
    523c:	00060b93          	mv	s7,a2
    5240:	00050a13          	mv	s4,a0
    5244:	00058413          	mv	s0,a1
    5248:	08078663          	beqz	a5,52d4 <__sfvwrite_r+0xdc>
    524c:	0105a783          	lw	a5,16(a1)
    5250:	08078263          	beqz	a5,52d4 <__sfvwrite_r+0xdc>
    5254:	0026f793          	andi	a5,a3,2
    5258:	000ba483          	lw	s1,0(s7)
    525c:	08078c63          	beqz	a5,52f4 <__sfvwrite_r+0xfc>
    5260:	02442783          	lw	a5,36(s0)
    5264:	01c42583          	lw	a1,28(s0)
    5268:	80000ab7          	lui	s5,0x80000
    526c:	00000993          	li	s3,0
    5270:	00000913          	li	s2,0
    5274:	c00aca93          	xori	s5,s5,-1024
    5278:	00098613          	mv	a2,s3
    527c:	000a0513          	mv	a0,s4
    5280:	04090263          	beqz	s2,52c4 <__sfvwrite_r+0xcc>
    5284:	00090693          	mv	a3,s2
    5288:	012af463          	bgeu	s5,s2,5290 <__sfvwrite_r+0x98>
    528c:	000a8693          	mv	a3,s5
    5290:	000780e7          	jalr	a5
    5294:	26a05a63          	blez	a0,5508 <__sfvwrite_r+0x310>
    5298:	008ba783          	lw	a5,8(s7)
    529c:	00a989b3          	add	s3,s3,a0
    52a0:	40a90933          	sub	s2,s2,a0
    52a4:	40a787b3          	sub	a5,a5,a0
    52a8:	00fba423          	sw	a5,8(s7)
    52ac:	20078863          	beqz	a5,54bc <__sfvwrite_r+0x2c4>
    52b0:	02442783          	lw	a5,36(s0)
    52b4:	01c42583          	lw	a1,28(s0)
    52b8:	00098613          	mv	a2,s3
    52bc:	000a0513          	mv	a0,s4
    52c0:	fc0912e3          	bnez	s2,5284 <__sfvwrite_r+0x8c>
    52c4:	0004a983          	lw	s3,0(s1)
    52c8:	0044a903          	lw	s2,4(s1)
    52cc:	00848493          	addi	s1,s1,8
    52d0:	fa9ff06f          	j	5278 <__sfvwrite_r+0x80>
    52d4:	00040593          	mv	a1,s0
    52d8:	000a0513          	mv	a0,s4
    52dc:	a74ff0ef          	jal	ra,4550 <__swsetup_r>
    52e0:	3c051063          	bnez	a0,56a0 <__sfvwrite_r+0x4a8>
    52e4:	00c45683          	lhu	a3,12(s0)
    52e8:	000ba483          	lw	s1,0(s7)
    52ec:	0026f793          	andi	a5,a3,2
    52f0:	f60798e3          	bnez	a5,5260 <__sfvwrite_r+0x68>
    52f4:	0016f793          	andi	a5,a3,1
    52f8:	12079e63          	bnez	a5,5434 <__sfvwrite_r+0x23c>
    52fc:	00042783          	lw	a5,0(s0)
    5300:	00842703          	lw	a4,8(s0)
    5304:	80000ab7          	lui	s5,0x80000
    5308:	ffeacb13          	xori	s6,s5,-2
    530c:	00000c13          	li	s8,0
    5310:	00000993          	li	s3,0
    5314:	fffaca93          	not	s5,s5
    5318:	00078513          	mv	a0,a5
    531c:	00070c93          	mv	s9,a4
    5320:	10098263          	beqz	s3,5424 <__sfvwrite_r+0x22c>
    5324:	2006f613          	andi	a2,a3,512
    5328:	24060e63          	beqz	a2,5584 <__sfvwrite_r+0x38c>
    532c:	00070d13          	mv	s10,a4
    5330:	2ee9e663          	bltu	s3,a4,561c <__sfvwrite_r+0x424>
    5334:	4806f713          	andi	a4,a3,1152
    5338:	08070a63          	beqz	a4,53cc <__sfvwrite_r+0x1d4>
    533c:	01442603          	lw	a2,20(s0)
    5340:	01042583          	lw	a1,16(s0)
    5344:	00161713          	slli	a4,a2,0x1
    5348:	00c70733          	add	a4,a4,a2
    534c:	40b78933          	sub	s2,a5,a1
    5350:	01f75c93          	srli	s9,a4,0x1f
    5354:	00ec8cb3          	add	s9,s9,a4
    5358:	00190793          	addi	a5,s2,1
    535c:	401cdc93          	srai	s9,s9,0x1
    5360:	013787b3          	add	a5,a5,s3
    5364:	000c8613          	mv	a2,s9
    5368:	00fcf663          	bgeu	s9,a5,5374 <__sfvwrite_r+0x17c>
    536c:	00078c93          	mv	s9,a5
    5370:	00078613          	mv	a2,a5
    5374:	4006f693          	andi	a3,a3,1024
    5378:	2c068e63          	beqz	a3,5654 <__sfvwrite_r+0x45c>
    537c:	00060593          	mv	a1,a2
    5380:	000a0513          	mv	a0,s4
    5384:	86dfb0ef          	jal	ra,bf0 <_malloc_r>
    5388:	00050d13          	mv	s10,a0
    538c:	30050263          	beqz	a0,5690 <__sfvwrite_r+0x498>
    5390:	01042583          	lw	a1,16(s0)
    5394:	00090613          	mv	a2,s2
    5398:	498030ef          	jal	ra,8830 <memcpy>
    539c:	00c45783          	lhu	a5,12(s0)
    53a0:	b7f7f793          	andi	a5,a5,-1153
    53a4:	0807e793          	ori	a5,a5,128
    53a8:	00f41623          	sh	a5,12(s0)
    53ac:	012d0533          	add	a0,s10,s2
    53b0:	412c87b3          	sub	a5,s9,s2
    53b4:	01a42823          	sw	s10,16(s0)
    53b8:	01942a23          	sw	s9,20(s0)
    53bc:	00a42023          	sw	a0,0(s0)
    53c0:	00098c93          	mv	s9,s3
    53c4:	00f42423          	sw	a5,8(s0)
    53c8:	00098d13          	mv	s10,s3
    53cc:	000d0613          	mv	a2,s10
    53d0:	000c0593          	mv	a1,s8
    53d4:	584030ef          	jal	ra,8958 <memmove>
    53d8:	00842703          	lw	a4,8(s0)
    53dc:	00042783          	lw	a5,0(s0)
    53e0:	00098913          	mv	s2,s3
    53e4:	41970733          	sub	a4,a4,s9
    53e8:	01a787b3          	add	a5,a5,s10
    53ec:	00e42423          	sw	a4,8(s0)
    53f0:	00f42023          	sw	a5,0(s0)
    53f4:	00000993          	li	s3,0
    53f8:	008ba783          	lw	a5,8(s7)
    53fc:	012c0c33          	add	s8,s8,s2
    5400:	412787b3          	sub	a5,a5,s2
    5404:	00fba423          	sw	a5,8(s7)
    5408:	0a078a63          	beqz	a5,54bc <__sfvwrite_r+0x2c4>
    540c:	00042783          	lw	a5,0(s0)
    5410:	00842703          	lw	a4,8(s0)
    5414:	00c45683          	lhu	a3,12(s0)
    5418:	00078513          	mv	a0,a5
    541c:	00070c93          	mv	s9,a4
    5420:	f00992e3          	bnez	s3,5324 <__sfvwrite_r+0x12c>
    5424:	0004ac03          	lw	s8,0(s1)
    5428:	0044a983          	lw	s3,4(s1)
    542c:	00848493          	addi	s1,s1,8
    5430:	ee9ff06f          	j	5318 <__sfvwrite_r+0x120>
    5434:	00000a93          	li	s5,0
    5438:	00000513          	li	a0,0
    543c:	00000c13          	li	s8,0
    5440:	00000993          	li	s3,0
    5444:	0e098063          	beqz	s3,5524 <__sfvwrite_r+0x32c>
    5448:	0e050863          	beqz	a0,5538 <__sfvwrite_r+0x340>
    544c:	000a8793          	mv	a5,s5
    5450:	00098b13          	mv	s6,s3
    5454:	0137f463          	bgeu	a5,s3,545c <__sfvwrite_r+0x264>
    5458:	00078b13          	mv	s6,a5
    545c:	00042503          	lw	a0,0(s0)
    5460:	01042783          	lw	a5,16(s0)
    5464:	00842903          	lw	s2,8(s0)
    5468:	01442683          	lw	a3,20(s0)
    546c:	00a7f663          	bgeu	a5,a0,5478 <__sfvwrite_r+0x280>
    5470:	00d90933          	add	s2,s2,a3
    5474:	0f694263          	blt	s2,s6,5558 <__sfvwrite_r+0x360>
    5478:	1adb4863          	blt	s6,a3,5628 <__sfvwrite_r+0x430>
    547c:	02442783          	lw	a5,36(s0)
    5480:	01c42583          	lw	a1,28(s0)
    5484:	000c0613          	mv	a2,s8
    5488:	000a0513          	mv	a0,s4
    548c:	000780e7          	jalr	a5
    5490:	00050913          	mv	s2,a0
    5494:	06a05a63          	blez	a0,5508 <__sfvwrite_r+0x310>
    5498:	412a8ab3          	sub	s5,s5,s2
    549c:	00100513          	li	a0,1
    54a0:	040a8c63          	beqz	s5,54f8 <__sfvwrite_r+0x300>
    54a4:	008ba783          	lw	a5,8(s7)
    54a8:	012c0c33          	add	s8,s8,s2
    54ac:	412989b3          	sub	s3,s3,s2
    54b0:	412787b3          	sub	a5,a5,s2
    54b4:	00fba423          	sw	a5,8(s7)
    54b8:	f80796e3          	bnez	a5,5444 <__sfvwrite_r+0x24c>
    54bc:	00000513          	li	a0,0
    54c0:	02c12083          	lw	ra,44(sp)
    54c4:	02812403          	lw	s0,40(sp)
    54c8:	02412483          	lw	s1,36(sp)
    54cc:	02012903          	lw	s2,32(sp)
    54d0:	01c12983          	lw	s3,28(sp)
    54d4:	01812a03          	lw	s4,24(sp)
    54d8:	01412a83          	lw	s5,20(sp)
    54dc:	01012b03          	lw	s6,16(sp)
    54e0:	00c12b83          	lw	s7,12(sp)
    54e4:	00812c03          	lw	s8,8(sp)
    54e8:	00412c83          	lw	s9,4(sp)
    54ec:	00012d03          	lw	s10,0(sp)
    54f0:	03010113          	addi	sp,sp,48
    54f4:	00008067          	ret
    54f8:	00040593          	mv	a1,s0
    54fc:	000a0513          	mv	a0,s4
    5500:	c20ff0ef          	jal	ra,4920 <_fflush_r>
    5504:	fa0500e3          	beqz	a0,54a4 <__sfvwrite_r+0x2ac>
    5508:	00c41783          	lh	a5,12(s0)
    550c:	0407e793          	ori	a5,a5,64
    5510:	00f41623          	sh	a5,12(s0)
    5514:	fff00513          	li	a0,-1
    5518:	fa9ff06f          	j	54c0 <__sfvwrite_r+0x2c8>
    551c:	00000513          	li	a0,0
    5520:	00008067          	ret
    5524:	0044a983          	lw	s3,4(s1)
    5528:	00048793          	mv	a5,s1
    552c:	00848493          	addi	s1,s1,8
    5530:	fe098ae3          	beqz	s3,5524 <__sfvwrite_r+0x32c>
    5534:	0007ac03          	lw	s8,0(a5)
    5538:	00098613          	mv	a2,s3
    553c:	00a00593          	li	a1,10
    5540:	000c0513          	mv	a0,s8
    5544:	224030ef          	jal	ra,8768 <memchr>
    5548:	12050e63          	beqz	a0,5684 <__sfvwrite_r+0x48c>
    554c:	00150513          	addi	a0,a0,1
    5550:	41850ab3          	sub	s5,a0,s8
    5554:	ef9ff06f          	j	544c <__sfvwrite_r+0x254>
    5558:	000c0593          	mv	a1,s8
